 PhysXGpu_64

 Timestamp is 68e05e38 (Fri Oct  3 16:37:28 2025)

 Preferred load address is 0000000180000000

 Start         Length     Name                   Class
 0001:00000000 00001fd0H .text$di                CODE
 0001:00001fd0 0010e9d0H .text$mn                CODE
 0001:001109a0 00000036H .text$mn$00             CODE
 0001:001109d6 00000092H .text$x                 CODE
 0002:00000000 00000238H .idata$5                DATA
 0002:00000238 00000028H .00cfg                  DATA
 0002:00000260 00000008H .CRT$XCA                DATA
 0002:00000268 000001e8H .CRT$XCT                DATA
 0002:00000450 00000fb0H .CRT$XCU                DATA
 0002:00001400 00000008H .CRT$XCZ                DATA
 0002:00001408 00000008H .CRT$XIA                DATA
 0002:00001410 00000008H .CRT$XIZ                DATA
 0002:00001418 00000008H .CRT$XLA                DATA
 0002:00001420 00000008H .CRT$XLZ                DATA
 0002:00001428 00000008H .CRT$XPA                DATA
 0002:00001430 00000008H .CRT$XPZ                DATA
 0002:00001438 00000008H .CRT$XTA                DATA
 0002:00001440 00000010H .CRT$XTZ                DATA
 0002:00001448 00000000H .gehcont$y              DATA
 0002:00001448 00000000H .gfids$y                DATA
 0002:00001450 0001bf30H .rdata                  DATA
 0002:0001d380 00000000H .rdata$CastGuardVftablesA DATA
 0002:0001d380 00000000H .rdata$CastGuardVftablesC DATA
 0002:0001d380 00000028H .rdata$T                DATA
 0002:0001d3a8 00000074H .rdata$r                DATA
 0002:0001d41c 00000510H .rdata$voltmd           DATA
 0002:0001d92c 00000484H .rdata$zzzdbg           DATA
 0002:0001ddb0 00000008H .rtc$IAA                DATA
 0002:0001ddb8 00000008H .rtc$IZZ                DATA
 0002:0001ddc0 00000008H .rtc$TAA                DATA
 0002:0001ddc8 00000008H .rtc$TZZ                DATA
 0002:0001ddd0 00000001H .tls                    DATA
 0002:0001ddd1 00000007H .tls$ZZZ                DATA
 0002:0001ddd8 0000cfa8H .xdata                  DATA
 0002:0002ad80 00000020H .didat$2                DATA
 0002:0002ada0 00000020H .didat$3                DATA
 0002:0002adc0 00000198H .didat$4                DATA
 0002:0002af58 000003e0H .didat$6                DATA
 0002:0002b338 00000198H .didat$7                DATA
 0002:0002b4d0 000001f4H .edata                  DATA
 0002:0002b6c4 000000a0H .idata$2                DATA
 0002:0002b764 00000014H .idata$3                DATA
 0002:0002b778 00000238H .idata$4                DATA
 0002:0002b9b0 000005b0H .idata$6                DATA
 0003:00000000 00001460H .data                   DATA
 0003:00001460 00001218H .data$r                 DATA
 0003:00002678 00000020H .data$rs                DATA
 0003:00002698 00000198H .didat$5                DATA
 0003:00002830 0000d0c8H .bss                    DATA
 0004:00000000 0000a77cH .pdata                  DATA
 0005:00000000 0f6c3340H .nv_fatbin              DATA
 0006:00000000 000005b8H .nvFatBinSegment        DATA
 0007:00000000 00002208H _RDATA                  DATA
 0008:00000000 000000a0H .rsrc$01                DATA
 0008:000000a0 00000498H .rsrc$02                DATA

  Address         Publics by Value              Rva+Base               Lib:Object

 0000:00000000       __hybrid_auxiliary_iat_copy 0000000000000000     <absolute>
 0000:00000000       __dynamic_value_reloc_table 0000000000000000     <absolute>
 0000:00000000       __guard_longjmp_count      0000000000000000     <absolute>
 0000:00000000       __guard_iat_count          0000000000000000     <absolute>
 0000:00000000       __AbsoluteZero             0000000000000000     <absolute>
 0000:00000000       __guard_iat_table          0000000000000000     <absolute>
 0000:00000000       __arm64x_redirection_metadata 0000000000000000     <absolute>
 0000:00000000       __guard_check_icall_a64n_fptr 0000000000000000     <absolute>
 0000:00000000       __guard_fids_table         0000000000000000     <absolute>
 0000:00000000       __x64_code_ranges_to_entry_points_count 0000000000000000     <absolute>
 0000:00000000       ___safe_se_handler_table   0000000000000000     <absolute>
 0000:00000000       __hybrid_auxiliary_iat     0000000000000000     <absolute>
 0000:00000000       __guard_longjmp_table      0000000000000000     <absolute>
 0000:00000000       __x64_code_ranges_to_entry_points 0000000000000000     <absolute>
 0000:00000000       __guard_fids_count         0000000000000000     <absolute>
 0000:00000000       __arm64x_redirection_metadata_count 0000000000000000     <absolute>
 0000:00000000       __enclave_config           0000000000000000     <absolute>
 0000:00000000       __arm64x_extra_rfe_table   0000000000000000     <absolute>
 0000:00000000       __hybrid_code_map          0000000000000000     <absolute>
 0000:00000000       __guard_eh_cont_table      0000000000000000     <absolute>
 0000:00000000       __arm64x_extra_rfe_table_size 0000000000000000     <absolute>
 0000:00000000       ___safe_se_handler_count   0000000000000000     <absolute>
 0000:00000000       __arm64x_native_entrypoint 0000000000000000     <absolute>
 0000:00000000       __hybrid_code_map_count    0000000000000000     <absolute>
 0000:00000000       __guard_eh_cont_count      0000000000000000     <absolute>
 0000:00000100       __guard_flags              0000000000000100     <absolute>
 0000:00000000       __ImageBase                0000000180000000     <linker-defined>
 0001:00001fd0       ??0PxgSparseGridIsosurfaceExtractor@physx@@QEAA@AEAVPxgKernelLauncher@1@UPxSparseGridParams@1@AEBUPxIsosurfaceParams@1@III@Z 0000000180002fd0 f i PxgPhysXGpu.obj
 0001:00002230       ??_E?$PxGpuRadixSort@I@physx@@UEAAPEAXI@Z 0000000180003230 f i PxgPhysXGpu.obj
 0001:00002230       ??_G?$PxGpuRadixSort@I@physx@@UEAAPEAXI@Z 0000000180003230 f i PxgPhysXGpu.obj
 0001:00002260       ??_EBoundsArray@Bp@physx@@UEAAPEAXI@Z 0000000180003260 f i PxgPhysXGpu.obj
 0001:00002260       ??_GBoundsArray@Bp@physx@@UEAAPEAXI@Z 0000000180003260 f i PxgPhysXGpu.obj
 0001:000022f0       ??_EPxIsosurfaceExtractor@physx@@UEAAPEAXI@Z 00000001800032f0 f i PxgPhysXGpu.obj
 0001:000022f0       ??_GPxAnisotropyGenerator@physx@@UEAAPEAXI@Z 00000001800032f0 f i PxgAnisotropy.obj
 0001:000022f0       ??_EPxAnisotropyGenerator@physx@@UEAAPEAXI@Z 00000001800032f0 f i PxgAnisotropy.obj
 0001:000022f0       ??_GPxIsosurfaceExtractor@physx@@UEAAPEAXI@Z 00000001800032f0 f i PxgPhysXGpu.obj
 0001:00002320       ??_GPxPhysXGpu@physx@@MEAAPEAXI@Z 0000000180003320 f i PxgPhysXGpu.obj
 0001:00002320       ??_EPxPhysXGpu@physx@@MEAAPEAXI@Z 0000000180003320 f i PxgPhysXGpu.obj
 0001:00002350       ??_GPxPhysicsGpu@physx@@UEAAPEAXI@Z 0000000180003350 f i PxgPhysXGpu.obj
 0001:00002350       ??_EPxPhysicsGpu@physx@@UEAAPEAXI@Z 0000000180003350 f i PxgPhysXGpu.obj
 0001:00002380       ??_EPxgBoundsArray@physx@@UEAAPEAXI@Z 0000000180003380 f i PxgPhysXGpu.obj
 0001:00002380       ??_GPxgBoundsArray@physx@@UEAAPEAXI@Z 0000000180003380 f i PxgPhysXGpu.obj
 0001:00002440       ??_GPxgDenseGridIsosurfaceExtractor@physx@@UEAAPEAXI@Z 0000000180003440 f i PxgPhysXGpu.obj
 0001:00002440       ??_EPxgDenseGridIsosurfaceExtractor@physx@@UEAAPEAXI@Z 0000000180003440 f i PxgPhysXGpu.obj
 0001:000024a0       ??_EPxgPhysXGpu@physx@@EEAAPEAXI@Z 00000001800034a0 f i PxgPhysXGpu.obj
 0001:000024a0       ??_GPxgPhysXGpu@physx@@EEAAPEAXI@Z 00000001800034a0 f i PxgPhysXGpu.obj
 0001:00002540       ??_GPxgPhysicsGpu@@UEAAPEAXI@Z 0000000180003540 f i PxgPhysXGpu.obj
 0001:00002540       ??_EPxgPhysicsGpu@@UEAAPEAXI@Z 0000000180003540 f i PxgPhysXGpu.obj
 0001:00002590       ??_EPxgSharedIsosurfaceExtractor@physx@@UEAAPEAXI@Z 0000000180003590 f i PxgPhysXGpu.obj
 0001:00002590       ??_GPxgSharedIsosurfaceExtractor@physx@@UEAAPEAXI@Z 0000000180003590 f i PxgPhysXGpu.obj
 0001:000025c0       ??_EPxgSparseGridIsosurfaceExtractor@physx@@UEAAPEAXI@Z 00000001800035c0 f i PxgPhysXGpu.obj
 0001:000025c0       ??_GPxgSparseGridIsosurfaceExtractor@physx@@UEAAPEAXI@Z 00000001800035c0 f i PxgPhysXGpu.obj
 0001:00002680       ??_I@YAXPEAX_K1P6AX0@Z@Z   0000000180003680 f i PxgPhysXGpu.obj
 0001:000026e0       ?removeSoftBodyAttachment@PxsSimulationController@physx@@UEAAXPEAVDeformableVolume@Dy@2@I@Z 00000001800036e0 f i PxgSimulationController.obj
 0001:000026e0       ?addParticleFilter@PxsSimulationController@physx@@UEAAXPEAVDeformableVolume@Dy@2@PEAVParticleSystem@42@III@Z 00000001800036e0 f i PxgSimulationController.obj
 0001:000026e0       ?setSoftBodyWakeCounter@PxsSimulationController@physx@@UEAAXPEAVDeformableVolume@Dy@2@@Z 00000001800036e0 f i PxgSimulationController.obj
 0001:000026e0       ?removeClothFilter@PxsSimulationController@physx@@UEAAXPEAVDeformableVolume@Dy@2@PEAVDeformableSurface@42@II@Z 00000001800036e0 f i PxgSimulationController.obj
 0001:000026e0       ?removeRigidAttachment@PxsSimulationController@physx@@UEAAXPEAVDeformableVolume@Dy@2@I@Z 00000001800036e0 f i PxgSimulationController.obj
 0001:000026e0       ?addRigidFilter@PxsSimulationController@physx@@UEAAXPEAVDeformableVolume@Dy@2@AEBVPxNodeIndex@2@I@Z 00000001800036e0 f i PxgSimulationController.obj
 0001:000026e0       ?activateSoftbody@PxsSimulationController@physx@@UEAAXPEAVDeformableVolume@Dy@2@@Z 00000001800036e0 f i PxgSimulationController.obj
 0001:000026e0       ?appendContactManagers@PxgNphaseImplementationContext@physx@@UEAAXXZ 00000001800036e0 f i PxgNphaseImplementationContext.obj
 0001:000026e0       ?removeClothAttachment@PxsSimulationController@physx@@UEAAXPEAVDeformableVolume@Dy@2@I@Z 00000001800036e0 f i PxgSimulationController.obj
 0001:000026e0       ?removeClothFilter@PxsSimulationController@physx@@UEAAXPEAVDeformableSurface@Dy@2@0II@Z 00000001800036e0 f i PxgSimulationController.obj
 0001:000026e0       ?addClothFilter@PxsSimulationController@physx@@UEAAXPEAVDeformableSurface@Dy@2@0II@Z 00000001800036e0 f i PxgSimulationController.obj
 0001:000026e0       ?addDynamics@PxsSimulationController@physx@@UEAAXPEAPEAVPxsRigidBody@2@PEBII@Z 00000001800036e0 f i PxgSimulationController.obj
 0001:000026e0       ?__global_delete@@YAXPEAX_K@Z 00000001800036e0 f i PxgPhysXGpu.obj
 0001:000026e0       ?removeVertClothFilter@PxsSimulationController@physx@@UEAAXPEAVDeformableVolume@Dy@2@PEAVDeformableSurface@42@II@Z 00000001800036e0 f i PxgSimulationController.obj
 0001:000026e0       ?removeTriRigidFilter@PxsSimulationController@physx@@UEAAXPEAVDeformableSurface@Dy@2@AEBVPxNodeIndex@2@I@Z 00000001800036e0 f i PxgSimulationController.obj
 0001:000026e0       ?deactivateCloth@PxsSimulationController@physx@@UEAAXPEAVDeformableSurface@Dy@2@@Z 00000001800036e0 f i PxgSimulationController.obj
 0001:000026e0       ?removeParticleAttachment@PxsSimulationController@physx@@UEAAXPEAVDeformableVolume@Dy@2@I@Z 00000001800036e0 f i PxgSimulationController.obj
 0001:000026e0       ?clearOutOfBoundsObjects@AABBManagerBase@Bp@physx@@UEAAXXZ 00000001800036e0 f i PxgAABBManager.obj
 0001:000026e0       ?updateArticulation@PxsSimulationController@physx@@UEAAXPEAVFeatherstoneArticulation@Dy@2@AEBVPxNodeIndex@2@@Z 00000001800036e0 f i PxgSimulationController.obj
 0001:000026e0       ?addTetRigidFilter@PxsSimulationController@physx@@UEAAXPEAVDeformableVolume@Dy@2@AEBVPxNodeIndex@2@I@Z 00000001800036e0 f i PxgSimulationController.obj
 0001:000026e0       ?activateCloth@PxsSimulationController@physx@@UEAAXPEAVDeformableSurface@Dy@2@@Z 00000001800036e0 f i PxgSimulationController.obj
 0001:000026e0       ?setDeformableVolumeGpuPostSolveCallback@PxsSimulationController@physx@@UEAAXPEAVPxPostSolveCallback@2@@Z 00000001800036e0 f i PxgSimulationController.obj
 0001:000026e0       ?syncParticleData@PxsSimulationController@physx@@UEAAXXZ 00000001800036e0 f i PxgSimulationController.obj
 0001:000026e0       ?updateParticleSystemsAndSoftBodies@PxsSimulationController@physx@@UEAAXXZ 00000001800036e0 f i PxgSimulationController.obj
 0001:000026e0       ?addDynamic@PxsSimulationController@physx@@UEAAXPEAVPxsRigidBody@2@AEBVPxNodeIndex@2@@Z 00000001800036e0 f i PxgSimulationController.obj
 0001:000026e0       ?releaseFEMCloth@PxsSimulationController@physx@@UEAAXPEAVDeformableSurface@Dy@2@@Z 00000001800036e0 f i PxgSimulationController.obj
 0001:000026e0       ?removeSoftBodyFilters@PxsSimulationController@physx@@UEAAXPEAVDeformableVolume@Dy@2@0PEAI1I@Z 00000001800036e0 f i PxgSimulationController.obj
 0001:000026e0       ?shiftOrigin@PxgCudaBroadPhaseSap@physx@@UEAAXAEBV?$PxVec3T@M@2@PEBVPxBounds3@2@PEBM@Z 00000001800036e0 f i PxgCudaBroadPhaseSap.obj
 0001:000026e0       ?addPxgShape@PxsSimulationController@physx@@UEAAXPEAVShapeSimBase@Sc@2@PEBUPxsShapeCore@2@VPxNodeIndex@2@I@Z 00000001800036e0 f i PxgSimulationController.obj
 0001:000026e0       ?sortContacts@PxsSimulationController@physx@@UEAAXXZ 00000001800036e0 f i PxgSimulationController.obj
 0001:000026e0       ?removeRigidFilter@PxsSimulationController@physx@@UEAAXPEAVDeformableVolume@Dy@2@AEBVPxNodeIndex@2@I@Z 00000001800036e0 f i PxgSimulationController.obj
 0001:000026e0       ?testSDKFemClothCloth@PxgGpuNarrowphaseCore@physx@@QEAAXAEAUPxgGpuContactManagers@2@IPEAVPxRenderOutput@2@@Z 00000001800036e0 f i PxgNarrowphaseCore.obj
 0001:000026e0       ?updateArticulationAfterIntegration@PxgSimulationController@physx@@UEAAXPEAVPxsContext@2@PEAVAABBManagerBase@Bp@2@AEAV?$PxArray@PEAVBodySim@Sc@physx@@V?$PxReflectionAllocator@PEAVBodySim@Sc@physx@@@3@@2@PEAVPxBaseTask@2@AEAVIslandSim@IG@2@M@Z 00000001800036e0 f i PxgSimulationController.obj
 0001:000026e0       ?setClothWakeCounter@PxsSimulationController@physx@@UEAAXPEAVDeformableSurface@Dy@2@@Z 00000001800036e0 f i PxgSimulationController.obj
 0001:000026e0       ?update@PxsSimulationController@physx@@UEAAXAEAV?$PxBitMapBase@VPxVirtualAllocator@physx@@@2@@Z 00000001800036e0 f i PxgSimulationController.obj
 0001:000026e0       ?addSoftBody@PxsSimulationController@physx@@UEAAXPEAVDeformableVolume@Dy@2@AEBVPxNodeIndex@2@@Z 00000001800036e0 f i PxgSimulationController.obj
 0001:000026e0       ?clear@PxsSimulationController@physx@@UEAAXXZ 00000001800036e0 f i PxgSimulationController.obj
 0001:000026e0       ?setDeformableSurfaceGpuPostSolveCallback@PxsSimulationController@physx@@UEAAXPEAVPxPostSolveCallback@2@@Z 00000001800036e0 f i PxgSimulationController.obj
 0001:000026e0       ?setPersistentStateChanged@AABBManagerBase@Bp@physx@@UEAAXXZ 00000001800036e0 f i PxgAABBManager.obj
 0001:000026e0       ?updateArticulationExtAccel@PxsSimulationController@physx@@UEAAXPEAVFeatherstoneArticulation@Dy@2@AEBVPxNodeIndex@2@@Z 00000001800036e0 f i PxgSimulationController.obj
 0001:000026e0       ?setPxgShapeBodyNodeIndex@PxsSimulationController@physx@@UEAAXVPxNodeIndex@2@I@Z 00000001800036e0 f i PxgSimulationController.obj
 0001:000026e0       ?removeRigidAttachment@PxsSimulationController@physx@@UEAAXPEAVDeformableSurface@Dy@2@I@Z 00000001800036e0 f i PxgSimulationController.obj
 0001:000026e0       ?addClothFilter@PxsSimulationController@physx@@UEAAXPEAVDeformableVolume@Dy@2@PEAVDeformableSurface@42@II@Z 00000001800036e0 f i PxgSimulationController.obj
 0001:000026e0       ?mergeChangedAABBMgHandle@PxsSimulationController@physx@@UEAAXXZ 00000001800036e0 f i PxgSimulationController.obj
 0001:000026e0       ?updateShapes@PxsSimulationController@physx@@UEAAXPEAVPxBaseTask@2@@Z 00000001800036e0 f i PxgSimulationController.obj
 0001:000026e0       ?updateBoundsAndShapes@PxsSimulationController@physx@@UEAAXAEAVAABBManagerBase@Bp@2@_N@Z 00000001800036e0 f i PxgSimulationController.obj
 0001:000026e0       ?addVertClothFilter@PxsSimulationController@physx@@UEAAXPEAVDeformableVolume@Dy@2@PEAVDeformableSurface@42@II@Z 00000001800036e0 f i PxgSimulationController.obj
 0001:000026e0       ?releaseArticulation@PxsSimulationController@physx@@UEAAXPEAVFeatherstoneArticulation@Dy@2@AEBVPxNodeIndex@2@@Z 00000001800036e0 f i PxgSimulationController.obj
 0001:000026e0       ?updateBodies@PxsSimulationController@physx@@UEAAXPEAPEAVPxsRigidBody@2@PEAIIPEAUPxsExternalAccelerationProvider@2@@Z 00000001800036e0 f i PxgSimulationController.obj
 0001:000026e0       ?addSoftBodyFilter@PxsSimulationController@physx@@UEAAXPEAVDeformableVolume@Dy@2@0II@Z 00000001800036e0 f i PxgSimulationController.obj
 0001:000026e0       ?updateJoint@PxsSimulationController@physx@@UEAAXIPEAUConstraint@Dy@2@@Z 00000001800036e0 f i PxgSimulationController.obj
 0001:000026e0       ?updateBodyCore@Context@Dy@physx@@UEAAXPEAVPxBaseTask@3@@Z 00000001800036e0 f i PxgContext.obj
 0001:000026e0       ?removeParticleFilter@PxsSimulationController@physx@@UEAAXPEAVDeformableVolume@Dy@2@PEBVParticleSystem@42@III@Z 00000001800036e0 f i PxgSimulationController.obj
 0001:000026e0       ?updateDynamic@PxsSimulationController@physx@@UEAAXPEAVFeatherstoneArticulation@Dy@2@AEBVPxNodeIndex@2@@Z 00000001800036e0 f i PxgSimulationController.obj
 0001:000026e0       ?addJoint@PxsSimulationController@physx@@UEAAXAEBUConstraint@Dy@2@@Z 00000001800036e0 f i PxgSimulationController.obj
 0001:000026e0       ?releaseDeferredArticulationIds@PxsSimulationController@physx@@UEAAXXZ 00000001800036e0 f i PxgSimulationController.obj
 0001:000026e0       ?activateSoftbodySelfCollision@PxsSimulationController@physx@@UEAAXPEAVDeformableVolume@Dy@2@@Z 00000001800036e0 f i PxgSimulationController.obj
 0001:000026e0       ?getDataStreamBase@Context@Dy@physx@@UEAAXAEAPEAX00@Z 00000001800036e0 f i PxgContext.obj
 0001:000026e0       ?releaseParticleSystem@PxsSimulationController@physx@@UEAAXPEAVParticleSystem@Dy@2@@Z 00000001800036e0 f i PxgSimulationController.obj
 0001:000026e0       ?processPatches@Context@Dy@physx@@UEAAXAEAVFlushPool@Cm@3@PEAVPxBaseTask@3@PEAPEAVPxsContactManager@3@IPEAUPxsContactManagerOutputCounts@3@@Z 00000001800036e0 f i PxgContext.obj
 0001:000026e0       ?preIntegrateAndUpdateBound@PxsSimulationController@physx@@UEAAXPEAVPxBaseTask@2@V?$PxVec3T@M@2@M@Z 00000001800036e0 f i PxgSimulationController.obj
 0001:000026e0       ?addParticleSystem@PxsSimulationController@physx@@UEAAXPEAVParticleSystem@Dy@2@AEBVPxNodeIndex@2@@Z 00000001800036e0 f i PxgSimulationController.obj
 0001:000026e0       ?addArticulation@PxsSimulationController@physx@@UEAAXPEAVFeatherstoneArticulation@Dy@2@AEBVPxNodeIndex@2@@Z 00000001800036e0 f i PxgSimulationController.obj
 0001:000026e0       _guard_check_icall_nop     00000001800036e0 f i MSVCRT:guard_support.obj
 0001:000026e0       ?visualize@PxgAABBManager@physx@@UEAAXAEAVPxRenderOutput@2@@Z 00000001800036e0 f i PxgAABBManager.obj
 0001:000026e0       ?setEnableOVDCollisionReadback@PxsSimulationController@physx@@UEAAX_N@Z 00000001800036e0 f i PxgSimulationController.obj
 0001:000026e0       ?updateArticulationJoint@PxsSimulationController@physx@@UEAAXPEAVFeatherstoneArticulation@Dy@2@AEBVPxNodeIndex@2@@Z 00000001800036e0 f i PxgSimulationController.obj
 0001:000026e0       ?removeTriRigidAttachment@PxsSimulationController@physx@@UEAAXPEAVDeformableSurface@Dy@2@I@Z 00000001800036e0 f i PxgSimulationController.obj
 0001:000026e0       ?reserve@PxsSimulationController@physx@@UEAAXI@Z 00000001800036e0 f i PxgSimulationController.obj
 0001:000026e0       ?releaseDeferredParticleSystemIds@PxsSimulationController@physx@@UEAAXXZ 00000001800036e0 f i PxgSimulationController.obj
 0001:000026e0       ?removeTetRigidFilter@PxsSimulationController@physx@@UEAAXPEAVDeformableVolume@Dy@2@AEBVPxNodeIndex@2@I@Z 00000001800036e0 f i PxgSimulationController.obj
 0001:000026e0       ?removeTriClothAttachment@PxsSimulationController@physx@@UEAAXPEAVDeformableSurface@Dy@2@I@Z 00000001800036e0 f i PxgSimulationController.obj
 0001:000026e0       __cudaRegisterVar          00000001800036e0 f i CudaKernelWrangler.obj
 0001:000026e0       ?applyParticleBufferDataDEPRECATED@PxsSimulationController@physx@@UEAAXPEBIPEBUPxGpuParticleBufferIndexPair@2@PEBV?$PxFlags@W4Enum@PxParticleBufferFlag@physx@@I@2@IPEAUCUevent_st@@3@Z 00000001800036e0 f i PxgSimulationController.obj
 0001:000026e0       ?setGPUStateChanged@AABBManagerBase@Bp@physx@@UEAAXXZ 00000001800036e0 f i PxgAABBManager.obj
 0001:000026e0       ?__empty_global_delete@@YAXPEAX_K@Z 00000001800036e0 f i PxgPhysXGpu.obj
 0001:000026e0       ?addTriRigidFilter@PxsSimulationController@physx@@UEAAXPEAVDeformableSurface@Dy@2@AEBVPxNodeIndex@2@I@Z 00000001800036e0 f i PxgSimulationController.obj
 0001:000026e0       ?updateBodies@PxsSimulationController@physx@@UEAAXPEAVPxBaseTask@2@@Z 00000001800036e0 f i PxgSimulationController.obj
 0001:000026e0       ?releaseSoftBody@PxsSimulationController@physx@@UEAAXPEAVDeformableVolume@Dy@2@@Z 00000001800036e0 f i PxgSimulationController.obj
 0001:000026e0       ?deactivateSoftbody@PxsSimulationController@physx@@UEAAXPEAVDeformableVolume@Dy@2@@Z 00000001800036e0 f i PxgSimulationController.obj
 0001:000026e0       ?setEnableOVDReadback@PxsSimulationController@physx@@UEAAX_N@Z 00000001800036e0 f i PxgSimulationController.obj
 0001:000026e0       ?releaseDeferredFEMClothIds@PxsSimulationController@physx@@UEAAXXZ 00000001800036e0 f i PxgSimulationController.obj
 0001:000026e0       ?applySoftBodyDataDEPRECATED@PxsSimulationController@physx@@UEAAXPEAPEAXPEAX1W4Enum@PxSoftBodyGpuDataFlag@2@IIPEAUCUevent_st@@3@Z 00000001800036e0 f i PxgSimulationController.obj
 0001:000026e0       ?releaseDeferredSoftBodyIds@PxsSimulationController@physx@@UEAAXXZ 00000001800036e0 f i PxgSimulationController.obj
 0001:000026e0       ?removePxgShape@PxsSimulationController@physx@@UEAAXI@Z 00000001800036e0 f i PxgSimulationController.obj
 0001:000026e0       __cudaRegisterFatBinaryEnd 00000001800036e0 f i CudaKernelWrangler.obj
 0001:000026e0       ?addFEMCloth@PxsSimulationController@physx@@UEAAXPEAVDeformableSurface@Dy@2@AEBVPxNodeIndex@2@@Z 00000001800036e0 f i PxgSimulationController.obj
 0001:000026e0       ?addSoftBodyFilters@PxsSimulationController@physx@@UEAAXPEAVDeformableVolume@Dy@2@0PEAI1I@Z 00000001800036e0 f i PxgSimulationController.obj
 0001:000026e0       ?updatePostPartitioning@Context@Dy@physx@@UEAAXPEAVPxBaseTask@3@PEAVPxvNphaseImplementationContext@3@IIMAEBV?$PxVec3T@M@3@AEAV?$PxBitMapBase@VPxVirtualAllocator@physx@@@3@@Z 00000001800036e0 f i PxgContext.obj
 0001:000026e0       ?deactivateSoftbodySelfCollision@PxsSimulationController@physx@@UEAAXPEAVDeformableVolume@Dy@2@@Z 00000001800036e0 f i PxgSimulationController.obj
 0001:000026e0       ?gpuDmabackData@PxsSimulationController@physx@@UEAAXAEAVPxsTransformCache@2@AEAVBoundsArray@Bp@2@AEAV?$PxBitMapBase@VPxVirtualAllocator@physx@@@2@_N@Z 00000001800036e0 f i PxgSimulationController.obj
 0001:000026e0       ?updateArticulationAfterIntegration@PxsSimulationController@physx@@UEAAXPEAVPxsContext@2@PEAVAABBManagerBase@Bp@2@AEAV?$PxArray@PEAVBodySim@Sc@physx@@V?$PxReflectionAllocator@PEAVBodySim@Sc@physx@@@3@@2@PEAVPxBaseTask@2@AEAVIslandSim@IG@2@M@Z 00000001800036e0 f i PxgSimulationController.obj
 0001:000026e0       ??1BpFilter@Bp@physx@@QEAA@XZ 00000001800036e0 f i BpFiltering.obj
 0001:000026e0       ?setBounds@PxsSimulationController@physx@@UEAAXPEAVBoundsArray@Bp@2@@Z 00000001800036e0 f i PxgSimulationController.obj
 0001:000026e0       ?copySoftBodyDataDEPRECATED@PxsSimulationController@physx@@UEAAXPEAPEAXPEAX1W4Enum@PxSoftBodyGpuDataFlag@2@IIPEAUCUevent_st@@@Z 00000001800036e0 f i PxgSimulationController.obj
 0001:000026e0       ?removeSoftBodyFilter@PxsSimulationController@physx@@UEAAXPEAVDeformableVolume@Dy@2@0II@Z 00000001800036e0 f i PxgSimulationController.obj
 0001:000026f0       ?create@?$PxHashBase@V?$PxPair@QEAVPxCudaContextManager@physx@@PEAVPxgCudaKernelWranglerManager@2@@physx@@PEAVPxCudaContextManager@2@U?$PxHash@PEAVPxCudaContextManager@physx@@@2@UGetKey@?$PxHashMapBase@PEAVPxCudaContextManager@physx@@PEAVPxgCudaKernelWranglerManager@2@U?$PxHash@PEAVPxCudaContextManager@physx@@@2@VPxAllocator@2@@2@VPxAllocator@2@$00@physx@@QEAAPEAV?$PxPair@QEAVPxCudaContextManager@physx@@PEAVPxgCudaKernelWranglerManager@2@@2@AEBQEAVPxCudaContextManager@2@AEA_N@Z 00000001800036f0 f i PxgPhysXGpu.obj
 0001:000026f0       ?create@?$PxHashBase@V?$PxPair@$$CB_KURefcountedRecord@PxgGpuNarrowphaseCore@physx@@@physx@@_KU?$PxHash@_K@2@UGetKey@?$PxHashMapBase@_KURefcountedRecord@PxgGpuNarrowphaseCore@physx@@U?$PxHash@_K@3@VPxAllocator@3@@2@VPxAllocator@2@$00@physx@@QEAAPEAV?$PxPair@$$CB_KURefcountedRecord@PxgGpuNarrowphaseCore@physx@@@2@AEB_KAEA_N@Z 00000001800036f0 f i PxgNarrowphaseCore.obj
 0001:00002890       ?createAnisotropyGenerator@PxgPhysicsGpu@@UEAAPEAVPxAnisotropyGenerator@physx@@PEAVPxCudaContextManager@3@IMMM@Z 0000000180003890 f   PxgPhysXGpu.obj
 0001:00002970       ?createArrayConverter@PxgPhysicsGpu@@UEAAPEAVPxArrayConverter@physx@@PEAVPxCudaContextManager@3@@Z 0000000180003970 f   PxgPhysXGpu.obj
 0001:00002a10       ?createDeformableSkinning@PxgPhysicsGpu@@UEAAPEAVPxgDeformableSkinning@physx@@PEAVPxCudaContextManager@3@@Z 0000000180003a10 f   PxgPhysXGpu.obj
 0001:00002ab0       ?createDenseGridIsosurfaceExtractor@PxgPhysicsGpu@@UEAAPEAVPxIsosurfaceExtractor@physx@@PEAVPxCudaContextManager@3@AEBVPxBounds3@3@MAEBUPxIsosurfaceParams@3@III@Z 0000000180003ab0 f   PxgPhysXGpu.obj
 0001:00002c70       ?createGpuAABBManager@PxgPhysXGpu@physx@@UEAAPEAVAABBManagerBase@Bp@2@PEAVPxsKernelWranglerManager@2@PEAVPxCudaContextManager@2@IAEBUPxGpuDynamicsMemoryConfig@2@PEAVPxsHeapMemoryAllocatorManager@2@AEAVBroadPhase@42@AEAVBoundsArray@42@AEAV?$PxArray@MVPxVirtualAllocator@physx@@@2@IIAEAVPxVirtualAllocator@2@_KW4Enum@PxPairFilteringMode@2@9@Z 0000000180003c70 f   PxgPhysXGpu.obj
 0001:00002d70       ?createGpuBounds@PxgPhysXGpu@physx@@UEAAPEAVBoundsArray@Bp@2@AEAVPxVirtualAllocator@2@@Z 0000000180003d70 f   PxgPhysXGpu.obj
 0001:00002e00       ?createGpuBroadPhase@PxgPhysXGpu@physx@@UEAAPEAVBroadPhase@Bp@2@PEAVPxsKernelWranglerManager@2@PEAVPxCudaContextManager@2@IAEBUPxGpuDynamicsMemoryConfig@2@PEAVPxsHeapMemoryAllocatorManager@2@_K@Z 0000000180003e00 f   PxgPhysXGpu.obj
 0001:00002e90       ?createGpuDynamicsContext@PxgPhysXGpu@physx@@UEAAPEAVContext@Dy@2@AEAVFlushPool@Cm@2@PEAVPxsKernelWranglerManager@2@PEAVPxCudaContextManager@2@AEBUPxGpuDynamicsMemoryConfig@2@AEAVSimpleIslandManager@IG@2@II_N5MIAEAUPxvSimStats@2@PEAVPxsHeapMemoryAllocatorManager@2@55W4Enum@PxSolverType@2@M_N_K9@Z 0000000180003e90 f   PxgPhysXGpu.obj
 0001:000030c0       ?createGpuHeapMemoryAllocatorManager@PxgPhysXGpu@physx@@UEAAPEAVPxsHeapMemoryAllocatorManager@2@IPEAVPxsMemoryManager@2@I@Z 00000001800040c0 f   PxgPhysXGpu.obj
 0001:00003160       ?createGpuMemoryManager@PxgPhysXGpu@physx@@UEAAPEAVPxsMemoryManager@2@PEAVPxCudaContextManager@2@@Z 0000000180004160 f   PxgPhysXGpu.obj
 0001:00003170       ?createGpuNphaseImplementationContext@PxgPhysXGpu@physx@@UEAAPEAVPxvNphaseImplementationContext@2@AEAVPxsContext@2@PEAVPxsKernelWranglerManager@2@PEAVPxvNphaseImplementationFallback@2@AEBUPxGpuDynamicsMemoryConfig@2@PEAX44AEAV?$PxArray@VPxBounds3@physx@@VPxVirtualAllocator@2@@2@PEAVIslandSim@IG@2@PEAVContext@Dy@2@IPEAVPxsHeapMemoryAllocatorManager@2@_N@Z 0000000180004170 f   PxgPhysXGpu.obj
 0001:00003250       ?createGpuSimulationController@PxgPhysXGpu@physx@@UEAAPEAVPxsSimulationController@2@PEAVPxsKernelWranglerManager@2@PEAVPxCudaContextManager@2@PEAVContext@Dy@2@PEAVPxvNphaseImplementationContext@2@PEAVBroadPhase@Bp@2@_NPEAVPxsSimulationControllerCallback@2@IPEAVPxsHeapMemoryAllocatorManager@2@IIII5@Z 0000000180004250 f   PxgPhysXGpu.obj
 0001:00003350       ?createParticleAndDiffuseBuffer@PxgPhysXGpu@physx@@UEAAPEAVPxsParticleAndDiffuseBuffer@2@IIIAEAVPxCudaContextManager@2@@Z 0000000180004350 f   PxgPhysXGpu.obj
 0001:00003400       ?createParticleBuffer@PxgPhysXGpu@physx@@UEAAPEAVPxsParticleBuffer@2@IIAEAVPxCudaContextManager@2@@Z 0000000180004400 f   PxgPhysXGpu.obj
 0001:000034a0       ?createParticleClothBuffer@PxgPhysXGpu@physx@@UEAAPEAVPxsParticleClothBuffer@2@IIIIIAEAVPxCudaContextManager@2@@Z 00000001800044a0 f   PxgPhysXGpu.obj
 0001:00003560       ?createParticleNeighborhoodProvider@PxgPhysicsGpu@@UEAAPEAVPxParticleNeighborhoodProvider@physx@@PEAVPxCudaContextManager@3@IMI@Z 0000000180004560 f   PxgPhysXGpu.obj
 0001:00003630       ?createParticleRigidBuffer@PxgPhysXGpu@physx@@UEAAPEAVPxsParticleRigidBuffer@2@IIIAEAVPxCudaContextManager@2@@Z 0000000180004630 f   PxgPhysXGpu.obj
 0001:000036e0       ?createSDFBuilder@PxgPhysicsGpu@@UEAAPEAVPxSDFBuilder@physx@@PEAVPxCudaContextManager@3@@Z 00000001800046e0 f   PxgPhysXGpu.obj
 0001:00003780       ?createSmoothedPositionGenerator@PxgPhysicsGpu@@UEAAPEAVPxSmoothedPositionGenerator@physx@@PEAVPxCudaContextManager@3@IM@Z 0000000180004780 f   PxgPhysXGpu.obj
 0001:00003840       ?createSparseGridIsosurfaceExtractor@PxgPhysicsGpu@@UEAAPEAVPxSparseGridIsosurfaceExtractor@physx@@PEAVPxCudaContextManager@3@AEBUPxSparseGridParams@3@AEBUPxIsosurfaceParams@3@III@Z 0000000180004840 f   PxgPhysXGpu.obj
 0001:00003960       ?getGpuKernelWranglerManager@PxgPhysXGpu@physx@@UEAAPEAVPxsKernelWranglerManager@2@PEAVPxCudaContextManager@2@@Z 0000000180004960 f   PxgPhysXGpu.obj
 0001:00003ae0       ?getIsosurfaceParams@PxgDenseGridIsosurfaceExtractor@physx@@UEBA?AUPxIsosurfaceParams@2@XZ 0000000180004ae0 f i PxgPhysXGpu.obj
 0001:00003ae0       ?getIsosurfaceParams@PxgSparseGridIsosurfaceExtractor@physx@@UEBA?AUPxIsosurfaceParams@2@XZ 0000000180004ae0 f i PxgPhysXGpu.obj
 0001:00003b00       ?getMaxParticles@PxgDenseGridIsosurfaceExtractor@physx@@UEBAIXZ 0000000180004b00 f i PxgPhysXGpu.obj
 0001:00003b10       ?getMaxParticles@PxgSparseGridIsosurfaceExtractor@physx@@UEBAIXZ 0000000180004b10 f i PxgPhysXGpu.obj
 0001:00003b20       ?getMaxTriangles@PxgDenseGridIsosurfaceExtractor@physx@@UEBAIXZ 0000000180004b20 f i PxgPhysXGpu.obj
 0001:00003b30       ?getMaxTriangles@PxgSparseGridIsosurfaceExtractor@physx@@UEBAIXZ 0000000180004b30 f i PxgPhysXGpu.obj
 0001:00003b40       ?getMaxVertices@PxgDenseGridIsosurfaceExtractor@physx@@UEBAIXZ 0000000180004b40 f i PxgPhysXGpu.obj
 0001:00003b50       ?getMaxVertices@PxgSparseGridIsosurfaceExtractor@physx@@UEBAIXZ 0000000180004b50 f i PxgPhysXGpu.obj
 0001:00003b60       ?getNumTriangles@PxgSparseGridIsosurfaceExtractor@physx@@UEBAIXZ 0000000180004b60 f i PxgPhysXGpu.obj
 0001:00003b60       ?getNumTriangles@PxgDenseGridIsosurfaceExtractor@physx@@UEBAIXZ 0000000180004b60 f i PxgPhysXGpu.obj
 0001:00003b80       ?getNumVertices@PxgDenseGridIsosurfaceExtractor@physx@@UEBAIXZ 0000000180004b80 f i PxgPhysXGpu.obj
 0001:00003b80       ?getNumVertices@PxgSparseGridIsosurfaceExtractor@physx@@UEBAIXZ 0000000180004b80 f i PxgPhysXGpu.obj
 0001:00003b90       ?getSparseGridParams@PxgSparseGridIsosurfaceExtractor@physx@@UEBA?AUPxSparseGridParams@2@XZ 0000000180004b90 f i PxgPhysXGpu.obj
 0001:00003be0       ?growAndPushBack@?$PxArray@PEBVShapeInteraction@Sc@physx@@VPxVirtualAllocator@3@@physx@@IEAAAEAPEBVShapeInteraction@Sc@2@AEBQEBV342@@Z 0000000180004be0 f i PxgNarrowphaseCore.obj
 0001:00003be0       ?growAndPushBack@?$PxArray@PEAVPxsContactManager@physx@@VPxVirtualAllocator@2@@physx@@IEAAAEAPEAVPxsContactManager@2@AEBQEAV32@@Z 0000000180004be0 f i PxgNarrowphaseCore.obj
 0001:00003be0       ?growAndPushBack@?$PxArray@UPxBoundTransformUpdate@physx@@VPxVirtualAllocator@2@@physx@@IEAAAEAUPxBoundTransformUpdate@2@AEBU32@@Z 0000000180004be0 f i PxgPhysXGpu.obj
 0001:00003cc0       ?isEnabled@PxgSparseGridIsosurfaceExtractor@physx@@UEBA_NXZ 0000000180004cc0 f i PxgPhysXGpu.obj
 0001:00003cc0       ?isEnabled@PxgDenseGridIsosurfaceExtractor@physx@@UEBA_NXZ 0000000180004cc0 f i PxgPhysXGpu.obj
 0001:00003cd0       ?release@PxgPhysXGpu@physx@@UEAAXXZ 0000000180004cd0 f   PxgPhysXGpu.obj
 0001:00003e60       ?release@PxgPhysicsGpu@@UEAAXXZ 0000000180004e60 f   PxgPhysXGpu.obj
 0001:00003e90       ?reserveInternal@?$PxHashBase@V?$PxPair@$$CB_KURefcountedRecord@PxgGpuNarrowphaseCore@physx@@@physx@@_KU?$PxHash@_K@2@UGetKey@?$PxHashMapBase@_KURefcountedRecord@PxgGpuNarrowphaseCore@physx@@U?$PxHash@_K@3@VPxAllocator@3@@2@VPxAllocator@2@$00@physx@@AEAAXI@Z 0000000180004e90 f i PxgNarrowphaseCore.obj
 0001:00003e90       ?reserveInternal@?$PxHashBase@V?$PxPair@QEAVPxCudaContextManager@physx@@PEAVPxgCudaKernelWranglerManager@2@@physx@@PEAVPxCudaContextManager@2@U?$PxHash@PEAVPxCudaContextManager@physx@@@2@UGetKey@?$PxHashMapBase@PEAVPxCudaContextManager@physx@@PEAVPxgCudaKernelWranglerManager@2@U?$PxHash@PEAVPxCudaContextManager@physx@@@2@VPxAllocator@2@@2@VPxAllocator@2@$00@physx@@AEAAXI@Z 0000000180004e90 f i PxgPhysXGpu.obj
 0001:00004080       ?setBounds@BoundsArray@Bp@physx@@UEAAXAEBVPxBounds3@3@I@Z 0000000180005080 f i PxgPhysXGpu.obj
 0001:000040c0       ?setBounds@PxgBoundsArray@physx@@UEAAXAEBVPxBounds3@2@I@Z 00000001800050c0 f i PxgPhysXGpu.obj
 0001:00004150       ?setEnabled@PxgDenseGridIsosurfaceExtractor@physx@@UEAAX_N@Z 0000000180005150 f i PxgPhysXGpu.obj
 0001:00004150       ?setEnabled@PxgSparseGridIsosurfaceExtractor@physx@@UEAAX_N@Z 0000000180005150 f i PxgPhysXGpu.obj
 0001:00004160       ?setIsosurfaceParams@PxgDenseGridIsosurfaceExtractor@physx@@UEAAXAEBUPxIsosurfaceParams@2@@Z 0000000180005160 f i PxgPhysXGpu.obj
 0001:00004180       ?setIsosurfaceParams@PxgSparseGridIsosurfaceExtractor@physx@@UEAAXAEBUPxIsosurfaceParams@2@@Z 0000000180005180 f i PxgPhysXGpu.obj
 0001:000041a0       ?setMaxParticles@PxgDenseGridIsosurfaceExtractor@physx@@UEAAXI@Z 00000001800051a0 f i PxgPhysXGpu.obj
 0001:000041b0       ?setSparseGridParams@PxgSparseGridIsosurfaceExtractor@physx@@UEAAXAEBUPxSparseGridParams@2@@Z 00000001800051b0 f i PxgPhysXGpu.obj
 0001:00004230       ?updateBounds@BoundsArray@Bp@physx@@UEAAXAEBV?$PxTransformT@M@3@AEBVPxGeometry@3@II@Z 0000000180005230 f i PxgPhysXGpu.obj
 0001:00004280       ?updateBounds@PxgBoundsArray@physx@@UEAAXAEBV?$PxTransformT@M@2@AEBVPxGeometry@2@II@Z 0000000180005280 f i PxgPhysXGpu.obj
 0001:00004340       PxCreateCudaContextManager 0000000180005340 f   PxgPhysXGpu.obj
 0001:000043a0       PxCreatePhysXGpu           00000001800053a0 f   PxgPhysXGpu.obj
 0001:000044a0       PxGetSuggestedCudaDeviceOrdinal 00000001800054a0 f   PxgPhysXGpu.obj
 0001:00004510       PxGpuCreatePhysicsGpu      0000000180005510 f   PxgPhysXGpu.obj
 0001:000045b0       PxGpuCudaRegisterFatBinary 00000001800055b0 f   PxgPhysXGpu.obj
 0001:00004660       PxGpuCudaRegisterFunction  0000000180005660 f   PxgPhysXGpu.obj
 0001:00004700       PxGpuGetCudaFunctionTable  0000000180005700 f   PxgPhysXGpu.obj
 0001:00004710       PxGpuGetCudaFunctionTableSize 0000000180005710 f   PxgPhysXGpu.obj
 0001:00004720       PxGpuGetCudaModuleTable    0000000180005720 f   PxgPhysXGpu.obj
 0001:00004730       PxGpuGetCudaModuleTableSize 0000000180005730 f   PxgPhysXGpu.obj
 0001:00004740       PxSetPhysXGpuFoundationInstance 0000000180005740 f   PxgPhysXGpu.obj
 0001:00004750       PxSetPhysXGpuProfilerCallback 0000000180005750 f   PxgPhysXGpu.obj
 0001:00004760       __local_stdio_printf_options 0000000180005760 f i PxgPhysXGpu.obj
 0001:00004770       fprintf                    0000000180005770 f i PxgPhysXGpu.obj
 0001:000047e0       initArticulationKernels3   00000001800057e0 f   articulationDirectGpuApi.obj
 0001:000047f0       artiUpdateKinematic        00000001800057f0 f   articulationDirectGpuApi.obj
 0001:000049a0       getArtiDofStates           00000001800059a0 f   articulationDirectGpuApi.obj
 0001:00004ad0       getArtiTransformStates     0000000180005ad0 f   articulationDirectGpuApi.obj
 0001:00004c00       getArtiVelocityStates      0000000180005c00 f   articulationDirectGpuApi.obj
 0001:00004d30       getArtiSpatialForceStates  0000000180005d30 f   articulationDirectGpuApi.obj
 0001:00004e50       setArtiDofStates           0000000180005e50 f   articulationDirectGpuApi.obj
 0001:00004f80       setArtiRootGlobalPoseState 0000000180005f80 f   articulationDirectGpuApi.obj
 0001:00005090       setArtiRootVelocityState   0000000180006090 f   articulationDirectGpuApi.obj
 0001:000051b0       setArtiLinkForceState      00000001800061b0 f   articulationDirectGpuApi.obj
 0001:000052d0       setArtiLinkTorqueState     00000001800062d0 f   articulationDirectGpuApi.obj
 0001:000053f0       setArtiTendonState         00000001800063f0 f   articulationDirectGpuApi.obj
 0001:00005520       setArtiSpatialTendonAttachmentState 0000000180006520 f   articulationDirectGpuApi.obj
 0001:00005640       setArtiFixedTendonJointState 0000000180006640 f   articulationDirectGpuApi.obj
 0001:00005780       ?__device_stub__Z19artiUpdateKinematicPKN5physx23PxgArticulationCoreDescEPKNS_11PxgShapeSimEPKNS_8PxgShapeEPNS_18PxsCachedTransformEPKNS_11PxNodeIndexEPKjjPNS_9PxBounds3ESF_jb@@YAXQEIBUPxgArticulationCoreDesc@physx@@PEIBUPxgShapeSim@2@PEIBUPxgShape@2@PEIAUPxsCachedTransform@2@PEIBVPxNodeIndex@2@PEIBIIPEIAVPxBounds3@2@5I_N@Z 0000000180006780 f   articulationDirectGpuApi.obj
 0001:000058d0       ?__device_stub__Z16getArtiDofStatesPKN5physx23PxgArticulationCoreDescEPfPKjjjNS_28PxArticulationGPUAPIReadType4EnumE@@YAXPEIBUPxgArticulationCoreDesc@physx@@PEIAMPEIBIIIW4Enum@PxArticulationGPUAPIReadType@2@@Z 00000001800068d0 f   articulationDirectGpuApi.obj
 0001:000059f0       ?__device_stub__Z22getArtiTransformStatesPKN5physx23PxgArticulationCoreDescEPNS_12PxTransformTIfEEPKjjjNS_28PxArticulationGPUAPIReadType4EnumE@@YAXPEIBUPxgArticulationCoreDesc@physx@@PEIAV?$PxTransformT@M@2@PEIBIIIW4Enum@PxArticulationGPUAPIReadType@2@@Z 00000001800069f0 f   articulationDirectGpuApi.obj
 0001:00005b10       ?__device_stub__Z21getArtiVelocityStatesPKN5physx23PxgArticulationCoreDescEPNS_7PxVec3TIfEEPKjjjNS_28PxArticulationGPUAPIReadType4EnumE@@YAXPEIBUPxgArticulationCoreDesc@physx@@PEIAV?$PxVec3T@M@2@PEIBIIIW4Enum@PxArticulationGPUAPIReadType@2@@Z 0000000180006b10 f   articulationDirectGpuApi.obj
 0001:00005c30       ?__device_stub__Z25getArtiSpatialForceStatesPKN5physx23PxgArticulationCoreDescEPfPKjjj@@YAXPEIBUPxgArticulationCoreDesc@physx@@PEIAMPEIBIII@Z 0000000180006c30 f   articulationDirectGpuApi.obj
 0001:00005d40       ?__device_stub__Z16setArtiDofStatesPKN5physx23PxgArticulationCoreDescEPKfPKjjjNS_29PxArticulationGPUAPIWriteType4EnumE@@YAXPEIBUPxgArticulationCoreDesc@physx@@PEIBMPEIBIIIW4Enum@PxArticulationGPUAPIWriteType@2@@Z 0000000180006d40 f   articulationDirectGpuApi.obj
 0001:00005e60       ?__device_stub__Z26setArtiRootGlobalPoseStatePKN5physx23PxgArticulationCoreDescEPKNS_12PxTransformTIfEEPKjj@@YAXPEIBUPxgArticulationCoreDesc@physx@@PEIBV?$PxTransformT@M@2@PEIBII@Z 0000000180006e60 f   articulationDirectGpuApi.obj
 0001:00005f70       ?__device_stub__Z24setArtiRootVelocityStatePKN5physx23PxgArticulationCoreDescEPKNS_7PxVec3TIfEEPKjjNS_29PxArticulationGPUAPIWriteType4EnumE@@YAXPEIBUPxgArticulationCoreDesc@physx@@PEIBV?$PxVec3T@M@2@PEIBIIW4Enum@PxArticulationGPUAPIWriteType@2@@Z 0000000180006f70 f   articulationDirectGpuApi.obj
 0001:00006080       ?__device_stub__Z21setArtiLinkForceStatePKN5physx23PxgArticulationCoreDescEPKNS_7PxVec3TIfEEPKjjj@@YAXPEIBUPxgArticulationCoreDesc@physx@@PEIBV?$PxVec3T@M@2@PEIBIII@Z 0000000180007080 f   articulationDirectGpuApi.obj
 0001:00006190       ?__device_stub__Z22setArtiLinkTorqueStatePKN5physx23PxgArticulationCoreDescEPKNS_7PxVec3TIfEEPKjjj@@YAXPEIBUPxgArticulationCoreDesc@physx@@PEIBV?$PxVec3T@M@2@PEIBIII@Z 0000000180007190 f   articulationDirectGpuApi.obj
 0001:000062a0       ?__device_stub__Z18setArtiTendonStatePKN5physx23PxgArticulationCoreDescEPKvPKjjjNS_29PxArticulationGPUAPIWriteType4EnumE@@YAXPEIBUPxgArticulationCoreDesc@physx@@PEIBXPEIBIIIW4Enum@PxArticulationGPUAPIWriteType@2@@Z 00000001800072a0 f   articulationDirectGpuApi.obj
 0001:000063c0       ?__device_stub__Z35setArtiSpatialTendonAttachmentStatePKN5physx23PxgArticulationCoreDescEPKNS_25PxGpuTendonAttachmentDataEPKjjj@@YAXPEIBUPxgArticulationCoreDesc@physx@@PEIBVPxGpuTendonAttachmentData@2@PEIBIII@Z 00000001800073c0 f   articulationDirectGpuApi.obj
 0001:000064d0       ?__device_stub__Z28setArtiFixedTendonJointStatePKN5physx23PxgArticulationCoreDescEPKNS_31PxGpuTendonJointCoefficientDataEPKjj@@YAXPEIBUPxgArticulationCoreDesc@physx@@PEIBVPxGpuTendonJointCoefficientData@2@PEIBII@Z 00000001800074d0 f   articulationDirectGpuApi.obj
 0001:00006a00       initArticulationKernels1   0000000180007a00 f   forwardDynamic2.obj
 0001:00006a10       computeUnconstrainedVelocities1TLaunch 0000000180007a10 f   forwardDynamic2.obj
 0001:00006b10       computeUnconstrainedSpatialInertiaLaunchPartial1T 0000000180007b10 f   forwardDynamic2.obj
 0001:00006bd0       computeUnconstrainedSpatialInertiaLaunch1T 0000000180007bd0 f   forwardDynamic2.obj
 0001:00006c90       computeMassMatrix1T        0000000180007c90 f   forwardDynamic2.obj
 0001:00006d50       computeUnconstrainedAccelerationsLaunch1T 0000000180007d50 f   forwardDynamic2.obj
 0001:00006e10       updateBodiesLaunch1T       0000000180007e10 f   forwardDynamic2.obj
 0001:00006f10       updateBodiesLaunch_Part2   0000000180007f10 f   forwardDynamic2.obj
 0001:00007010       updateBodiesLaunch_Part3   0000000180008010 f   forwardDynamic2.obj
 0001:00007110       artiSaveVelocity1TPGS      0000000180008110 f   forwardDynamic2.obj
 0001:000071d0       artiComputeDependencies    00000001800081d0 f   forwardDynamic2.obj
 0001:000072a0       artiApplyTgsSubstepForces  00000001800082a0 f   forwardDynamic2.obj
 0001:00007370       artiPropagateImpulses2PGS  0000000180008370 f   forwardDynamic2.obj
 0001:00007480       artiPropagateImpulses2TGS  0000000180008480 f   forwardDynamic2.obj
 0001:00007590       artiPropagateVelocity      0000000180008590 f   forwardDynamic2.obj
 0001:00007690       artiPropagateVelocityTGS   0000000180008690 f   forwardDynamic2.obj
 0001:00007790       dmaArticulationResidual    0000000180008790 f   forwardDynamic2.obj
 0001:00007860       dmaBackArticulationDataLaunch 0000000180008860 f   forwardDynamic2.obj
 0001:00007930       stepArticulation1TTGS      0000000180008930 f   forwardDynamic2.obj
 0001:00007a00       artiOutputVelocity         0000000180008a00 f   forwardDynamic2.obj
 0001:00007b00       artiPushImpulse            0000000180008b00 f   forwardDynamic2.obj
 0001:00007bf0       ?__device_stub__Z38computeUnconstrainedVelocities1TLaunchPKN5physx23PxgArticulationCoreDescEbb@@YAXQEIBUPxgArticulationCoreDesc@physx@@_N1@Z 0000000180008bf0 f   forwardDynamic2.obj
 0001:00007cf0       ?__device_stub__Z49computeUnconstrainedSpatialInertiaLaunchPartial1TPKN5physx23PxgArticulationCoreDescE@@YAXQEIBUPxgArticulationCoreDesc@physx@@@Z 0000000180008cf0 f   forwardDynamic2.obj
 0001:00007db0       ?__device_stub__Z42computeUnconstrainedSpatialInertiaLaunch1TPKN5physx23PxgArticulationCoreDescE@@YAXQEIBUPxgArticulationCoreDesc@physx@@@Z 0000000180008db0 f   forwardDynamic2.obj
 0001:00007e70       ?__device_stub__Z19computeMassMatrix1TPKN5physx23PxgArticulationCoreDescE@@YAXQEIBUPxgArticulationCoreDesc@physx@@@Z 0000000180008e70 f   forwardDynamic2.obj
 0001:00007f30       ?__device_stub__Z41computeUnconstrainedAccelerationsLaunch1TPN5physx23PxgArticulationCoreDescE@@YAXPEAUPxgArticulationCoreDesc@physx@@@Z 0000000180008f30 f   forwardDynamic2.obj
 0001:00007ff0       ?__device_stub__Z20updateBodiesLaunch1TPKN5physx23PxgArticulationCoreDescEfb@@YAXQEIBUPxgArticulationCoreDesc@physx@@M_N@Z 0000000180008ff0 f   forwardDynamic2.obj
 0001:00008100       ?__device_stub__Z24updateBodiesLaunch_Part2PKN5physx23PxgArticulationCoreDescEfb@@YAXQEIBUPxgArticulationCoreDesc@physx@@M_N@Z 0000000180009100 f   forwardDynamic2.obj
 0001:00008210       ?__device_stub__Z24updateBodiesLaunch_Part3PKN5physx23PxgArticulationCoreDescEfb@@YAXQEIBUPxgArticulationCoreDesc@physx@@M_N@Z 0000000180009210 f   forwardDynamic2.obj
 0001:00008320       ?__device_stub__Z21artiSaveVelocity1TPGSPN5physx23PxgArticulationCoreDescE@@YAXPEAUPxgArticulationCoreDesc@physx@@@Z 0000000180009320 f   forwardDynamic2.obj
 0001:000083e0       ?__device_stub__Z23artiComputeDependenciesPN5physx23PxgArticulationCoreDescEj@@YAXPEAUPxgArticulationCoreDesc@physx@@I@Z 00000001800093e0 f   forwardDynamic2.obj
 0001:000084b0       ?__device_stub__Z25artiApplyTgsSubstepForcesPN5physx23PxgArticulationCoreDescEf@@YAXPEAUPxgArticulationCoreDesc@physx@@M@Z 00000001800094b0 f   forwardDynamic2.obj
 0001:00008580       ?__device_stub__Z25artiPropagateImpulses2PGSPN5physx23PxgArticulationCoreDescEPKNS_17PxgSolverCoreDescEPKNS_19PxgSolverSharedDescINS_18IterativeSolveDataEEEj@@YAXPEAUPxgArticulationCoreDesc@physx@@QEIBUPxgSolverCoreDesc@2@QEIBU?$PxgSolverSharedDesc@UIterativeSolveData@physx@@@2@I@Z 0000000180009580 f   forwardDynamic2.obj
 0001:00008690       ?__device_stub__Z25artiPropagateImpulses2TGSPN5physx23PxgArticulationCoreDescEPKNS_17PxgSolverCoreDescEPKNS_19PxgSolverSharedDescINS_21IterativeSolveDataTGSEEEj@@YAXPEAUPxgArticulationCoreDesc@physx@@QEIBUPxgSolverCoreDesc@2@QEIBU?$PxgSolverSharedDesc@UIterativeSolveDataTGS@physx@@@2@I@Z 0000000180009690 f   forwardDynamic2.obj
 0001:000087a0       ?__device_stub__Z21artiPropagateVelocityPN5physx23PxgArticulationCoreDescEjP6float4@@YAXPEIAUPxgArticulationCoreDesc@physx@@IPEIAUfloat4@@@Z 00000001800097a0 f   forwardDynamic2.obj
 0001:000088a0       ?__device_stub__Z24artiPropagateVelocityTGSPN5physx23PxgArticulationCoreDescEjP6float4@@YAXPEIAUPxgArticulationCoreDesc@physx@@IPEIAUfloat4@@@Z 00000001800098a0 f   forwardDynamic2.obj
 0001:000089a0       ?__device_stub__Z23dmaArticulationResidualPN5physx23PxgArticulationCoreDescEPNS_2Dy16ErrorAccumulatorE@@YAXPEAUPxgArticulationCoreDesc@physx@@PEAUErrorAccumulator@Dy@2@@Z 00000001800099a0 f   forwardDynamic2.obj
 0001:00008a70       ?__device_stub__Z29dmaBackArticulationDataLaunchPN5physx23PxgArticulationCoreDescEPNS_25PxgArticulationOutputDescE@@YAXPEAUPxgArticulationCoreDesc@physx@@PEAUPxgArticulationOutputDesc@2@@Z 0000000180009a70 f   forwardDynamic2.obj
 0001:00008b40       ?__device_stub__Z21stepArticulation1TTGSPKN5physx23PxgArticulationCoreDescEf@@YAXQEIBUPxgArticulationCoreDesc@physx@@M@Z 0000000180009b40 f   forwardDynamic2.obj
 0001:00008c10       ?__device_stub__Z18artiOutputVelocityPN5physx23PxgArticulationCoreDescEPKNS_17PxgSolverCoreDescEb@@YAXPEAUPxgArticulationCoreDesc@physx@@PEBUPxgSolverCoreDesc@2@_N@Z 0000000180009c10 f   forwardDynamic2.obj
 0001:00008d20       ?__device_stub__Z15artiPushImpulsePN5physx23PxgArticulationCoreDescE@@YAXPEAUPxgArticulationCoreDesc@physx@@@Z 0000000180009d20 f   forwardDynamic2.obj
 0001:000094c0       initArticulationKernels2   000000018000a4c0 f   internalConstraints2.obj
 0001:000094d0       setupInternalConstraintLaunch1T 000000018000a4d0 f   internalConstraints2.obj
 0001:000095f0       artiSolveInternalTendonAndMimicJointConstraints1T 000000018000a5f0 f   internalConstraints2.obj
 0001:00009720       artiSolveInternalConstraints1T 000000018000a720 f   internalConstraints2.obj
 0001:000098e0       artiSolveInternalConstraintsTGS1T 000000018000a8e0 f   internalConstraints2.obj
 0001:00009aa0       artiSumInternalContactAndJointBatches1Launch 000000018000aaa0 f   internalConstraints2.obj
 0001:00009ba0       artiSumInternalContactAndJointBatches2Launch 000000018000aba0 f   internalConstraints2.obj
 0001:00009cc0       artiSumSelfContactAndJointBatches 000000018000acc0 f   internalConstraints2.obj
 0001:00009de0       artiPropagateRigidImpulsesAndSolveSelfConstraints1T 000000018000ade0 f   internalConstraints2.obj
 0001:00009f10       artiPropagateRigidImpulsesAndSolveSelfConstraintsTGS1T 000000018000af10 f   internalConstraints2.obj
 0001:0000a070       ?__device_stub__Z31setupInternalConstraintLaunch1TPN5physx23PxgArticulationCoreDescEfffb@@YAXPEAUPxgArticulationCoreDesc@physx@@MMM_N@Z 000000018000b070 f   internalConstraints2.obj
 0001:0000a180       ?__device_stub__Z49artiSolveInternalTendonAndMimicJointConstraints1TPKN5physx23PxgArticulationCoreDescEfffbb@@YAXPEIBUPxgArticulationCoreDesc@physx@@MMM_N1@Z 000000018000b180 f   internalConstraints2.obj
 0001:0000a2a0       ?__device_stub__Z30artiSolveInternalConstraints1TPN5physx23PxgArticulationCoreDescEffbffPKjS3_PKNS_19PxgSolverSharedDescINS_18IterativeSolveDataEEEbbb@@YAXPEIAUPxgArticulationCoreDesc@physx@@MM_NMMQEIBI2QEIBU?$PxgSolverSharedDesc@UIterativeSolveData@physx@@@2@_N44@Z 000000018000b2a0 f   internalConstraints2.obj
 0001:0000a400       ?__device_stub__Z33artiSolveInternalConstraintsTGS1TPN5physx23PxgArticulationCoreDescEffbffPKjS3_PKNS_19PxgSolverSharedDescINS_21IterativeSolveDataTGSEEEbbb@@YAXPEIAUPxgArticulationCoreDesc@physx@@MM_NMMQEIBI2QEIBU?$PxgSolverSharedDesc@UIterativeSolveDataTGS@physx@@@2@_N44@Z 000000018000b400 f   internalConstraints2.obj
 0001:0000a560       ?__device_stub__Z44artiSumInternalContactAndJointBatches1LaunchPKN5physx23PxgArticulationCoreDescEPNS_14PxgPrePrepDescEj@@YAXPEIBUPxgArticulationCoreDesc@physx@@PEAUPxgPrePrepDesc@2@I@Z 000000018000b560 f   internalConstraints2.obj
 0001:0000a670       ?__device_stub__Z44artiSumInternalContactAndJointBatches2LaunchPKN5physx23PxgArticulationCoreDescEPNS_17PxgSolverCoreDescEPNS_14PxgPrePrepDescEPNS_24PxgConstraintPrepareDescEj@@YAXPEIBUPxgArticulationCoreDesc@physx@@PEIAUPxgSolverCoreDesc@2@PEIAUPxgPrePrepDesc@2@PEIAUPxgConstraintPrepareDesc@2@I@Z 000000018000b670 f   internalConstraints2.obj
 0001:0000a780       ?__device_stub__Z33artiSumSelfContactAndJointBatchesPKN5physx23PxgArticulationCoreDescEPNS_17PxgSolverCoreDescEPNS_14PxgPrePrepDescEPNS_24PxgConstraintPrepareDescEj@@YAXPEIBUPxgArticulationCoreDesc@physx@@PEIAUPxgSolverCoreDesc@2@PEIAUPxgPrePrepDesc@2@PEIAUPxgConstraintPrepareDesc@2@I@Z 000000018000b780 f   internalConstraints2.obj
 0001:0000a890       ?__device_stub__Z51artiPropagateRigidImpulsesAndSolveSelfConstraints1TPN5physx23PxgArticulationCoreDescEPKNS_17PxgSolverCoreDescEbfPKNS_19PxgSolverSharedDescINS_18IterativeSolveDataEEEb@@YAXPEIAUPxgArticulationCoreDesc@physx@@QEIBUPxgSolverCoreDesc@2@_NMQEIBU?$PxgSolverSharedDesc@UIterativeSolveData@physx@@@2@_N@Z 000000018000b890 f   internalConstraints2.obj
 0001:0000a9b0       ?__device_stub__Z54artiPropagateRigidImpulsesAndSolveSelfConstraintsTGS1TPN5physx23PxgArticulationCoreDescEPKNS_17PxgSolverCoreDescEbfPKNS_19PxgSolverSharedDescINS_21IterativeSolveDataTGSEEEb@@YAXPEIAUPxgArticulationCoreDesc@physx@@QEIBUPxgSolverCoreDesc@2@_NMQEIBU?$PxgSolverSharedDesc@UIterativeSolveDataTGS@physx@@@2@_N@Z 000000018000b9b0 f   internalConstraints2.obj
 0001:0000af10       initArticulationKernels4   000000018000bf10 f   inverseDynamic.obj
 0001:0000af20       computeArtiDenseJacobians  000000018000bf20 f   inverseDynamic.obj
 0001:0000b050       computeArtiMassMatrices    000000018000c050 f   inverseDynamic.obj
 0001:0000b180       computeArtiGravityForces   000000018000c180 f   inverseDynamic.obj
 0001:0000b2c0       computeArtiCentrifugalForces 000000018000c2c0 f   inverseDynamic.obj
 0001:0000b3f0       computeArtiCOM             000000018000c3f0 f   inverseDynamic.obj
 0001:0000b500       computeArtiCentroidalMomentumMatrices 000000018000c500 f   inverseDynamic.obj
 0001:0000b650       ?__device_stub__Z25computeArtiDenseJacobiansPfPKjjjjPKN5physx15PxgArticulationE@@YAXPEIAMPEIBIIIIPEIBVPxgArticulation@physx@@@Z 000000018000c650 f   inverseDynamic.obj
 0001:0000b770       ?__device_stub__Z23computeArtiMassMatricesjPfPKjjbPKN5physx15PxgArticulationE@@YAXIPEIAMPEIBII_NPEIBVPxgArticulation@physx@@@Z 000000018000c770 f   inverseDynamic.obj
 0001:0000b890       ?__device_stub__Z24computeArtiGravityForcesjPfPKjjbPKN5physx15PxgArticulationENS2_7PxVec3TIfEE@@YAXIPEIAMPEIBII_NPEBVPxgArticulation@physx@@AEBV?$PxVec3T@M@2@@Z 000000018000c890 f   inverseDynamic.obj
 0001:0000b9b0       ?__device_stub__Z28computeArtiCentrifugalForcesjPfPKjjbPKN5physx15PxgArticulationE@@YAXIPEIAMPEIBII_NPEBVPxgArticulation@physx@@@Z 000000018000c9b0 f   inverseDynamic.obj
 0001:0000bad0       ?__device_stub__Z14computeArtiCOMPN5physx7PxVec3TIfEEPKjbPKNS_15PxgArticulationE@@YAXPEIAV?$PxVec3T@M@physx@@PEIBI_NPEIBVPxgArticulation@2@@Z 000000018000cad0 f   inverseDynamic.obj
 0001:0000bbe0       ?__device_stub__Z37computeArtiCentroidalMomentumMatricesPfPKjjjPKN5physx15PxgArticulationE@@YAXPEIAMPEIBIIIPEIBVPxgArticulation@physx@@@Z 000000018000cbe0 f   inverseDynamic.obj
 0001:0000c060       ??0PxgArticulationCore@physx@@QEAA@PEAVPxgCudaKernelWranglerManager@1@PEAVPxCudaContextManager@1@PEAVPxgHeapMemoryAllocatorManager@1@@Z 000000018000d060 f   PxgArticulationCore.obj
 0001:0000c420       ??1PxgArticulationCore@physx@@QEAA@XZ 000000018000d420 f   PxgArticulationCore.obj
 0001:0000c5e0       ?allocDeltaVBuffer@PxgArticulationCore@physx@@QEAAXIIPEAUCUstream_st@@@Z 000000018000d5e0 f   PxgArticulationCore.obj
 0001:0000c760       ?applyTgsSubstepForces@PxgArticulationCore@physx@@QEAAXMPEAUCUstream_st@@@Z 000000018000d760 f   PxgArticulationCore.obj
 0001:0000c880       ?averageDeltaV@PxgArticulationCore@physx@@QEAAXIPEAUCUstream_st@@PEAUfloat4@@I_N_K@Z 000000018000d880 f   PxgArticulationCore.obj
 0001:0000cb00       ?computeArticulationData@PxgArticulationCore@physx@@QEAA_NPEAXPEBIW4Enum@PxArticulationGPUAPIComputeType@2@IIIPEAUCUevent_st@@3@Z 000000018000db00 f   PxgArticulationCore.obj
 0001:0000cf90       ?computeUnconstrainedVelocities@PxgArticulationCore@physx@@QEAAIIIMAEBV?$PxVec3T@M@2@M_N_N@Z 000000018000df90 f   PxgArticulationCore.obj
 0001:0000d300       ?createPxgArticulation@physx@@YAXXZ 000000018000e300 f   PxgArticulationCore.obj
 0001:0000d320       ?createStaticContactAndConstraintsBatch@PxgArticulationCore@physx@@QEAAXI@Z 000000018000e320 f   PxgArticulationCore.obj
 0001:0000d550       ?getArticulationData@PxgArticulationCore@physx@@QEBA_NPEAXPEBIW4Enum@PxArticulationGPUAPIReadType@2@IPEAUCUevent_st@@3II@Z 000000018000e550 f   PxgArticulationCore.obj
 0001:0000d8a0       ?getLinkVelocityStates@PxgArticulationCore@physx@@AEBA_NPEAXPEBIIIW4Enum@PxArticulationGPUAPIReadType@2@@Z 000000018000e8a0 f   PxgArticulationCore.obj
 0001:0000d9f0       ?getTransformStates@PxgArticulationCore@physx@@AEBA_NPEAXPEBIIIW4Enum@PxArticulationGPUAPIReadType@2@@Z 000000018000e9f0 f   PxgArticulationCore.obj
 0001:0000db30       ?gpuMemDMAbackArticulation@PxgArticulationCore@physx@@QEAAXAEAV?$PxArray@EVPxVirtualAllocator@physx@@@2@AEAV?$PxArray@UPxgSolverBodySleepData@physx@@VPxVirtualAllocator@2@@2@AEAV?$PxArray@UErrorAccumulator@Dy@physx@@VPxVirtualAllocator@3@@2@2@Z 000000018000eb30 f   PxgArticulationCore.obj
 0001:0000dcd0       ?gpuMemDmaUpArticulationDesc@PxgArticulationCore@physx@@QEAAXIIMAEBV?$PxVec3T@M@2@M_N@Z 000000018000ecd0 f   PxgArticulationCore.obj
 0001:0000e240       ?layoutDeltaVBuffer@PxgArticulationCore@physx@@QEAAXIIPEAUCUstream_st@@@Z 000000018000f240 f   PxgArticulationCore.obj
 0001:0000e3d0       ?outputVelocity@PxgArticulationCore@physx@@QEAAX_KPEAUCUstream_st@@_N@Z 000000018000f3d0 f   PxgArticulationCore.obj
 0001:0000e4f0       ?precomputeDependencies@PxgArticulationCore@physx@@QEAAXI@Z 000000018000f4f0 f   PxgArticulationCore.obj
 0001:0000e5d0       ?propagateRigidBodyImpulsesAndSolveInternalConstraints@PxgArticulationCore@physx@@QEAAXMM_NMMPEAI1_K_N333@Z 000000018000f5d0 f   PxgArticulationCore.obj
 0001:0000e940       ?pushImpulse@PxgArticulationCore@physx@@QEAAXPEAUCUstream_st@@@Z 000000018000f940 f   PxgArticulationCore.obj
 0001:0000ea40       ?saveVelocities@PxgArticulationCore@physx@@QEAAXXZ 000000018000fa40 f   PxgArticulationCore.obj
 0001:0000eb50       ?setArticulationData@PxgArticulationCore@physx@@QEAA_NPEBXPEBIW4Enum@PxArticulationGPUAPIWriteType@2@IPEAUCUevent_st@@3IIIIII@Z 000000018000fb50 f   PxgArticulationCore.obj
 0001:0000f150       ?setDofStates@PxgArticulationCore@physx@@AEAA_NPEBXPEBIIIW4Enum@PxArticulationGPUAPIWriteType@2@@Z 0000000180010150 f   PxgArticulationCore.obj
 0001:0000f290       ?setTendonStates@PxgArticulationCore@physx@@AEAA_NPEBXPEBIIIW4Enum@PxArticulationGPUAPIWriteType@2@@Z 0000000180010290 f   PxgArticulationCore.obj
 0001:0000f3d0       ?setupInternalConstraints@PxgArticulationCore@physx@@QEAAIIMMM_N@Z 00000001800103d0 f   PxgArticulationCore.obj
 0001:0000f4f0       ?stepArticulation@PxgArticulationCore@physx@@QEAAXM@Z 00000001800104f0 f   PxgArticulationCore.obj
 0001:0000f5e0       ?syncStream@PxgArticulationCore@physx@@QEAAXXZ 00000001800105e0 f   PxgArticulationCore.obj
 0001:0000f6b0       ?syncUnconstrainedVelocities@PxgArticulationCore@physx@@QEAAXXZ 00000001800106b0 f   PxgArticulationCore.obj
 0001:0000f700       ?synchronizedStreams@PxgArticulationCore@physx@@QEAAXPEAUCUstream_st@@0@Z 0000000180010700 f   PxgArticulationCore.obj
 0001:0000f800       ?updateArticulationsKinematic@PxgArticulationCore@physx@@QEAAX_NPEIBII@Z 0000000180010800 f   PxgArticulationCore.obj
 0001:0000f9e0       ?updateBodies@PxgArticulationCore@physx@@QEAAXM_N0@Z 00000001800109e0 f   PxgArticulationCore.obj
 0001:0000fc60       initBroadphaseKernels0     0000000180010c60 f   broadphase.obj
 0001:0000fc70       translateAABBsLaunch       0000000180010c70 f   broadphase.obj
 0001:0000fd30       markRemovedPairsLaunch     0000000180010d30 f   broadphase.obj
 0001:0000fdf0       markRemovedPairsProjectionsLaunch 0000000180010df0 f   broadphase.obj
 0001:0000feb0       markCreatedPairsLaunch     0000000180010eb0 f   broadphase.obj
 0001:0000ff70       initializeSapBox1DLaunch   0000000180010f70 f   broadphase.obj
 0001:00010070       markUpdatedPairsLaunch     0000000180011070 f   broadphase.obj
 0001:00010130       markUpdatedPairsLaunch2    0000000180011130 f   broadphase.obj
 0001:000101f0       computeEndPtsHistogram     00000001800111f0 f   broadphase.obj
 0001:000102c0       outputEndPtsHistogram      00000001800112c0 f   broadphase.obj
 0001:00010390       createRegionsKernel        0000000180011390 f   broadphase.obj
 0001:00010450       computeStartRegionsHistogram 0000000180011450 f   broadphase.obj
 0001:00010510       outputStartRegionsHistogram 0000000180011510 f   broadphase.obj
 0001:000105d0       computeRegionsHistogram    00000001800115d0 f   broadphase.obj
 0001:00010690       outputRegionsHistogram     0000000180011690 f   broadphase.obj
 0001:00010750       writeOutStartAndActiveRegionHistogram 0000000180011750 f   broadphase.obj
 0001:00010810       computeStartAndActiveRegionHistogram 0000000180011810 f   broadphase.obj
 0001:000108d0       outputOrderedActiveRegionHistogram 00000001800118d0 f   broadphase.obj
 0001:00010990       writeOutOverlapChecksForInsertedBoundsRegionsHistogram 0000000180011990 f   broadphase.obj
 0001:00010a50       computeOverlapChecksForRegionsHistogram 0000000180011a50 f   broadphase.obj
 0001:00010b10       outputOverlapChecksForRegionHistogram 0000000180011b10 f   broadphase.obj
 0001:00010bd0       performIncrementalSAP      0000000180011bd0 f   broadphase.obj
 0001:00010c90       generateFoundPairsForNewBoundsRegion 0000000180011c90 f   broadphase.obj
 0001:00010d50       clearNewFlagLaunch         0000000180011d50 f   broadphase.obj
 0001:00010e10       computeIncrementalComparisonHistograms_Stage1 0000000180011e10 f   broadphase.obj
 0001:00010ed0       computeIncrementalComparisonHistograms_Stage2 0000000180011ed0 f   broadphase.obj
 0001:00010f90       initializeRadixRanks       0000000180011f90 f   broadphase.obj
 0001:00011050       updateHandles              0000000180012050 f   broadphase.obj
 0001:00011110       accumulateReportsStage_1   0000000180012110 f   broadphase.obj
 0001:000111d0       accumulateReportsStage_2   00000001800121d0 f   broadphase.obj
 0001:00011290       copyReports                0000000180012290 f   broadphase.obj
 0001:00011350       bpSignalComplete           0000000180012350 f   broadphase.obj
 0001:00011440       ?__device_stub__Z20translateAABBsLaunchPKN5physx17PxgBroadPhaseDescE@@YAXPEBUPxgBroadPhaseDesc@physx@@@Z 0000000180012440 f   broadphase.obj
 0001:00011500       ?__device_stub__Z22markRemovedPairsLaunchPKN5physx17PxgBroadPhaseDescE@@YAXPEBUPxgBroadPhaseDesc@physx@@@Z 0000000180012500 f   broadphase.obj
 0001:000115c0       ?__device_stub__Z33markRemovedPairsProjectionsLaunchPKN5physx17PxgBroadPhaseDescE@@YAXPEBUPxgBroadPhaseDesc@physx@@@Z 00000001800125c0 f   broadphase.obj
 0001:00011680       ?__device_stub__Z22markCreatedPairsLaunchPKN5physx17PxgBroadPhaseDescE@@YAXPEBUPxgBroadPhaseDesc@physx@@@Z 0000000180012680 f   broadphase.obj
 0001:00011740       ?__device_stub__Z24initializeSapBox1DLaunchPKN5physx17PxgBroadPhaseDescEjb@@YAXPEBUPxgBroadPhaseDesc@physx@@I_N@Z 0000000180012740 f   broadphase.obj
 0001:00011840       ?__device_stub__Z22markUpdatedPairsLaunchPKN5physx17PxgBroadPhaseDescE@@YAXPEBUPxgBroadPhaseDesc@physx@@@Z 0000000180012840 f   broadphase.obj
 0001:00011900       ?__device_stub__Z23markUpdatedPairsLaunch2PKN5physx17PxgBroadPhaseDescE@@YAXPEBUPxgBroadPhaseDesc@physx@@@Z 0000000180012900 f   broadphase.obj
 0001:000119c0       ?__device_stub__Z22computeEndPtsHistogramPKN5physx17PxgBroadPhaseDescEb@@YAXPEBUPxgBroadPhaseDesc@physx@@_N@Z 00000001800129c0 f   broadphase.obj
 0001:00011a90       ?__device_stub__Z21outputEndPtsHistogramPKN5physx17PxgBroadPhaseDescEb@@YAXPEBUPxgBroadPhaseDesc@physx@@_N@Z 0000000180012a90 f   broadphase.obj
 0001:00011b60       ?__device_stub__Z19createRegionsKernelPKN5physx17PxgBroadPhaseDescE@@YAXPEBUPxgBroadPhaseDesc@physx@@@Z 0000000180012b60 f   broadphase.obj
 0001:00011c20       ?__device_stub__Z28computeStartRegionsHistogramPKN5physx17PxgBroadPhaseDescE@@YAXPEBUPxgBroadPhaseDesc@physx@@@Z 0000000180012c20 f   broadphase.obj
 0001:00011ce0       ?__device_stub__Z27outputStartRegionsHistogramPN5physx17PxgBroadPhaseDescE@@YAXPEAUPxgBroadPhaseDesc@physx@@@Z 0000000180012ce0 f   broadphase.obj
 0001:00011da0       ?__device_stub__Z23computeRegionsHistogramPKN5physx17PxgBroadPhaseDescE@@YAXPEBUPxgBroadPhaseDesc@physx@@@Z 0000000180012da0 f   broadphase.obj
 0001:00011e60       ?__device_stub__Z22outputRegionsHistogramPN5physx17PxgBroadPhaseDescE@@YAXPEAUPxgBroadPhaseDesc@physx@@@Z 0000000180012e60 f   broadphase.obj
 0001:00011f20       ?__device_stub__Z37writeOutStartAndActiveRegionHistogramPKN5physx17PxgBroadPhaseDescE@@YAXPEBUPxgBroadPhaseDesc@physx@@@Z 0000000180012f20 f   broadphase.obj
 0001:00011fe0       ?__device_stub__Z36computeStartAndActiveRegionHistogramPKN5physx17PxgBroadPhaseDescE@@YAXPEBUPxgBroadPhaseDesc@physx@@@Z 0000000180012fe0 f   broadphase.obj
 0001:000120a0       ?__device_stub__Z34outputOrderedActiveRegionHistogramPKN5physx17PxgBroadPhaseDescE@@YAXPEBUPxgBroadPhaseDesc@physx@@@Z 00000001800130a0 f   broadphase.obj
 0001:00012160       ?__device_stub__Z54writeOutOverlapChecksForInsertedBoundsRegionsHistogramPKN5physx17PxgBroadPhaseDescE@@YAXPEBUPxgBroadPhaseDesc@physx@@@Z 0000000180013160 f   broadphase.obj
 0001:00012220       ?__device_stub__Z39computeOverlapChecksForRegionsHistogramPKN5physx17PxgBroadPhaseDescE@@YAXPEBUPxgBroadPhaseDesc@physx@@@Z 0000000180013220 f   broadphase.obj
 0001:000122e0       ?__device_stub__Z37outputOverlapChecksForRegionHistogramPN5physx17PxgBroadPhaseDescE@@YAXPEAUPxgBroadPhaseDesc@physx@@@Z 00000001800132e0 f   broadphase.obj
 0001:000123a0       ?__device_stub__Z21performIncrementalSAPPN5physx17PxgBroadPhaseDescE@@YAXPEAUPxgBroadPhaseDesc@physx@@@Z 00000001800133a0 f   broadphase.obj
 0001:00012460       ?__device_stub__Z36generateFoundPairsForNewBoundsRegionPN5physx17PxgBroadPhaseDescE@@YAXPEAUPxgBroadPhaseDesc@physx@@@Z 0000000180013460 f   broadphase.obj
 0001:00012520       ?__device_stub__Z18clearNewFlagLaunchPKN5physx17PxgBroadPhaseDescE@@YAXPEBUPxgBroadPhaseDesc@physx@@@Z 0000000180013520 f   broadphase.obj
 0001:000125e0       ?__device_stub__Z45computeIncrementalComparisonHistograms_Stage1PKN5physx17PxgBroadPhaseDescE@@YAXPEBUPxgBroadPhaseDesc@physx@@@Z 00000001800135e0 f   broadphase.obj
 0001:000126a0       ?__device_stub__Z45computeIncrementalComparisonHistograms_Stage2PN5physx17PxgBroadPhaseDescE@@YAXPEAUPxgBroadPhaseDesc@physx@@@Z 00000001800136a0 f   broadphase.obj
 0001:00012760       ?__device_stub__Z20initializeRadixRanksPKN5physx17PxgBroadPhaseDescE@@YAXPEBUPxgBroadPhaseDesc@physx@@@Z 0000000180013760 f   broadphase.obj
 0001:00012820       ?__device_stub__Z13updateHandlesPKN5physx17PxgBroadPhaseDescE@@YAXPEBUPxgBroadPhaseDesc@physx@@@Z 0000000180013820 f   broadphase.obj
 0001:000128e0       ?__device_stub__Z24accumulateReportsStage_1PKN5physx17PxgBroadPhaseDescE@@YAXPEBUPxgBroadPhaseDesc@physx@@@Z 00000001800138e0 f   broadphase.obj
 0001:000129a0       ?__device_stub__Z24accumulateReportsStage_2PN5physx17PxgBroadPhaseDescE@@YAXPEAUPxgBroadPhaseDesc@physx@@@Z 00000001800139a0 f   broadphase.obj
 0001:00012a60       ?__device_stub__Z11copyReportsPN5physx17PxgBroadPhaseDescE@@YAXPEAUPxgBroadPhaseDesc@physx@@@Z 0000000180013a60 f   broadphase.obj
 0001:00012b20       ?__device_stub__Z16bpSignalCompletePj@@YAXPEAI@Z 0000000180013b20 f   broadphase.obj
 0001:00013460       initBroadphaseKernels1     0000000180014460 f   aggregate.obj
 0001:00013470       updateDirtyAggregate       0000000180014470 f   aggregate.obj
 0001:000135b0       clearDirtyAggregates       00000001800145b0 f   aggregate.obj
 0001:000136c0       markAggregateBoundsUpdatedBitmap 00000001800146c0 f   aggregate.obj
 0001:00013790       updateAggregateBounds      0000000180014790 f   aggregate.obj
 0001:00013890       sortAndUpdateAggregateProjections 0000000180014890 f   aggregate.obj
 0001:00013960       ?getIthBit@@YAIII@Z        0000000180014960 f   aggregate.obj
 0001:00013980       ?getIthBitBruteForce@@YAIII@Z 0000000180014980 f   aggregate.obj
 0001:000139a0       ?getIndex@@YAIPEIBIIIII@Z  00000001800149a0 f   aggregate.obj
 0001:000139c0       ?generatePairs@@YA_NIIPEIBIPEIBVPxgSapBox1D@physx@@00PEIBVPxgIntegerAABB@2@2PEBI3AEAUPxgBroadPhasePair@2@@Z 00000001800149c0 f   aggregate.obj
 0001:000139e0       ?generateAllPairs@@YAXAEAUPxgAggregate@physx@@IIPEAUPxgBroadPhasePair@2@PEAIPEIBVPxgIntegerAABB@2@3PEIBIII@Z 00000001800149e0 f   aggregate.obj
 0001:00013a00       doSelfCollision            0000000180014a00 f   aggregate.obj
 0001:00013ad0       ?countComparisons@@YAIAEBVPxgIntegerAABB@physx@@PEIBII1AEAI2I@Z 0000000180014ad0 f   aggregate.obj
 0001:00013af0       doAggPairCollisions        0000000180014af0 f   aggregate.obj
 0001:00013bc0       aggCopyReports             0000000180014bc0 f   aggregate.obj
 0001:00013c80       addAggPairsStage1          0000000180014c80 f   aggregate.obj
 0001:00013d50       addAggPairsStage2          0000000180014d50 f   aggregate.obj
 0001:00013e20       removeAggPairsStage1       0000000180014e20 f   aggregate.obj
 0001:00013ee0       removeAggPairsStage2       0000000180014ee0 f   aggregate.obj
 0001:00013fa0       removeAggPairsStage3       0000000180014fa0 f   aggregate.obj
 0001:00014060       markAddedAndDeletedAggregatedBounds 0000000180015060 f   aggregate.obj
 0001:000141c0       ?__device_stub__Z20updateDirtyAggregatePN5physx12PxgAggregateEjPjS1_jPKjS4_@@YAXPEAUPxgAggregate@physx@@IPEAI0IPEBI2@Z 00000001800151c0 f   aggregate.obj
 0001:000142e0       ?__device_stub__Z20clearDirtyAggregatesPN5physx12PxgAggregateEjPjj@@YAXPEAUPxgAggregate@physx@@IPEAII@Z 00000001800152e0 f   aggregate.obj
 0001:000143f0       ?__device_stub__Z32markAggregateBoundsUpdatedBitmapPN5physx16PxgAggregateDescEPj@@YAXPEAUPxgAggregateDesc@physx@@PEAI@Z 00000001800153f0 f   aggregate.obj
 0001:000144c0       ?__device_stub__Z21updateAggregateBoundsPN5physx16PxgAggregateDescEPNS_9PxBounds3EPf@@YAXPEAUPxgAggregateDesc@physx@@PEAVPxBounds3@2@PEAM@Z 00000001800154c0 f   aggregate.obj
 0001:000145d0       ?__device_stub__Z33sortAndUpdateAggregateProjectionsPN5physx17PxgBroadPhaseDescEPNS_16PxgAggregateDescE@@YAXPEAUPxgBroadPhaseDesc@physx@@PEAUPxgAggregateDesc@2@@Z 00000001800155d0 f   aggregate.obj
 0001:000146a0       ?__device_stub__Z15doSelfCollisionPN5physx17PxgBroadPhaseDescEPNS_16PxgAggregateDescE@@YAXPEAUPxgBroadPhaseDesc@physx@@PEAUPxgAggregateDesc@2@@Z 00000001800156a0 f   aggregate.obj
 0001:00014770       ?__device_stub__Z19doAggPairCollisionsPN5physx17PxgBroadPhaseDescEPNS_16PxgAggregateDescE@@YAXPEAUPxgBroadPhaseDesc@physx@@PEAUPxgAggregateDesc@2@@Z 0000000180015770 f   aggregate.obj
 0001:00014840       ?__device_stub__Z14aggCopyReportsPN5physx16PxgAggregateDescE@@YAXPEAUPxgAggregateDesc@physx@@@Z 0000000180015840 f   aggregate.obj
 0001:00014900       ?__device_stub__Z17addAggPairsStage1PN5physx16PxgAggregateDescEPNS_17PxgBroadPhaseDescE@@YAXPEAUPxgAggregateDesc@physx@@PEAUPxgBroadPhaseDesc@2@@Z 0000000180015900 f   aggregate.obj
 0001:000149d0       ?__device_stub__Z17addAggPairsStage2PN5physx16PxgAggregateDescEPNS_17PxgBroadPhaseDescE@@YAXPEAUPxgAggregateDesc@physx@@PEAUPxgBroadPhaseDesc@2@@Z 00000001800159d0 f   aggregate.obj
 0001:00014aa0       ?__device_stub__Z20removeAggPairsStage1PN5physx16PxgAggregateDescE@@YAXPEAUPxgAggregateDesc@physx@@@Z 0000000180015aa0 f   aggregate.obj
 0001:00014b60       ?__device_stub__Z20removeAggPairsStage2PN5physx16PxgAggregateDescE@@YAXPEAUPxgAggregateDesc@physx@@@Z 0000000180015b60 f   aggregate.obj
 0001:00014c20       ?__device_stub__Z20removeAggPairsStage3PN5physx16PxgAggregateDescE@@YAXPEAUPxgAggregateDesc@physx@@@Z 0000000180015c20 f   aggregate.obj
 0001:00014ce0       ?__device_stub__Z35markAddedAndDeletedAggregatedBoundsPN5physx17PxgBroadPhaseDescEPNS_16PxgAggregateDescEPjjS4_j@@YAXPEAUPxgBroadPhaseDesc@physx@@PEAUPxgAggregateDesc@2@PEAII2I@Z 0000000180015ce0 f   aggregate.obj
 0001:00015240       ??$PxSort@UPxgBroadPhasePair@physx@@UReportMore@@V?$PxReflectionAllocator@UPxgBroadPhasePair@physx@@@2@@physx@@YAXPEAUPxgBroadPhasePair@0@IAEBUReportMore@@AEBV?$PxReflectionAllocator@UPxgBroadPhasePair@physx@@@0@I@Z 0000000180016240 f i PxgCudaBroadPhaseSap.obj
 0001:00015710       ??0PxgCudaBroadPhaseSap@physx@@QEAA@PEAVPxgCudaKernelWranglerManager@1@PEAVPxCudaContextManager@1@AEBUPxGpuDynamicsMemoryConfig@1@PEAVPxgHeapMemoryAllocatorManager@1@_K@Z 0000000180016710 f   PxgCudaBroadPhaseSap.obj
 0001:00016ae0       ??1PxgCudaBroadPhaseSap@physx@@UEAA@XZ 0000000180017ae0 f   PxgCudaBroadPhaseSap.obj
 0001:00017030       ??_EPxBroadPhaseRegions@physx@@MEAAPEAXI@Z 0000000180018030 f i PxgCudaBroadPhaseSap.obj
 0001:00017030       ??_GPxBroadPhaseRegions@physx@@MEAAPEAXI@Z 0000000180018030 f i PxgCudaBroadPhaseSap.obj
 0001:00017060       ??_EPxgCudaBroadPhaseSap@physx@@UEAAPEAXI@Z 0000000180018060 f i PxgCudaBroadPhaseSap.obj
 0001:00017060       ??_GPxgCudaBroadPhaseSap@physx@@UEAAPEAXI@Z 0000000180018060 f i PxgCudaBroadPhaseSap.obj
 0001:000170d0       ?addRegion@BroadPhaseBase@Bp@physx@@UEAAIAEBUPxBroadPhaseRegion@3@_NPEBVPxBounds3@3@PEBM@Z 00000001800180d0 f i PxgCudaBroadPhaseSap.obj
 0001:000170d0       ?getArticulationRemapIndex@PxsSimulationController@physx@@UEAAII@Z 00000001800180d0 f i PxgSimulationController.obj
 0001:000170d0       ?getInternalShapeIndex@PxsSimulationController@physx@@UEAAIAEBUPxsShapeCore@2@@Z 00000001800180d0 f i PxgSimulationController.obj
 0001:000170e0       ?calculateEndPtHistogramKernel@PxgCudaBroadPhaseSap@physx@@AEAAX_N@Z 00000001800180e0 f   PxgCudaBroadPhaseSap.obj
 0001:00017280       ?computeRegionHistogramKernel@PxgCudaBroadPhaseSap@physx@@AEAAXXZ 0000000180018280 f   PxgCudaBroadPhaseSap.obj
 0001:000176c0       ?fetchBroadPhaseResults@PxgCudaBroadPhaseSap@physx@@UEAAXXZ 00000001800186c0 f   PxgCudaBroadPhaseSap.obj
 0001:00017910       ?freeBuffers@PxgCudaBroadPhaseSap@physx@@UEAAXXZ 0000000180018910 f   PxgCudaBroadPhaseSap.obj
 0001:00017920       ?generateNewPairsKernel@PxgCudaBroadPhaseSap@physx@@AEAAXXZ 0000000180018920 f   PxgCudaBroadPhaseSap.obj
 0001:00017c30       ?getCaps@BroadPhaseBase@Bp@physx@@UEBAXAEAUPxBroadPhaseCaps@3@@Z 0000000180018c30 f i PxgCudaBroadPhaseSap.obj
 0001:00017c40       ?getCreatedPairs@PxgCudaBroadPhaseSap@physx@@UEBAPEBUBroadPhasePair@Bp@2@AEAI@Z 0000000180018c40 f i PxgCudaBroadPhaseSap.obj
 0001:00017c50       ?getDeletedPairs@PxgCudaBroadPhaseSap@physx@@UEBAPEBUBroadPhasePair@Bp@2@AEAI@Z 0000000180018c50 f i PxgCudaBroadPhaseSap.obj
 0001:00017c60       ?getNbShapes@PxsSimulationController@physx@@UEAAIXZ 0000000180018c60 f i PxgSimulationController.obj
 0001:00017c60       ?addClothAttachment@PxsSimulationController@physx@@UEAAIPEAVDeformableVolume@Dy@2@PEAVDeformableSurface@42@IAEBV?$PxVec4T@M@2@I2PEAUPxConeLimitedConstraint@2@M_N_N@Z 0000000180018c60 f i PxgSimulationController.obj
 0001:00017c60       __scrt_stub_for_is_c_termination_complete 0000000180018c60 f i MSVCRT:ucrt_stubs.obj
 0001:00017c60       ?getActiveBodies@PxsSimulationController@physx@@UEAAPEAIXZ 0000000180018c60 f i PxgSimulationController.obj
 0001:00017c60       ?addParticleAttachment@PxsSimulationController@physx@@UEAAIPEAVDeformableVolume@Dy@2@PEBVParticleSystem@42@IIIAEBV?$PxVec4T@M@2@_N@Z 0000000180018c60 f i PxgSimulationController.obj
 0001:00017c60       ?getNbRegions@BroadPhaseBase@Bp@physx@@UEBAIXZ 0000000180018c60 f i PxgCudaBroadPhaseSap.obj
 0001:00017c60       ?getDeactivatedDeformableSurfaces@PxsSimulationController@physx@@UEBAPEAPEAVDeformableSurface@Dy@2@XZ 0000000180018c60 f i PxgSimulationController.obj
 0001:00017c60       _is_c_termination_complete 0000000180018c60 f i MSVCRT:ucrt_stubs.obj
 0001:00017c60       ?getDeactivatedDeformableVolumes@PxsSimulationController@physx@@UEBAPEAPEAVDeformableVolume@Dy@2@XZ 0000000180018c60 f i PxgSimulationController.obj
 0001:00017c60       ?getRigidBodies@PxsSimulationController@physx@@UEAAPEAPEAXXZ 0000000180018c60 f i PxgSimulationController.obj
 0001:00017c60       ?getNbDeactivatedDeformableVolumes@PxsSimulationController@physx@@UEBAIXZ 0000000180018c60 f i PxgSimulationController.obj
 0001:00017c60       ?addRigidAttachment@PxsSimulationController@physx@@UEAAIPEAVDeformableVolume@Dy@2@AEBVPxNodeIndex@2@PEAVPxsRigidBody@2@1IAEBV?$PxVec3T@M@2@PEAUPxConeLimitedConstraint@2@_N_N@Z 0000000180018c60 f i PxgSimulationController.obj
 0001:00017c60       ?getNbBodies@PxsSimulationController@physx@@UEAAIXZ 0000000180018c60 f i PxgSimulationController.obj
 0001:00017c60       ?getDeactiveBodies@PxsSimulationController@physx@@UEAAPEAIXZ 0000000180018c60 f i PxgSimulationController.obj
 0001:00017c60       ?getSolverType@PxgDynamicsContext@physx@@UEBA?AW4Enum@PxSolverType@2@XZ 0000000180018c60 f i PxgDynamicsContext.obj
 0001:00017c60       ?getShapeSims@PxsSimulationController@physx@@UEAAPEAPEAVShapeSimBase@Sc@2@XZ 0000000180018c60 f i PxgSimulationController.obj
 0001:00017c60       ?getNbOutOfBoundsObjects@BroadPhaseBase@Bp@physx@@UEBAIXZ 0000000180018c60 f i PxgCudaBroadPhaseSap.obj
 0001:00017c60       ?getOutOfBoundsObjects@BroadPhaseBase@Bp@physx@@UEBAPEBIXZ 0000000180018c60 f i PxgCudaBroadPhaseSap.obj
 0001:00017c60       ?getNbFrozenShapes@PxsSimulationController@physx@@UEAAIXZ 0000000180018c60 f i PxgSimulationController.obj
 0001:00017c60       ?getActivatedDeformableVolumes@PxsSimulationController@physx@@UEBAPEAPEAVDeformableVolume@Dy@2@XZ 0000000180018c60 f i PxgSimulationController.obj
 0001:00017c60       ?addSoftBodyAttachment@PxsSimulationController@physx@@UEAAIPEAVDeformableVolume@Dy@2@0IIAEBV?$PxVec4T@M@2@1PEAUPxConeLimitedConstraint@2@M_N_N@Z 0000000180018c60 f i PxgSimulationController.obj
 0001:00017c60       __cudaPopCallConfiguration 0000000180018c60 f i CudaKernelWrangler.obj
 0001:00017c60       ?addTriRigidAttachment@PxsSimulationController@physx@@UEAAIPEAVDeformableSurface@Dy@2@PEAVPxsRigidBody@2@AEBVPxNodeIndex@2@IAEBV?$PxVec4T@M@2@AEBV?$PxVec3T@M@2@PEAUPxConeLimitedConstraint@2@_N@Z 0000000180018c60 f i PxgSimulationController.obj
 0001:00017c60       ?getActivatedDeformableSurfaces@PxsSimulationController@physx@@UEBAPEAPEAVDeformableSurface@Dy@2@XZ 0000000180018c60 f i PxgSimulationController.obj
 0001:00017c60       ?getNbActivatedDeformableSurfaces@PxsSimulationController@physx@@UEBAIXZ 0000000180018c60 f i PxgSimulationController.obj
 0001:00017c60       ?getFrozenShapes@PxsSimulationController@physx@@UEAAPEAIXZ 0000000180018c60 f i PxgSimulationController.obj
 0001:00017c60       ?getNbActivatedDeformableVolumes@PxsSimulationController@physx@@UEBAIXZ 0000000180018c60 f i PxgSimulationController.obj
 0001:00017c60       ?getUnfrozenShapes@PxsSimulationController@physx@@UEAAPEAIXZ 0000000180018c60 f i PxgSimulationController.obj
 0001:00017c60       ?addTetRigidAttachment@PxsSimulationController@physx@@UEAAIPEAVDeformableVolume@Dy@2@PEAVPxsRigidBody@2@AEBVPxNodeIndex@2@IAEBV?$PxVec4T@M@2@AEBV?$PxVec3T@M@2@PEAUPxConeLimitedConstraint@2@_N_N@Z 0000000180018c60 f i PxgSimulationController.obj
 0001:00017c60       ?getRegions@BroadPhaseBase@Bp@physx@@UEBAIPEAUPxBroadPhaseRegionInfo@3@II@Z 0000000180018c60 f i PxgCudaBroadPhaseSap.obj
 0001:00017c60       ?getDeformableVolumeWakeCounters@PxsSimulationController@physx@@UEBAPEBMXZ 0000000180018c60 f i PxgSimulationController.obj
 0001:00017c60       ?addTriClothAttachment@PxsSimulationController@physx@@UEAAIPEAVDeformableSurface@Dy@2@0IIAEBV?$PxVec4T@M@2@1_N@Z 0000000180018c60 f i PxgSimulationController.obj
 0001:00017c60       ?getNbDeactivatedDeformableSurfaces@PxsSimulationController@physx@@UEBAIXZ 0000000180018c60 f i PxgSimulationController.obj
 0001:00017c60       cudaLaunchKernel           0000000180018c60 f i CudaKernelWrangler.obj
 0001:00017c60       ?addRigidAttachment@PxsSimulationController@physx@@UEAAIPEAVDeformableSurface@Dy@2@AEBVPxNodeIndex@2@PEAVPxsRigidBody@2@1IAEBV?$PxVec3T@M@2@PEAUPxConeLimitedConstraint@2@_N@Z 0000000180018c60 f i PxgSimulationController.obj
 0001:00017c60       ?getNbUnfrozenShapes@PxsSimulationController@physx@@UEAAIXZ 0000000180018c60 f i PxgSimulationController.obj
 0001:00017c70       ?getType@PxgCudaBroadPhaseSap@physx@@UEBA?AW4Enum@PxBroadPhaseType@2@XZ 0000000180018c70 f i PxgCudaBroadPhaseSap.obj
 0001:00017c80       ?gpuDMABack@PxgCudaBroadPhaseSap@physx@@AEAAXAEBUPxgBroadPhaseDesc@2@@Z 0000000180018c80 f   PxgCudaBroadPhaseSap.obj
 0001:00017f60       ?gpuDMAUp@PxgCudaBroadPhaseSap@physx@@AEAAXAEBVBroadPhaseUpdateData@Bp@2@AEAUPxgBroadPhaseDesc@2@PEAUPxgRadixSortDesc@2@@Z 0000000180018f60 f   PxgCudaBroadPhaseSap.obj
 0001:00018670       ?initializeSapBoxKernel@PxgCudaBroadPhaseSap@physx@@AEAAXI_N@Z 0000000180019670 f   PxgCudaBroadPhaseSap.obj
 0001:00018830       ?preBroadPhase@PxgCudaBroadPhaseSap@physx@@UEAAXAEBVBroadPhaseUpdateData@Bp@2@@Z 0000000180019830 f   PxgCudaBroadPhaseSap.obj
 0001:00018a10       ?purgeDuplicateFoundPairs@PxgCudaBroadPhaseSap@physx@@QEAAXXZ 0000000180019a10 f   PxgCudaBroadPhaseSap.obj
 0001:00018a20       ?purgeDuplicateLostPairs@PxgCudaBroadPhaseSap@physx@@QEAAXXZ 0000000180019a20 f   PxgCudaBroadPhaseSap.obj
 0001:00018a30       ?purgeDuplicates@PxgCudaBroadPhaseSap@physx@@AEAAXAEAV?$PxArray@UPxgBroadPhasePair@physx@@VPxVirtualAllocator@2@@2@@Z 0000000180019a30 f   PxgCudaBroadPhaseSap.obj
 0001:00018af0       ?recreate@?$PxArray@VArticulationJointCoreData@Dy@physx@@VPxVirtualAllocator@3@@physx@@IEAAXI@Z 0000000180019af0 f i PxgSimulationController.obj
 0001:00018af0       ?recreate@?$PxArray@PEBVShapeInteraction@Sc@physx@@VPxVirtualAllocator@3@@physx@@IEAAXI@Z 0000000180019af0 f i PxgNarrowphaseCore.obj
 0001:00018af0       ?recreate@?$PxArray@PEAVPxsContactManager@physx@@VPxVirtualAllocator@2@@physx@@IEAAXI@Z 0000000180019af0 f i PxgNarrowphaseCore.obj
 0001:00018af0       ?recreate@?$PxArray@PEAVPxActor@physx@@VPxVirtualAllocator@2@@physx@@IEAAXI@Z 0000000180019af0 f i PxgShapeManager.obj
 0001:00018af0       ?recreate@?$PxArray@VPxNodeIndex@physx@@VPxVirtualAllocator@2@@physx@@IEAAXI@Z 0000000180019af0 f i PxgShapeManager.obj
 0001:00018af0       ?recreate@?$PxArray@UPartitionIndexData@physx@@VPxVirtualAllocator@2@@physx@@IEAAXI@Z 0000000180019af0 f i PxgConstraintPartition.obj
 0001:00018af0       ?recreate@?$PxArray@UPxBoundTransformUpdate@physx@@VPxVirtualAllocator@2@@physx@@IEAAXI@Z 0000000180019af0 f i PxgSimulationCore.obj
 0001:00018af0       ?recreate@?$PxArray@UPxgSolverConstraintManagerConstants@physx@@VPxVirtualAllocator@2@@physx@@IEAAXI@Z 0000000180019af0 f i PxgConstraintPartition.obj
 0001:00018af0       ?recreate@?$PxArray@_KVPxVirtualAllocator@physx@@@physx@@IEAAXI@Z 0000000180019af0 f i PxgSimulationController.obj
 0001:00018af0       ?recreate@?$PxArray@UPxgSolverBodySleepData@physx@@VPxVirtualAllocator@2@@physx@@IEAAXI@Z 0000000180019af0 f i PxgContext.obj
 0001:00018af0       ?recreate@?$PxArray@UPxgBroadPhasePair@physx@@VPxVirtualAllocator@2@@physx@@IEAAXI@Z 0000000180019af0 f i PxgCudaBroadPhaseSap.obj
 0001:00018ba0       ?destroy@PxgNphaseImplementationContext@physx@@UEAAXXZ 0000000180019ba0 f   PxgNphaseImplementationContext.obj
 0001:00018ba0       ?release@PxgCudaBroadPhaseSap@physx@@UEAAXXZ 0000000180019ba0 f   PxgCudaBroadPhaseSap.obj
 0001:00018bd0       ?removeRegion@BroadPhaseBase@Bp@physx@@UEAA_NI@Z 0000000180019bd0 f i PxgCudaBroadPhaseSap.obj
 0001:00018bd0       ?getEnableOVDCollisionReadback@PxsSimulationController@physx@@UEBA_NXZ 0000000180019bd0 f i PxgSimulationController.obj
 0001:00018bd0       ?getArticulationData@PxsSimulationController@physx@@UEBA_NPEAXPEBIW4Enum@PxArticulationGPUAPIReadType@2@IPEAUCUevent_st@@3@Z 0000000180019bd0 f i PxgSimulationController.obj
 0001:00018bd0       ?getEnableOVDReadback@PxsSimulationController@physx@@UEBA_NXZ 0000000180019bd0 f i PxgSimulationController.obj
 0001:00018bd0       ?hasDeformableVolumes@PxsSimulationController@physx@@UEBA_NXZ 0000000180019bd0 f i PxgSimulationController.obj
 0001:00018bd0       ?getOutOfBoundsObjects@AABBManagerBase@Bp@physx@@UEAA_NAEAUOutOfBoundsData@123@@Z 0000000180019bd0 f i PxgAABBManager.obj
 0001:00018bd0       ?evaluateSDFDistances@PxsSimulationController@physx@@UEAA_NPEAV?$PxVec4T@M@2@PEBIPEBV32@1IIPEAUCUevent_st@@3@Z 0000000180019bd0 f i PxgSimulationController.obj
 0001:00018bd0       ?hasDeformableSurfaces@PxsSimulationController@physx@@UEBA_NXZ 0000000180019bd0 f i PxgSimulationController.obj
 0001:00018bd0       ?copyContactData@PxsSimulationController@physx@@UEAA_NPEAXPEAIIPEAUCUevent_st@@2@Z 0000000180019bd0 f i PxgSimulationController.obj
 0001:00018bd0       ?isHighPriority@PxBaseTask@physx@@UEBA_NXZ 0000000180019bd0 f i PxgAABBManager.obj
 0001:00018bd0       ?computeArticulationData@PxsSimulationController@physx@@UEAA_NPEAXPEBIW4Enum@PxArticulationGPUAPIComputeType@2@IPEAUCUevent_st@@3@Z 0000000180019bd0 f i PxgSimulationController.obj
 0001:00018bd0       ?getD6JointData@PxsSimulationController@physx@@UEBA_NPEAXPEBIW4Enum@PxD6JointGPUAPIReadType@2@IMPEAUCUevent_st@@3@Z 0000000180019bd0 f i PxgSimulationController.obj
 0001:00018bd0       ?getRigidDynamicData@PxsSimulationController@physx@@UEBA_NPEAXPEBIW4Enum@PxRigidDynamicGPUAPIReadType@2@IMPEAUCUevent_st@@3@Z 0000000180019bd0 f i PxgSimulationController.obj
 0001:00018bd0       ?setArticulationData@PxsSimulationController@physx@@UEAA_NPEBXPEBIW4Enum@PxArticulationGPUAPIWriteType@2@IPEAUCUevent_st@@3@Z 0000000180019bd0 f i PxgSimulationController.obj
 0001:00018bd0       ?setRigidDynamicData@PxsSimulationController@physx@@UEAA_NPEBXPEBIW4Enum@PxRigidDynamicGPUAPIWriteType@2@IPEAUCUevent_st@@3@Z 0000000180019bd0 f i PxgSimulationController.obj
 0001:00018be0       ?runRadixSort@PxgCudaBroadPhaseSap@physx@@AEAAXI_K@Z 0000000180019be0 f   PxgCudaBroadPhaseSap.obj
 0001:00018de0       ?sortBuffer@PxgCudaBroadPhaseSap@physx@@AEAAXPEAUPxgBroadPhasePair@2@I@Z 0000000180019de0 f   PxgCudaBroadPhaseSap.obj
 0001:00018e10       ?update@PxgCudaBroadPhaseSap@physx@@UEAAXPEAVPxcScratchAllocator@2@AEBVBroadPhaseUpdateData@Bp@2@PEAVPxBaseTask@2@@Z 0000000180019e10 f   PxgCudaBroadPhaseSap.obj
 0001:00019c40       ?updateDescriptor@PxgCudaBroadPhaseSap@physx@@AEAAXAEAUPxgBroadPhaseDesc@2@@Z 000000018001ac40 f   PxgCudaBroadPhaseSap.obj
 0001:0001a280       ?updateRadixSortDesc@PxgCudaBroadPhaseSap@physx@@AEAAXPEAUPxgRadixSortDesc@2@@Z 000000018001b280 f   PxgCudaBroadPhaseSap.obj
 0001:0001a5c0       ?createPxgBroadphase@physx@@YAXXZ 000000018001b5c0 f   PxgBroadPhase.obj
 0001:0001a620       ??0PxgAABBManager@physx@@QEAA@PEAVPxgCudaKernelWranglerManager@1@PEAVPxCudaContextManager@1@PEAVPxgHeapMemoryAllocatorManager@1@AEBUPxGpuDynamicsMemoryConfig@1@AEAVBroadPhase@Bp@1@AEAVBoundsArray@71@AEAV?$PxArray@MVPxVirtualAllocator@physx@@@1@IIAEAVPxVirtualAllocator@1@_KW4Enum@PxPairFilteringMode@1@9@Z 000000018001b620 f   PxgAABBManager.obj
 0001:0001af10       ??1?$DeferredIDPoolBase@V?$PxArray@IV?$PxReflectionAllocator@I@physx@@@physx@@@Cm@physx@@QEAA@XZ 000000018001bf10 f i PxgAABBManager.obj
 0001:0001af90       ??1AABBManagerBase@Bp@physx@@UEAA@XZ 000000018001bf90 f i PxgAABBManager.obj
 0001:0001b200       ??1PxgAABBManager@physx@@UEAA@XZ 000000018001c200 f i PxgAABBManager.obj
 0001:0001b5a0       ??_EAABBManagerBase@Bp@physx@@UEAAPEAXI@Z 000000018001c5a0 f i PxgAABBManager.obj
 0001:0001b5a0       ??_GAABBManagerBase@Bp@physx@@UEAAPEAXI@Z 000000018001c5a0 f i PxgAABBManager.obj
 0001:0001b610       ??_GPxBaseTask@physx@@UEAAPEAXI@Z 000000018001c610 f i PxgAABBManager.obj
 0001:0001b610       ??_EPxBaseTask@physx@@UEAAPEAXI@Z 000000018001c610 f i PxgAABBManager.obj
 0001:0001b640       ??_EPxLightCpuTask@physx@@UEAAPEAXI@Z 000000018001c640 f i PxgAABBManager.obj
 0001:0001b640       ??_GPxLightCpuTask@physx@@UEAAPEAXI@Z 000000018001c640 f i PxgAABBManager.obj
 0001:0001b680       ??_EPxgAABBManager@physx@@UEAAPEAXI@Z 000000018001c680 f i PxgAABBManager.obj
 0001:0001b680       ??_GPxgAABBManager@physx@@UEAAPEAXI@Z 000000018001c680 f i PxgAABBManager.obj
 0001:0001b6f0       ??_EPxgProcessFoundPairTask@physx@@UEAAPEAXI@Z 000000018001c6f0 f i PxgAABBManager.obj
 0001:0001b6f0       ??_EPxgPostSolveTask@physx@@UEAAPEAXI@Z 000000018001c6f0 f i PxgContext.obj
 0001:0001b6f0       ??_GPxgProcessFoundPairTask@physx@@UEAAPEAXI@Z 000000018001c6f0 f i PxgAABBManager.obj
 0001:0001b6f0       ??_GPxgCpuPreIntegrationTask@physx@@UEAAPEAXI@Z 000000018001c6f0 f i PxgContext.obj
 0001:0001b6f0       ??_GPxgGpuIntegrationTask@physx@@UEAAPEAXI@Z 000000018001c6f0 f i PxgContext.obj
 0001:0001b6f0       ??_EPxgGpuPrePrepTask@physx@@UEAAPEAXI@Z 000000018001c6f0 f i PxgContext.obj
 0001:0001b6f0       ??_GPxgGpuPrePrepTask@physx@@UEAAPEAXI@Z 000000018001c6f0 f i PxgContext.obj
 0001:0001b6f0       ??_EPxgCpuPreIntegrationTask@physx@@UEAAPEAXI@Z 000000018001c6f0 f i PxgContext.obj
 0001:0001b6f0       ??_GPxgPostSolveTask@physx@@UEAAPEAXI@Z 000000018001c6f0 f i PxgContext.obj
 0001:0001b6f0       ??_GPxgProcessLostPairTask@physx@@UEAAPEAXI@Z 000000018001c6f0 f i PxgAABBManager.obj
 0001:0001b6f0       ??_GPxgPostCopyToShapeSimTask@physx@@UEAAPEAXI@Z 000000018001c6f0 f i PxgSimulationController.obj
 0001:0001b6f0       ??_EPxgPostCopyToShapeSimTask@physx@@UEAAPEAXI@Z 000000018001c6f0 f i PxgSimulationController.obj
 0001:0001b6f0       ??_EPxgProcessLostPairTask@physx@@UEAAPEAXI@Z 000000018001c6f0 f i PxgAABBManager.obj
 0001:0001b6f0       ??_EPxgCpuPrepTask@physx@@UEAAPEAXI@Z 000000018001c6f0 f i PxgContext.obj
 0001:0001b6f0       ??_EPxgGpuIntegrationTask@physx@@UEAAPEAXI@Z 000000018001c6f0 f i PxgContext.obj
 0001:0001b6f0       ??_GPxgCpuPrepTask@physx@@UEAAPEAXI@Z 000000018001c6f0 f i PxgContext.obj
 0001:0001b730       ?addBounds@PxgAABBManager@physx@@UEAA_NIMW4Enum@FilterGroup@Bp@2@PEAXIW43ElementType@52@I@Z 000000018001c730 f   PxgAABBManager.obj
 0001:0001ba10       ?addReference@PxLightCpuTask@physx@@UEAAXXZ 000000018001ca10 f i PxgAABBManager.obj
 0001:0001ba20       ?createAggregate@PxgAABBManager@physx@@UEAAIIW4Enum@FilterGroup@Bp@2@PEAXIII@Z 000000018001ca20 f   PxgAABBManager.obj
 0001:0001c110       ?destroy@PxgAABBManager@physx@@UEAAXXZ 000000018001d110 f   PxgAABBManager.obj
 0001:0001c2d0       ?destroyAggregate@PxgAABBManager@physx@@UEAA_NAEAIAEAW4Enum@FilterGroup@Bp@2@I@Z 000000018001d2d0 f   PxgAABBManager.obj
 0001:0001c490       ?extend@?$PxBitMapBase@VPxVirtualAllocator@physx@@@physx@@IEAAXI@Z 000000018001d490 f i PxgAABBManager.obj
 0001:0001c560       ?getName@PxgProcessFoundPairTask@physx@@UEBAPEBDXZ 000000018001d560 f i PxgAABBManager.obj
 0001:0001c570       ?getName@PxgProcessLostPairTask@physx@@UEBAPEBDXZ 000000018001d570 f i PxgAABBManager.obj
 0001:0001c580       ?getReference@PxLightCpuTask@physx@@UEBAHXZ 000000018001d580 f i PxgAABBManager.obj
 0001:0001c590       ?gpuDmaDataUp@PxgAABBManager@physx@@AEAAXXZ 000000018001d590 f   PxgAABBManager.obj
 0001:0001cc80       ?growAndPushBack@?$PxArray@IV?$PxReflectionAllocator@I@physx@@@physx@@IEAAAEAIAEBI@Z 000000018001dc80 f i PxgAABBManager.obj
 0001:0001cda0       ?growAndPushBack@?$PxArray@IVPxVirtualAllocator@physx@@@physx@@IEAAAEAIAEBI@Z 000000018001dda0 f i PxgAABBManager.obj
 0001:0001ce80       ?growAndPushBack@?$PxArray@UAABBOverlap@Bp@physx@@V?$PxReflectionAllocator@UAABBOverlap@Bp@physx@@@3@@physx@@IEAAAEAUAABBOverlap@Bp@2@AEBU342@@Z 000000018001de80 f i PxgAABBManager.obj
 0001:0001cfb0       ?growAndPushBack@?$PxArray@W4Enum@FilterGroup@Bp@physx@@V?$PxReflectionAllocator@W4Enum@FilterGroup@Bp@physx@@@4@@physx@@IEAAAEAW4Enum@FilterGroup@Bp@2@AEBW43452@@Z 000000018001dfb0 f i PxgAABBManager.obj
 0001:0001d0d0       ?growAndSet@?$PxBitMapBase@VPxAllocator@physx@@@physx@@QEAAXI@Z 000000018001e0d0 f i PxgAABBManager.obj
 0001:0001d1f0       ?growAndSet@?$PxBitMapBase@VPxVirtualAllocator@physx@@@physx@@QEAAXI@Z 000000018001e1f0 f i PxgAABBManager.obj
 0001:0001d2e0       ?postBroadPhase@PxgAABBManager@physx@@UEAAXPEAVPxBaseTask@2@AEAVFlushPool@Cm@2@@Z 000000018001e2e0 f   PxgAABBManager.obj
 0001:0001d540       ?preBpUpdate_GPU@PxgAABBManager@physx@@AEAAXXZ 000000018001e540 f   PxgAABBManager.obj
 0001:0001d890       ?processFoundPairs@PxgAABBManager@physx@@QEAAXXZ 000000018001e890 f   PxgAABBManager.obj
 0001:0001dbf0       ?processLostPairs@PxgAABBManager@physx@@QEAAXXZ 000000018001ebf0 f   PxgAABBManager.obj
 0001:0001de90       ?reallocateChangedAABBMgActorHandleMap@PxgAABBManager@physx@@UEAAXI@Z 000000018001ee90 f   PxgAABBManager.obj
 0001:0001df50       ?recreate@?$PxArray@VPxgConstraintIdMapEntry@physx@@VPxVirtualAllocator@2@@physx@@IEAAXI@Z 000000018001ef50 f i PxgJointManager.obj
 0001:0001df50       ?recreate@?$PxArray@UPxsContactManagerOutputCounts@physx@@VPxVirtualAllocator@2@@physx@@IEAAXI@Z 000000018001ef50 f i PxgNarrowphaseCore.obj
 0001:0001df50       ?recreate@?$PxArray@W4Enum@FilterGroup@Bp@physx@@VPxVirtualAllocator@4@@physx@@IEAAXI@Z 000000018001ef50 f i BpAABBManagerBase.obj
 0001:0001df50       ?recreate@?$PxArray@IVPxVirtualAllocator@physx@@@physx@@IEAAXI@Z 000000018001ef50 f i PxgAABBManager.obj
 0001:0001dff0       ?recreate@?$PxArray@PEAVPxgAggregateBuffer@physx@@V?$PxReflectionAllocator@PEAVPxgAggregateBuffer@physx@@@2@@physx@@IEAAXI@Z 000000018001eff0 f i PxgAABBManager.obj
 0001:0001e0e0       ?recreate@?$PxArray@UAABBOverlap@Bp@physx@@V?$PxReflectionAllocator@UAABBOverlap@Bp@physx@@@3@@physx@@IEAAXI@Z 000000018001f0e0 f i PxgAABBManager.obj
 0001:0001e1f0       ?recreate@?$PxArray@UPxgAggregate@physx@@V?$PxReflectionAllocator@UPxgAggregate@physx@@@2@@physx@@IEAAXI@Z 000000018001f1f0 f i PxgAABBManager.obj
 0001:0001e340       ?recreate@?$PxArray@UPxgAggregate@physx@@VPxVirtualAllocator@2@@physx@@IEAAXI@Z 000000018001f340 f i PxgAABBManager.obj
 0001:0001e430       ?recreate@?$PxArray@UPxgAggregatePair@physx@@VPxVirtualAllocator@2@@physx@@IEAAXI@Z 000000018001f430 f i PxgAABBManager.obj
 0001:0001e430       ?recreate@?$PxArray@UErrorAccumulator@Dy@physx@@VPxVirtualAllocator@3@@physx@@IEAAXI@Z 000000018001f430 f i PxgCudaSolverCore.obj
 0001:0001e4e0       ?release@PxLightCpuTask@physx@@UEAAXXZ 000000018001f4e0 f i PxgAABBManager.obj
 0001:0001e500       ?releaseDeferredAggregateIds@PxgAABBManager@physx@@UEAAXXZ 000000018001f500 f   PxgAABBManager.obj
 0001:0001e620       ?removeBounds@PxgAABBManager@physx@@UEAA_NI@Z 000000018001f620 f   PxgAABBManager.obj
 0001:0001e9e0       ?removeReference@PxLightCpuTask@physx@@UEAAXXZ 000000018001f9e0 f i PxgAABBManager.obj
 0001:0001ea00       ?resize@?$PxArray@IVPxVirtualAllocator@physx@@@physx@@QEAAXIAEBI@Z 000000018001fa00 f i PxgAABBManager.obj
 0001:0001eac0       ?resize@?$PxArray@PEAVPxgAggregateBuffer@physx@@V?$PxReflectionAllocator@PEAVPxgAggregateBuffer@physx@@@2@@physx@@QEAAXIAEBQEAVPxgAggregateBuffer@2@@Z 000000018001fac0 f i PxgAABBManager.obj
 0001:0001eb80       ?resize@?$PxArray@UAABBOverlap@Bp@physx@@V?$PxReflectionAllocator@UAABBOverlap@Bp@physx@@@3@@physx@@QEAAXIAEBUAABBOverlap@Bp@2@@Z 000000018001fb80 f i PxgAABBManager.obj
 0001:0001ec00       ?resize@?$PxArray@UPxgAggregate@physx@@V?$PxReflectionAllocator@UPxgAggregate@physx@@@2@@physx@@QEAAXIAEBUPxgAggregate@2@@Z 000000018001fc00 f i PxgAABBManager.obj
 0001:0001ecc0       ?resize@?$PxArray@UErrorAccumulator@Dy@physx@@VPxVirtualAllocator@3@@physx@@QEAAXIAEBUErrorAccumulator@Dy@2@@Z 000000018001fcc0 f i PxgCudaSolverCore.obj
 0001:0001ecc0       ?resize@?$PxArray@UPxgAggregatePair@physx@@VPxVirtualAllocator@2@@physx@@QEAAXIAEBUPxgAggregatePair@2@@Z 000000018001fcc0 f i PxgAABBManager.obj
 0001:0001ed40       ?run@Task@Cm@physx@@UEAAXXZ 000000018001fd40 f i PxgAABBManager.obj
 0001:0001ed80       ?runInternal@PxgProcessFoundPairTask@physx@@UEAAXXZ 000000018001fd80 f   PxgAABBManager.obj
 0001:0001ed90       ?runInternal@PxgProcessLostPairTask@physx@@UEAAXXZ 000000018001fd90 f   PxgAABBManager.obj
 0001:0001eda0       ?setGPUStateChanged@PxgAABBManager@physx@@UEAAXXZ 000000018001fda0 f i PxgAABBManager.obj
 0001:0001edb0       ?setPersistentStateChanged@PxgAABBManager@physx@@UEAAXXZ 000000018001fdb0 f i PxgAABBManager.obj
 0001:0001edc0       ?updateBPFirstPass@PxgAABBManager@physx@@UEAAXIAEAVFlushPool@Cm@2@_NPEAVPxBaseTask@2@@Z 000000018001fdc0 f   PxgAABBManager.obj
 0001:0001f250       ?updateBPSecondPass@PxgAABBManager@physx@@UEAAXPEAVPxcScratchAllocator@2@PEAVPxBaseTask@2@@Z 0000000180020250 f   PxgAABBManager.obj
 0001:0001fda0       ?updateDescriptor@PxgAABBManager@physx@@AEAAXPEAUCUstream_st@@@Z 0000000180020da0 f   PxgAABBManager.obj
 0001:00020010       initCommonKernels0         0000000180021010 f   MemCopyBalanced.obj
 0001:00020020       MemCopyBalanced            0000000180021020 f   MemCopyBalanced.obj
 0001:000200f0       clampMaxValue              00000001800210f0 f   MemCopyBalanced.obj
 0001:000201c0       clampMaxValues             00000001800211c0 f   MemCopyBalanced.obj
 0001:00020300       ?__device_stub__Z15MemCopyBalancedPN5physx14PxgCopyManager8CopyDescEj@@YAXPEIAUCopyDesc@PxgCopyManager@physx@@I@Z 0000000180021300 f   MemCopyBalanced.obj
 0001:000203d0       ?__device_stub__Z13clampMaxValuePjj@@YAXPEAII@Z 00000001800213d0 f   MemCopyBalanced.obj
 0001:000204a0       ?__device_stub__Z14clampMaxValuesPjS_S_j@@YAXPEAI00I@Z 00000001800214a0 f   MemCopyBalanced.obj
 0001:00020840       initCommonKernels1         0000000180021840 f   radixSortImpl.obj
 0001:00020850       radixSortMultiBlockLaunch  0000000180021850 f   radixSortImpl.obj
 0001:00020920       radixSortMultiCalculateRanksLaunch 0000000180021920 f   radixSortImpl.obj
 0001:000209f0       radixSortMultiBlockLaunchWithoutCount 00000001800219f0 f   radixSortImpl.obj
 0001:00020ac0       radixSortMultiCalculateRanksLaunchWithoutCount 0000000180021ac0 f   radixSortImpl.obj
 0001:00020b90       radixSortMultiBlockLaunchWithCount 0000000180021b90 f   radixSortImpl.obj
 0001:00020c90       radixSortMultiCalculateRanksLaunchWithCount 0000000180021c90 f   radixSortImpl.obj
 0001:00020d90       radixSortCopyHigh32Bits    0000000180021d90 f   radixSortImpl.obj
 0001:00020ea0       radixSortDoubleCopyHigh32Bits 0000000180021ea0 f   radixSortImpl.obj
 0001:00020ff0       radixSortCopy              0000000180021ff0 f   radixSortImpl.obj
 0001:00021100       radixSortDoubleCopy        0000000180022100 f   radixSortImpl.obj
 0001:00021250       radixSortCopyBits2         0000000180022250 f   radixSortImpl.obj
 0001:00021370       radixSortCopy2             0000000180022370 f   radixSortImpl.obj
 0001:000214b0       ?__device_stub__Z25radixSortMultiBlockLaunchPN5physx21PxgRadixSortBlockDescEj@@YAXPEAUPxgRadixSortBlockDesc@physx@@I@Z 00000001800224b0 f   radixSortImpl.obj
 0001:00021580       ?__device_stub__Z34radixSortMultiCalculateRanksLaunchPN5physx21PxgRadixSortBlockDescEj@@YAXPEAUPxgRadixSortBlockDesc@physx@@I@Z 0000000180022580 f   radixSortImpl.obj
 0001:00021650       ?__device_stub__Z37radixSortMultiBlockLaunchWithoutCountPN5physx16PxgRadixSortDescEj@@YAXPEAUPxgRadixSortDesc@physx@@I@Z 0000000180022650 f   radixSortImpl.obj
 0001:00021720       ?__device_stub__Z46radixSortMultiCalculateRanksLaunchWithoutCountPN5physx16PxgRadixSortDescEj@@YAXPEAUPxgRadixSortDesc@physx@@I@Z 0000000180022720 f   radixSortImpl.obj
 0001:000217f0       ?__device_stub__Z34radixSortMultiBlockLaunchWithCountPN5physx16PxgRadixSortDescEjj@@YAXPEAUPxgRadixSortDesc@physx@@II@Z 00000001800227f0 f   radixSortImpl.obj
 0001:000218f0       ?__device_stub__Z43radixSortMultiCalculateRanksLaunchWithCountPN5physx16PxgRadixSortDescEjj@@YAXPEAUPxgRadixSortDesc@physx@@II@Z 00000001800228f0 f   radixSortImpl.obj
 0001:000219f0       ?__device_stub__Z23radixSortCopyHigh32BitsPKyPjS1_PKj@@YAXPEB_KPEAI1PEBI@Z 00000001800229f0 f   radixSortImpl.obj
 0001:00021b00       ?__device_stub__Z29radixSortDoubleCopyHigh32BitsPKyPjS1_S0_S1_S1_PKj@@YAXPEB_KPEAI1011PEBI@Z 0000000180022b00 f   radixSortImpl.obj
 0001:00021c20       ?__device_stub__Z13radixSortCopyPKyPyPjPKj@@YAXPEB_KPEA_KPEAIPEBI@Z 0000000180022c20 f   radixSortImpl.obj
 0001:00021d30       ?__device_stub__Z19radixSortDoubleCopyPKyPyPjS0_S1_S2_PKj@@YAXPEB_KPEA_KPEAI012PEBI@Z 0000000180022d30 f   radixSortImpl.obj
 0001:00021e50       ?__device_stub__Z18radixSortCopyBits2PKyPjS1_jb@@YAXPEB_KPEAI1I_N@Z 0000000180022e50 f   radixSortImpl.obj
 0001:00021f60       ?__device_stub__Z14radixSortCopy2PKyPyPjj@@YAXPEB_KPEA_KPEAII@Z 0000000180022f60 f   radixSortImpl.obj
 0001:00022450       initCommonKernels2         0000000180023450 f   utility.obj
 0001:00022460       interleaveBuffers          0000000180023460 f   utility.obj
 0001:00022570       normalVectorsAreaWeighted  0000000180023570 f   utility.obj
 0001:00022630       zeroNormals                0000000180023630 f   utility.obj
 0001:000226f0       normalizeNormals           00000001800236f0 f   utility.obj
 0001:000227b0       interpolateSkinnedClothVertices 00000001800237b0 f   utility.obj
 0001:00022870       interpolateSkinnedSoftBodyVertices 0000000180023870 f   utility.obj
 0001:00022960       ?__device_stub__Z17interleaveBuffersPK6float4S1_jPN5physx7PxVec3TIfEE@@YAXPEIBUfloat4@@0IPEAV?$PxVec3T@M@physx@@@Z 0000000180023960 f   utility.obj
 0001:00022a70       ?__device_stub__Z25normalVectorsAreaWeightedPN5physx24PxTrimeshSkinningGpuDataE@@YAXPEAUPxTrimeshSkinningGpuData@physx@@@Z 0000000180023a70 f   utility.obj
 0001:00022b30       ?__device_stub__Z11zeroNormalsPN5physx24PxTrimeshSkinningGpuDataE@@YAXPEAUPxTrimeshSkinningGpuData@physx@@@Z 0000000180023b30 f   utility.obj
 0001:00022bf0       ?__device_stub__Z16normalizeNormalsPN5physx24PxTrimeshSkinningGpuDataE@@YAXPEAUPxTrimeshSkinningGpuData@physx@@@Z 0000000180023bf0 f   utility.obj
 0001:00022cb0       ?__device_stub__Z31interpolateSkinnedClothVerticesPN5physx24PxTrimeshSkinningGpuDataE@@YAXPEAUPxTrimeshSkinningGpuData@physx@@@Z 0000000180023cb0 f   utility.obj
 0001:00022d70       ?__device_stub__Z34interpolateSkinnedSoftBodyVerticesPN5physx24PxTetmeshSkinningGpuDataE@@YAXPEAUPxTetmeshSkinningGpuData@physx@@@Z 0000000180023d70 f   utility.obj
 0001:00023200       ??0PxgCopyManager@physx@@QEAA@PEAVPxgHeapMemoryAllocatorManager@1@@Z 0000000180024200 f   PxgCopyManager.obj
 0001:00023240       ?createFinishedEvent@PxgCopyManager@physx@@QEAAXPEAVPxCudaContext@2@@Z 0000000180024240 f   PxgCopyManager.obj
 0001:00023270       ?destroyFinishedEvent@PxgCopyManager@physx@@QEAAXPEAVPxCudaContext@2@@Z 0000000180024270 f   PxgCopyManager.obj
 0001:000232a0       ?dispatchCopy@PxgCopyManager@physx@@QEAAXPEAUCUstream_st@@PEAVPxCudaContextManager@2@PEAVKernelWrangler@2@@Z 00000001800242a0 f   PxgCopyManager.obj
 0001:00023450       ?pushDeferredHtoD@PxgCopyManager@physx@@QEAAXAEBUCopyDesc@12@@Z 0000000180024450 f   PxgCopyManager.obj
 0001:000234d0       ?recreate@?$PxArray@EVPxVirtualAllocator@physx@@@physx@@IEAAXI@Z 00000001800244d0 f i PxgCopyManager.obj
 0001:00023570       ?resize@?$PxArray@EVPxVirtualAllocator@physx@@@physx@@QEAAXIAEBE@Z 0000000180024570 f i PxgCopyManager.obj
 0001:00023630       ?waitAndReset@PxgCopyManager@physx@@QEAAXPEAVPxCudaContext@2@@Z 0000000180024630 f   PxgCopyManager.obj
 0001:00023680       printf                     0000000180024680 f i PxgCopyManager.obj
 0001:000236e0       ??1PxgCudaBuffer@physx@@QEAA@XZ 00000001800246e0 f   PxgCudaBuffer.obj
 0001:000236e0       ?deallocate@PxgCudaBuffer@physx@@QEAAXXZ 00000001800246e0 f   PxgCudaBuffer.obj
 0001:00023720       ?allocate@PxgCudaBuffer@physx@@QEAAX_KPEBDH@Z 0000000180024720 f   PxgCudaBuffer.obj
 0001:000237b0       ?allocateCopyOldDataAsync@PxgCudaBuffer@physx@@QEAAX_KPEAVPxCudaContext@2@PEAUCUstream_st@@PEBDH@Z 00000001800247b0 f   PxgCudaBuffer.obj
 0001:00023870       ??0PxgPinnedHostLinearMemoryAllocator@physx@@QEAA@PEAVPxCudaContextManager@1@_K@Z 0000000180024870 f   PxgCudaMemoryAllocator.obj
 0001:00023920       ??1PxgPinnedHostLinearMemoryAllocator@physx@@QEAA@XZ 0000000180024920 f   PxgCudaMemoryAllocator.obj
 0001:00023950       ?PxgCudaDeviceMemoryAllocate@physx@@YAPEAXAEAVPxCudaContext@1@_KPEBDH@Z 0000000180024950 f   PxgCudaMemoryAllocator.obj
 0001:00023a80       ?PxgCudaDeviceMemoryDeallocate@physx@@YAXAEAVPxCudaContext@1@PEAX@Z 0000000180024a80 f   PxgCudaMemoryAllocator.obj
 0001:00023b50       ?PxgPinnedMemoryAllocate@physx@@YAPEAXAEAVPxCudaContext@1@_KPEBDH@Z 0000000180024b50 f   PxgCudaMemoryAllocator.obj
 0001:00023bd0       ?PxgPinnedMemoryDeallocate@physx@@YAXAEAVPxCudaContext@1@PEAX@Z 0000000180024bd0 f   PxgCudaMemoryAllocator.obj
 0001:00023bf0       ?allocate@PxgPinnedHostLinearMemoryAllocator@physx@@QEAAPEAX_K0@Z 0000000180024bf0 f   PxgCudaMemoryAllocator.obj
 0001:00023ca0       ?reserveAndGrow@PxgPinnedHostLinearMemoryAllocator@physx@@QEAAX_K@Z 0000000180024ca0 f   PxgCudaMemoryAllocator.obj
 0001:00023e00       ?reset@PxgPinnedHostLinearMemoryAllocator@physx@@QEAAXXZ 0000000180024e00 f   PxgCudaMemoryAllocator.obj
 0001:00023e10       ??$PxSort@PEAXU?$PxLess@PEAX@physx@@V?$PxReflectionAllocator@VBlockHeader@physx@@@2@@physx@@YAXPEAPEAXIAEBU?$PxLess@PEAX@0@AEBV?$PxReflectionAllocator@VBlockHeader@physx@@@0@I@Z 0000000180024e10 f i PxgHeapMemoryAllocator.obj
 0001:00024260       ??0PxgHeapMemoryAllocator@physx@@QEAA@IPEAVPxVirtualAllocatorCallback@1@@Z 0000000180025260 f   PxgHeapMemoryAllocator.obj
 0001:000244e0       ??0PxgHeapMemoryAllocatorManager@physx@@QEAA@IPEAVPxsMemoryManager@1@@Z 00000001800254e0 f   PxgHeapMemoryAllocator.obj
 0001:00024620       ??1?$PxPoolBase@VBlockHeader@physx@@V?$PxReflectionAllocator@VBlockHeader@physx@@@2@@physx@@QEAA@XZ 0000000180025620 f i PxgHeapMemoryAllocator.obj
 0001:00024780       ??1PxgHeapMemoryAllocator@physx@@UEAA@XZ 0000000180025780 f   PxgHeapMemoryAllocator.obj
 0001:00024940       ??_GPxVirtualAllocatorCallback@physx@@UEAAPEAXI@Z 0000000180025940 f i PxgHeapMemoryAllocator.obj
 0001:00024940       ??_EPxVirtualAllocatorCallback@physx@@UEAAPEAXI@Z 0000000180025940 f i PxgHeapMemoryAllocator.obj
 0001:00024970       ??_GPxgHeapMemoryAllocator@physx@@UEAAPEAXI@Z 0000000180025970 f i PxgHeapMemoryAllocator.obj
 0001:00024970       ??_EPxgHeapMemoryAllocator@physx@@UEAAPEAXI@Z 0000000180025970 f i PxgHeapMemoryAllocator.obj
 0001:000249e0       ??_GPxgHeapMemoryAllocatorManager@physx@@UEAAPEAXI@Z 00000001800259e0 f i PxgHeapMemoryAllocator.obj
 0001:000249e0       ??_EPxgHeapMemoryAllocatorManager@physx@@UEAAPEAXI@Z 00000001800259e0 f i PxgHeapMemoryAllocator.obj
 0001:00024a90       ??_GPxsHeapMemoryAllocatorManager@physx@@UEAAPEAXI@Z 0000000180025a90 f i PxgHeapMemoryAllocator.obj
 0001:00024a90       ??_EPxsHeapMemoryAllocatorManager@physx@@UEAAPEAXI@Z 0000000180025a90 f i PxgHeapMemoryAllocator.obj
 0001:00024ae0       ?allocate@PxgHeapMemoryAllocator@physx@@UEAAPEAX_KHPEBDH@Z 0000000180025ae0 f   PxgHeapMemoryAllocator.obj
 0001:00024e70       ?create@?$PxHashBase@V?$PxPair@QEAXVAllocationValue@physx@@@physx@@PEAXU?$PxHash@PEAX@2@UGetKey@?$PxHashMapBase@PEAXVAllocationValue@physx@@U?$PxHash@PEAX@2@VPxAllocator@2@@2@VPxAllocator@2@$00@physx@@QEAAPEAV?$PxPair@QEAXVAllocationValue@physx@@@2@AEBQEAXAEA_N@Z 0000000180025e70 f i PxgHeapMemoryAllocator.obj
 0001:00025010       ?deallocate@PxgHeapMemoryAllocator@physx@@UEAAXPEAX@Z 0000000180026010 f   PxgHeapMemoryAllocator.obj
 0001:00025260       ?deallocateDeferred@PxgHeapMemoryAllocator@physx@@QEAAXPEAX@Z 0000000180026260 f   PxgHeapMemoryAllocator.obj
 0001:000252a0       ?erase@?$PxHashBase@V?$PxPair@QEAXVAllocationValue@physx@@@physx@@PEAXU?$PxHash@PEAX@2@UGetKey@?$PxHashMapBase@PEAXVAllocationValue@physx@@U?$PxHash@PEAX@2@VPxAllocator@2@@2@VPxAllocator@2@$00@physx@@QEAA_NAEBQEAX@Z 00000001800262a0 f i PxgHeapMemoryAllocator.obj
 0001:00025450       ?flushDeferredDeallocs@PxgHeapMemoryAllocatorManager@physx@@UEAAXXZ 0000000180026450 f   PxgHeapMemoryAllocator.obj
 0001:000254b0       ?getDeviceHeapStats@PxgHeapMemoryAllocatorManager@physx@@UEBA?AUPxsHeapStats@2@XZ 00000001800264b0 f   PxgHeapMemoryAllocator.obj
 0001:00025530       ?getDeviceMemorySize@PxgHeapMemoryAllocatorManager@physx@@UEBA_KXZ 0000000180026530 f   PxgHeapMemoryAllocator.obj
 0001:00025550       ?getNextFreeBlock@PxgHeapMemoryAllocator@physx@@QEAAIIIPEBDH@Z 0000000180026550 f   PxgHeapMemoryAllocator.obj
 0001:000256d0       ?growAndPushBack@?$PxArray@PEAXV?$PxReflectionAllocator@PEAX@physx@@@physx@@IEAAAEAPEAXAEBQEAX@Z 00000001800266d0 f i PxgHeapMemoryAllocator.obj
 0001:000257f0       ?growAndPushBack@?$PxArray@PEAXV?$PxReflectionAllocator@VBlockHeader@physx@@@physx@@@physx@@IEAAAEAPEAXAEBQEAX@Z 00000001800267f0 f i PxgHeapMemoryAllocator.obj
 0001:00025910       ?growAndPushBack@?$PxArray@UExceptionalAlloc@physx@@V?$PxReflectionAllocator@UExceptionalAlloc@physx@@@2@@physx@@IEAAAEAUExceptionalAlloc@2@AEBU32@@Z 0000000180026910 f i PxgHeapMemoryAllocator.obj
 0001:00025a30       ?insertBlockHeader@Block@physx@@QEAAXIIAEAV?$PxPool@VBlockHeader@physx@@V?$PxReflectionAllocator@VBlockHeader@physx@@@2@@2@@Z 0000000180026a30 f   PxgHeapMemoryAllocator.obj
 0001:00025be0       ?recreate@?$PxArray@PEAXV?$PxReflectionAllocator@VBlockHeader@physx@@@physx@@@physx@@IEAAXI@Z 0000000180026be0 f i PxgHeapMemoryAllocator.obj
 0001:00025cd0       ?recreate@?$PxArray@VBlock@physx@@V?$PxReflectionAllocator@VBlock@physx@@@2@@physx@@IEAAXI@Z 0000000180026cd0 f i PxgHeapMemoryAllocator.obj
 0001:00025dd0       ?removeBlockHeader@Block@physx@@QEAAXPEAVBlockHeader@2@AEAV?$PxPool@VBlockHeader@physx@@V?$PxReflectionAllocator@VBlockHeader@physx@@@2@@2@@Z 0000000180026dd0 f   PxgHeapMemoryAllocator.obj
 0001:00025e20       ?reserveInternal@?$PxHashBase@V?$PxPair@QEAXVAllocationValue@physx@@@physx@@PEAXU?$PxHash@PEAX@2@UGetKey@?$PxHashMapBase@PEAXVAllocationValue@physx@@U?$PxHash@PEAX@2@VPxAllocator@2@@2@VPxAllocator@2@$00@physx@@AEAAXI@Z 0000000180026e20 f i PxgHeapMemoryAllocator.obj
 0001:00026020       ?resize@?$PxArray@VBlock@physx@@V?$PxReflectionAllocator@VBlock@physx@@@2@@physx@@QEAAXIAEBVBlock@2@@Z 0000000180027020 f i PxgHeapMemoryAllocator.obj
 0001:00026090       ??0PxgCudaKernelWranglerManager@physx@@QEAA@AEAVPxCudaContextManager@1@AEAVPxErrorCallback@1@@Z 0000000180027090 f   PxgKernelWrangler.obj
 0001:00026150       ??1PxgCudaKernelWranglerManager@physx@@QEAA@XZ 0000000180027150 f   PxgKernelWrangler.obj
 0001:00026180       ??_EPxgCudaAllocatorCallbackBase@physx@@UEAAPEAXI@Z 0000000180027180 f i PxgMemoryManager.obj
 0001:00026180       ??_GPxgCudaAllocatorCallbackBase@physx@@UEAAPEAXI@Z 0000000180027180 f i PxgMemoryManager.obj
 0001:00026280       ??_GPxsMemoryManager@physx@@UEAAPEAXI@Z 0000000180027280 f i PxgMemoryManager.obj
 0001:00026280       ??_EPxsMemoryManager@physx@@UEAAPEAXI@Z 0000000180027280 f i PxgMemoryManager.obj
 0001:000263b0       ?createPxgMemoryManager@physx@@YAPEAVPxsMemoryManager@1@PEAVPxCudaContextManager@1@@Z 00000001800273b0 f   PxgMemoryManager.obj
 0001:00026550       ?createPxgCommon@physx@@YAXXZ 0000000180027550 f   PxgCommon.obj
 0001:00026570       ??0CudaCtxMgr@physx@@QEAA@AEBVPxCudaContextManagerDesc@1@AEAVPxErrorCallback@1@_N@Z 0000000180027570 f   CudaContextManager.obj
 0001:00026ba0       ??_ECudaCtx@physx@@UEAAPEAXI@Z 0000000180027ba0 f i CudaContextManager.obj
 0001:00026ba0       ??_GCudaCtx@physx@@UEAAPEAXI@Z 0000000180027ba0 f i CudaContextManager.obj
 0001:00026bf0       ??_GCudaCtxMgr@physx@@UEAAPEAXI@Z 0000000180027bf0 f i CudaContextManager.obj
 0001:00026bf0       ??_ECudaCtxMgr@physx@@UEAAPEAXI@Z 0000000180027bf0 f i CudaContextManager.obj
 0001:00026d80       ??_EPxCudaContext@physx@@MEAAPEAXI@Z 0000000180027d80 f i CudaContextManager.obj
 0001:00026d80       ??_GPxCudaContext@physx@@MEAAPEAXI@Z 0000000180027d80 f i CudaContextManager.obj
 0001:00026db0       ??_EPxCudaContextManager@physx@@MEAAPEAXI@Z 0000000180027db0 f i CudaContextManager.obj
 0001:00026db0       ??_GPxCudaContextManager@physx@@MEAAPEAXI@Z 0000000180027db0 f i CudaContextManager.obj
 0001:00026de0       ??_EPxErrorCallback@physx@@UEAAPEAXI@Z 0000000180027de0 f i CudaContextManager.obj
 0001:00026de0       ??_GPxErrorCallback@physx@@UEAAPEAXI@Z 0000000180027de0 f i CudaContextManager.obj
 0001:00026e10       ?acquireContext@CudaCtxMgr@physx@@UEAAXXZ 0000000180027e10 f   CudaContextManager.obj
 0001:00026e20       ?allocDeviceBufferInternal@CudaCtxMgr@physx@@MEAAPEAX_KPEBDH@Z 0000000180027e20 f   CudaContextManager.obj
 0001:00026ec0       ?allocPinnedHostBufferInternal@CudaCtxMgr@physx@@MEAAPEAX_KPEBDH@Z 0000000180027ec0 f   CudaContextManager.obj
 0001:00026f60       ?canMapHostMemory@CudaCtxMgr@physx@@UEBA_NXZ 0000000180027f60 f   CudaContextManager.obj
 0001:00026f80       ?clearDeviceBufferAsyncInternal@CudaCtxMgr@physx@@MEAAXPEAXIPEAUCUstream_st@@H@Z 0000000180027f80 f   CudaContextManager.obj
 0001:00027040       ?contextIsValid@CudaCtxMgr@physx@@UEBA_NXZ 0000000180028040 f   CudaContextManager.obj
 0001:00027040       ?supportsArchSM10@CudaCtxMgr@physx@@UEBA_NXZ 0000000180028040 f   CudaContextManager.obj
 0001:00027050       ?copyDToDAsyncInternal@CudaCtxMgr@physx@@MEAAXPEAXPEBXIPEAUCUstream_st@@@Z 0000000180028050 f   CudaContextManager.obj
 0001:00027110       ?copyDToHAsyncInternal@CudaCtxMgr@physx@@MEAAXPEAXPEBXIPEAUCUstream_st@@@Z 0000000180028110 f   CudaContextManager.obj
 0001:000271d0       ?copyDToHInternal@CudaCtxMgr@physx@@MEAAXPEAXPEBXI@Z 00000001800281d0 f   CudaContextManager.obj
 0001:00027290       ?copyHToDAsyncInternal@CudaCtxMgr@physx@@MEAAXPEAXPEBXIPEAUCUstream_st@@@Z 0000000180028290 f   CudaContextManager.obj
 0001:00027350       ?copyHToDInternal@CudaCtxMgr@physx@@MEAAXPEAXPEBXI@Z 0000000180028350 f   CudaContextManager.obj
 0001:00027410       ?createCudaContextManager@physx@@YAPEAVPxCudaContextManager@1@AEBVPxCudaContextManagerDesc@1@AEAVPxErrorCallback@1@_N@Z 0000000180028410 f   CudaContextManager.obj
 0001:000274b0       ?eventCreate@CudaCtx@physx@@UEAA?AU?$PxCUenum@W4cudaError_enum@@@2@PEAPEAUCUevent_st@@I@Z 00000001800284b0 f   CudaContextManager.obj
 0001:00027500       ?eventDestroy@CudaCtx@physx@@UEAA?AU?$PxCUenum@W4cudaError_enum@@@2@PEAUCUevent_st@@@Z 0000000180028500 f   CudaContextManager.obj
 0001:00027530       ?eventQuery@CudaCtx@physx@@UEAA?AU?$PxCUenum@W4cudaError_enum@@@2@PEAUCUevent_st@@@Z 0000000180028530 f   CudaContextManager.obj
 0001:00027580       ?eventRecord@CudaCtx@physx@@UEAA?AU?$PxCUenum@W4cudaError_enum@@@2@PEAUCUevent_st@@PEAUCUstream_st@@@Z 0000000180028580 f   CudaContextManager.obj
 0001:000275d0       ?eventSynchronize@CudaCtx@physx@@UEAA?AU?$PxCUenum@W4cudaError_enum@@@2@PEAUCUevent_st@@@Z 00000001800285d0 f   CudaContextManager.obj
 0001:00027620       ?freeDeviceBufferInternal@CudaCtxMgr@physx@@MEAAXPEAX@Z 0000000180028620 f   CudaContextManager.obj
 0001:000276b0       ?freePinnedHostBufferInternal@CudaCtxMgr@physx@@MEAAXPEAX@Z 00000001800286b0 f   CudaContextManager.obj
 0001:00027740       ?getClockRate@CudaCtxMgr@physx@@UEBAIXZ 0000000180028740 f   CudaContextManager.obj
 0001:00027750       ?getAnisotropy2DevicePointer@PxgAnisotropyGenerator@physx@@UEBAPEAV?$PxVec4T@M@2@XZ 0000000180028750 f i PxgAnisotropy.obj
 0001:00027750       ?getVelocitiesD@?$PxgParticleBufferBase@VPxsParticleBuffer@physx@@@physx@@UEBAPEAV?$PxVec4T@M@2@XZ 0000000180028750 f i PxgParticleSystemCore.obj
 0001:00027750       ?getVelocitiesD@?$PxgParticleBufferBase@VPxsParticleAndDiffuseBuffer@physx@@@physx@@UEBAPEAV?$PxVec4T@M@2@XZ 0000000180028750 f i PxgParticleSystemCore.obj
 0001:00027750       ?getContext@CudaCtxMgr@physx@@UEAAPEAUCUctx_st@@XZ 0000000180028750 f i CudaContextManager.obj
 0001:00027750       ?getVelocitiesD@?$PxgParticleBufferBase@VPxsParticleRigidBuffer@physx@@@physx@@UEBAPEAV?$PxVec4T@M@2@XZ 0000000180028750 f i PxgParticleSystemCore.obj
 0001:00027750       ?getVelocitiesD@?$PxgParticleBufferBase@VPxsParticleClothBuffer@physx@@@physx@@UEBAPEAV?$PxVec4T@M@2@XZ 0000000180028750 f i PxgParticleSystemCore.obj
 0001:00027760       ?getCuModules@CudaCtxMgr@physx@@UEAAPEAPEAUCUmod_st@@XZ 0000000180028760 f i CudaContextManager.obj
 0001:00027770       ?getCudaContext@CudaCtxMgr@physx@@UEAAPEAVPxCudaContext@2@XZ 0000000180028770 f i CudaContextManager.obj
 0001:00027770       ?getAnisotropy3DevicePointer@PxgAnisotropyGenerator@physx@@UEBAPEAV?$PxVec4T@M@2@XZ 0000000180028770 f i PxgAnisotropy.obj
 0001:00027770       ?getPhasesD@?$PxgParticleBufferBase@VPxsParticleAndDiffuseBuffer@physx@@@physx@@UEBAPEAIXZ 0000000180028770 f i PxgParticleSystemCore.obj
 0001:00027770       ?getPhasesD@?$PxgParticleBufferBase@VPxsParticleBuffer@physx@@@physx@@UEBAPEAIXZ 0000000180028770 f i PxgParticleSystemCore.obj
 0001:00027770       ?getPhasesD@?$PxgParticleBufferBase@VPxsParticleRigidBuffer@physx@@@physx@@UEBAPEAIXZ 0000000180028770 f i PxgParticleSystemCore.obj
 0001:00027770       ?getPhasesD@?$PxgParticleBufferBase@VPxsParticleClothBuffer@physx@@@physx@@UEBAPEAIXZ 0000000180028770 f i PxgParticleSystemCore.obj
 0001:00027780       ?getDevice@CudaCtxMgr@physx@@UEBAHXZ 0000000180028780 f   CudaContextManager.obj
 0001:00027790       ?getDeviceMemoryInfo@CudaCtxMgr@physx@@UEBAXAEA_K0@Z 0000000180028790 f   CudaContextManager.obj
 0001:000277a0       ?getDeviceName@CudaCtxMgr@physx@@UEBAPEBDXZ 00000001800287a0 f   CudaContextManager.obj
 0001:000277c0       ?getDeviceTotalMemBytes@CudaCtxMgr@physx@@UEBA_KXZ 00000001800287c0 f   CudaContextManager.obj
 0001:000277c0       ?getPhasesH@?$PxgParticleBufferBase@VPxsParticleAndDiffuseBuffer@physx@@@physx@@UEBAPEAIXZ 00000001800287c0 f   PxgParticleSystemCore.obj
 0001:000277c0       ?getPhasesH@?$PxgParticleBufferBase@VPxsParticleRigidBuffer@physx@@@physx@@UEBAPEAIXZ 00000001800287c0 f   PxgParticleSystemCore.obj
 0001:000277c0       ?getPhasesH@?$PxgParticleBufferBase@VPxsParticleBuffer@physx@@@physx@@UEBAPEAIXZ 00000001800287c0 f   PxgParticleSystemCore.obj
 0001:000277c0       ?getPhasesH@?$PxgParticleBufferBase@VPxsParticleClothBuffer@physx@@@physx@@UEBAPEAIXZ 00000001800287c0 f   PxgParticleSystemCore.obj
 0001:000277d0       ?getDriverVersion@CudaCtxMgr@physx@@UEBAHXZ 00000001800287d0 f   CudaContextManager.obj
 0001:000277e0       ?getLastError@CudaCtx@physx@@UEAA?AU?$PxCUenum@W4cudaError_enum@@@2@XZ 00000001800287e0 f i CudaContextManager.obj
 0001:00027800       ?getMappedDevicePtr@CudaCtxMgr@physx@@UEAA_KPEAX@Z 0000000180028800 f   CudaContextManager.obj
 0001:00027880       ?getMaxThreadsPerBlock@CudaCtxMgr@physx@@UEBAIXZ 0000000180028880 f   CudaContextManager.obj
 0001:00027890       ?getMultiprocessorCount@CudaCtxMgr@physx@@UEBAHXZ 0000000180028890 f   CudaContextManager.obj
 0001:000278a0       ?getSharedMemPerBlock@CudaCtxMgr@physx@@UEBAHXZ 00000001800288a0 f   CudaContextManager.obj
 0001:000278b0       ?getSharedMemPerMultiprocessor@CudaCtxMgr@physx@@UEBAHXZ 00000001800288b0 f   CudaContextManager.obj
 0001:000278c0       ?getUsingConcurrentStreams@CudaCtxMgr@physx@@UEBA_NXZ 00000001800288c0 f   CudaContextManager.obj
 0001:000278d0       ?isInAbortMode@CudaCtx@physx@@UEAA_NXZ 00000001800288d0 f i CudaContextManager.obj
 0001:000278e0       ?isIntegrated@CudaCtxMgr@physx@@UEBA_NXZ 00000001800288e0 f   CudaContextManager.obj
 0001:00027900       ?launchKernel@CudaCtx@physx@@UEAA?AU?$PxCUenum@W4cudaError_enum@@@2@PEAUCUfunc_st@@IIIIIIIPEAUCUstream_st@@PEAPEAX2PEBDH@Z 0000000180028900 f   CudaContextManager.obj
 0001:00027a20       ?launchKernel@CudaCtx@physx@@UEAA?AU?$PxCUenum@W4cudaError_enum@@@2@PEAUCUfunc_st@@IIIIIIIPEAUCUstream_st@@PEAUPxCudaKernelParam@2@_KPEAPEAXPEBDH@Z 0000000180028a20 f   CudaContextManager.obj
 0001:00027bd0       ?memAlloc@CudaCtx@physx@@UEAA?AU?$PxCUenum@W4cudaError_enum@@@2@PEA_K_K@Z 0000000180028bd0 f   CudaContextManager.obj
 0001:00027c20       ?memFree@CudaCtx@physx@@UEAA?AU?$PxCUenum@W4cudaError_enum@@@2@_K@Z 0000000180028c20 f   CudaContextManager.obj
 0001:00027c50       ?memFreeHost@CudaCtx@physx@@UEAA?AU?$PxCUenum@W4cudaError_enum@@@2@PEAX@Z 0000000180028c50 f   CudaContextManager.obj
 0001:00027c70       ?memHostAlloc@CudaCtx@physx@@UEAA?AU?$PxCUenum@W4cudaError_enum@@@2@PEAPEAX_KI@Z 0000000180028c70 f   CudaContextManager.obj
 0001:00027ca0       ?memHostGetDevicePointer@CudaCtx@physx@@UEAA?AU?$PxCUenum@W4cudaError_enum@@@2@PEA_KPEAXI@Z 0000000180028ca0 f   CudaContextManager.obj
 0001:00027ce0       ?memcpyDtoD@CudaCtx@physx@@UEAA?AU?$PxCUenum@W4cudaError_enum@@@2@_K00@Z 0000000180028ce0 f   CudaContextManager.obj
 0001:00027d80       ?memcpyDtoDAsync@CudaCtx@physx@@UEAA?AU?$PxCUenum@W4cudaError_enum@@@2@_K00PEAUCUstream_st@@@Z 0000000180028d80 f   CudaContextManager.obj
 0001:00027e70       ?memcpyDtoH@CudaCtx@physx@@UEAA?AU?$PxCUenum@W4cudaError_enum@@@2@PEAX_K1@Z 0000000180028e70 f   CudaContextManager.obj
 0001:00027f10       ?memcpyDtoHAsync@CudaCtx@physx@@UEAA?AU?$PxCUenum@W4cudaError_enum@@@2@PEAX_K1PEAUCUstream_st@@@Z 0000000180028f10 f   CudaContextManager.obj
 0001:00028000       ?memcpyHtoD@CudaCtx@physx@@UEAA?AU?$PxCUenum@W4cudaError_enum@@@2@_KPEBX0@Z 0000000180029000 f   CudaContextManager.obj
 0001:00028090       ?memcpyHtoDAsync@CudaCtx@physx@@UEAA?AU?$PxCUenum@W4cudaError_enum@@@2@_KPEBX0PEAUCUstream_st@@@Z 0000000180029090 f   CudaContextManager.obj
 0001:00028180       ?memcpyPeerAsync@CudaCtx@physx@@UEAA?AU?$PxCUenum@W4cudaError_enum@@@2@_KPEAUCUctx_st@@010PEAUCUstream_st@@@Z 0000000180029180 f   CudaContextManager.obj
 0001:000281e0       ?memsetD16@CudaCtx@physx@@UEAA?AU?$PxCUenum@W4cudaError_enum@@@2@_KG0@Z 00000001800291e0 f   CudaContextManager.obj
 0001:00028280       ?memsetD32@CudaCtx@physx@@UEAA?AU?$PxCUenum@W4cudaError_enum@@@2@_KI0@Z 0000000180029280 f   CudaContextManager.obj
 0001:00028330       ?memsetD32Async@CudaCtx@physx@@UEAA?AU?$PxCUenum@W4cudaError_enum@@@2@_KI0PEAUCUstream_st@@@Z 0000000180029330 f   CudaContextManager.obj
 0001:00028420       ?memsetD32AsyncInternal@CudaCtxMgr@physx@@MEAAXPEAXAEBIIPEAUCUstream_st@@@Z 0000000180029420 f   CudaContextManager.obj
 0001:000284e0       ?memsetD8@CudaCtx@physx@@UEAA?AU?$PxCUenum@W4cudaError_enum@@@2@_KE0@Z 00000001800294e0 f   CudaContextManager.obj
 0001:00028580       ?memsetD8Async@CudaCtx@physx@@UEAA?AU?$PxCUenum@W4cudaError_enum@@@2@_KE0PEAUCUstream_st@@@Z 0000000180029580 f   CudaContextManager.obj
 0001:00028670       ?memsetD8AsyncInternal@CudaCtxMgr@physx@@MEAAXPEAXAEBEIPEAUCUstream_st@@@Z 0000000180029670 f   CudaContextManager.obj
 0001:00028730       ?moduleGetFunction@CudaCtx@physx@@UEAA?AU?$PxCUenum@W4cudaError_enum@@@2@PEAPEAUCUfunc_st@@PEAUCUmod_st@@PEBD@Z 0000000180029730 f   CudaContextManager.obj
 0001:00028760       ?moduleLoadDataEx@CudaCtx@physx@@UEAA?AU?$PxCUenum@W4cudaError_enum@@@2@PEAPEAUCUmod_st@@PEBXIPEAU?$PxCUenum@W4CUjit_option_enum@@@2@PEAPEAX@Z 0000000180029760 f   CudaContextManager.obj
 0001:000287a0       ?moduleUnload@CudaCtx@physx@@UEAA?AU?$PxCUenum@W4cudaError_enum@@@2@PEAUCUmod_st@@@Z 00000001800297a0 f   CudaContextManager.obj
 0001:000287c0       ?recreate@?$PxArray@PEAUCUmod_st@@V?$PxReflectionAllocator@PEAUCUmod_st@@@physx@@@physx@@IEAAXI@Z 00000001800297c0 f i CudaContextManager.obj
 0001:000288b0       ?release@CudaCtx@physx@@UEAAXXZ 00000001800298b0 f   CudaContextManager.obj
 0001:000288d0       ?release@CudaCtxMgr@physx@@UEAAXXZ 00000001800298d0 f   CudaContextManager.obj
 0001:000288f0       ?releaseContext@CudaCtxMgr@physx@@UEAAXXZ 00000001800298f0 f   CudaContextManager.obj
 0001:00028950       ?resize@?$PxArray@PEAUCUmod_st@@V?$PxReflectionAllocator@PEAUCUmod_st@@@physx@@@physx@@QEAAXIAEBQEAUCUmod_st@@@Z 0000000180029950 f i CudaContextManager.obj
 0001:00028a10       ?setAbortMode@CudaCtx@physx@@UEAAX_N@Z 0000000180029a10 f   CudaContextManager.obj
 0001:00028a30       ?setUsingConcurrentStreams@CudaCtxMgr@physx@@UEAAX_N@Z 0000000180029a30 f   CudaContextManager.obj
 0001:00028a40       ?streamCreate@CudaCtx@physx@@UEAA?AU?$PxCUenum@W4cudaError_enum@@@2@PEAPEAUCUstream_st@@I@Z 0000000180029a40 f   CudaContextManager.obj
 0001:00028a90       ?streamCreateWithPriority@CudaCtx@physx@@UEAA?AU?$PxCUenum@W4cudaError_enum@@@2@PEAPEAUCUstream_st@@IH@Z 0000000180029a90 f   CudaContextManager.obj
 0001:00028af0       ?streamDestroy@CudaCtx@physx@@UEAA?AU?$PxCUenum@W4cudaError_enum@@@2@PEAUCUstream_st@@@Z 0000000180029af0 f   CudaContextManager.obj
 0001:00028b20       ?streamFlush@CudaCtx@physx@@UEAA?AU?$PxCUenum@W4cudaError_enum@@@2@PEAUCUstream_st@@@Z 0000000180029b20 f   CudaContextManager.obj
 0001:00028b50       ?streamSynchronize@CudaCtx@physx@@UEAA?AU?$PxCUenum@W4cudaError_enum@@@2@PEAUCUstream_st@@@Z 0000000180029b50 f   CudaContextManager.obj
 0001:00028ba0       ?streamWaitEvent@CudaCtx@physx@@UEAA?AU?$PxCUenum@W4cudaError_enum@@@2@PEAUCUstream_st@@PEAUCUevent_st@@@Z 0000000180029ba0 f   CudaContextManager.obj
 0001:00028be0       ?streamWaitEvent@CudaCtx@physx@@UEAA?AU?$PxCUenum@W4cudaError_enum@@@2@PEAUCUstream_st@@PEAUCUevent_st@@I@Z 0000000180029be0 f   CudaContextManager.obj
 0001:00028c30       ?supportsArchSM11@CudaCtxMgr@physx@@UEBA_NXZ 0000000180029c30 f   CudaContextManager.obj
 0001:00028c50       ?supportsArchSM12@CudaCtxMgr@physx@@UEBA_NXZ 0000000180029c50 f   CudaContextManager.obj
 0001:00028c70       ?supportsArchSM13@CudaCtxMgr@physx@@UEBA_NXZ 0000000180029c70 f   CudaContextManager.obj
 0001:00028c90       ?supportsArchSM20@CudaCtxMgr@physx@@UEBA_NXZ 0000000180029c90 f   CudaContextManager.obj
 0001:00028cb0       ?supportsArchSM30@CudaCtxMgr@physx@@UEBA_NXZ 0000000180029cb0 f   CudaContextManager.obj
 0001:00028cd0       ?supportsArchSM35@CudaCtxMgr@physx@@UEBA_NXZ 0000000180029cd0 f   CudaContextManager.obj
 0001:00028cf0       ?supportsArchSM50@CudaCtxMgr@physx@@UEBA_NXZ 0000000180029cf0 f   CudaContextManager.obj
 0001:00028d10       ?supportsArchSM52@CudaCtxMgr@physx@@UEBA_NXZ 0000000180029d10 f   CudaContextManager.obj
 0001:00028d30       ?supportsArchSM60@CudaCtxMgr@physx@@UEBA_NXZ 0000000180029d30 f   CudaContextManager.obj
 0001:00028d50       ?tryAcquireContext@CudaCtxMgr@physx@@UEAA_NXZ 0000000180029d50 f   CudaContextManager.obj
 0001:00028db0       ??0KernelWrangler@physx@@QEAA@AEAVPxCudaContextManager@1@AEAVPxErrorCallback@1@PEAPEBDG@Z 0000000180029db0 f   CudaKernelWrangler.obj
 0001:00028fc0       ??_EKernelWrangler@physx@@UEAAPEAXI@Z 0000000180029fc0 f i CudaKernelWrangler.obj
 0001:00028fc0       ??_GKernelWrangler@physx@@UEAAPEAXI@Z 0000000180029fc0 f i CudaKernelWrangler.obj
 0001:00029060       ?getCuFunctionName@KernelWrangler@physx@@QEBAPEBDG@Z 000000018002a060 f   CudaKernelWrangler.obj
 0001:00029070       ?recreate@?$PxArray@PEAUCUfunc_st@@V?$PxReflectionAllocator@PEAUCUfunc_st@@@physx@@@physx@@IEAAXI@Z 000000018002a070 f i CudaKernelWrangler.obj
 0001:00029160       ?resize@?$PxArray@PEAUCUfunc_st@@V?$PxReflectionAllocator@PEAUCUfunc_st@@@physx@@@physx@@QEAAXIAEBQEAUCUfunc_st@@@Z 000000018002a160 f i CudaKernelWrangler.obj
 0001:00029220       __cudaRegisterFatBinary    000000018002a220 f   CudaKernelWrangler.obj
 0001:00029230       __cudaRegisterFunction     000000018002a230 f   CudaKernelWrangler.obj
 0001:00029240       __cudaUnregisterFatBinary  000000018002a240 f   CudaKernelWrangler.obj
 0001:00029280       initNarrowphaseKernels0    000000018002a280 f   convexHFMidphase.obj
 0001:00029290       convexHeightFieldMidphase  000000018002a290 f   convexHFMidphase.obj
 0001:000294c0       ?__device_stub__Z25convexHeightFieldMidphasejfPKN5physx22PxgContactManagerInputEPKNS_18PxsCachedTransformEPKNS_9PxBounds3EPKfPKNS_8PxgShapeEPNS_14ConvexMeshPairEPNS_33PxgPersistentContactMultiManifoldEPNS_23PxsContactManagerOutputEPhPjSL_SL_j@@YAXIMPEIBUPxgContactManagerInput@physx@@PEIBUPxsCachedTransform@2@PEIBVPxBounds3@2@PEIBMPEIBUPxgShape@2@PEIAUConvexMeshPair@2@PEIAUPxgPersistentContactMultiManifold@2@PEIAUPxsContactManagerOutput@2@PEIAEPEIAI99I@Z 000000018002a4c0 f   convexHFMidphase.obj
 0001:00029b90       initNarrowphaseKernels1    000000018002ab90 f   convexHeightfield.obj
 0001:00029ba0       ?buildTriangleInformations@@YAXIAEAUPxgShape@physx@@PEAUConvexMeshScratch@2@AEAV?$PxTransformT@M@2@@Z 000000018002aba0 f   convexHeightfield.obj
 0001:00029bc0       ?convexHeightfieldNarrowphaseCore@@YAXIPEIBUPxgContactManagerInput@physx@@PEIBUPxsCachedTransform@2@PEIBMPEIBUPxgShape@2@PEIAUConvexMeshPair@2@PEIAPEAUConvexTriNormalAndIndex@2@PEIAPEAUConvexTriContacts@2@PEIAPEAMPEIAPEAUConvexTriIntermediateData@2@PEIAPEAI9PEIBUuint4@@PEIAIPEIAIPEAUConvexTriContact@2@IPEAI@Z 000000018002abc0 f   convexHeightfield.obj
 0001:00029be0       convexHeightfieldNarrowphase 000000018002abe0 f   convexHeightfield.obj
 0001:00029e70       ?sphereHeightfieldNarrowphaseCore@@YAIIPEIBUPxgContactManagerInput@physx@@PEIBUPxsCachedTransform@2@PEIBMPEIBUPxgShape@2@PEIAUConvexMeshPair@2@PEIAPEAUConvexTriNormalAndIndex@2@PEIAPEAUConvexTriContacts@2@PEIAPEAMPEIAPEAUConvexTriIntermediateData@2@PEIAPEAI9AEBUuint4@@AEBU12@AEAU42@PEIAIPEIAIAEAV?$PxVec3T@M@2@AEAMAEAI@Z 000000018002ae70 f   convexHeightfield.obj
 0001:00029e90       ?computeTriangleFlags@@YAEAEBUPxgTriangle@@AEBV?$PxVec3T@M@physx@@PEBIGAEBVPxMeshScale@3@IIPEBUPxHeightFieldSample@3@@Z 000000018002ae90 f   convexHeightfield.obj
 0001:00029eb0       ?capsuleHeightfieldNarrowphaseCore@@YAIIPEIBUPxgContactManagerInput@physx@@PEIBUPxsCachedTransform@2@PEIBMPEIBUPxgShape@2@PEIAUConvexMeshPair@2@PEIAPEAUConvexTriNormalAndIndex@2@PEIAPEAUConvexTriContacts@2@PEIAPEAMPEIAPEAUConvexTriIntermediateData@2@PEIAPEAI9AEBUuint4@@AEBU12@AEAU42@PEAV?$PxVec3T@M@2@PEAM@Z 000000018002aeb0 f   convexHeightfield.obj
 0001:00029ed0       sphereHeightfieldNarrowphase 000000018002aed0 f   convexHeightfield.obj
 0001:0002a190       ?__device_stub__Z28convexHeightfieldNarrowphasePKN5physx22PxgContactManagerInputEPKNS_18PxsCachedTransformEPKfPKNS_8PxgShapeEPNS_14ConvexMeshPairEPPNS_23ConvexTriNormalAndIndexEPPNS_17ConvexTriContactsEPPfPPNS_25ConvexTriIntermediateDataEPPjSP_PhSO_SO_SO_jPNS_16ConvexTriContactESO_SO_SO_j@@YAXPEIBUPxgContactManagerInput@physx@@PEIBUPxsCachedTransform@2@PEIBMPEIBUPxgShape@2@PEIAUConvexMeshPair@2@PEIAPEAUConvexTriNormalAndIndex@2@PEIAPEAUConvexTriContacts@2@PEIAPEAMPEIAPEAUConvexTriIntermediateData@2@PEIAPEAI9PEIAEPEIAIPEIAIPEIAIIPEAUConvexTriContact@2@PEAIPEAIPEAII@Z 000000018002b190 f   convexHeightfield.obj
 0001:0002a370       ?__device_stub__Z28sphereHeightfieldNarrowphasePKN5physx22PxgContactManagerInputEPKNS_18PxsCachedTransformEPKfPKNS_8PxgShapeEPNS_14ConvexMeshPairEPPNS_23ConvexTriNormalAndIndexEPPNS_17ConvexTriContactsEPPfPPNS_25ConvexTriIntermediateDataEPPjSP_PhSO_SO_SO_jPNS_16ConvexTriContactESO_SO_SO_j@@YAXPEIBUPxgContactManagerInput@physx@@PEIBUPxsCachedTransform@2@PEIBMPEIBUPxgShape@2@PEIAUConvexMeshPair@2@PEIAPEAUConvexTriNormalAndIndex@2@PEIAPEAUConvexTriContacts@2@PEIAPEAMPEIAPEAUConvexTriIntermediateData@2@PEIAPEAI9PEIAEPEIAIPEIAIPEIAIIPEAUConvexTriContact@2@PEAIPEAIPEAII@Z 000000018002b370 f   convexHeightfield.obj
 0001:0002a8b0       initNarrowphaseKernels2    000000018002b8b0 f   convexMesh.obj
 0001:0002a8c0       ?getShapeSpaceVerts@@YAXAEAV?$PxVec3T@M@physx@@00AEBVMeshScaling@@IPEIBUuint4@@PEIBUfloat4@@@Z 000000018002b8c0 f   convexMesh.obj
 0001:0002a8e0       ?convexTrimeshNarrowphaseCore@@YAXIAEAUPxgShape@physx@@0IIUuint4@@PEIBUPxsCachedTransform@2@PEIBMPEIBU12@PEIAUConvexMeshPair@2@PEIAPEAUConvexTriNormalAndIndex@2@PEIAPEAUConvexTriContacts@2@PEIAPEAMPEIAPEAUConvexTriIntermediateData@2@PEIAPEAIPEIAPEAIPEIBU3@PEAIPEAIPECIPEAUConvexTriContact@2@IPEAI@Z 000000018002b8e0 f   convexMesh.obj
 0001:0002a900       ?sphereTrimeshNarrowphaseCore@@YAIIAEBUPxgContactManagerInput@physx@@AEBUPxgShape@2@1Uuint4@@PEIBUPxsCachedTransform@2@PEIBMPEIAUConvexMeshPair@2@PEIAPEAUConvexTriNormalAndIndex@2@PEIAPEAUConvexTriContacts@2@PEIAPEAMPEIAPEAUConvexTriIntermediateData@2@PEIAPEAIPEIAPEAIPEAIPEAIAEAV?$PxVec3T@M@2@AEAMAEAI@Z 000000018002b900 f   convexMesh.obj
 0001:0002a920       ?capsuleTrimeshNarrowphaseCore@@YAIIAEBUPxgContactManagerInput@physx@@AEBUPxgShape@2@1Uuint4@@PEIBUPxsCachedTransform@2@PEIBMPEIAUConvexMeshPair@2@PEIAPEAUConvexTriNormalAndIndex@2@PEIAPEAUConvexTriContacts@2@PEIAPEAMPEIAPEAUConvexTriIntermediateData@2@PEIAPEAIPEIAPEAIPEAIPEAV?$PxVec3T@M@2@PEAMAEAI@Z 000000018002b920 f   convexMesh.obj
 0001:0002a940       convexTrimeshNarrowphase   000000018002b940 f   convexMesh.obj
 0001:0002abd0       sphereTrimeshNarrowphase   000000018002bbd0 f   convexMesh.obj
 0001:0002ae90       ?__device_stub__Z24convexTrimeshNarrowphasePKN5physx22PxgContactManagerInputEPKNS_18PxsCachedTransformEPKfPKNS_8PxgShapeEPNS_14ConvexMeshPairEPPNS_23ConvexTriNormalAndIndexEPPNS_17ConvexTriContactsEPPfPPNS_25ConvexTriIntermediateDataEPPjSP_PhSO_SO_SO_jPNS_16ConvexTriContactESO_SO_SO_j@@YAXPEIBUPxgContactManagerInput@physx@@PEIBUPxsCachedTransform@2@PEIBMPEIBUPxgShape@2@PEIAUConvexMeshPair@2@PEIAPEAUConvexTriNormalAndIndex@2@PEIAPEAUConvexTriContacts@2@PEIAPEAMPEIAPEAUConvexTriIntermediateData@2@PEIAPEAI9PEIAEPEIAIPEIAIPEIAIIPEAUConvexTriContact@2@PEAIPEAIPEAII@Z 000000018002be90 f   convexMesh.obj
 0001:0002b070       ?__device_stub__Z24sphereTrimeshNarrowphasePKN5physx22PxgContactManagerInputEPKNS_18PxsCachedTransformEPKfPKNS_8PxgShapeEPNS_14ConvexMeshPairEPPNS_23ConvexTriNormalAndIndexEPPNS_17ConvexTriContactsEPPfPPNS_25ConvexTriIntermediateDataEPPjSP_PhSO_SO_SO_jPNS_16ConvexTriContactESO_SO_SO_j@@YAXPEIBUPxgContactManagerInput@physx@@PEIBUPxsCachedTransform@2@PEIBMPEIBUPxgShape@2@PEIAUConvexMeshPair@2@PEIAPEAUConvexTriNormalAndIndex@2@PEIAPEAUConvexTriContacts@2@PEIAPEAMPEIAPEAUConvexTriIntermediateData@2@PEIAPEAI9PEIAEPEIAIPEIAIPEIAIIPEAUConvexTriContact@2@PEAIPEAIPEAII@Z 000000018002c070 f   convexMesh.obj
 0001:0002b5b0       initNarrowphaseKernels3    000000018002c5b0 f   convexMeshCorrelate.obj
 0001:0002b5c0       ?correlate@@YAXPEIBUConvexMeshPair@physx@@PEIAPEAUConvexTriNormalAndIndex@2@PEIAPEBUConvexTriContacts@2@PEIAPEAMPEIAIPEIAUScratch@@PEIAUPxgPersistentContactMultiManifold@2@PEIAUPxsContactManagerOutput@2@IMPEIAUConvexTriContact@2@4@Z 000000018002c5c0 f   convexMeshCorrelate.obj
 0001:0002b5e0       convexTrimeshCorrelate     000000018002c5e0 f   convexMeshCorrelate.obj
 0001:0002b7c0       ?__device_stub__Z22convexTrimeshCorrelatePKN5physx14ConvexMeshPairEPPfPPNS_23ConvexTriNormalAndIndexEPPKNS_17ConvexTriContactsEPNS_33PxgPersistentContactMultiManifoldEPNS_23PxsContactManagerOutputEPjjfPNS_16ConvexTriContactESG_@@YAXPEIBUConvexMeshPair@physx@@PEIAPEAMPEIAPEAUConvexTriNormalAndIndex@2@PEIAPEBUConvexTriContacts@2@PEIAUPxgPersistentContactMultiManifold@2@PEIAUPxsContactManagerOutput@2@PEIAIIMPEIAUConvexTriContact@2@PEAI@Z 000000018002c7c0 f   convexMeshCorrelate.obj
 0001:0002be60       initNarrowphaseKernels4    000000018002ce60 f   convexMeshMidphase.obj
 0001:0002be70       midphaseGeneratePairs      000000018002ce70 f   convexMeshMidphase.obj
 0001:0002c070       ?reduceContactsSingleWarp@@YAX_NIIAEBV?$PxVec3T@M@physx@@MPEBV?$PxVec4T@M@2@PEAUPatch@@@Z 000000018002d070 f   convexMeshMidphase.obj
 0001:0002c090       ?doTriangleTriangleCollision@@YAXAEBUPxsCachedTransform@physx@@0AEBUPxgTriangleMesh@2@1AEBUPxgShape@2@2M_NIPEIAUPxsContactManagerOutput@2@PEIBUPxsMaterialData@2@PEIAE6PEIAUPxgPatchAndContactCounters@2@PEAI8PEAE99IIIM3@Z 000000018002d090 f   convexMeshMidphase.obj
 0001:0002c0b0       evaluatePointDistancesSDFBatch 000000018002d0b0 f   convexMeshMidphase.obj
 0001:0002c1e0       triangleTriangleCollision  000000018002d1e0 f   convexMeshMidphase.obj
 0001:0002c450       triangleTriangleOverlaps   000000018002d450 f   convexMeshMidphase.obj
 0001:0002c5d0       ?__device_stub__Z21midphaseGeneratePairsjfPKN5physx22PxgContactManagerInputEPKNS_18PxsCachedTransformEPKNS_9PxBounds3EPKfPKNS_8PxgShapeEPNS_14ConvexMeshPairEPNS_33PxgPersistentContactMultiManifoldEPNS_23PxsContactManagerOutputEPhPjSL_SL_j@@YAXIMPEIBUPxgContactManagerInput@physx@@PEIBUPxsCachedTransform@2@PEIBVPxBounds3@2@PEIBMPEIBUPxgShape@2@PEIAUConvexMeshPair@2@PEIAUPxgPersistentContactMultiManifold@2@PEIAUPxsContactManagerOutput@2@PEIAEPEIAI99I@Z 000000018002d5d0 f   convexMeshMidphase.obj
 0001:0002c750       ?__device_stub__Z30evaluatePointDistancesSDFBatchPKN5physx8PxgShapeEPKjPKNS_7PxVec4TIfEES4_jPS6_@@YAXPEIBUPxgShape@physx@@PEBIPEBV?$PxVec4T@M@2@1IPEAV32@@Z 000000018002d750 f   convexMeshMidphase.obj
 0001:0002c870       ?__device_stub__Z25triangleTriangleCollisionjPKN5physx22PxgContactManagerInputEPKNS_18PxsCachedTransformEPKfPKNS_8PxgShapeEPNS_23PxsContactManagerOutputEPhPKNS_15PxsMaterialDataESD_SD_PNS_26PxgPatchAndContactCountersEPjSJ_SD_SD_SD_jjjf@@YAXIPEIBUPxgContactManagerInput@physx@@PEIBUPxsCachedTransform@2@PEIBMPEIBUPxgShape@2@PEIAUPxsContactManagerOutput@2@PEAEPEIBUPxsMaterialData@2@PEIAE7PEIAUPxgPatchAndContactCounters@2@PEAI9555IIIM@Z 000000018002d870 f   convexMeshMidphase.obj
 0001:0002ca40       ?__device_stub__Z24triangleTriangleOverlapsjPKN5physx22PxgContactManagerInputEPKNS_18PxsCachedTransformEPKfPKNS_8PxgShapeEPNS_23PxsContactManagerOutputEPh@@YAXIPEIBUPxgContactManagerInput@physx@@PEIBUPxsCachedTransform@2@PEIBMPEIBUPxgShape@2@PEIAUPxsContactManagerOutput@2@PEAE@Z 000000018002da40 f   convexMeshMidphase.obj
 0001:0002cf40       initNarrowphaseKernels8    000000018002df40 f   convexMeshPostProcess.obj
 0001:0002cf50       ?findTriangle@@YA_NPEIBIII@Z 000000018002df50 f   convexMeshPostProcess.obj
 0001:0002cf70       ?findFaceContactTriangle@@YA_NPEIBIII@Z 000000018002df70 f   convexMeshPostProcess.obj
 0001:0002cf90       ?findEdgeContactTriangle@@YA_NPEIBIII@Z 000000018002df90 f   convexMeshPostProcess.obj
 0001:0002cfb0       ?convexTrimeshPostProcessCore@@YAXPEIAUConvexMeshPair@physx@@PEIAPEAUConvexTriNormalAndIndex@2@PEIAPEAUConvexTriIntermediateData@2@PEIAPEBIPEIAPEAIPEIAUPxgShape@2@PEIBUuint4@@PEIAII@Z 000000018002dfb0 f   convexMeshPostProcess.obj
 0001:0002cfd0       convexTrimeshPostProcess   000000018002dfd0 f   convexMeshPostProcess.obj
 0001:0002d140       ?convexHeightfieldPostProcessCore@@YAXPEIAUConvexMeshPair@physx@@PEIAPEAUConvexTriNormalAndIndex@2@PEIAPEAUConvexTriIntermediateData@2@PEIAPEBIPEIAPEAIPEIAUPxgShape@2@PEIBUuint4@@PEIAII@Z 000000018002e140 f   convexMeshPostProcess.obj
 0001:0002d160       convexHeightfieldPostProcess 000000018002e160 f   convexMeshPostProcess.obj
 0001:0002d2d0       sortTriangleIndices        000000018002e2d0 f   convexMeshPostProcess.obj
 0001:0002d400       ?__device_stub__Z24convexTrimeshPostProcessPN5physx14ConvexMeshPairEPPNS_23ConvexTriNormalAndIndexEPPNS_25ConvexTriIntermediateDataEPPKjPPjPhSB_PNS_8PxgShapeE@@YAXPEIAUConvexMeshPair@physx@@PEIAPEAUConvexTriNormalAndIndex@2@PEIAPEAUConvexTriIntermediateData@2@PEIAPEBIPEIAPEAIPEIAEPEIAIPEIAUPxgShape@2@@Z 000000018002e400 f   convexMeshPostProcess.obj
 0001:0002d530       ?__device_stub__Z28convexHeightfieldPostProcessPN5physx14ConvexMeshPairEPPNS_23ConvexTriNormalAndIndexEPPNS_25ConvexTriIntermediateDataEPPKjPPjPhSB_PNS_8PxgShapeE@@YAXPEIAUConvexMeshPair@physx@@PEIAPEAUConvexTriNormalAndIndex@2@PEIAPEAUConvexTriIntermediateData@2@PEIAPEBIPEIAPEAIPEIAEPEIAIPEIAUPxgShape@2@@Z 000000018002e530 f   convexMeshPostProcess.obj
 0001:0002d660       ?__device_stub__Z19sortTriangleIndicesPN5physx14ConvexMeshPairEPPjj@@YAXPEIAUConvexMeshPair@physx@@PEIAPEAII@Z 000000018002e660 f   convexMeshPostProcess.obj
 0001:0002db10       initNarrowphaseKernels5    000000018002eb10 f   convexMeshOutput.obj
 0001:0002db20       ?writeCompressedContact@@YAXPEIAUPxContactPatch@physx@@IIIV?$PxVec3T@M@2@IIPEIBUPxsMaterialData@2@@Z 000000018002eb20 f   convexMeshOutput.obj
 0001:0002db40       convexTrimeshFinishContacts 000000018002eb40 f   convexMeshOutput.obj
 0001:0002de00       ?__device_stub__Z27convexTrimeshFinishContactsPKN5physx14ConvexMeshPairEPKNS_18PxsCachedTransformEPKNS_8PxgShapeEPKNS_22PxgContactManagerInputEPNS_23PxsContactManagerOutputEPKNS_33PxgPersistentContactMultiManifoldEjPKNS_15PxsMaterialDataEPhSK_SK_bPNS_26PxgPatchAndContactCountersEPjSN_SK_SK_SK_jjj@@YAXPEBUConvexMeshPair@physx@@PEBUPxsCachedTransform@2@PEIBUPxgShape@2@PEBUPxgContactManagerInput@2@PEAUPxsContactManagerOutput@2@PEBUPxgPersistentContactMultiManifold@2@IPEIBUPxsMaterialData@2@PEIAE77_NPEIAUPxgPatchAndContactCounters@2@PEAIPEAIPEAEPEAEPEAEIII@Z 000000018002ee00 f   convexMeshOutput.obj
 0001:0002e530       initNarrowphaseKernels6    000000018002f530 f   cudaGJKEPA.obj
 0001:0002e540       ?intersectRayPolyhedron@@YA_NAEBV?$PxVec3T@M@physx@@0IAEAUCollideScratch@@AEAM2@Z 000000018002f540 f   cudaGJKEPA.obj
 0001:0002e560       ?generatedContactsEEContacts@@YAIAEAUCollideScratch@@II@Z 000000018002f560 f   cudaGJKEPA.obj
 0001:0002e580       prepareLostFoundPairs_Stage1 000000018002f580 f   cudaGJKEPA.obj
 0001:0002e690       prepareLostFoundPairs_Stage2 000000018002f690 f   cudaGJKEPA.obj
 0001:0002e810       finishContactsKernel       000000018002f810 f   cudaGJKEPA.obj
 0001:0002ea80       convexConvexNphase_stage1Kernel 000000018002fa80 f   cudaGJKEPA.obj
 0001:0002ebd0       ?convexConvexNphase_stage2Kernel_core@@YAXIPEIBUPxgContactManagerInput@physx@@PEIAUPxgPersistentContactManifold@2@PEIAUPxgShape@2@PEIBUPxsCachedTransform@2@PEIBMM@Z 000000018002fbd0 f   cudaGJKEPA.obj
 0001:0002ebf0       convexConvexNphase_stage2Kernel 000000018002fbf0 f   cudaGJKEPA.obj
 0001:0002ed60       ?convexPlaneNphase_kernel_core@@YAXIPEIBUPxgContactManagerInput@physx@@PEIAUPxsContactManagerOutput@2@PEIAUPxgShape@2@PEIBUPxsCachedTransform@2@PEIBMPEIBUPxsMaterialData@2@PEIAE6PEIAUPxgPersistentContactManifold@2@PEIAUPxgPatchAndContactCounters@2@PEIAI9666IIIM@Z 000000018002fd60 f   cudaGJKEPA.obj
 0001:0002ed80       convexPlaneNphase_Kernel   000000018002fd80 f   cudaGJKEPA.obj
 0001:0002f020       ?__device_stub__Z28prepareLostFoundPairs_Stage1PKjPjS1_j@@YAXPEIBIPEIAI1I@Z 0000000180030020 f   cudaGJKEPA.obj
 0001:0002f130       ?__device_stub__Z28prepareLostFoundPairs_Stage2PKjS0_PKN5physx23PxsContactManagerOutputEPNS1_29PxsContactManagerOutputCountsEPPNS1_17PxsContactManagerEP5uint2PjjS9_@@YAXPEIBI0PEIBUPxsContactManagerOutput@physx@@PEIAUPxsContactManagerOutputCounts@2@PEIAPEAVPxsContactManager@2@PEIAUuint2@@PEIAII3@Z 0000000180030130 f   cudaGJKEPA.obj
 0001:0002f270       ?__device_stub__Z20finishContactsKerneljPKN5physx22PxgContactManagerInputEPNS_23PxsContactManagerOutputEPNS_28PxgPersistentContactManifoldEPNS_8PxgShapeEPKNS_18PxsCachedTransformEPKfPKNS_15PxsMaterialDataEPhSH_bPNS_26PxgPatchAndContactCountersEPjSK_SH_SH_SH_jjj@@YAXIPEIBUPxgContactManagerInput@physx@@PEIAUPxsContactManagerOutput@2@PEIAUPxgPersistentContactManifold@2@PEIAUPxgShape@2@PEIBUPxsCachedTransform@2@PEIBMPEIBUPxsMaterialData@2@PEIAE7_NPEIAUPxgPatchAndContactCounters@2@PEIAIPEIAI777III@Z 0000000180030270 f   cudaGJKEPA.obj
 0001:0002f440       ?__device_stub__Z31convexConvexNphase_stage1KerneljfPKN5physx22PxgContactManagerInputEPKNS_18PxsCachedTransformEPNS_8PxgShapeEPNS_28PxgPersistentContactManifoldEPj@@YAXIMPEIBUPxgContactManagerInput@physx@@PEIBUPxsCachedTransform@2@PEIAUPxgShape@2@PEIAUPxgPersistentContactManifold@2@PEIAI@Z 0000000180030440 f   cudaGJKEPA.obj
 0001:0002f560       ?__device_stub__Z31convexConvexNphase_stage2KerneljfPKjPKN5physx22PxgContactManagerInputEPNS1_28PxgPersistentContactManifoldEPNS1_8PxgShapeEPKNS1_18PxsCachedTransformEPKf@@YAXIMPEIBIPEIBUPxgContactManagerInput@physx@@PEIAUPxgPersistentContactManifold@2@PEIAUPxgShape@2@PEIBUPxsCachedTransform@2@PEBM@Z 0000000180030560 f   cudaGJKEPA.obj
 0001:0002f690       ?__device_stub__Z24convexPlaneNphase_KerneljPKN5physx22PxgContactManagerInputEPNS_23PxsContactManagerOutputEPNS_8PxgShapeEPKNS_18PxsCachedTransformEPKfPKNS_15PxsMaterialDataEPhSF_PNS_28PxgPersistentContactManifoldEPNS_26PxgPatchAndContactCountersEPjSK_SF_SF_SF_jjjf@@YAXIPEIBUPxgContactManagerInput@physx@@PEIAUPxsContactManagerOutput@2@PEIAUPxgShape@2@PEIBUPxsCachedTransform@2@PEBMPEIBUPxsMaterialData@2@PEIAE6PEIAUPxgPersistentContactManifold@2@PEIAUPxgPatchAndContactCounters@2@PEIAI9666IIIM@Z 0000000180030690 f   cudaGJKEPA.obj
 0001:0002fd20       initNarrowphaseKernels24   0000000180030d20 f   convexCoreCollision.obj
 0001:0002fd30       ?makeConvexShape@Gu@physx@@YA_NAEBUPxgShape@2@AEBV?$PxTransformT@M@2@AEAUConvexShape@12@@Z 0000000180030d30 f   convexCoreCollision.obj
 0001:0002fd50       convexCorePlaneNphase_Kernel 0000000180030d50 f   convexCoreCollision.obj
 0001:0002ff90       convexCoreConvexNphase_Kernel 0000000180030f90 f   convexCoreCollision.obj
 0001:000301d0       convexCoreTrimeshNphase_Kernel32 00000001800311d0 f   convexCoreCollision.obj
 0001:00030410       convexCoreTetmeshNphase_Kernel32 0000000180031410 f   convexCoreCollision.obj
 0001:00030580       convexCoreClothmeshNphase_Kernel32 0000000180031580 f   convexCoreCollision.obj
 0001:00030790       ?__device_stub__Z28convexCorePlaneNphase_KerneljPKN5physx22PxgContactManagerInputEPNS_23PxsContactManagerOutputEPKNS_8PxgShapeEPKNS_18PxsCachedTransformEPKfPKNS_15PxsMaterialDataEPhSG_PNS_26PxgPatchAndContactCountersEPjSJ_SG_SG_SG_jjj@@YAXIPEIBUPxgContactManagerInput@physx@@PEIAUPxsContactManagerOutput@2@PEIBUPxgShape@2@PEIBUPxsCachedTransform@2@PEBMPEIBUPxsMaterialData@2@PEIAE6PEIAUPxgPatchAndContactCounters@2@PEIAI8666III@Z 0000000180031790 f   convexCoreCollision.obj
 0001:00030940       ?__device_stub__Z29convexCoreConvexNphase_KerneljPKN5physx22PxgContactManagerInputEPNS_23PxsContactManagerOutputEPKNS_8PxgShapeEPKNS_18PxsCachedTransformEPKfPKNS_15PxsMaterialDataEPhSG_PNS_26PxgPatchAndContactCountersEPjSJ_SG_SG_SG_jjj@@YAXIPEIBUPxgContactManagerInput@physx@@PEIAUPxsContactManagerOutput@2@PEIBUPxgShape@2@PEIBUPxsCachedTransform@2@PEBMPEIBUPxsMaterialData@2@PEIAE6PEIAUPxgPatchAndContactCounters@2@PEIAI8666III@Z 0000000180031940 f   convexCoreCollision.obj
 0001:00030af0       ?__device_stub__Z32convexCoreTrimeshNphase_Kernel32jPKN5physx22PxgContactManagerInputEPNS_23PxsContactManagerOutputEPKNS_8PxgShapeEPKNS_18PxsCachedTransformEPKfPKNS_15PxsMaterialDataEPhSG_PNS_26PxgPatchAndContactCountersEPjSJ_SG_SG_SG_jjj@@YAXIPEIBUPxgContactManagerInput@physx@@PEIAUPxsContactManagerOutput@2@PEIBUPxgShape@2@PEIBUPxsCachedTransform@2@PEIBMPEIBUPxsMaterialData@2@PEIAE6PEIAUPxgPatchAndContactCounters@2@PEIAI8666III@Z 0000000180031af0 f   convexCoreCollision.obj
 0001:00030ca0       ?__device_stub__Z32convexCoreTetmeshNphase_Kernel32jPKN5physx22PxgContactManagerInputEPKNS_8PxgShapeEPKNS_11PxgSoftBodyEPKNS_11PxNodeIndexEPKNS_18PxsCachedTransformEPKfSG_NS_19PxgFEMContactWriterE@@YAXIPEIBUPxgContactManagerInput@physx@@PEIBUPxgShape@2@PEIBVPxgSoftBody@2@PEIBVPxNodeIndex@2@PEIBUPxsCachedTransform@2@PEIBM5AEAUPxgFEMContactWriter@2@@Z 0000000180031ca0 f   convexCoreCollision.obj
 0001:00030de0       ?__device_stub__Z34convexCoreClothmeshNphase_Kernel32PKhPKjPKN5physx22PxgContactManagerInputEPKNS3_8PxgShapeEPKNS3_11PxgFEMClothEPKNS3_11PxNodeIndexEPKNS3_18PxsCachedTransformEPKfSK_PKNS3_18PxgRigidFilterPairEjjPjNS3_19PxgFEMContactWriterE@@YAXPEIBEPEIBIPEIBUPxgContactManagerInput@physx@@PEIBUPxgShape@2@PEIBVPxgFEMCloth@2@PEIBVPxNodeIndex@2@PEIBUPxsCachedTransform@2@PEIBM7PEIBVPxgRigidFilterPair@2@IIPEIAIAEAUPxgFEMContactWriter@2@@Z 0000000180031de0 f   convexCoreCollision.obj
 0001:000312a0       initNarrowphaseKernels9    00000001800322a0 f   cudaSphere.obj
 0001:000312b0       sphereNphase_Kernel        00000001800322b0 f   cudaSphere.obj
 0001:00031540       ?__device_stub__Z19sphereNphase_KerneljfPKN5physx22PxgContactManagerInputEPNS_23PxsContactManagerOutputEPNS_8PxgShapeEPKNS_18PxsCachedTransformEPKfPKNS_15PxsMaterialDataEPhSF_PNS_26PxgPatchAndContactCountersEPjSI_SF_SF_SF_jjj@@YAXIMPEIBUPxgContactManagerInput@physx@@PEIAUPxsContactManagerOutput@2@PEIAUPxgShape@2@PEIBUPxsCachedTransform@2@PEBMPEIBUPxsMaterialData@2@PEIAE6PEIAUPxgPatchAndContactCounters@2@PEIAI8666III@Z 0000000180032540 f   cudaSphere.obj
 0001:00031ab0       initNarrowphaseKernels23   0000000180032ab0 f   cudaBox.obj
 0001:00031ac0       ?getIncidentPolygon4@@YA?AV?$PxVec3T@M@physx@@AEAV12@AEBV12@AEBV?$PxMat34T@M@2@1III@Z 0000000180032ac0 f   cudaBox.obj
 0001:00031ae0       boxBoxNphase_Kernel        0000000180032ae0 f   cudaBox.obj
 0001:00031d70       ?__device_stub__Z19boxBoxNphase_KerneljPKN5physx22PxgContactManagerInputEPNS_23PxsContactManagerOutputEPNS_8PxgShapeEPKNS_18PxsCachedTransformEPKfPKNS_15PxsMaterialDataEPhSF_PNS_26PxgPatchAndContactCountersEPjSI_SF_SF_SF_jjjf@@YAXIPEIBUPxgContactManagerInput@physx@@PEIAUPxsContactManagerOutput@2@PEIAUPxgShape@2@PEIBUPxsCachedTransform@2@PEBMPEIBUPxsMaterialData@2@PEIAE6PEIAUPxgPatchAndContactCounters@2@PEIAI8666IIIM@Z 0000000180032d70 f   cudaBox.obj
 0001:000322e0       initNarrowphaseKernels17   00000001800332e0 f   compressOutputContacts.obj
 0001:000322f0       compressContactStage1      00000001800332f0 f   compressOutputContacts.obj
 0001:000323f0       compressContactStage2      00000001800333f0 f   compressOutputContacts.obj
 0001:00032600       updateFrictionPatches      0000000180033600 f   compressOutputContacts.obj
 0001:00032740       ?__device_stub__Z21compressContactStage1PN5physx23PxsContactManagerOutputEjPj@@YAXPEAUPxsContactManagerOutput@physx@@IPEAI@Z 0000000180033740 f   compressOutputContacts.obj
 0001:00032840       ?__device_stub__Z21compressContactStage2PKN5physx22PxgContactManagerInputEPKNS_23PxsContactManagerOutputEjPNS_11PxNodeIndexEPPNS_7PxActorEPjPhSC_PfSC_SC_SD_SC_SB_PNS_16PxGpuContactPairEj@@YAXPEBUPxgContactManagerInput@physx@@PEBUPxsContactManagerOutput@2@IPEAVPxNodeIndex@2@PEAPEAVPxActor@2@PEAIPEAE5PEAM55654PEAUPxGpuContactPair@2@I@Z 0000000180033840 f   compressOutputContacts.obj
 0001:000329d0       ?__device_stub__Z21updateFrictionPatchesjPKhPhPN5physx23PxsContactManagerOutputE@@YAXIPEIBEPEIAEPEIAUPxsContactManagerOutput@physx@@@Z 00000001800339d0 f   compressOutputContacts.obj
 0001:00032d70       initNarrowphaseKernels7    0000000180033d70 f   pairManagement.obj
 0001:00032d80       removeContactManagers_Stage1 0000000180033d80 f   pairManagement.obj
 0001:00032e40       removeContactManagers_Stage2 0000000180033e40 f   pairManagement.obj
 0001:00032f00       removeContactManagers_Stage3 0000000180033f00 f   pairManagement.obj
 0001:00032fc0       removeContactManagers_Stage4 0000000180033fc0 f   pairManagement.obj
 0001:00033080       removeContactManagers_Stage5 0000000180034080 f   pairManagement.obj
 0001:00033150       removeContactManagers_Stage5_CvxTri 0000000180034150 f   pairManagement.obj
 0001:00033220       initializeManifolds        0000000180034220 f   pairManagement.obj
 0001:00033360       ?__device_stub__Z28removeContactManagers_Stage1PKN5physx21PxgPairManagementDataE@@YAXPEIBUPxgPairManagementData@physx@@@Z 0000000180034360 f   pairManagement.obj
 0001:00033420       ?__device_stub__Z28removeContactManagers_Stage2PKN5physx21PxgPairManagementDataE@@YAXPEIBUPxgPairManagementData@physx@@@Z 0000000180034420 f   pairManagement.obj
 0001:000334e0       ?__device_stub__Z28removeContactManagers_Stage3PKN5physx21PxgPairManagementDataE@@YAXPEIBUPxgPairManagementData@physx@@@Z 00000001800344e0 f   pairManagement.obj
 0001:000335a0       ?__device_stub__Z28removeContactManagers_Stage4PKN5physx21PxgPairManagementDataE@@YAXPEIBUPxgPairManagementData@physx@@@Z 00000001800345a0 f   pairManagement.obj
 0001:00033660       ?__device_stub__Z28removeContactManagers_Stage5PKN5physx21PxgPairManagementDataEb@@YAXPEIBUPxgPairManagementData@physx@@_N@Z 0000000180034660 f   pairManagement.obj
 0001:00033730       ?__device_stub__Z35removeContactManagers_Stage5_CvxTriPKN5physx21PxgPairManagementDataEb@@YAXPEIBUPxgPairManagementData@physx@@_N@Z 0000000180034730 f   pairManagement.obj
 0001:00033800       ?__device_stub__Z19initializeManifoldsP6float4PKS_jj@@YAXPEAUfloat4@@PEBU1@II@Z 0000000180034800 f   pairManagement.obj
 0001:00033cd0       initNarrowphaseKernels10   0000000180034cd0 f   cudaParticleSystem.obj
 0001:00033ce0       ps_primitivesBoundFirstPassLaunch 0000000180034ce0 f   cudaParticleSystem.obj
 0001:00033e60       ps_primitivesBoundSecondPassLaunch 0000000180034e60 f   cudaParticleSystem.obj
 0001:00033f70       ?particlePrimitiveCollision@@YA_NAEBV?$PxVec3T@M@physx@@0MAEBV?$PxTransformT@M@2@W4Enum@PxGeometryType@2@0AEBUPxgShape@2@_NAEAV12@AEAM@Z 0000000180034f70 f   cudaParticleSystem.obj
 0001:00033f90       ?psPrimitivesCollision@@YAX_NIAEAUPxgShape@physx@@1IIPEIBUPxsCachedTransform@2@AEAVPxgParticleSystem@2@IMMPEIBUPxsMaterialData@2@IIPEBVPxNodeIndex@2@AEAUPxgParticleContactWriter@2@@Z 0000000180034f90 f   cudaParticleSystem.obj
 0001:00033fb0       ?psDiffusePrimitivesCollision@@YAX_NIAEAUPxgShape@physx@@1IIPEIBUPxsCachedTransform@2@AEAVPxgParticleSystem@2@IMMPEIBUPxsMaterialData@2@IIPEBVPxNodeIndex@2@@Z 0000000180034fb0 f   cudaParticleSystem.obj
 0001:00033fd0       ?psConvexCollision@@YAX_NIAEAUPxgShape@physx@@1IIPEIBUPxsCachedTransform@2@IMMPEIBUPxsMaterialData@2@IPEBVPxNodeIndex@2@PEAUPxgParticlePrimitiveContact@2@PEAHPEA_KPEAI8788AEAUParticleConvexCollideScratch@@AEAUEpaScratch@squawk@@AEAVPxgParticleSystem@2@I@Z 0000000180034fd0 f   cudaParticleSystem.obj
 0001:00033ff0       ?psConvexDiffuseCollision@@YAX_NIAEAUPxgShape@physx@@1IIPEIBUPxsCachedTransform@2@IMMPEIBUPxsMaterialData@2@IPEBVPxNodeIndex@2@AEAUParticleConvexCollideScratch@@AEAUEpaScratch@squawk@@AEAVPxgParticleSystem@2@@Z 0000000180034ff0 f   cudaParticleSystem.obj
 0001:00034010       ps_primitivesCollisionLaunch 0000000180035010 f   cudaParticleSystem.obj
 0001:00034200       ps_primitivesDiffuseCollisionLaunch 0000000180035200 f   cudaParticleSystem.obj
 0001:000343e0       ps_convexCollisionLaunch   00000001800353e0 f   cudaParticleSystem.obj
 0001:000346a0       ps_convexDiffuseCollisionLaunch 00000001800356a0 f   cudaParticleSystem.obj
 0001:00034880       ps_reorderPrimitiveContactsLaunch 0000000180035880 f   cudaParticleSystem.obj
 0001:000349e0       ?__device_stub__Z33ps_primitivesBoundFirstPassLaunchjPKN5physx22PxgContactManagerInputEPKNS_8PxgShapeEPKNS_18PxsCachedTransformEPKNS_9PxBounds3EPKfPKNS_17PxgParticleSystemEPjSH_@@YAXIPEIBUPxgContactManagerInput@physx@@PEIBUPxgShape@2@PEIBUPxsCachedTransform@2@PEIBVPxBounds3@2@PEBMPEBVPxgParticleSystem@2@PEAI6@Z 00000001800359e0 f   cudaParticleSystem.obj
 0001:00034b20       ?__device_stub__Z34ps_primitivesBoundSecondPassLaunchjPKjPjS1_@@YAXIPEBIPEAI1@Z 0000000180035b20 f   cudaParticleSystem.obj
 0001:00034c30       ?__device_stub__Z28ps_primitivesCollisionLaunchbjfPKN5physx22PxgContactManagerInputEPNS_8PxgShapeEPKNS_18PxsCachedTransformEPKNS_9PxBounds3EPKfSC_PKNS_15PxsMaterialDataEPKjSH_PNS_17PxgParticleSystemEPKNS_11PxNodeIndexENS_24PxgParticleContactWriterE@@YAX_NIMPEIBUPxgContactManagerInput@physx@@PEIAUPxgShape@2@PEIBUPxsCachedTransform@2@PEIBVPxBounds3@2@PEIBM5PEIBUPxsMaterialData@2@PEIBIPEBIPEIAVPxgParticleSystem@2@PEBVPxNodeIndex@2@AEAUPxgParticleContactWriter@2@@Z 0000000180035c30 f   cudaParticleSystem.obj
 0001:00034db0       ?__device_stub__Z35ps_primitivesDiffuseCollisionLaunchbjfPKN5physx22PxgContactManagerInputEPNS_8PxgShapeEPKNS_18PxsCachedTransformEPKNS_9PxBounds3EPKfSC_PKNS_15PxsMaterialDataEPKjSH_PNS_17PxgParticleSystemEPKNS_11PxNodeIndexE@@YAX_NIMPEIBUPxgContactManagerInput@physx@@PEIAUPxgShape@2@PEIBUPxsCachedTransform@2@PEIBVPxBounds3@2@PEIBM5PEIBUPxsMaterialData@2@PEIBIPEBIPEIAVPxgParticleSystem@2@PEIBVPxNodeIndex@2@@Z 0000000180035db0 f   cudaParticleSystem.obj
 0001:00034f20       ?__device_stub__Z24ps_convexCollisionLaunchbjfPKN5physx22PxgContactManagerInputEPNS_8PxgShapeEPKNS_18PxsCachedTransformEPKNS_9PxBounds3EPKfSC_PKNS_15PxsMaterialDataEPKjSH_PNS_17PxgParticleSystemEPKNS_11PxNodeIndexEPNS_27PxgParticlePrimitiveContactEPiPyPjSR_SQ_SR_SR_j@@YAX_NIMPEIBUPxgContactManagerInput@physx@@PEIAUPxgShape@2@PEIBUPxsCachedTransform@2@PEIBVPxBounds3@2@PEIBM5PEIBUPxsMaterialData@2@PEIBIPEBIPEIAVPxgParticleSystem@2@PEBVPxNodeIndex@2@PEIAUPxgParticlePrimitiveContact@2@PEAHPEA_KPEAIPEAIPEA_KPEAIPEAII@Z 0000000180035f20 f   cudaParticleSystem.obj
 0001:00035110       ?__device_stub__Z31ps_convexDiffuseCollisionLaunchbjfPKN5physx22PxgContactManagerInputEPNS_8PxgShapeEPKNS_18PxsCachedTransformEPKNS_9PxBounds3EPKfSC_PKNS_15PxsMaterialDataEPKjSH_PNS_17PxgParticleSystemEPKNS_11PxNodeIndexE@@YAX_NIMPEIBUPxgContactManagerInput@physx@@PEIAUPxgShape@2@PEIBUPxsCachedTransform@2@PEIBVPxBounds3@2@PEIBM5PEIBUPxsMaterialData@2@PEIBIPEBIPEIAVPxgParticleSystem@2@PEBVPxNodeIndex@2@@Z 0000000180036110 f   cudaParticleSystem.obj
 0001:00035280       ?__device_stub__Z33ps_reorderPrimitiveContactsLaunchPKN5physx27PxgParticlePrimitiveContactEPKiPKjS6_PS0_S7_@@YAXPEIBUPxgParticlePrimitiveContact@physx@@PEBHPEBI2PEIAU12@3@Z 0000000180036280 f   cudaParticleSystem.obj
 0001:00035840       initNarrowphaseKernels11   0000000180036840 f   particleSystemMeshMidphase.obj
 0001:00035850       ps_sdfMeshCollisonLaunch   0000000180036850 f   particleSystemMeshMidphase.obj
 0001:000359c0       ps_meshCollisonLaunch      00000001800369c0 f   particleSystemMeshMidphase.obj
 0001:00035b70       ?__device_stub__Z24ps_sdfMeshCollisonLaunchfPKN5physx22PxgContactManagerInputEPKNS_18PxsCachedTransformEPKfS7_PKNS_8PxgShapeEPNS_17PxgParticleSystemEPNS_11PxNodeIndexENS_24PxgParticleContactWriterE@@YAXMPEIBUPxgContactManagerInput@physx@@PEIBUPxsCachedTransform@2@PEIBM2PEIBUPxgShape@2@PEIAVPxgParticleSystem@2@PEIAVPxNodeIndex@2@AEAUPxgParticleContactWriter@2@@Z 0000000180036b70 f   particleSystemMeshMidphase.obj
 0001:00035cb0       ?__device_stub__Z21ps_meshCollisonLaunchbfPKN5physx22PxgContactManagerInputEPKNS_18PxsCachedTransformEPKfS7_PKNS_8PxgShapeEPNS_17PxgParticleSystemEPNS_11PxNodeIndexENS_24PxgParticleContactWriterE@@YAX_NMPEIBUPxgContactManagerInput@physx@@PEIBUPxsCachedTransform@2@PEIBM3PEIBUPxgShape@2@PEIAVPxgParticleSystem@2@PEIAVPxNodeIndex@2@AEAUPxgParticleContactWriter@2@@Z 0000000180036cb0 f   particleSystemMeshMidphase.obj
 0001:00036160       initNarrowphaseKernels12   0000000180037160 f   particleSystemHFMidPhaseCG.obj
 0001:00036170       ps_heightfieldCollisonLaunch 0000000180037170 f   particleSystemHFMidPhaseCG.obj
 0001:00036320       ?__device_stub__Z28ps_heightfieldCollisonLaunchbfPKN5physx22PxgContactManagerInputEPKNS_18PxsCachedTransformEPKfS7_PKNS_8PxgShapeEPNS_17PxgParticleSystemEPNS_11PxNodeIndexENS_24PxgParticleContactWriterE@@YAX_NMPEIBUPxgContactManagerInput@physx@@PEIBUPxsCachedTransform@2@PEIBM3PEIBUPxgShape@2@PEIAVPxgParticleSystem@2@PEIAVPxNodeIndex@2@AEAUPxgParticleContactWriter@2@@Z 0000000180037320 f   particleSystemHFMidPhaseCG.obj
 0001:000369c0       initNarrowphaseKernels13   00000001800379c0 f   softbodyMidPhase.obj
 0001:000369d0       sb_midphaseGeneratePairsLaunch 00000001800379d0 f   softbodyMidPhase.obj
 0001:00036b80       sb_psMidphaseGeneratePairsLaunch 0000000180037b80 f   softbodyMidPhase.obj
 0001:00036d40       sb_clothVertMidphaseGeneratePairsLaunch 0000000180037d40 f   softbodyMidPhase.obj
 0001:00036f30       ?__device_stub__Z30sb_midphaseGeneratePairsLaunchjfPKN5physx22PxgContactManagerInputEPKNS_18PxsCachedTransformEPKNS_9PxBounds3EPKfPKNS_8PxgShapeEPKNS_11PxgSoftBodyEjPhPj@@YAXIMPEIBUPxgContactManagerInput@physx@@PEIBUPxsCachedTransform@2@PEIBVPxBounds3@2@PEIBMPEIBUPxgShape@2@PEIBVPxgSoftBody@2@IPEIAEPEIAI@Z 0000000180037f30 f   softbodyMidPhase.obj
 0001:00037080       ?__device_stub__Z32sb_psMidphaseGeneratePairsLaunchjfPKN5physx22PxgContactManagerInputEPKNS_8PxgShapeEPKNS_18PxsCachedTransformEPKNS_9PxBounds3EPKfPKNS_11PxgSoftBodyEPNS_17PxgParticleSystemEjPhPj@@YAXIMPEIBUPxgContactManagerInput@physx@@PEIBUPxgShape@2@PEIBUPxsCachedTransform@2@PEIBVPxBounds3@2@PEIBMPEIBVPxgSoftBody@2@PEIAVPxgParticleSystem@2@IPEIAEPEIAI@Z 0000000180038080 f   softbodyMidPhase.obj
 0001:000371e0       ?__device_stub__Z39sb_clothVertMidphaseGeneratePairsLaunchfPKN5physx22PxgContactManagerInputEPKNS_18PxsCachedTransformEPKNS_9PxBounds3EPKfPKNS_8PxgShapeEPKNS_11PxgSoftBodyEPKNS_11PxgFEMClothEjfPhPj@@YAXMPEIBUPxgContactManagerInput@physx@@PEIBUPxsCachedTransform@2@PEIBVPxBounds3@2@PEIBMPEIBUPxgShape@2@PEIBVPxgSoftBody@2@PEIBVPxgFEMCloth@2@IMPEIAEPEIAI@Z 00000001800381e0 f   softbodyMidPhase.obj
 0001:000376e0       initNarrowphaseKernels14   00000001800386e0 f   softbodyPrimitives.obj
 0001:000376f0       ?isTetrahedronValid@@YA_NPEAV?$PxVec3T@M@physx@@@Z 00000001800386f0 f   softbodyPrimitives.obj
 0001:00037710       ?computeSurfaceNormal@@YA?AV?$PxVec3T@M@physx@@AEBV12@0000E@Z 0000000180038710 f   softbodyPrimitives.obj
 0001:00037730       sb_primitiveContactGenLaunch 0000000180038730 f   softbodyPrimitives.obj
 0001:00037920       sb_meshContactGenLaunch    0000000180038920 f   softbodyPrimitives.obj
 0001:00037b10       sb_heightfieldContactGenLaunch 0000000180038b10 f   softbodyPrimitives.obj
 0001:00037ce0       sb_clothContactGenLaunch   0000000180038ce0 f   softbodyPrimitives.obj
 0001:00037ec0       fem_reorderRigidContactsLaunch 0000000180038ec0 f   softbodyPrimitives.obj
 0001:00038070       sb_reorderPSContactsLaunch 0000000180039070 f   softbodyPrimitives.obj
 0001:00038200       ?getClosestPtPointTetrahedron@@YA?AV?$PxVec3T@M@physx@@AEBV12@0000AEBUfloat4@@@Z 0000000180039200 f   softbodyPrimitives.obj
 0001:00038220       ?checkNormals@@YA_NAEBV?$PxVec3T@M@physx@@0000E@Z 0000000180039220 f   softbodyPrimitives.obj
 0001:00038240       sb_psContactGenLaunch      0000000180039240 f   softbodyPrimitives.obj
 0001:00038430       sb_rcs_contact_remap_to_simLaunch 0000000180039430 f   softbodyPrimitives.obj
 0001:000385a0       sb_ss_contact_remap_to_simLaunch 00000001800395a0 f   softbodyPrimitives.obj
 0001:000386e0       sb_clothVertContactGenLaunch 00000001800396e0 f   softbodyPrimitives.obj
 0001:000388f0       ?__device_stub__Z28sb_primitiveContactGenLaunchfPKN5physx22PxgContactManagerInputEPKNS_18PxsCachedTransformEPKfS7_PKNS_8PxgShapeEPKNS_11PxgSoftBodyEPKNS_11PxNodeIndexEPhPjjPNS_18PxgRigidFilterPairEjSI_NS_19PxgFEMContactWriterE@@YAXMPEIBUPxgContactManagerInput@physx@@PEIBUPxsCachedTransform@2@PEIBM2PEIBUPxgShape@2@PEIBVPxgSoftBody@2@PEIBVPxNodeIndex@2@PEIAEPEIAIIPEAVPxgRigidFilterPair@2@I7AEAUPxgFEMContactWriter@2@@Z 00000001800398f0 f   softbodyPrimitives.obj
 0001:00038a80       ?__device_stub__Z23sb_meshContactGenLaunchfPKN5physx22PxgContactManagerInputEPKNS_18PxsCachedTransformEPKfS7_PKNS_8PxgShapeEPKNS_11PxgSoftBodyEPKNS_11PxNodeIndexEPhPjjPNS_18PxgRigidFilterPairEjSI_NS_19PxgFEMContactWriterE@@YAXMPEIBUPxgContactManagerInput@physx@@PEIBUPxsCachedTransform@2@PEIBM2PEIBUPxgShape@2@PEIBVPxgSoftBody@2@PEIBVPxNodeIndex@2@PEIAEPEIAIIPEIAVPxgRigidFilterPair@2@I7AEAUPxgFEMContactWriter@2@@Z 0000000180039a80 f   softbodyPrimitives.obj
 0001:00038c10       ?__device_stub__Z30sb_heightfieldContactGenLaunchfPKN5physx22PxgContactManagerInputEPKNS_18PxsCachedTransformEPKfS7_PKNS_8PxgShapeEPKNS_11PxgSoftBodyEPKNS_11PxNodeIndexEPhPjjSI_NS_19PxgFEMContactWriterE@@YAXMPEIBUPxgContactManagerInput@physx@@PEIBUPxsCachedTransform@2@PEIBM2PEIBUPxgShape@2@PEIBVPxgSoftBody@2@PEIBVPxNodeIndex@2@PEIAEPEIAII7AEAUPxgFEMContactWriter@2@@Z 0000000180039c10 f   softbodyPrimitives.obj
 0001:00038d80       ?__device_stub__Z24sb_clothContactGenLaunchfPKN5physx22PxgContactManagerInputEPKNS_18PxsCachedTransformEPKfPKNS_8PxgShapeEPKNS_11PxgSoftBodyEPKNS_11PxgFEMClothEPhPjjPNS_21PxgNonRigidFilterPairEjSI_NS_24PxgSoftBodyContactWriterE@@YAXMPEIBUPxgContactManagerInput@physx@@PEIBUPxsCachedTransform@2@PEIBMPEIBUPxgShape@2@PEIBVPxgSoftBody@2@PEIBVPxgFEMCloth@2@PEIAEPEIAIIPEAVPxgNonRigidFilterPair@2@I7AEAUPxgSoftBodyContactWriter@2@@Z 0000000180039d80 f   softbodyPrimitives.obj
 0001:00038ef0       ?__device_stub__Z30fem_reorderRigidContactsLaunchPK6float4S1_S1_PKN5physx17PxgFemContactInfoEPKjS7_PS_S8_S8_PS3_Py@@YAXPEBUfloat4@@00PEBUPxgFemContactInfo@physx@@PEBI2PEAU1@33PEAU23@PEA_K@Z 0000000180039ef0 f   softbodyPrimitives.obj
 0001:00039040       ?__device_stub__Z26sb_reorderPSContactsLaunchPK6float4S1_S1_PKN5physx17PxgFemContactInfoEPKjS7_PS_S8_S8_PS3_@@YAXPEBUfloat4@@00PEBUPxgFemContactInfo@physx@@PEBI2PEAU1@33PEAU23@@Z 000000018003a040 f   softbodyPrimitives.obj
 0001:00039180       ?__device_stub__Z21sb_psContactGenLaunchfPKN5physx22PxgContactManagerInputEPKNS_18PxsCachedTransformEPKfS7_PKNS_8PxgShapeEPKNS_17PxgParticleSystemEPKNS_11PxgSoftBodyEPKNS_21PxgNonRigidFilterPairEjjPhPjSL_NS_19PxgFEMContactWriterE@@YAXMPEIBUPxgContactManagerInput@physx@@PEIBUPxsCachedTransform@2@PEIBM2PEIBUPxgShape@2@PEIBVPxgParticleSystem@2@PEIBVPxgSoftBody@2@PEIBVPxgNonRigidFilterPair@2@IIPEIAEPEIAI8AEAUPxgFEMContactWriter@2@@Z 000000018003a180 f   softbodyPrimitives.obj
 0001:00039310       ?__device_stub__Z33sb_rcs_contact_remap_to_simLaunchPKN5physx11PxgSoftBodyEjPK6float4PS3_PNS_24PxgFemVsRigidContactInfoES6_PjPKj@@YAXPEIBVPxgSoftBody@physx@@IPEBUfloat4@@PEAU3@PEAUPxgFemVsRigidContactInfo@2@PEIAU3@PEAIPEBI@Z 000000018003a310 f   softbodyPrimitives.obj
 0001:00039440       ?__device_stub__Z32sb_ss_contact_remap_to_simLaunchPKN5physx11PxgSoftBodyEP6float4S4_PNS_17PxgFemContactInfoEPjS7_j@@YAXPEIBVPxgSoftBody@physx@@PEAUfloat4@@1PEAUPxgFemContactInfo@2@PEAI3I@Z 000000018003a440 f   softbodyPrimitives.obj
 0001:00039560       ?__device_stub__Z28sb_clothVertContactGenLaunchfPKN5physx22PxgContactManagerInputEPKNS_18PxsCachedTransformEPKfPKNS_8PxgShapeEPKNS_11PxgSoftBodyEPKNS_11PxgFEMClothEjPhPjPNS_21PxgNonRigidFilterPairEjSI_NS_24PxgSoftBodyContactWriterE@@YAXMPEIBUPxgContactManagerInput@physx@@PEIBUPxsCachedTransform@2@PEIBMPEIBUPxgShape@2@PEIBVPxgSoftBody@2@PEIBVPxgFEMCloth@2@IPEIAEPEIAIPEIAVPxgNonRigidFilterPair@2@I7AEAUPxgSoftBodyContactWriter@2@@Z 000000018003a560 f   softbodyPrimitives.obj
 0001:00039cb0       initNarrowphaseKernels15   000000018003acb0 f   softbodySoftbodyMidPhase.obj
 0001:00039cc0       ?minProject@@YAMAEBVPxPlane@physx@@AEBV?$PxVec3T@M@2@11@Z 000000018003acc0 f   softbodySoftbodyMidPhase.obj
 0001:00039ce0       ?computeTetBoundWithTetrahedron@@YA_NAEBV?$PxVec3T@M@physx@@000AEAVPxBounds3@2@AEAUTetrahedron@Gu@2@@Z 000000018003ace0 f   softbodySoftbodyMidPhase.obj
 0001:00039d00       ?computeTetBoundWithTetrahedron@@YA_NQEIBUuint4@@IQEIBUfloat4@@AEAVPxBounds3@physx@@AEAUTetrahedron@Gu@4@@Z 000000018003ad00 f   softbodySoftbodyMidPhase.obj
 0001:00039d20       sb_sbMidphaseGeneratePairsLaunch 000000018003ad20 f   softbodySoftbodyMidPhase.obj
 0001:00039e80       sb_selfCollisionMidphaseGeneratePairsLaunch 000000018003ae80 f   softbodySoftbodyMidPhase.obj
 0001:00039f90       sb_sdfMeshMidphaseGeneratePairsLaunch 000000018003af90 f   softbodySoftbodyMidPhase.obj
 0001:0003a150       sb_meshMidphaseGeneratePairsLaunch 000000018003b150 f   softbodySoftbodyMidPhase.obj
 0001:0003a2e0       sb_clothMidphaseGeneratePairsLaunch 000000018003b2e0 f   softbodySoftbodyMidPhase.obj
 0001:0003a4c0       ?__device_stub__Z32sb_sbMidphaseGeneratePairsLaunchfPKN5physx22PxgContactManagerInputEPKNS_18PxsCachedTransformEPKNS_9PxBounds3EPKfPKNS_8PxgShapeEPKNS_11PxgSoftBodyENS_24PxgSoftBodyContactWriterE@@YAXMPEIBUPxgContactManagerInput@physx@@PEIBUPxsCachedTransform@2@PEIBVPxBounds3@2@PEIBMPEIBUPxgShape@2@PEIBVPxgSoftBody@2@AEAUPxgSoftBodyContactWriter@2@@Z 000000018003b4c0 f   softbodySoftbodyMidPhase.obj
 0001:0003a5f0       ?__device_stub__Z43sb_selfCollisionMidphaseGeneratePairsLaunchPKjPKfPKN5physx11PxgSoftBodyENS3_24PxgSoftBodyContactWriterE@@YAXPEBIPEIBMPEIBVPxgSoftBody@physx@@AEAUPxgSoftBodyContactWriter@2@@Z 000000018003b5f0 f   softbodySoftbodyMidPhase.obj
 0001:0003a700       ?__device_stub__Z37sb_sdfMeshMidphaseGeneratePairsLaunchfPKN5physx22PxgContactManagerInputEPKNS_18PxsCachedTransformEPKNS_9PxBounds3EPKfSA_PKNS_8PxgShapeEPKNS_11PxgSoftBodyEPKNS_11PxNodeIndexEPNS_18PxgRigidFilterPairEjNS_19PxgFEMContactWriterE@@YAXMPEIBUPxgContactManagerInput@physx@@PEIBUPxsCachedTransform@2@PEIBVPxBounds3@2@PEIBM3PEIBUPxgShape@2@PEIBVPxgSoftBody@2@PEIBVPxNodeIndex@2@PEAVPxgRigidFilterPair@2@IAEAUPxgFEMContactWriter@2@@Z 000000018003b700 f   softbodySoftbodyMidPhase.obj
 0001:0003a860       ?__device_stub__Z34sb_meshMidphaseGeneratePairsLaunchfPKN5physx22PxgContactManagerInputEPKNS_18PxsCachedTransformEPKNS_9PxBounds3EPKfPKNS_8PxgShapeEPKNS_11PxgSoftBodyEjPhPj@@YAXMPEIBUPxgContactManagerInput@physx@@PEIBUPxsCachedTransform@2@PEIBVPxBounds3@2@PEIBMPEIBUPxgShape@2@PEIBVPxgSoftBody@2@IPEIAEPEIAI@Z 000000018003b860 f   softbodySoftbodyMidPhase.obj
 0001:0003a9a0       ?__device_stub__Z35sb_clothMidphaseGeneratePairsLaunchfPKN5physx22PxgContactManagerInputEPKNS_18PxsCachedTransformEPKNS_9PxBounds3EPKfPKNS_8PxgShapeEPKNS_11PxgSoftBodyEPKNS_11PxgFEMClothEjPhPj@@YAXMPEIBUPxgContactManagerInput@physx@@PEIBUPxsCachedTransform@2@PEIBVPxBounds3@2@PEIBMPEIBUPxgShape@2@PEIBVPxgSoftBody@2@PEIBVPxgFEMCloth@2@IPEIAEPEIAI@Z 000000018003b9a0 f   softbodySoftbodyMidPhase.obj
 0001:0003af30       initNarrowphaseKernels16   000000018003bf30 f   softbodyHFMidPhase.obj
 0001:0003af40       sb_heightfieldMidphaseGeneratePairsLaunch 000000018003bf40 f   softbodyHFMidPhase.obj
 0001:0003b100       ?__device_stub__Z41sb_heightfieldMidphaseGeneratePairsLaunchjfPKN5physx22PxgContactManagerInputEPKNS_18PxsCachedTransformEPKfPKNS_8PxgShapeEPNS_11PxgSoftBodyEjPhPj@@YAXIMPEIBUPxgContactManagerInput@physx@@PEIBUPxsCachedTransform@2@PEIBMPEIBUPxgShape@2@PEIAVPxgSoftBody@2@IPEAEPEAI@Z 000000018003c100 f   softbodyHFMidPhase.obj
 0001:0003b790       initNarrowphaseKernels18   000000018003c790 f   femClothMidPhase.obj
 0001:0003b7a0       cloth_midphaseGeneratePairsLaunch 000000018003c7a0 f   femClothMidPhase.obj
 0001:0003b950       cloth_midphaseGenerateVertexPairsLaunch 000000018003c950 f   femClothMidPhase.obj
 0001:0003bae0       cloth_psMidphaseGeneratePairsLaunch 000000018003cae0 f   femClothMidPhase.obj
 0001:0003bca0       cloth_midphaseVertexMeshLaunch 000000018003cca0 f   femClothMidPhase.obj
 0001:0003be80       ?__device_stub__Z33cloth_midphaseGeneratePairsLaunchjfPKN5physx22PxgContactManagerInputEPKNS_18PxsCachedTransformEPKNS_9PxBounds3EPKfPKNS_8PxgShapeEPKNS_11PxgFEMClothEPhPjj@@YAXIMPEIBUPxgContactManagerInput@physx@@PEIBUPxsCachedTransform@2@PEIBVPxBounds3@2@PEIBMPEIBUPxgShape@2@PEIBVPxgFEMCloth@2@PEIAEPEIAII@Z 000000018003ce80 f   femClothMidPhase.obj
 0001:0003bfd0       ?__device_stub__Z39cloth_midphaseGenerateVertexPairsLaunchjfPKN5physx22PxgContactManagerInputEPKNS_18PxsCachedTransformEPKNS_9PxBounds3EPKfPKNS_8PxgShapeEPKNS_11PxgFEMClothEP5uint4Pj@@YAXIMPEIBUPxgContactManagerInput@physx@@PEIBUPxsCachedTransform@2@PEIBVPxBounds3@2@PEIBMPEIBUPxgShape@2@PEIBVPxgFEMCloth@2@PEIAUuint4@@PEIAI@Z 000000018003cfd0 f   femClothMidPhase.obj
 0001:0003c110       ?__device_stub__Z35cloth_psMidphaseGeneratePairsLaunchjfPKN5physx22PxgContactManagerInputEPKNS_8PxgShapeEPKNS_18PxsCachedTransformEPKNS_9PxBounds3EPKfPKNS_11PxgFEMClothEPNS_17PxgParticleSystemEjPhPj@@YAXIMPEIBUPxgContactManagerInput@physx@@PEIBUPxgShape@2@PEIBUPxsCachedTransform@2@PEIBVPxBounds3@2@PEIBMPEIBVPxgFEMCloth@2@PEIAVPxgParticleSystem@2@IPEIAEPEIAI@Z 000000018003d110 f   femClothMidPhase.obj
 0001:0003c270       ?__device_stub__Z30cloth_midphaseVertexMeshLaunchjfPKN5physx22PxgContactManagerInputEPKNS_18PxsCachedTransformEPKNS_9PxBounds3EPKfPKNS_8PxgShapeEPKNS_11PxgFEMClothEjPhPj@@YAXIMPEIBUPxgContactManagerInput@physx@@PEIBUPxsCachedTransform@2@PEIBVPxBounds3@2@PEIBMPEIBUPxgShape@2@PEIBVPxgFEMCloth@2@IPEIAEPEIAI@Z 000000018003d270 f   femClothMidPhase.obj
 0001:0003c7a0       initNarrowphaseKernels19   000000018003d7a0 f   femClothPrimitives.obj
 0001:0003c7b0       ?closestPtPointSegment@@YA?AV?$PxVec3T@M@physx@@AEBV12@0M0@Z 000000018003d7b0 f   femClothPrimitives.obj
 0001:0003c7d0       cloth_SphereContactGenLaunch 000000018003d7d0 f   femClothPrimitives.obj
 0001:0003c9c0       cloth_SphereVertexContactGenLaunch 000000018003d9c0 f   femClothPrimitives.obj
 0001:0003cb60       cloth_planeVertContactGenLaunch 000000018003db60 f   femClothPrimitives.obj
 0001:0003cd00       ?findRotationMatrixFromZ@@YA?AV?$PxMat33T@M@physx@@AEBV?$PxVec3T@M@2@@Z 000000018003dd00 f   femClothPrimitives.obj
 0001:0003cd20       ?contain@@YA_NV?$PxVec3T@M@physx@@00@Z 000000018003dd20 f   femClothPrimitives.obj
 0001:0003cd40       ?contains@@YA_NPEAV?$PxVec3T@M@physx@@IAEBV12@@Z 000000018003dd40 f   femClothPrimitives.obj
 0001:0003cd60       ?containsParallel@@YA_NAEBV?$PxVec3T@M@physx@@I0@Z 000000018003dd60 f   femClothPrimitives.obj
 0001:0003cd80       ?signed2DTriArea@@YAMAEBV?$PxVec3T@M@physx@@00@Z 000000018003dd80 f   femClothPrimitives.obj
 0001:0003cda0       ?segmentIntersect@@YA_NAEBV?$PxVec3T@M@physx@@00000AEAV12@1@Z 000000018003dda0 f   femClothPrimitives.obj
 0001:0003cdc0       ?addContacts@@YAXIAEBV?$PxVec3T@M@physx@@0MPECMAEAI@Z 000000018003ddc0 f   femClothPrimitives.obj
 0001:0003cde0       ?addContacts@@YAXIAEBUfloat4@@AEBV?$PxVec3T@M@physx@@MPECMAEAI@Z 000000018003dde0 f   femClothPrimitives.obj
 0001:0003ce00       ?addContacts@@YAXIAEBUfloat4@@0AEBV?$PxVec3T@M@physx@@MPECMAEAI@Z 000000018003de00 f   femClothPrimitives.obj
 0001:0003ce20       cloth_convexContactGenLaunch 000000018003de20 f   femClothPrimitives.obj
 0001:0003d010       cloth_convexVertexContactGenLaunch 000000018003e010 f   femClothPrimitives.obj
 0001:0003d200       cloth_sdfMeshContactGenLaunch 000000018003e200 f   femClothPrimitives.obj
 0001:0003d3a0       cloth_heightfieldVertexContactGenLaunch 000000018003e3a0 f   femClothPrimitives.obj
 0001:0003d570       cloth_psContactGenLaunch   000000018003e570 f   femClothPrimitives.obj
 0001:0003d740       cloth_meshVertexContactGenLaunch 000000018003e740 f   femClothPrimitives.obj
 0001:0003d910       cloth_boxVertexContactGenLaunch 000000018003e910 f   femClothPrimitives.obj
 0001:0003dab0       cloth_boxTriangleContactGenLaunch 000000018003eab0 f   femClothPrimitives.obj
 0001:0003dca0       cloth_heightfieldContactGenLaunch 000000018003eca0 f   femClothPrimitives.obj
 0001:0003de70       cloth_meshContactGenLaunch 000000018003ee70 f   femClothPrimitives.obj
 0001:0003e090       ?__device_stub__Z28cloth_SphereContactGenLaunchfPKN5physx22PxgContactManagerInputEPKNS_18PxsCachedTransformEPKfS7_PKNS_8PxgShapeEPKNS_11PxgFEMClothEPKNS_11PxNodeIndexEPhPjPNS_18PxgRigidFilterPairEjjSI_NS_19PxgFEMContactWriterE@@YAXMPEIBUPxgContactManagerInput@physx@@PEIBUPxsCachedTransform@2@PEIBM2PEIBUPxgShape@2@PEIBVPxgFEMCloth@2@PEIBVPxNodeIndex@2@PEIAEPEIAIPEAVPxgRigidFilterPair@2@II7AEAUPxgFEMContactWriter@2@@Z 000000018003f090 f   femClothPrimitives.obj
 0001:0003e220       ?__device_stub__Z34cloth_SphereVertexContactGenLaunchjPKN5physx22PxgContactManagerInputEPKNS_18PxsCachedTransformEPKfS7_PKNS_8PxgShapeEPNS_11PxgFEMClothEPKNS_11PxNodeIndexEPNS_18PxgRigidFilterPairEjNS_19PxgFEMContactWriterE@@YAXIPEIBUPxgContactManagerInput@physx@@PEIBUPxsCachedTransform@2@PEIBM2PEIBUPxgShape@2@PEIAVPxgFEMCloth@2@PEIBVPxNodeIndex@2@PEAVPxgRigidFilterPair@2@IAEAUPxgFEMContactWriter@2@@Z 000000018003f220 f   femClothPrimitives.obj
 0001:0003e370       ?__device_stub__Z31cloth_planeVertContactGenLaunchjPKN5physx22PxgContactManagerInputEPKNS_18PxsCachedTransformEPKfS7_PKNS_8PxgShapeEPKNS_11PxgFEMClothEPKNS_11PxNodeIndexEPNS_18PxgRigidFilterPairEjNS_19PxgFEMContactWriterE@@YAXIPEIBUPxgContactManagerInput@physx@@PEIBUPxsCachedTransform@2@PEIBM2PEIBUPxgShape@2@PEIBVPxgFEMCloth@2@PEIBVPxNodeIndex@2@PEAVPxgRigidFilterPair@2@IAEAUPxgFEMContactWriter@2@@Z 000000018003f370 f   femClothPrimitives.obj
 0001:0003e4c0       ?__device_stub__Z28cloth_convexContactGenLaunchfPKN5physx22PxgContactManagerInputEPKNS_18PxsCachedTransformEPKfS7_PKNS_8PxgShapeEPKNS_11PxgFEMClothEPKNS_11PxNodeIndexEPhPjPNS_18PxgRigidFilterPairEjjSI_NS_19PxgFEMContactWriterE@@YAXMPEIBUPxgContactManagerInput@physx@@PEIBUPxsCachedTransform@2@PEIBM2PEIBUPxgShape@2@PEIBVPxgFEMCloth@2@PEIBVPxNodeIndex@2@PEIAEPEIAIPEAVPxgRigidFilterPair@2@II7AEAUPxgFEMContactWriter@2@@Z 000000018003f4c0 f   femClothPrimitives.obj
 0001:0003e650       ?__device_stub__Z34cloth_convexVertexContactGenLaunchfPKN5physx22PxgContactManagerInputEPKNS_18PxsCachedTransformEPKfS7_PKNS_8PxgShapeEPNS_11PxgFEMClothEPKNS_11PxNodeIndexEPhPjPNS_18PxgRigidFilterPairEjjSH_NS_19PxgFEMContactWriterE@@YAXMPEIBUPxgContactManagerInput@physx@@PEIBUPxsCachedTransform@2@PEIBM2PEIBUPxgShape@2@PEIAVPxgFEMCloth@2@PEIBVPxNodeIndex@2@PEIAEPEIAIPEAVPxgRigidFilterPair@2@II7AEAUPxgFEMContactWriter@2@@Z 000000018003f650 f   femClothPrimitives.obj
 0001:0003e7e0       ?__device_stub__Z29cloth_sdfMeshContactGenLaunchjPKN5physx22PxgContactManagerInputEPKNS_18PxsCachedTransformEPKfS7_PKNS_8PxgShapeEPKNS_11PxgFEMClothEPKNS_11PxNodeIndexEPNS_18PxgRigidFilterPairEjNS_19PxgFEMContactWriterE@@YAXIPEIBUPxgContactManagerInput@physx@@PEIBUPxsCachedTransform@2@PEIBM2PEIBUPxgShape@2@PEIBVPxgFEMCloth@2@PEIBVPxNodeIndex@2@PEAVPxgRigidFilterPair@2@IAEAUPxgFEMContactWriter@2@@Z 000000018003f7e0 f   femClothPrimitives.obj
 0001:0003e930       ?__device_stub__Z39cloth_heightfieldVertexContactGenLaunchfPKN5physx22PxgContactManagerInputEPKNS_18PxsCachedTransformEPKfS7_PKNS_8PxgShapeEPNS_11PxgFEMClothEPKNS_11PxNodeIndexEPhPjNS_19PxgFEMContactWriterEjSH_@@YAXMPEIBUPxgContactManagerInput@physx@@PEIBUPxsCachedTransform@2@PEIBM2PEIBUPxgShape@2@PEIAVPxgFEMCloth@2@PEIBVPxNodeIndex@2@PEIAEPEIAIAEAUPxgFEMContactWriter@2@I7@Z 000000018003f930 f   femClothPrimitives.obj
 0001:0003eaa0       ?__device_stub__Z24cloth_psContactGenLaunchfPKN5physx22PxgContactManagerInputEPKNS_18PxsCachedTransformEPKfS7_PKNS_8PxgShapeEPKNS_17PxgParticleSystemEPKNS_11PxgFEMClothEjPhPjSI_NS_19PxgFEMContactWriterE@@YAXMPEIBUPxgContactManagerInput@physx@@PEIBUPxsCachedTransform@2@PEIBM2PEIBUPxgShape@2@PEIBVPxgParticleSystem@2@PEIBVPxgFEMCloth@2@IPEIAEPEIAI7AEAUPxgFEMContactWriter@2@@Z 000000018003faa0 f   femClothPrimitives.obj
 0001:0003ec10       ?__device_stub__Z32cloth_meshVertexContactGenLaunchfPKN5physx22PxgContactManagerInputEPKNS_18PxsCachedTransformEPKfS7_PKNS_8PxgShapeEPNS_11PxgFEMClothEPKNS_11PxNodeIndexEjPhPjSH_NS_19PxgFEMContactWriterE@@YAXMPEIBUPxgContactManagerInput@physx@@PEIBUPxsCachedTransform@2@PEIBM2PEIBUPxgShape@2@PEIAVPxgFEMCloth@2@PEIBVPxNodeIndex@2@IPEIAEPEIAI7AEAUPxgFEMContactWriter@2@@Z 000000018003fc10 f   femClothPrimitives.obj
 0001:0003ed80       ?__device_stub__Z31cloth_boxVertexContactGenLaunchjPKN5physx22PxgContactManagerInputEPKNS_18PxsCachedTransformEPKfS7_PKNS_8PxgShapeEPKNS_11PxgFEMClothEPKNS_11PxNodeIndexEPNS_18PxgRigidFilterPairEjNS_19PxgFEMContactWriterE@@YAXIPEIBUPxgContactManagerInput@physx@@PEIBUPxsCachedTransform@2@PEIBM2PEIBUPxgShape@2@PEIBVPxgFEMCloth@2@PEIBVPxNodeIndex@2@PEAVPxgRigidFilterPair@2@IAEAUPxgFEMContactWriter@2@@Z 000000018003fd80 f   femClothPrimitives.obj
 0001:0003eed0       ?__device_stub__Z33cloth_boxTriangleContactGenLaunchfPKN5physx22PxgContactManagerInputEPKNS_18PxsCachedTransformEPKfS7_PKNS_8PxgShapeEPKNS_11PxgFEMClothEPKNS_11PxNodeIndexEPhPjPNS_18PxgRigidFilterPairEjjSI_NS_19PxgFEMContactWriterE@@YAXMPEIBUPxgContactManagerInput@physx@@PEIBUPxsCachedTransform@2@PEIBM2PEIBUPxgShape@2@PEIBVPxgFEMCloth@2@PEIBVPxNodeIndex@2@PEIAEPEIAIPEAVPxgRigidFilterPair@2@II7AEAUPxgFEMContactWriter@2@@Z 000000018003fed0 f   femClothPrimitives.obj
 0001:0003f060       ?__device_stub__Z33cloth_heightfieldContactGenLaunchfPKN5physx22PxgContactManagerInputEPKNS_18PxsCachedTransformEPKfS7_PKNS_8PxgShapeEPKNS_11PxgFEMClothEPKNS_11PxNodeIndexEPhPjjSI_NS_19PxgFEMContactWriterE@@YAXMPEIBUPxgContactManagerInput@physx@@PEIBUPxsCachedTransform@2@PEIBM2PEIBUPxgShape@2@PEIBVPxgFEMCloth@2@PEIBVPxNodeIndex@2@PEIAEPEIAII7AEAUPxgFEMContactWriter@2@@Z 0000000180040060 f   femClothPrimitives.obj
 0001:0003f1d0       ?__device_stub__Z26cloth_meshContactGenLaunchfPKN5physx22PxgContactManagerInputEPKNS_18PxsCachedTransformEPKfS7_PKNS_8PxgShapeEPKNS_11PxgFEMClothEPKNS_11PxNodeIndexEjPhPjPNS_18PxgRigidFilterPairEjSI_NS_19PxgFEMContactWriterE@@YAXMPEIBUPxgContactManagerInput@physx@@PEIBUPxsCachedTransform@2@PEIBM2PEIBUPxgShape@2@PEIBVPxgFEMCloth@2@PEIBVPxNodeIndex@2@IPEIAEPEIAIPEAVPxgRigidFilterPair@2@I7AEAUPxgFEMContactWriter@2@@Z 00000001800401d0 f   femClothPrimitives.obj
 0001:0003f980       initNarrowphaseKernels20   0000000180040980 f   femClothHFMidPhase.obj
 0001:0003f990       cloth_heightfieldMidphaseGeneratePairsLaunch 0000000180040990 f   femClothHFMidPhase.obj
 0001:0003fb20       cloth_midphaseVertexHeightfieldLaunch 0000000180040b20 f   femClothHFMidPhase.obj
 0001:0003fce0       ?__device_stub__Z44cloth_heightfieldMidphaseGeneratePairsLaunchjfPKN5physx22PxgContactManagerInputEPKNS_18PxsCachedTransformEPKfPKNS_8PxgShapeEPNS_11PxgFEMClothEPhPjj@@YAXIMPEIBUPxgContactManagerInput@physx@@PEIBUPxsCachedTransform@2@PEIBMPEIBUPxgShape@2@PEIAVPxgFEMCloth@2@PEAEPEAII@Z 0000000180040ce0 f   femClothHFMidPhase.obj
 0001:0003fe20       ?__device_stub__Z37cloth_midphaseVertexHeightfieldLaunchjfPKN5physx22PxgContactManagerInputEPKNS_18PxsCachedTransformEPKfPKNS_8PxgShapeEPNS_11PxgFEMClothEPhPjj@@YAXIMPEIBUPxgContactManagerInput@physx@@PEIBUPxsCachedTransform@2@PEIBMPEIBUPxgShape@2@PEIAVPxgFEMCloth@2@PEAEPEAII@Z 0000000180040e20 f   femClothHFMidPhase.obj
 0001:000402c0       ?minProject@@YAMAEBVPxPlane@physx@@AEBUTriangle@@@Z 00000001800412c0 f   femClothClothMidPhase.obj
 0001:000402e0       initNarrowphaseKernels21   00000001800412e0 f   femClothClothMidPhase.obj
 0001:000402f0       ?computeTriangleBound2@@YAXQEIBUuint4@@IQEIBUfloat4@@AEAVPxBounds3@physx@@@Z 00000001800412f0 f   femClothClothMidPhase.obj
 0001:00040310       cloth_meshMidphaseGeneratePairsLaunch 0000000180041310 f   femClothClothMidPhase.obj
 0001:000404a0       cloth_clothMidphaseGeneratePairsLaunch 00000001800414a0 f   femClothClothMidPhase.obj
 0001:00040660       cloth_selfCollisionMidphaseGeneratePairsLaunch 0000000180041660 f   femClothClothMidPhase.obj
 0001:00040790       ?distInRestPose@@YAMPEBUfloat4@@0IUuint4@@@Z 0000000180041790 f   femClothClothMidPhase.obj
 0001:000407b0       cloth_selfCollisionVertexMidphaseGeneratePairsLaunch 00000001800417b0 f   femClothClothMidPhase.obj
 0001:00040980       cloth_clothVertexCollisionLaunch 0000000180041980 f   femClothClothMidPhase.obj
 0001:00040bc0       ?__device_stub__Z37cloth_meshMidphaseGeneratePairsLaunchfPKN5physx22PxgContactManagerInputEPKNS_18PxsCachedTransformEPKNS_9PxBounds3EPKfPKNS_8PxgShapeEPKNS_11PxgFEMClothEjPhPj@@YAXMPEIBUPxgContactManagerInput@physx@@PEIBUPxsCachedTransform@2@PEIBVPxBounds3@2@PEIBMPEIBUPxgShape@2@PEIBVPxgFEMCloth@2@IPEIAEPEIAI@Z 0000000180041bc0 f   femClothClothMidPhase.obj
 0001:00040d00       ?__device_stub__Z38cloth_clothMidphaseGeneratePairsLaunchfPKN5physx22PxgContactManagerInputEPKNS_18PxsCachedTransformEPKNS_9PxBounds3EPKfPKNS_8PxgShapeEPKNS_11PxgFEMClothEPKNS_21PxgNonRigidFilterPairEjjPhPj@@YAXMPEIBUPxgContactManagerInput@physx@@PEIBUPxsCachedTransform@2@PEIBVPxBounds3@2@PEIBMPEIBUPxgShape@2@PEIBVPxgFEMCloth@2@PEIBVPxgNonRigidFilterPair@2@IIPEIAEPEIAI@Z 0000000180041d00 f   femClothClothMidPhase.obj
 0001:00040e60       ?__device_stub__Z46cloth_selfCollisionMidphaseGeneratePairsLaunchPKjPKfPKN5physx11PxgFEMClothEjPhPj@@YAXPEBIPEIBMPEIBVPxgFEMCloth@physx@@IPEIAEPEIAI@Z 0000000180041e60 f   femClothClothMidPhase.obj
 0001:00040f80       ?__device_stub__Z52cloth_selfCollisionVertexMidphaseGeneratePairsLaunchjPKjPKfPKN5physx11PxgFEMClothEPNS3_21PxgNonRigidFilterPairEjPKhP6float4SC_SC_SC_PNS3_17PxgFemContactInfoEPj@@YAXIPEBIPEIBMPEIBVPxgFEMCloth@physx@@PEAVPxgNonRigidFilterPair@2@IPEBEPEAUfloat4@@555PEAUPxgFemContactInfo@2@PEAI@Z 0000000180041f80 f   femClothClothMidPhase.obj
 0001:000410f0       ?__device_stub__Z32cloth_clothVertexCollisionLaunchjfPKN5physx22PxgContactManagerInputEPKNS_18PxsCachedTransformEPKfPKNS_8PxgShapeEPKNS_11PxgFEMClothEPNS_21PxgNonRigidFilterPairEjPKhP6float4SJ_SJ_SJ_PNS_17PxgFemContactInfoEPj@@YAXIMPEIBUPxgContactManagerInput@physx@@PEIBUPxsCachedTransform@2@PEIBMPEIBUPxgShape@2@PEIBVPxgFEMCloth@2@PEAVPxgNonRigidFilterPair@2@IPEBEPEAUfloat4@@777PEAUPxgFemContactInfo@2@PEAI@Z 00000001800420f0 f   femClothClothMidPhase.obj
 0001:000416a0       initNarrowphaseKernels22   00000001800426a0 f   trimeshCollision.obj
 0001:000416b0       trimeshPlaneNarrowphase    00000001800426b0 f   trimeshCollision.obj
 0001:00041920       trimeshHeightfieldNarrowphase 0000000180042920 f   trimeshCollision.obj
 0001:00041bb0       ?__device_stub__Z23trimeshPlaneNarrowphasefPKN5physx22PxgContactManagerInputEPNS_23PxsContactManagerOutputEPNS_8PxgShapeEPKNS_18PxsCachedTransformEPKfPKNS_15PxsMaterialDataEPNS_33PxgPersistentContactMultiManifoldEPhSH_PNS_26PxgPatchAndContactCountersEPjSK_SH_SH_SH_jjjf@@YAXMPEIBUPxgContactManagerInput@physx@@PEIAUPxsContactManagerOutput@2@PEIAUPxgShape@2@PEIBUPxsCachedTransform@2@PEBMPEIBUPxsMaterialData@2@PEIAUPxgPersistentContactMultiManifold@2@PEIAE7PEIAUPxgPatchAndContactCounters@2@PEIAI9777IIIM@Z 0000000180042bb0 f   trimeshCollision.obj
 0001:00041d80       ?__device_stub__Z29trimeshHeightfieldNarrowphasefPKN5physx22PxgContactManagerInputEPNS_23PxsContactManagerOutputEPNS_8PxgShapeEPKNS_18PxsCachedTransformEPKfPKNS_15PxsMaterialDataEPhSF_PNS_26PxgPatchAndContactCountersEPjSI_SF_SF_SF_jjjf@@YAXMPEIBUPxgContactManagerInput@physx@@PEIAUPxsContactManagerOutput@2@PEIAUPxgShape@2@PEIBUPxsCachedTransform@2@PEBMPEIBUPxsMaterialData@2@PEIAE6PEIAUPxgPatchAndContactCounters@2@PEIAI8666IIIM@Z 0000000180042d80 f   trimeshCollision.obj
 0001:00042420       ??0PxgGeometryManager@physx@@QEAA@PEAVPxgHeapMemoryAllocatorManager@1@@Z 0000000180043420 f   PxgGeometryManager.obj
 0001:000424c0       ??1PxgArticulationSelfConstraints@physx@@QEAA@XZ 00000001800434c0 f i PxgBodySimManager.obj
 0001:000424c0       ??1?$PxgFreeIndicesProvider@V?$PxArray@UHullOrMeshData@physx@@V?$PxReflectionAllocator@UHullOrMeshData@physx@@@2@@physx@@@physx@@QEAA@XZ 00000001800434c0 f i PxgGeometryManager.obj
 0001:000424c0       ??1PxgStaticConstraints@physx@@QEAA@XZ 00000001800434c0 f i PxgBodySimManager.obj
 0001:00042540       ??1PxgGeometryManager@physx@@UEAA@XZ 0000000180043540 f   PxgGeometryManager.obj
 0001:00042620       ??_GPxgGeometryManager@physx@@UEAAPEAXI@Z 0000000180043620 f i PxgGeometryManager.obj
 0001:00042620       ??_EPxgGeometryManager@physx@@UEAAPEAXI@Z 0000000180043620 f i PxgGeometryManager.obj
 0001:00042720       ?addBoxHull@PxgGeometryManager@physx@@QEAAXXZ 0000000180043720 f   PxgGeometryManager.obj
 0001:00042760       ?addGeometryInternal@PxgGeometryManager@physx@@AEAAI_KPEBXW4Enum@UploadGeometryType@ScheduledCopyData@2@I@Z 0000000180043760 f   PxgGeometryManager.obj
 0001:000428d0       ?addHeightfield@PxgGeometryManager@physx@@QEAAIAEBUHeightFieldData@Gu@2@@Z 00000001800438d0 f   PxgGeometryManager.obj
 0001:00042910       ?addHull@PxgGeometryManager@physx@@QEAAIAEBUConvexHullData@Gu@2@@Z 0000000180043910 f   PxgGeometryManager.obj
 0001:00042a00       ?addTriMesh@PxgGeometryManager@physx@@QEAAIAEBVTriangleMesh@Gu@2@@Z 0000000180043a00 f   PxgGeometryManager.obj
 0001:00042a90       ?create@?$PxHashBase@V?$PxPair@QEAXUPxgMeshTextureData@physx@@@physx@@PEAXU?$PxHash@PEAX@2@UGetKey@?$PxHashMapBase@PEAXUPxgMeshTextureData@physx@@U?$PxHash@PEAX@2@VPxAllocator@2@@2@VPxAllocator@2@$00@physx@@QEAAPEAV?$PxPair@QEAXUPxgMeshTextureData@physx@@@2@AEBQEAXAEA_N@Z 0000000180043a90 f i PxgGeometryManager.obj
 0001:00042c40       ?erase@?$PxHashBase@V?$PxPair@QEAXUPxgMeshTextureData@physx@@@physx@@PEAXU?$PxHash@PEAX@2@UGetKey@?$PxHashMapBase@PEAXUPxgMeshTextureData@physx@@U?$PxHash@PEAX@2@VPxAllocator@2@@2@VPxAllocator@2@$00@physx@@QEAA_NAEBQEAX@Z 0000000180043c40 f i PxgGeometryManager.obj
 0001:00042df0       ?getBoxHullDevPtr@PxgGeometryManager@physx@@QEBA_KXZ 0000000180043df0 f   PxgGeometryManager.obj
 0001:00042e00       ?getGeometryDevPtrByIndex@PxgGeometryManager@physx@@QEBA_KI@Z 0000000180043e00 f   PxgGeometryManager.obj
 0001:00042e10       ?growAndPushBack@?$PxArray@UScheduledCopyData@physx@@V?$PxReflectionAllocator@UScheduledCopyData@physx@@@2@@physx@@IEAAAEAUScheduledCopyData@2@AEBU32@@Z 0000000180043e10 f i PxgGeometryManager.obj
 0001:00043e50       ?recreate@?$PxArray@UHullOrMeshData@physx@@V?$PxReflectionAllocator@UHullOrMeshData@physx@@@2@@physx@@IEAAXI@Z 0000000180044e50 f i PxgGeometryManager.obj
 0001:00043f40       ?removeGeometry@PxgGeometryManager@physx@@QEAAXI@Z 0000000180044f40 f   PxgGeometryManager.obj
 0001:00044130       ?reserveInternal@?$PxHashBase@V?$PxPair@QEAXUPxgMeshTextureData@physx@@@physx@@PEAXU?$PxHash@PEAX@2@UGetKey@?$PxHashMapBase@PEAXUPxgMeshTextureData@physx@@U?$PxHash@PEAX@2@VPxAllocator@2@@2@VPxAllocator@2@$00@physx@@AEAAXI@Z 0000000180045130 f i PxgGeometryManager.obj
 0001:00044330       ?resetAfterMemcpyCompleted@PxgGeometryManager@physx@@QEAAXXZ 0000000180045330 f   PxgGeometryManager.obj
 0001:000443d0       ?resize@?$PxArray@UHullOrMeshData@physx@@V?$PxReflectionAllocator@UHullOrMeshData@physx@@@2@@physx@@QEAAXIAEBUHullOrMeshData@2@@Z 00000001800453d0 f i PxgGeometryManager.obj
 0001:00044450       ?scheduleCopyHtoD@PxgGeometryManager@physx@@QEAAXAEAVPxgCopyManager@2@AEAVPxCudaContext@2@PEAUCUstream_st@@@Z 0000000180045450 f   PxgGeometryManager.obj
 0001:00044690       ??$PxSort@IU?$PxLess@I@physx@@V?$PxReflectionAllocator@I@2@@physx@@YAXPEAIIAEBU?$PxLess@I@0@AEBV?$PxReflectionAllocator@I@0@I@Z 0000000180045690 f i PxgNarrowphaseCore.obj
 0001:00044ae0       ??$prepareTempContactManagers@UPxgPersistentContactManifold@physx@@@PxgGpuNarrowphaseCore@physx@@AEAAXAEAUPxgGpuContactManagers@1@AEAUPxgNewContactManagers@1@PEAUPxgPersistentContactManifold@1@@Z 0000000180045ae0 f i PxgNarrowphaseCore.obj
 0001:00044f80       ??$prepareTempContactManagers@UPxgPersistentContactMultiManifold@physx@@@PxgGpuNarrowphaseCore@physx@@AEAAXAEAUPxgGpuContactManagers@1@AEAUPxgNewContactManagers@1@PEAUPxgPersistentContactMultiManifold@1@@Z 0000000180045f80 f i PxgNarrowphaseCore.obj
 0001:00045420       ??$registerMaterialInternal@V?$MaterialCoreT@UPxsDeformableSurfaceMaterialData@physx@@VPxDeformableSurfaceMaterial@2@@physx@@UPxsDeformableSurfaceMaterialData@2@@PxgGpuNarrowphaseCore@physx@@AEAAIAEBV?$MaterialCoreT@UPxsDeformableSurfaceMaterialData@physx@@VPxDeformableSurfaceMaterial@2@@1@PEAV?$PxHashMap@_KURefcountedRecord@PxgGpuNarrowphaseCore@physx@@U?$PxHash@_K@3@VPxAllocator@3@@1@AEAVPxgMaterialManager@1@@Z 0000000180046420 f i PxgNarrowphaseCore.obj
 0001:00045420       ??$registerMaterialInternal@V?$MaterialCoreT@UPxsDeformableVolumeMaterialData@physx@@VPxDeformableVolumeMaterial@2@@physx@@UPxsDeformableVolumeMaterialData@2@@PxgGpuNarrowphaseCore@physx@@AEAAIAEBV?$MaterialCoreT@UPxsDeformableVolumeMaterialData@physx@@VPxDeformableVolumeMaterial@2@@1@PEAV?$PxHashMap@_KURefcountedRecord@PxgGpuNarrowphaseCore@physx@@U?$PxHash@_K@3@VPxAllocator@3@@1@AEAVPxgMaterialManager@1@@Z 0000000180046420 f i PxgNarrowphaseCore.obj
 0001:000455b0       ??$registerMaterialInternal@V?$MaterialCoreT@UPxsMaterialData@physx@@VPxMaterial@2@@physx@@UPxsMaterialData@2@@PxgGpuNarrowphaseCore@physx@@AEAAIAEBV?$MaterialCoreT@UPxsMaterialData@physx@@VPxMaterial@2@@1@PEAV?$PxHashMap@_KURefcountedRecord@PxgGpuNarrowphaseCore@physx@@U?$PxHash@_K@3@VPxAllocator@3@@1@AEAVPxgMaterialManager@1@@Z 00000001800465b0 f i PxgNarrowphaseCore.obj
 0001:00045740       ??$registerMaterialInternal@V?$MaterialCoreT@UPxsPBDMaterialData@physx@@VPxPBDMaterial@2@@physx@@UPxsPBDMaterialData@2@@PxgGpuNarrowphaseCore@physx@@AEAAIAEBV?$MaterialCoreT@UPxsPBDMaterialData@physx@@VPxPBDMaterial@2@@1@PEAV?$PxHashMap@_KURefcountedRecord@PxgGpuNarrowphaseCore@physx@@U?$PxHash@_K@3@VPxAllocator@3@@1@AEAVPxgMaterialManager@1@@Z 0000000180046740 f i PxgNarrowphaseCore.obj
 0001:000458d0       ??$removeLostPairsGpuInternal@UPxgPairManagementData@physx@@UPxgPersistentContactManifold@2@@PxgGpuNarrowphaseCore@physx@@QEAAXAEAUPxgPairManagementData@1@_KAEAUPxgContactManagers@1@AEAUPxgGpuContactManagers@1@AEAV?$PxArray@IVPxVirtualAllocator@physx@@@1@AEAUPxgGpuPairManagementBuffers@1@G_N@Z 00000001800468d0 f i PxgNarrowphaseCore.obj
 0001:00045d70       ??0PxgFEMContactWriter@physx@@QEAA@PEAVPxgFEMCore@1@_N@Z 0000000180046d70 f i PxgNarrowphaseCore.obj
 0001:00045ee0       ??0PxgGpuContactManagers@physx@@QEAA@IPEAVPxgHeapMemoryAllocatorManager@1@@Z 0000000180046ee0 f i PxgNarrowphaseCore.obj
 0001:00046070       ??0PxgGpuNarrowphaseCore@physx@@QEAA@PEAVPxgCudaKernelWranglerManager@1@PEAVPxCudaContextManager@1@AEBUPxGpuDynamicsMemoryConfig@1@PEAX33PEAVIslandSim@IG@1@PEAUCUstream_st@@PEAVPxgHeapMemoryAllocatorManager@1@PEAVPxgNphaseImplementationContext@1@@Z 0000000180047070 f   PxgNarrowphaseCore.obj
 0001:00046e60       ??1?$PxgCudaPagedLinearAllocator@VPxgHeapMemoryAllocator@physx@@@physx@@UEAA@XZ 0000000180047e60 f i PxgNarrowphaseCore.obj
 0001:00046f70       ??1PxgContactManagers@physx@@QEAA@XZ 0000000180047f70 f i PxgNarrowphaseCore.obj
 0001:00047040       ??1PxgGpuContactManagers@physx@@QEAA@XZ 0000000180048040 f i PxgNarrowphaseCore.obj
 0001:000470e0       ??1PxgGpuNarrowphaseCore@physx@@UEAA@XZ 00000001800480e0 f   PxgNarrowphaseCore.obj
 0001:000477a0       ??1PxgMaterialManager@physx@@UEAA@XZ 00000001800487a0 f i PxgNarrowphaseCore.obj
 0001:00047830       ??1PxgShapeManager@physx@@QEAA@XZ 0000000180048830 f i PxgNarrowphaseCore.obj
 0001:000479b0       ??_E?$PxgCudaPagedLinearAllocator@VPxgHeapMemoryAllocator@physx@@@physx@@UEAAPEAXI@Z 00000001800489b0 f i PxgNarrowphaseCore.obj
 0001:000479b0       ??_G?$PxgCudaPagedLinearAllocator@VPxgHeapMemoryAllocator@physx@@@physx@@UEAAPEAXI@Z 00000001800489b0 f i PxgNarrowphaseCore.obj
 0001:000479f0       ??_EPrepareInputTask@@UEAAPEAXI@Z 00000001800489f0 f i PxgNarrowphaseCore.obj
 0001:000479f0       ??_EPxgCMGpuDiscreteUpdateTask@physx@@UEAAPEAXI@Z 00000001800489f0 f i PxgNphaseImplementationContext.obj
 0001:000479f0       ??_GPrepareInputTask@@UEAAPEAXI@Z 00000001800489f0 f i PxgNarrowphaseCore.obj
 0001:000479f0       ??_GPxgCMGpuDiscreteUpdateTask@physx@@UEAAPEAXI@Z 00000001800489f0 f i PxgNphaseImplementationContext.obj
 0001:00047a30       ??_EPxgMaterialManager@physx@@UEAAPEAXI@Z 0000000180048a30 f i PxgNarrowphaseCore.obj
 0001:00047a30       ??_GPxgPBDMaterialManager@physx@@UEAAPEAXI@Z 0000000180048a30 f i PxgNarrowphaseCore.obj
 0001:00047a30       ??_GPxgMaterialManager@physx@@UEAAPEAXI@Z 0000000180048a30 f i PxgNarrowphaseCore.obj
 0001:00047a30       ??_GPxgFEMSoftBodyMaterialManager@physx@@UEAAPEAXI@Z 0000000180048a30 f i PxgShapeManager.obj
 0001:00047a30       ??_GPxgFEMClothMaterialManager@physx@@UEAAPEAXI@Z 0000000180048a30 f i PxgNarrowphaseCore.obj
 0001:00047a30       ??_EPxgFEMClothMaterialManager@physx@@UEAAPEAXI@Z 0000000180048a30 f i PxgNarrowphaseCore.obj
 0001:00047a30       ??_EPxgPBDMaterialManager@physx@@UEAAPEAXI@Z 0000000180048a30 f i PxgNarrowphaseCore.obj
 0001:00047a30       ??_EPxgFEMSoftBodyMaterialManager@physx@@UEAAPEAXI@Z 0000000180048a30 f i PxgShapeManager.obj
 0001:00047a70       ??_GPxgGpuNarrowphaseCore@physx@@UEAAPEAXI@Z 0000000180048a70 f i PxgNarrowphaseCore.obj
 0001:00047a70       ??_EPxgGpuNarrowphaseCore@physx@@UEAAPEAXI@Z 0000000180048a70 f i PxgNarrowphaseCore.obj
 0001:00047ae0       ?acquireContext@PxgGpuNarrowphaseCore@physx@@QEAAXXZ 0000000180048ae0 f   PxgNarrowphaseCore.obj
 0001:00047af0       ?adjustNpIndices@PxgGpuNarrowphaseCore@physx@@AEAAXAEAUPxgNewContactManagers@2@AEAV?$PxArray@UPxgContactManagerInput@physx@@VPxVirtualAllocator@2@@2@AEAV?$PxArray@PEAVPxsContactManager@physx@@VPxVirtualAllocator@2@@2@AEAV?$PxArray@PEBVShapeInteraction@Sc@physx@@VPxVirtualAllocator@3@@2@AEAV?$PxArray@MVPxVirtualAllocator@physx@@@2@AEAV?$PxArray@UPxsTorsionalFrictionData@physx@@VPxVirtualAllocator@2@@2@12345@Z 0000000180048af0 f   PxgNarrowphaseCore.obj
 0001:00047d40       ?allocate@?$PxgCudaPagedLinearAllocator@VPxgHeapMemoryAllocator@physx@@@physx@@QEAAPEAX_K@Z 0000000180048d40 f i PxgNarrowphaseCore.obj
 0001:00047ec0       ?appendContactManagers@PxgGpuNarrowphaseCore@physx@@QEAAXPEAUPxsContactManagerOutput@2@I@Z 0000000180048ec0 f   PxgNarrowphaseCore.obj
 0001:000480a0       ?appendContactManagersGpu@PxgGpuNarrowphaseCore@physx@@QEAAXIIAEAUPxgGpuContactManagers@2@0I@Z 00000001800490a0 f   PxgNarrowphaseCore.obj
 0001:000486b0       ?compactLostFoundPairs@PxgGpuNarrowphaseCore@physx@@AEAAXAEAUPxgGpuContactManagers@2@IPEAIPEAUPxsContactManagerOutput@2@@Z 00000001800496b0 f   PxgNarrowphaseCore.obj
 0001:000489d0       ?computeRigidsToShapes@PxgGpuNarrowphaseCore@physx@@QEAAXXZ 00000001800499d0 f   PxgNarrowphaseCore.obj
 0001:00049360       ?copyContactData@PxgGpuNarrowphaseCore@physx@@QEAA_NPEAXPEAIIPEAUCUevent_st@@2PEAE33@Z 000000018004a360 f   PxgNarrowphaseCore.obj
 0001:000498a0       ?erase@?$PxHashBase@V?$PxPair@$$CB_KURefcountedRecord@PxgGpuNarrowphaseCore@physx@@@physx@@_KU?$PxHash@_K@2@UGetKey@?$PxHashMapBase@_KURefcountedRecord@PxgGpuNarrowphaseCore@physx@@U?$PxHash@_K@3@VPxAllocator@3@@2@VPxAllocator@2@$00@physx@@QEAA_NAEB_K@Z 000000018004a8a0 f i PxgNarrowphaseCore.obj
 0001:00049a40       ?evaluateSDFDistances@PxgGpuNarrowphaseCore@physx@@QEAA_NPEAV?$PxVec4T@M@2@PEBIPEBV32@1IIPEAUCUevent_st@@3@Z 000000018004aa40 f   PxgNarrowphaseCore.obj
 0001:00049df0       ?fetchNarrowPhaseResults@PxgGpuNarrowphaseCore@physx@@QEAAXPEAUPxcDataStreamPool@2@00PEAUPxsContactManagerOutput@2@PEBQEBVShapeInteraction@Sc@2@PEBMPEBUPxsTorsionalFrictionData@2@IPEBUPxsContactManagerOutputCounts@2@PEBQEBVPxsContactManager@2@I@Z 000000018004adf0 f   PxgNarrowphaseCore.obj
 0001:0004aca0       ?find@?$PxHashMapBase@_KURefcountedRecord@PxgGpuNarrowphaseCore@physx@@U?$PxHash@_K@3@VPxAllocator@3@@physx@@QEBAPEBV?$PxPair@$$CB_KURefcountedRecord@PxgGpuNarrowphaseCore@physx@@@2@AEB_K@Z 000000018004bca0 f i PxgNarrowphaseCore.obj
 0001:0004ad40       ?getName@PrepareInputTask@@UEBAPEBDXZ 000000018004bd40 f i PxgNarrowphaseCore.obj
 0001:0004ad50       ?getShapeIndex@PxgGpuNarrowphaseCore@physx@@QEAAIAEBUPxsShapeCore@2@@Z 000000018004bd50 f   PxgNarrowphaseCore.obj
 0001:0004ae00       ?getStream@PxgGpuNarrowphaseCore@physx@@QEAAPEAUCUstream_st@@XZ 000000018004be00 f   PxgNarrowphaseCore.obj
 0001:0004ae10       ?growAndPushBack@?$PxArray@MVPxVirtualAllocator@physx@@@physx@@IEAAAEAMAEBM@Z 000000018004be10 f i PxgNarrowphaseCore.obj
 0001:0004af20       ?growAndPushBack@?$PxArray@PEAEV?$PxReflectionAllocator@PEAE@physx@@@physx@@IEAAAEAPEAEAEBQEAE@Z 000000018004bf20 f i PxgNarrowphaseCore.obj
 0001:0004b040       ?growAndPushBack@?$PxArray@UPxgContactManagerInput@physx@@VPxVirtualAllocator@2@@physx@@IEAAAEAUPxgContactManagerInput@2@AEBU32@@Z 000000018004c040 f i PxgNarrowphaseCore.obj
 0001:0004b040       ?growAndPushBack@?$PxArray@VPxgNonRigidFilterPair@physx@@VPxVirtualAllocator@2@@physx@@IEAAAEAVPxgNonRigidFilterPair@2@AEBV32@@Z 000000018004c040 f i PxgSimulationController.obj
 0001:0004b130       ?growAndPushBack@?$PxArray@UPxsContactManagerOutput@physx@@VPxVirtualAllocator@2@@physx@@IEAAAEAUPxsContactManagerOutput@2@AEBU32@@Z 000000018004c130 f i PxgNarrowphaseCore.obj
 0001:0004b250       ?growAndPushBack@?$PxArray@UPxsTorsionalFrictionData@physx@@VPxVirtualAllocator@2@@physx@@IEAAAEAUPxsTorsionalFrictionData@2@AEBU32@@Z 000000018004c250 f i PxgNarrowphaseCore.obj
 0001:0004b340       ?growAndPushBack@?$PxArray@_KV?$PxReflectionAllocator@_K@physx@@@physx@@IEAAAEA_KAEB_K@Z 000000018004c340 f i PxgNarrowphaseCore.obj
 0001:0004b460       ?insert@?$PxHashMapBase@_KURefcountedRecord@PxgGpuNarrowphaseCore@physx@@U?$PxHash@_K@3@VPxAllocator@3@@physx@@QEAA_N_KURefcountedRecord@PxgGpuNarrowphaseCore@2@@Z 000000018004c460 f i PxgNarrowphaseCore.obj
 0001:0004b4b0       ?isClothMeshGPUCompatible@PxgGpuNarrowphaseCore@physx@@QEAA_NAEBUPxTriangleMeshGeometryLL@2@@Z 000000018004c4b0 f   PxgNarrowphaseCore.obj
 0001:0004b4d0       ?isMeshGPUCompatible@PxgGpuNarrowphaseCore@physx@@QEAA_NAEBUPxTriangleMeshGeometryLL@2@@Z 000000018004c4d0 f   PxgNarrowphaseCore.obj
 0001:0004b500       ?mapMaterialIndexInternal@PxgGpuNarrowphaseCore@physx@@AEAAGGPEAV?$PxHashMap@_KURefcountedRecord@PxgGpuNarrowphaseCore@physx@@U?$PxHash@_K@3@VPxAllocator@3@@2@AEAVPxgMaterialManager@2@I@Z 000000018004c500 f   PxgNarrowphaseCore.obj
 0001:0004b660       ?preallocateNewBuffers@PxgGpuNarrowphaseCore@physx@@QEAAXI@Z 000000018004c660 f   PxgNarrowphaseCore.obj
 0001:0004b740       ?prepareGpuNarrowphase@PxgGpuNarrowphaseCore@physx@@QEAAXAEAVPxsTransformCache@2@PEBM_N@Z 000000018004c740 f   PxgNarrowphaseCore.obj
 0001:0004b940       ?prepareTempContactManagers@PxgGpuNarrowphaseCore@physx@@AEAAXAEAUPxgGpuContactManagers@2@AEAUPxgNewContactManagers@2@@Z 000000018004c940 f   PxgNarrowphaseCore.obj
 0001:0004bcd0       ?prepareTempContactManagers@PxgGpuNarrowphaseCore@physx@@QEAAXXZ 000000018004ccd0 f   PxgNarrowphaseCore.obj
 0001:0004bde0       ?prepareTempContactManagersTasks@PxgGpuNarrowphaseCore@physx@@QEAAXAEAVFlushPool@Cm@2@PEAVPxBaseTask@2@@Z 000000018004cde0 f   PxgNarrowphaseCore.obj
 0001:0004c020       ?processDeferredIds@?$DeferredIDPoolBase@V?$PxArray@IV?$PxReflectionAllocator@I@physx@@@physx@@@Cm@physx@@QEAAXXZ 000000018004d020 f i PxgNarrowphaseCore.obj
 0001:0004c0b0       ?pushBuffer@PxgGpuNarrowphaseCore@physx@@QEAAXXZ 000000018004d0b0 f   PxgNarrowphaseCore.obj
 0001:0004c100       ?recreate@?$PxArray@MVPxVirtualAllocator@physx@@@physx@@IEAAXI@Z 000000018004d100 f i PxgNarrowphaseCore.obj
 0001:0004c1d0       ?recreate@?$PxArray@PEAEV?$PxReflectionAllocator@PEAE@physx@@@physx@@IEAAXI@Z 000000018004d1d0 f i PxgNarrowphaseCore.obj
 0001:0004c2c0       ?recreate@?$PxArray@VPxgNonRigidFilterPair@physx@@VPxVirtualAllocator@2@@physx@@IEAAXI@Z 000000018004d2c0 f i PxgSimulationController.obj
 0001:0004c2c0       ?recreate@?$PxArray@VPxGpuTendonJointCoefficientData@physx@@VPxVirtualAllocator@2@@physx@@IEAAXI@Z 000000018004d2c0 f i PxgSimulationController.obj
 0001:0004c2c0       ?recreate@?$PxArray@UPxgContactManagerInput@physx@@VPxVirtualAllocator@2@@physx@@IEAAXI@Z 000000018004d2c0 f i PxgNarrowphaseCore.obj
 0001:0004c2c0       ?recreate@?$PxArray@VPxGpuSpatialTendonData@physx@@VPxVirtualAllocator@2@@physx@@IEAAXI@Z 000000018004d2c0 f i PxgSimulationController.obj
 0001:0004c370       ?recreate@?$PxArray@UPxgRadixSortDesc@physx@@VPxVirtualAllocator@2@@physx@@IEAAXI@Z 000000018004d370 f i PxgNarrowphaseCore.obj
 0001:0004c430       ?recreate@?$PxArray@UPxsContactManagerOutput@physx@@VPxVirtualAllocator@2@@physx@@IEAAXI@Z 000000018004d430 f i PxgNarrowphaseCore.obj
 0001:0004c430       ?recreate@?$PxArray@UPxgArticulationSimUpdate@physx@@VPxVirtualAllocator@2@@physx@@IEAAXI@Z 000000018004d430 f i PxgSimulationController.obj
 0001:0004c4f0       ?recreate@?$PxArray@UPxsTorsionalFrictionData@physx@@VPxVirtualAllocator@2@@physx@@IEAAXI@Z 000000018004d4f0 f i PxgNarrowphaseCore.obj
 0001:0004c5a0       ?refreshContactManager@PxgGpuNarrowphaseCore@physx@@QEAAXPEAVPxsContactManager@2@PEAUPxsContactManagerOutput@2@AEAUPxgContactManagerInput@2@I@Z 000000018004d5a0 f   PxgNarrowphaseCore.obj
 0001:0004c5e0       ?refreshContactManagerInternal@PxgGpuNarrowphaseCore@physx@@AEAAXPEAVPxsContactManager@2@PEAUPxsContactManagerOutput@2@PEAPEBVShapeInteraction@Sc@2@AEAUPxgContactManagerInput@2@AEAUPxgNewContactManagers@2@AEAV?$PxArray@IVPxVirtualAllocator@physx@@@2@@Z 000000018004d5e0 f   PxgNarrowphaseCore.obj
 0001:0004c800       ?registerAggregate@PxgGpuNarrowphaseCore@physx@@QEAAXI@Z 000000018004d800 f   PxgNarrowphaseCore.obj
 0001:0004c840       ?registerContactManager@PxgGpuNarrowphaseCore@physx@@QEAAXPEAVPxsContactManager@2@PEBVShapeInteraction@Sc@2@AEAUPxsContactManagerOutput@2@I@Z 000000018004d840 f   PxgNarrowphaseCore.obj
 0001:0004c870       ?registerContactManagerInternal@PxgGpuNarrowphaseCore@physx@@AEAAXPEAVPxsContactManager@2@PEBVShapeInteraction@Sc@2@PEAUPxgContactManagerInput@2@AEAUPxsContactManagerOutput@2@AEAUPxgNewContactManagers@2@@Z 000000018004d870 f   PxgNarrowphaseCore.obj
 0001:0004caa0       ?registerFEMMaterial@PxgGpuNarrowphaseCore@physx@@QEAAXAEBV?$MaterialCoreT@UPxsDeformableSurfaceMaterialData@physx@@VPxDeformableSurfaceMaterial@2@@2@@Z 000000018004daa0 f   PxgNarrowphaseCore.obj
 0001:0004cac0       ?registerFEMMaterial@PxgGpuNarrowphaseCore@physx@@QEAAXAEBV?$MaterialCoreT@UPxsDeformableVolumeMaterialData@physx@@VPxDeformableVolumeMaterial@2@@2@@Z 000000018004dac0 f   PxgNarrowphaseCore.obj
 0001:0004cae0       ?registerMaterial@PxgGpuNarrowphaseCore@physx@@QEAAXAEBV?$MaterialCoreT@UPxsMaterialData@physx@@VPxMaterial@2@@2@@Z 000000018004dae0 f   PxgNarrowphaseCore.obj
 0001:0004cb00       ?registerParticleMaterial@PxgGpuNarrowphaseCore@physx@@QEAAXAEBV?$MaterialCoreT@UPxsPBDMaterialData@physx@@VPxPBDMaterial@2@@2@@Z 000000018004db00 f   PxgNarrowphaseCore.obj
 0001:0004cb20       ?registerShape@PxgGpuNarrowphaseCore@physx@@QEAAXAEBVPxNodeIndex@2@AEBUPxsShapeCore@2@I_NPEAVPxActor@2@@Z 000000018004db20 f   PxgNarrowphaseCore.obj
 0001:0004d330       ?releaseContext@PxgGpuNarrowphaseCore@physx@@QEAAXXZ 000000018004e330 f   PxgNarrowphaseCore.obj
 0001:0004d340       ?removeGeometry@PxgGpuNarrowphaseCore@physx@@QEAAXI@Z 000000018004e340 f   PxgNarrowphaseCore.obj
 0001:0004d390       ?removeLostPairs@PxgGpuNarrowphaseCore@physx@@QEAAXXZ 000000018004e390 f   PxgNarrowphaseCore.obj
 0001:0004d940       ?removeLostPairsInternal@PxgGpuNarrowphaseCore@physx@@AEAAXAEAV?$PxArray@IVPxVirtualAllocator@physx@@@2@AEAUPxgContactManagers@2@@Z 000000018004e940 f   PxgNarrowphaseCore.obj
 0001:0004deb0       ?resize@?$PxArray@PEAEV?$PxReflectionAllocator@PEAE@physx@@@physx@@QEAAXIAEBQEAE@Z 000000018004eeb0 f i PxgNarrowphaseCore.obj
 0001:0004df70       ?resize@?$PxArray@UPxgRadixSortDesc@physx@@VPxVirtualAllocator@2@@physx@@QEAAXIAEBUPxgRadixSortDesc@2@@Z 000000018004ef70 f i PxgNarrowphaseCore.obj
 0001:0004e000       ?runInternal@PrepareInputTask@@UEAAXXZ 000000018004f000 f i PxgNarrowphaseCore.obj
 0001:0004e130       ?softbodyRigidContactApplyCollisionToSimMeshMapping@PxgGpuNarrowphaseCore@physx@@AEAAXU?$PxgDevicePointer@Ufloat4@@@2@0U?$PxgDevicePointer@UPxgFemContactInfo@physx@@@2@U?$PxgDevicePointer@M@2@U?$PxgDevicePointer@I@2@3@Z 000000018004f130 f   PxgNarrowphaseCore.obj
 0001:0004e2e0       ?syncNotRigidWithNp@PxgGpuNarrowphaseCore@physx@@QEAAXXZ 000000018004f2e0 f   PxgNarrowphaseCore.obj
 0001:0004e5d0       ?synchronizeStreams@physx@@YAXPEAVPxCudaContext@1@AEBQEAUCUstream_st@@1@Z 000000018004f5d0 f i PxgNarrowphaseCore.obj
 0001:0004e6d0       ?synchronizedStreams@PxgGpuNarrowphaseCore@physx@@QEAAXPEAUCUstream_st@@@Z 000000018004f6d0 f   PxgNarrowphaseCore.obj
 0001:0004e790       ?testSDKBoxBoxGpu@PxgGpuNarrowphaseCore@physx@@QEAAXAEAUPxgGpuContactManagers@2@IPEAE11IIIPEAVPxRenderOutput@2@@Z 000000018004f790 f   PxgNarrowphaseCore.obj
 0001:0004eb00       ?testSDKConvexConvexGjkEpaGpu@PxgGpuNarrowphaseCore@physx@@QEAAXAEAUPxgGpuContactManagers@2@_NIPEAE22IIIPEAVPxRenderOutput@2@@Z 000000018004fb00 f   PxgNarrowphaseCore.obj
 0001:0004f170       ?testSDKConvexCoreClothmeshGjkEpaGpu@PxgGpuNarrowphaseCore@physx@@QEAAXAEAUPxgGpuContactManagers@2@IPEAVPxRenderOutput@2@@Z 0000000180050170 f   PxgNarrowphaseCore.obj
 0001:0004f790       ?testSDKConvexCoreConvexGjkEpaGpu@PxgGpuNarrowphaseCore@physx@@QEAAXAEAUPxgGpuContactManagers@2@_NIPEAE22IIIPEAVPxRenderOutput@2@@Z 0000000180050790 f   PxgNarrowphaseCore.obj
 0001:0004fad0       ?testSDKConvexCorePlaneGjkEpaGpu@PxgGpuNarrowphaseCore@physx@@QEAAXAEAUPxgGpuContactManagers@2@_NIPEAE22IIIPEAVPxRenderOutput@2@@Z 0000000180050ad0 f   PxgNarrowphaseCore.obj
 0001:0004fe10       ?testSDKConvexCoreTetmeshGjkEpaGpu@PxgGpuNarrowphaseCore@physx@@QEAAXAEAUPxgGpuContactManagers@2@IPEAVPxRenderOutput@2@@Z 0000000180050e10 f   PxgNarrowphaseCore.obj
 0001:000501c0       ?testSDKConvexCoreTrimeshGjkEpaGpu@PxgGpuNarrowphaseCore@physx@@QEAAXAEAUPxgGpuContactManagers@2@_NIPEAE22IIIPEAVPxRenderOutput@2@@Z 00000001800511c0 f   PxgNarrowphaseCore.obj
 0001:00050500       ?testSDKConvexHeightfieldGpu@PxgGpuNarrowphaseCore@physx@@QEAAXAEAUPxgGpuContactManagers@2@_NIPEAE22III@Z 0000000180051500 f   PxgNarrowphaseCore.obj
 0001:00051450       ?testSDKConvexParticle@PxgGpuNarrowphaseCore@physx@@QEAAXAEAUPxgGpuContactManagers@2@I@Z 0000000180052450 f   PxgNarrowphaseCore.obj
 0001:00051d50       ?testSDKConvexPlaneGjkEpaGpu@PxgGpuNarrowphaseCore@physx@@QEAAXAEAUPxgGpuContactManagers@2@_NIPEAE22IIIPEAVPxRenderOutput@2@@Z 0000000180052d50 f   PxgNarrowphaseCore.obj
 0001:000520e0       ?testSDKConvexTriMeshSATGpu@PxgGpuNarrowphaseCore@physx@@QEAAXAEAUPxgGpuContactManagers@2@_NIPEAE22III@Z 00000001800530e0 f   PxgNarrowphaseCore.obj
 0001:00053050       ?testSDKFemClothBox@PxgGpuNarrowphaseCore@physx@@QEAAXAEAUPxgGpuContactManagers@2@IPEAVPxRenderOutput@2@@Z 0000000180054050 f   PxgNarrowphaseCore.obj
 0001:00053980       ?testSDKFemClothConvexes@PxgGpuNarrowphaseCore@physx@@QEAAXAEAUPxgGpuContactManagers@2@IPEAVPxRenderOutput@2@@Z 0000000180054980 f   PxgNarrowphaseCore.obj
 0001:000544e0       ?testSDKFemClothHeightfield@PxgGpuNarrowphaseCore@physx@@QEAAXAEAUPxgGpuContactManagers@2@IPEAVPxRenderOutput@2@@Z 00000001800554e0 f   PxgNarrowphaseCore.obj
 0001:00054f50       ?testSDKFemClothPlane@PxgGpuNarrowphaseCore@physx@@QEAAXAEAUPxgGpuContactManagers@2@IPEAVPxRenderOutput@2@@Z 0000000180055f50 f   PxgNarrowphaseCore.obj
 0001:000552f0       ?testSDKFemClothSdfTrimesh@PxgGpuNarrowphaseCore@physx@@QEAAXAEAUPxgGpuContactManagers@2@IPEAVPxRenderOutput@2@@Z 00000001800562f0 f   PxgNarrowphaseCore.obj
 0001:000556a0       ?testSDKFemClothSphere@PxgGpuNarrowphaseCore@physx@@QEAAXAEAUPxgGpuContactManagers@2@IPEAVPxRenderOutput@2@@Z 00000001800566a0 f   PxgNarrowphaseCore.obj
 0001:00055d20       ?testSDKFemClothTrimesh@PxgGpuNarrowphaseCore@physx@@QEAAXAEAUPxgGpuContactManagers@2@IPEAVPxRenderOutput@2@@Z 0000000180056d20 f   PxgNarrowphaseCore.obj
 0001:00056770       ?testSDKParticleFemCloth@PxgGpuNarrowphaseCore@physx@@QEAAXAEAUPxgGpuContactManagers@2@IPEAVPxRenderOutput@2@@Z 0000000180057770 f   PxgNarrowphaseCore.obj
 0001:00056dd0       ?testSDKParticleHeightfield@PxgGpuNarrowphaseCore@physx@@QEAAXAEAUPxgGpuContactManagers@2@I@Z 0000000180057dd0 f   PxgNarrowphaseCore.obj
 0001:00057100       ?testSDKParticleSdfTriMesh@PxgGpuNarrowphaseCore@physx@@QEAAXAEAUPxgGpuContactManagers@2@I@Z 0000000180058100 f   PxgNarrowphaseCore.obj
 0001:00057400       ?testSDKParticleSoftbody@PxgGpuNarrowphaseCore@physx@@QEAAXAEAUPxgGpuContactManagers@2@IPEAVPxRenderOutput@2@@Z 0000000180058400 f   PxgNarrowphaseCore.obj
 0001:00057b50       ?testSDKParticleSystemGpu@PxgGpuNarrowphaseCore@physx@@QEAAXAEAUPxgGpuContactManagers@2@I@Z 0000000180058b50 f   PxgNarrowphaseCore.obj
 0001:00058390       ?testSDKParticleTriMesh@PxgGpuNarrowphaseCore@physx@@QEAAXAEAUPxgGpuContactManagers@2@I@Z 0000000180059390 f   PxgNarrowphaseCore.obj
 0001:000586c0       ?testSDKSoftbodies@PxgGpuNarrowphaseCore@physx@@QEAAXAEAUPxgGpuContactManagers@2@IPEAVPxRenderOutput@2@@Z 00000001800596c0 f   PxgNarrowphaseCore.obj
 0001:00058b50       ?testSDKSoftbody@PxgGpuNarrowphaseCore@physx@@QEAAXAEAUPxgGpuContactManagers@2@IPEAVPxRenderOutput@2@@Z 0000000180059b50 f   PxgNarrowphaseCore.obj
 0001:00059230       ?testSDKSoftbodyCloth@PxgGpuNarrowphaseCore@physx@@QEAAXAEAUPxgGpuContactManagers@2@IPEAVPxRenderOutput@2@@Z 000000018005a230 f   PxgNarrowphaseCore.obj
 0001:00059970       ?testSDKSoftbodyHeightfield@PxgGpuNarrowphaseCore@physx@@QEAAXAEAUPxgGpuContactManagers@2@IPEAVPxRenderOutput@2@@Z 000000018005a970 f   PxgNarrowphaseCore.obj
 0001:0005a000       ?testSDKSoftbodySdfTrimesh@PxgGpuNarrowphaseCore@physx@@QEAAXAEAUPxgGpuContactManagers@2@IPEAVPxRenderOutput@2@@Z 000000018005b000 f   PxgNarrowphaseCore.obj
 0001:0005a450       ?testSDKSoftbodyTrimesh@PxgGpuNarrowphaseCore@physx@@QEAAXAEAUPxgGpuContactManagers@2@IPEAVPxRenderOutput@2@@Z 000000018005b450 f   PxgNarrowphaseCore.obj
 0001:0005ab30       ?testSDKSphereGpu@PxgGpuNarrowphaseCore@physx@@QEAAXAEAUPxgGpuContactManagers@2@IPEAE11IIIPEAVPxRenderOutput@2@@Z 000000018005bb30 f   PxgNarrowphaseCore.obj
 0001:0005aea0       ?testSDKSphereHeightfieldGpu@PxgGpuNarrowphaseCore@physx@@QEAAXAEAUPxgGpuContactManagers@2@_NIPEAE22III@Z 000000018005bea0 f   PxgNarrowphaseCore.obj
 0001:0005bdf0       ?testSDKSphereTriMeshSATGpu@PxgGpuNarrowphaseCore@physx@@QEAAXAEAUPxgGpuContactManagers@2@_NIPEAE22III@Z 000000018005cdf0 f   PxgNarrowphaseCore.obj
 0001:0005cd80       ?testSDKTriMeshHeightfieldGpu@PxgGpuNarrowphaseCore@physx@@QEAAXAEAUPxgGpuContactManagers@2@IPEAE11III@Z 000000018005dd80 f   PxgNarrowphaseCore.obj
 0001:0005d0f0       ?testSDKTriMeshPlaneGpu@PxgGpuNarrowphaseCore@physx@@QEAAXAEAUPxgGpuContactManagers@2@IPEAE11III@Z 000000018005e0f0 f   PxgNarrowphaseCore.obj
 0001:0005d490       ?testSDKTriMeshTriMeshGpu@PxgGpuNarrowphaseCore@physx@@QEAAXAEAUPxgGpuContactManagers@2@IPEAE11III@Z 000000018005e490 f   PxgNarrowphaseCore.obj
 0001:0005d9e0       ?unregisterContactManager@PxgGpuNarrowphaseCore@physx@@QEAAXPEAVPxsContactManager@2@I@Z 000000018005e9e0 f   PxgNarrowphaseCore.obj
 0001:0005da00       ?unregisterContactManagerInternal@PxgGpuNarrowphaseCore@physx@@AEAAXPEAVPxsContactManager@2@AEAV?$PxArray@IVPxVirtualAllocator@physx@@@2@AEAUPxgNewContactManagers@2@@Z 000000018005ea00 f   PxgNarrowphaseCore.obj
 0001:0005dbc0       ?unregisterFEMMaterial@PxgGpuNarrowphaseCore@physx@@QEAAXAEBV?$MaterialCoreT@UPxsDeformableSurfaceMaterialData@physx@@VPxDeformableSurfaceMaterial@2@@2@@Z 000000018005ebc0 f   PxgNarrowphaseCore.obj
 0001:0005dc40       ?unregisterFEMMaterial@PxgGpuNarrowphaseCore@physx@@QEAAXAEBV?$MaterialCoreT@UPxsDeformableVolumeMaterialData@physx@@VPxDeformableVolumeMaterial@2@@2@@Z 000000018005ec40 f   PxgNarrowphaseCore.obj
 0001:0005dcc0       ?unregisterMaterial@PxgGpuNarrowphaseCore@physx@@QEAAXAEBV?$MaterialCoreT@UPxsMaterialData@physx@@VPxMaterial@2@@2@@Z 000000018005ecc0 f   PxgNarrowphaseCore.obj
 0001:0005dd40       ?unregisterParticleMaterial@PxgGpuNarrowphaseCore@physx@@QEAAXAEBV?$MaterialCoreT@UPxsPBDMaterialData@physx@@VPxPBDMaterial@2@@2@@Z 000000018005ed40 f   PxgNarrowphaseCore.obj
 0001:0005ddc0       ?unregisterShape@PxgGpuNarrowphaseCore@physx@@QEAAXAEBUPxsShapeCore@2@I_N@Z 000000018005edc0 f   PxgNarrowphaseCore.obj
 0001:0005dff0       ?updateFEMMaterial@PxgGpuNarrowphaseCore@physx@@QEAAXAEBV?$MaterialCoreT@UPxsDeformableSurfaceMaterialData@physx@@VPxDeformableSurfaceMaterial@2@@2@@Z 000000018005eff0 f   PxgNarrowphaseCore.obj
 0001:0005e070       ?updateFEMMaterial@PxgGpuNarrowphaseCore@physx@@QEAAXAEBV?$MaterialCoreT@UPxsDeformableVolumeMaterialData@physx@@VPxDeformableVolumeMaterial@2@@2@@Z 000000018005f070 f   PxgNarrowphaseCore.obj
 0001:0005e0f0       ?updateFrictionPatches@PxgGpuNarrowphaseCore@physx@@QEAAXAEAUPxgGpuContactManagers@2@IPEAE1@Z 000000018005f0f0 f   PxgNarrowphaseCore.obj
 0001:0005e2a0       ?updateMaterial@PxgGpuNarrowphaseCore@physx@@QEAAXAEBV?$MaterialCoreT@UPxsMaterialData@physx@@VPxMaterial@2@@2@@Z 000000018005f2a0 f   PxgNarrowphaseCore.obj
 0001:0005e320       ?updateParticleMaterial@PxgGpuNarrowphaseCore@physx@@QEAAXAEBV?$MaterialCoreT@UPxsPBDMaterialData@physx@@VPxPBDMaterial@2@@2@@Z 000000018005f320 f   PxgNarrowphaseCore.obj
 0001:0005e3a0       ?updateShapeMaterial@PxgGpuNarrowphaseCore@physx@@QEAAXAEBUPxsShapeCore@2@@Z 000000018005f3a0 f   PxgNarrowphaseCore.obj
 0001:0005e460       ?uploadDataChunksToGpuBp@PxgGpuNarrowphaseCore@physx@@QEAAXXZ 000000018005f460 f   PxgNarrowphaseCore.obj
 0001:0005e4f0       ?createPxgNarrowphase@physx@@YAXXZ 000000018005f4f0 f   PxgNarrowphase.obj
 0001:0005e680       ?getSolverType@PxgTGSDynamicsContext@physx@@UEBA?AW4Enum@PxSolverType@2@XZ 000000018005f680 f   PxgTGSDynamicsContext.obj
 0001:0005e680       _get_startup_argv_mode     000000018005f680 f   MSVCRT:argv_mode.obj
 0001:0005ec40       ??0PxgNphaseImplementationContext@physx@@QEAA@AEAVPxsContext@1@PEAVPxsKernelWranglerManager@1@PEAVPxvNphaseImplementationFallback@1@AEBUPxGpuDynamicsMemoryConfig@1@PEAX44AEAV?$PxArray@VPxBounds3@physx@@VPxVirtualAllocator@2@@1@PEAVIslandSim@IG@1@PEAVContext@Dy@1@PEAVPxgHeapMemoryAllocatorManager@1@_N@Z 000000018005fc40 f   PxgNphaseImplementationContext.obj
 0001:0005f1e0       ??_GPxgPostCopyToBodySimTask@physx@@UEAAPEAXI@Z 00000001800601e0 f i PxgSimulationController.obj
 0001:0005f1e0       ??_EPxgCMGpuDiscreteSecondPassUpdateTask@physx@@UEAAPEAXI@Z 00000001800601e0 f i PxgNphaseImplementationContext.obj
 0001:0005f1e0       ??_GPxgCopyToFEMClothSimTask@physx@@UEAAPEAXI@Z 00000001800601e0 f i PxgSimulationController.obj
 0001:0005f1e0       ??_GPxgCMGpuDiscreteSecondPassUpdateTask@physx@@UEAAPEAXI@Z 00000001800601e0 f i PxgNphaseImplementationContext.obj
 0001:0005f1e0       ??_EPxgCopyToSoftBodySimTask@physx@@UEAAPEAXI@Z 00000001800601e0 f i PxgSimulationController.obj
 0001:0005f1e0       ??_EPxgCopyToFEMClothSimTask@physx@@UEAAPEAXI@Z 00000001800601e0 f i PxgSimulationController.obj
 0001:0005f1e0       ??_GPxgCopyToSoftBodySimTask@physx@@UEAAPEAXI@Z 00000001800601e0 f i PxgSimulationController.obj
 0001:0005f1e0       ??_GPxgCMGpuDiscreteUpdateFallbackTask@physx@@UEAAPEAXI@Z 00000001800601e0 f i PxgNphaseImplementationContext.obj
 0001:0005f1e0       ??_EPxgCMGpuDiscreteUpdateFallbackTask@physx@@UEAAPEAXI@Z 00000001800601e0 f i PxgNphaseImplementationContext.obj
 0001:0005f1e0       ??_EPxgPostCopyToBodySimTask@physx@@UEAAPEAXI@Z 00000001800601e0 f i PxgSimulationController.obj
 0001:0005f220       ??_GPxgNphaseImplementationContext@physx@@UEAAPEAXI@Z 0000000180060220 f i PxgNphaseImplementationContext.obj
 0001:0005f220       ??_EPxgNphaseImplementationContext@physx@@UEAAPEAXI@Z 0000000180060220 f i PxgNphaseImplementationContext.obj
 0001:0005f350       ??_GPxvNphaseImplementationContext@physx@@UEAAPEAXI@Z 0000000180060350 f i PxgNphaseImplementationContext.obj
 0001:0005f350       ??_EPxvNphaseImplementationContext@physx@@UEAAPEAXI@Z 0000000180060350 f i PxgNphaseImplementationContext.obj
 0001:0005f380       ?acquireContext@PxgNphaseImplementationContext@physx@@UEAAXXZ 0000000180060380 f   PxgNphaseImplementationContext.obj
 0001:0005f390       ?allocate@?$PxArray@PEAVPxBaseTask@physx@@V?$PxInlineAllocator@$0CA@V?$PxReflectionAllocator@PEAVPxBaseTask@physx@@@physx@@@2@@physx@@IEAAPEAPEAVPxBaseTask@2@IPEAI@Z 0000000180060390 f i PxgNphaseImplementationContext.obj
 0001:0005f440       ?extend@?$PxBitMapBase@VPxAllocator@physx@@@physx@@IEAAXI@Z 0000000180060440 f i PxgNphaseImplementationContext.obj
 0001:0005f530       ?fetchUpdateContactManager@PxgNphaseImplementationContext@physx@@UEAAXXZ 0000000180060530 f   PxgNphaseImplementationContext.obj
 0001:0005f540       ?get@?$PxcThreadCoherentCache@VPxcNpThreadContext@physx@@UPxcNpContext@2@@physx@@QEAAPEAVPxcNpThreadContext@2@XZ 0000000180060540 f i PxgNphaseImplementationContext.obj
 0001:0005f5f0       ?getContactManagerOutputs@PxgNphaseImplementationContext@physx@@UEAA?AVPxsContactManagerOutputIterator@2@XZ 00000001800605f0 f   PxgNphaseImplementationContext.obj
 0001:0005f9c0       ?getGPUContactManagerOutputBase@PxgNphaseImplementationContext@physx@@UEAAPEAUPxsContactManagerOutput@2@XZ 00000001800609c0 f   PxgNphaseImplementationContext.obj
 0001:0005f9e0       ?getGPURestDistances@PxgNphaseImplementationContext@physx@@UEAAPEAMXZ 00000001800609e0 f   PxgNphaseImplementationContext.obj
 0001:0005fa00       ?getGPUShapeInteractions@PxgNphaseImplementationContext@physx@@UEAAPEAPEAVShapeInteraction@Sc@2@XZ 0000000180060a00 f   PxgNphaseImplementationContext.obj
 0001:0005fa20       ?getGPUTorsionalData@PxgNphaseImplementationContext@physx@@UEAAPEAUPxsTorsionalFrictionData@2@XZ 0000000180060a20 f   PxgNphaseImplementationContext.obj
 0001:0005fa40       ?getLostFoundPatchManagers@PxgNphaseImplementationContext@physx@@UEAAPEAPEAVPxsContactManager@2@XZ 0000000180060a40 f   PxgNphaseImplementationContext.obj
 0001:0005fa60       ?getLostFoundPatchOutputCounts@PxgNphaseImplementationContext@physx@@UEAAPEAUPxsContactManagerOutputCounts@2@XZ 0000000180060a60 f   PxgNphaseImplementationContext.obj
 0001:0005fa80       ?getName@PxgCMGpuDiscreteSecondPassUpdateTask@physx@@UEBAPEBDXZ 0000000180060a80 f i PxgNphaseImplementationContext.obj
 0001:0005fa90       ?getName@PxgCMGpuDiscreteUpdateFallbackTask@physx@@UEBAPEBDXZ 0000000180060a90 f i PxgNphaseImplementationContext.obj
 0001:0005faa0       ?getName@PxgCMGpuDiscreteUpdateTask@physx@@UEBAPEBDXZ 0000000180060aa0 f i PxgNphaseImplementationContext.obj
 0001:0005fab0       ?getNbLostFoundPatchManagers@PxgNphaseImplementationContext@physx@@UEAAIXZ 0000000180060ab0 f   PxgNphaseImplementationContext.obj
 0001:0005fac0       ?getNewContactManagerOutput@PxgNphaseImplementationContext@physx@@UEAAAEAUPxsContactManagerOutput@2@I@Z 0000000180060ac0 f   PxgNphaseImplementationContext.obj
 0001:0005fb30       ?getToleranceLength@PxgNphaseImplementationContext@physx@@QEAAMXZ 0000000180060b30 f   PxgNphaseImplementationContext.obj
 0001:0005fb40       ?growAndPushBack@?$PxArray@PEAVPxBaseTask@physx@@V?$PxInlineAllocator@$0CA@V?$PxReflectionAllocator@PEAVPxBaseTask@physx@@@physx@@@2@@physx@@IEAAAEAPEAVPxBaseTask@2@AEBQEAV32@@Z 0000000180060b40 f i PxgNphaseImplementationContext.obj
 0001:0005fc10       ?lock@PxgNphaseImplementationContext@physx@@UEAAXXZ 0000000180060c10 f i PxgNphaseImplementationContext.obj
 0001:0005fc20       ?mergeContactManagers@PxgNphaseImplementationContext@physx@@QEAAXPEAVPxBaseTask@2@@Z 0000000180060c20 f   PxgNphaseImplementationContext.obj
 0001:0005ff70       ?postBroadPhaseUpdateContactManager@PxgNphaseImplementationContext@physx@@UEAAXPEAVPxBaseTask@2@@Z 0000000180060f70 f   PxgNphaseImplementationContext.obj
 0001:0005ffb0       ?preallocateNewBuffers@PxgNphaseImplementationContext@physx@@UEAAXII@Z 0000000180060fb0 f   PxgNphaseImplementationContext.obj
 0001:00060030       ?processContactManagers@PxgCMGpuDiscreteUpdateBase@physx@@QEAAXAEAUPxgContactManagers@2@AEAUPxgGpuContactManagers@2@W4Enum@GPU_BUCKET_ID@2@@Z 0000000180061030 f   PxgNphaseImplementationContext.obj
 0001:00060aa0       ?processResults@PxgNphaseImplementationContext@physx@@QEAAXXZ 0000000180061aa0 f   PxgNphaseImplementationContext.obj
 0001:00060d70       ?refreshContactManager@PxgNphaseImplementationContext@physx@@UEAAXPEAVPxsContactManager@2@@Z 0000000180061d70 f   PxgNphaseImplementationContext.obj
 0001:00060e80       ?registerAggregate@PxgNphaseImplementationContext@physx@@UEAAXI@Z 0000000180061e80 f   PxgNphaseImplementationContext.obj
 0001:00060e90       ?registerContactManager@PxgNphaseImplementationContext@physx@@UEAAXPEAVPxsContactManager@2@PEBVShapeInteraction@Sc@2@HI@Z 0000000180061e90 f   PxgNphaseImplementationContext.obj
 0001:00061110       ?registerMaterial@PxgNphaseImplementationContext@physx@@UEAAXAEBV?$MaterialCoreT@UPxsDeformableSurfaceMaterialData@physx@@VPxDeformableSurfaceMaterial@2@@2@@Z 0000000180062110 f   PxgNphaseImplementationContext.obj
 0001:00061120       ?registerMaterial@PxgNphaseImplementationContext@physx@@UEAAXAEBV?$MaterialCoreT@UPxsDeformableVolumeMaterialData@physx@@VPxDeformableVolumeMaterial@2@@2@@Z 0000000180062120 f   PxgNphaseImplementationContext.obj
 0001:00061130       ?registerMaterial@PxgNphaseImplementationContext@physx@@UEAAXAEBV?$MaterialCoreT@UPxsMaterialData@physx@@VPxMaterial@2@@2@@Z 0000000180062130 f   PxgNphaseImplementationContext.obj
 0001:00061140       ?registerMaterial@PxgNphaseImplementationContext@physx@@UEAAXAEBV?$MaterialCoreT@UPxsPBDMaterialData@physx@@VPxPBDMaterial@2@@2@@Z 0000000180062140 f   PxgNphaseImplementationContext.obj
 0001:00061150       ?registerShape@PxgNphaseImplementationContext@physx@@UEAAXAEBVPxNodeIndex@2@AEBUPxsShapeCore@2@IPEAVPxActor@2@_N@Z 0000000180062150 f   PxgNphaseImplementationContext.obj
 0001:00061180       ?release@PxgCMGpuDiscreteUpdateTask@physx@@UEAAXXZ 0000000180062180 f i PxgNphaseImplementationContext.obj
 0001:000611c0       ?releaseContext@PxgNphaseImplementationContext@physx@@UEAAXXZ 00000001800621c0 f   PxgNphaseImplementationContext.obj
 0001:000611d0       ?runInternal@PxgCMGpuDiscreteSecondPassUpdateTask@physx@@UEAAXXZ 00000001800621d0 f   PxgNphaseImplementationContext.obj
 0001:00061280       ?runInternal@PxgCMGpuDiscreteUpdateFallbackTask@physx@@UEAAXXZ 0000000180062280 f   PxgNphaseImplementationContext.obj
 0001:000612e0       ?runInternal@PxgCMGpuDiscreteUpdateTask@physx@@UEAAXXZ 00000001800622e0 f   PxgNphaseImplementationContext.obj
 0001:00061370       ?secondPassUpdateContactManager@PxgNphaseImplementationContext@physx@@UEAAXMPEAVPxBaseTask@2@@Z 0000000180062370 f   PxgNphaseImplementationContext.obj
 0001:00061410       ?setContactModifyCallback@PxgNphaseImplementationContext@physx@@UEAAXPEAVPxContactModifyCallback@2@@Z 0000000180062410 f i PxgNphaseImplementationContext.obj
 0001:00061420       ?setPostBroadPhaseTask@PxgCMGpuDiscreteUpdateTask@physx@@UEAAXPEAVPxBaseTask@2@@Z 0000000180062420 f i PxgNphaseImplementationContext.obj
 0001:00061430       ?startNarrowPhaseTasks@PxgNphaseImplementationContext@physx@@UEAAXXZ 0000000180062430 f   PxgNphaseImplementationContext.obj
 0001:000615a0       ?unlock@PxgNphaseImplementationContext@physx@@UEAAXXZ 00000001800625a0 f i PxgNphaseImplementationContext.obj
 0001:000615b0       ?unregisterContactManager@PxgNphaseImplementationContext@physx@@UEAAXPEAVPxsContactManager@2@@Z 00000001800625b0 f   PxgNphaseImplementationContext.obj
 0001:000616c0       ?unregisterMaterial@PxgNphaseImplementationContext@physx@@UEAAXAEBV?$MaterialCoreT@UPxsDeformableSurfaceMaterialData@physx@@VPxDeformableSurfaceMaterial@2@@2@@Z 00000001800626c0 f   PxgNphaseImplementationContext.obj
 0001:000616d0       ?unregisterMaterial@PxgNphaseImplementationContext@physx@@UEAAXAEBV?$MaterialCoreT@UPxsDeformableVolumeMaterialData@physx@@VPxDeformableVolumeMaterial@2@@2@@Z 00000001800626d0 f   PxgNphaseImplementationContext.obj
 0001:000616e0       ?unregisterMaterial@PxgNphaseImplementationContext@physx@@UEAAXAEBV?$MaterialCoreT@UPxsMaterialData@physx@@VPxMaterial@2@@2@@Z 00000001800626e0 f   PxgNphaseImplementationContext.obj
 0001:000616f0       ?unregisterMaterial@PxgNphaseImplementationContext@physx@@UEAAXAEBV?$MaterialCoreT@UPxsPBDMaterialData@physx@@VPxPBDMaterial@2@@2@@Z 00000001800626f0 f   PxgNphaseImplementationContext.obj
 0001:00061700       ?unregisterShape@PxgNphaseImplementationContext@physx@@UEAAXAEBUPxsShapeCore@2@I_N@Z 0000000180062700 f   PxgNphaseImplementationContext.obj
 0001:00061710       ?updateContactManager@PxgNphaseImplementationContext@physx@@UEAAXM_NPEAVPxBaseTask@2@1PEAVFanoutTask@Cm@2@@Z 0000000180062710 f   PxgNphaseImplementationContext.obj
 0001:000618a0       ?updateMaterial@PxgNphaseImplementationContext@physx@@UEAAXAEBV?$MaterialCoreT@UPxsDeformableSurfaceMaterialData@physx@@VPxDeformableSurfaceMaterial@2@@2@@Z 00000001800628a0 f   PxgNphaseImplementationContext.obj
 0001:000618b0       ?updateMaterial@PxgNphaseImplementationContext@physx@@UEAAXAEBV?$MaterialCoreT@UPxsDeformableVolumeMaterialData@physx@@VPxDeformableVolumeMaterial@2@@2@@Z 00000001800628b0 f   PxgNphaseImplementationContext.obj
 0001:000618c0       ?updateMaterial@PxgNphaseImplementationContext@physx@@UEAAXAEBV?$MaterialCoreT@UPxsMaterialData@physx@@VPxMaterial@2@@2@@Z 00000001800628c0 f   PxgNphaseImplementationContext.obj
 0001:000618d0       ?updateMaterial@PxgNphaseImplementationContext@physx@@UEAAXAEBV?$MaterialCoreT@UPxsPBDMaterialData@physx@@VPxPBDMaterial@2@@2@@Z 00000001800628d0 f   PxgNphaseImplementationContext.obj
 0001:000618e0       ?updateNarrowPhaseShape@PxgNphaseImplementationContext@physx@@QEAAXXZ 00000001800628e0 f   PxgNphaseImplementationContext.obj
 0001:00061910       ?updateShapeMaterial@PxgNphaseImplementationContext@physx@@UEAAXAEBUPxsShapeCore@2@@Z 0000000180062910 f   PxgNphaseImplementationContext.obj
 0001:00061920       ??0PxgFEMSoftBodyMaterialManager@physx@@QEAA@PEAVPxgHeapMemoryAllocatorManager@1@@Z 0000000180062920 f   PxgShapeManager.obj
 0001:00061a00       ??0PxgMaterialManager@physx@@QEAA@PEAVPxgHeapMemoryAllocatorManager@1@I@Z 0000000180062a00 f   PxgShapeManager.obj
 0001:00061ad0       ??0PxgShapeManager@physx@@QEAA@PEAVPxgHeapMemoryAllocatorManager@1@@Z 0000000180062ad0 f   PxgShapeManager.obj
 0001:00061ec0       ?initialize@PxgShapeManager@physx@@QEAAXPEAVPxCudaContext@2@PEAUCUstream_st@@@Z 0000000180062ec0 f   PxgShapeManager.obj
 0001:00061fe0       ?recreate@?$PxArray@UPxgShape@physx@@VPxVirtualAllocator@2@@physx@@IEAAXI@Z 0000000180062fe0 f i PxgShapeManager.obj
 0001:00062240       ?registerMaterial@PxgMaterialManager@physx@@QEAAIPEBEI@Z 0000000180063240 f   PxgShapeManager.obj
 0001:00062320       ?registerShape@PxgShapeManager@physx@@QEAAIAEAUPxgShape@2@@Z 0000000180063320 f   PxgShapeManager.obj
 0001:00062490       ?registerShapeInstance@PxgShapeManager@physx@@QEAAXAEBVPxNodeIndex@2@IPEAVPxActor@2@_N@Z 0000000180063490 f   PxgShapeManager.obj
 0001:000625c0       ?resize@?$PxArray@VPxNodeIndex@physx@@VPxVirtualAllocator@2@@physx@@QEAAXIAEBVPxNodeIndex@2@@Z 00000001800635c0 f i PxgShapeManager.obj
 0001:000625c0       ?resize@?$PxArray@PEAVPxActor@physx@@VPxVirtualAllocator@2@@physx@@QEAAXIAEBQEAVPxActor@2@@Z 00000001800635c0 f i PxgShapeManager.obj
 0001:000625c0       ?resize@?$PxArray@UPxBoundTransformUpdate@physx@@VPxVirtualAllocator@2@@physx@@QEAAXIAEBUPxBoundTransformUpdate@2@@Z 00000001800635c0 f i PxgSimulationCore.obj
 0001:000625c0       ?resize@?$PxArray@UPxgSolverConstraintManagerConstants@physx@@VPxVirtualAllocator@2@@physx@@QEAAXIAEBUPxgSolverConstraintManagerConstants@2@@Z 00000001800635c0 f i PxgConstraintPartition.obj
 0001:00062680       ?resize@?$PxArray@UPxgShape@physx@@VPxVirtualAllocator@2@@physx@@QEAAXIAEBUPxgShape@2@@Z 0000000180063680 f i PxgShapeManager.obj
 0001:00062880       ?scheduleCopyHtoD@PxgFEMMaterialManager@physx@@UEAAXAEAVPxgCopyManager@2@PEAVPxCudaContext@2@PEAUCUstream_st@@I@Z 0000000180063880 f   PxgShapeManager.obj
 0001:00062b00       ?scheduleCopyHtoD@PxgMaterialManager@physx@@UEAAXAEAVPxgCopyManager@2@PEAVPxCudaContext@2@PEAUCUstream_st@@I@Z 0000000180063b00 f   PxgShapeManager.obj
 0001:00062d80       ?scheduleCopyHtoD@PxgShapeManager@physx@@QEAAXAEAVPxgCopyManager@2@PEAVPxCudaContext@2@PEAUCUstream_st@@@Z 0000000180063d80 f   PxgShapeManager.obj
 0001:000636c0       ?unregisterMaterial@PxgMaterialManager@physx@@QEAAXI@Z 00000001800646c0 f   PxgShapeManager.obj
 0001:00063730       ?unregisterShape@PxgShapeManager@physx@@QEAAXI@Z 0000000180064730 f   PxgShapeManager.obj
 0001:000637b0       ?unregisterShapeInstance@PxgShapeManager@physx@@QEAAXI@Z 00000001800647b0 f   PxgShapeManager.obj
 0001:00063820       ?updateMaterial@PxgMaterialManager@physx@@QEAAXPEBEII@Z 0000000180064820 f   PxgShapeManager.obj
 0001:00063880       ?updateShapeMaterial@PxgShapeManager@physx@@QEAAXII@Z 0000000180064880 f   PxgShapeManager.obj
 0001:00063920       initSimulationControllerKernels1 0000000180064920 f   updateTransformAndBoundArray.obj
 0001:00063930       mergeTransformCacheAndBoundArrayChanges 0000000180064930 f   updateTransformAndBoundArray.obj
 0001:00063a60       updateTransformCacheAndBoundArrayLaunch 0000000180064a60 f   updateTransformAndBoundArray.obj
 0001:00063b20       updateChangedAABBMgrHandlesLaunch 0000000180064b20 f   updateTransformAndBoundArray.obj
 0001:00063be0       mergeChangedAABBMgrHandlesLaunch 0000000180064be0 f   updateTransformAndBoundArray.obj
 0001:00063ca0       computeFrozenAndUnfrozenHistogramLaunch 0000000180064ca0 f   updateTransformAndBoundArray.obj
 0001:00063d60       outputFrozenAndUnfrozenHistogram 0000000180064d60 f   updateTransformAndBoundArray.obj
 0001:00063e20       createFrozenAndUnfrozenArray 0000000180064e20 f   updateTransformAndBoundArray.obj
 0001:00063f10       ?__device_stub__Z39mergeTransformCacheAndBoundArrayChangesPN5physx9PxBounds3EPNS_18PxsCachedTransformEPKS0_PKS2_PKNS_22PxBoundTransformUpdateEj@@YAXPEIAVPxBounds3@physx@@PEIAUPxsCachedTransform@2@PEIBV12@PEIBU32@PEIBUPxBoundTransformUpdate@2@I@Z 0000000180064f10 f   updateTransformAndBoundArray.obj
 0001:00064030       ?__device_stub__Z39updateTransformCacheAndBoundArrayLaunchPKN5physx21PxgSimulationCoreDescE@@YAXPEBUPxgSimulationCoreDesc@physx@@@Z 0000000180065030 f   updateTransformAndBoundArray.obj
 0001:000640f0       ?__device_stub__Z33updateChangedAABBMgrHandlesLaunchPKN5physx21PxgSimulationCoreDescE@@YAXPEBUPxgSimulationCoreDesc@physx@@@Z 00000001800650f0 f   updateTransformAndBoundArray.obj
 0001:000641b0       ?__device_stub__Z32mergeChangedAABBMgrHandlesLaunchPKN5physx22PxgUpdateActorDataDescE@@YAXPEBUPxgUpdateActorDataDesc@physx@@@Z 00000001800651b0 f   updateTransformAndBoundArray.obj
 0001:00064270       ?__device_stub__Z39computeFrozenAndUnfrozenHistogramLaunchPKN5physx21PxgSimulationCoreDescE@@YAXPEBUPxgSimulationCoreDesc@physx@@@Z 0000000180065270 f   updateTransformAndBoundArray.obj
 0001:00064330       ?__device_stub__Z32outputFrozenAndUnfrozenHistogramPN5physx21PxgSimulationCoreDescE@@YAXPEAUPxgSimulationCoreDesc@physx@@@Z 0000000180065330 f   updateTransformAndBoundArray.obj
 0001:000643f0       ?__device_stub__Z28createFrozenAndUnfrozenArrayPKN5physx21PxgSimulationCoreDescE@@YAXPEBUPxgSimulationCoreDesc@physx@@@Z 00000001800653f0 f   updateTransformAndBoundArray.obj
 0001:00064920       initSimulationControllerKernels0 0000000180065920 f   updateBodiesAndShapes.obj
 0001:00064930       updateBodiesLaunch         0000000180065930 f   updateBodiesAndShapes.obj
 0001:000649f0       updateBodiesLaunchDirectAPI 00000001800659f0 f   updateBodiesAndShapes.obj
 0001:00064ab0       updateShapesLaunch         0000000180065ab0 f   updateBodiesAndShapes.obj
 0001:00064bb0       newArticulationsLaunch     0000000180065bb0 f   updateBodiesAndShapes.obj
 0001:00064c80       updateArticulationsLaunch  0000000180065c80 f   updateBodiesAndShapes.obj
 0001:00064da0       updateBodyExternalVelocitiesLaunch 0000000180065da0 f   updateBodiesAndShapes.obj
 0001:00064e60       updateJointsLaunch         0000000180065e60 f   updateBodiesAndShapes.obj
 0001:00064f20       getRigidDynamicGlobalPose  0000000180065f20 f   updateBodiesAndShapes.obj
 0001:00065030       getRigidDynamicLinearVelocity 0000000180066030 f   updateBodiesAndShapes.obj
 0001:00065140       getRigidDynamicAngularVelocity 0000000180066140 f   updateBodiesAndShapes.obj
 0001:00065250       getRigidDynamicLinearAcceleration 0000000180066250 f   updateBodiesAndShapes.obj
 0001:00065380       getRigidDynamicAngularAcceleration 0000000180066380 f   updateBodiesAndShapes.obj
 0001:000654b0       setRigidDynamicGlobalPose  00000001800664b0 f   updateBodiesAndShapes.obj
 0001:000655d0       setRigidDynamicLinearVelocity 00000001800665d0 f   updateBodiesAndShapes.obj
 0001:000656f0       setRigidDynamicAngularVelocity 00000001800666f0 f   updateBodiesAndShapes.obj
 0001:00065810       setRigidDynamicForce       0000000180066810 f   updateBodiesAndShapes.obj
 0001:00065920       setRigidDynamicTorque      0000000180066920 f   updateBodiesAndShapes.obj
 0001:00065a30       copyUserData               0000000180066a30 f   updateBodiesAndShapes.obj
 0001:00065b00       getD6JointForces           0000000180066b00 f   updateBodiesAndShapes.obj
 0001:00065c40       getD6JointTorques          0000000180066c40 f   updateBodiesAndShapes.obj
 0001:00065db0       ?__device_stub__Z18updateBodiesLaunchPKN5physx16PxgNewBodiesDescE@@YAXPEBUPxgNewBodiesDesc@physx@@@Z 0000000180066db0 f   updateBodiesAndShapes.obj
 0001:00065e70       ?__device_stub__Z27updateBodiesLaunchDirectAPIPKN5physx16PxgNewBodiesDescE@@YAXPEBUPxgNewBodiesDesc@physx@@@Z 0000000180066e70 f   updateBodiesAndShapes.obj
 0001:00065f30       ?__device_stub__Z18updateShapesLaunchPKN5physx14PxgNewShapeSimEPNS_11PxgShapeSimEj@@YAXPEIBUPxgNewShapeSim@physx@@PEIAUPxgShapeSim@2@I@Z 0000000180066f30 f   updateBodiesAndShapes.obj
 0001:00066040       ?__device_stub__Z22newArticulationsLaunchPKN5physx25PxgUpdateArticulationDescEPKf@@YAXPEBUPxgUpdateArticulationDesc@physx@@PEBM@Z 0000000180067040 f   updateBodiesAndShapes.obj
 0001:00066110       ?__device_stub__Z25updateArticulationsLaunchPKN5physx25PxgUpdateArticulationDescEPKNS_24PxgArticulationSimUpdateEjPKfb@@YAXPEBUPxgUpdateArticulationDesc@physx@@PEBUPxgArticulationSimUpdate@2@IPEBM_N@Z 0000000180067110 f   updateBodiesAndShapes.obj
 0001:00066220       ?__device_stub__Z34updateBodyExternalVelocitiesLaunchPKN5physx20PxgUpdatedBodiesDescE@@YAXPEBUPxgUpdatedBodiesDesc@physx@@@Z 0000000180067220 f   updateBodiesAndShapes.obj
 0001:000662e0       ?__device_stub__Z18updateJointsLaunchPKN5physx20PxgUpdatedJointsDescE@@YAXPEBUPxgUpdatedJointsDesc@physx@@@Z 00000001800672e0 f   updateBodiesAndShapes.obj
 0001:000663a0       ?__device_stub__Z25getRigidDynamicGlobalPosePN5physx12PxTransformTIfEEPKjPKNS_10PxgBodySimEj@@YAXPEIAV?$PxTransformT@M@physx@@PEIBIPEIBUPxgBodySim@2@I@Z 00000001800673a0 f   updateBodiesAndShapes.obj
 0001:000664b0       ?__device_stub__Z29getRigidDynamicLinearVelocityPN5physx7PxVec3TIfEEPKjPKNS_10PxgBodySimEj@@YAXPEIAV?$PxVec3T@M@physx@@PEIBIPEIBUPxgBodySim@2@I@Z 00000001800674b0 f   updateBodiesAndShapes.obj
 0001:000665c0       ?__device_stub__Z30getRigidDynamicAngularVelocityPN5physx7PxVec3TIfEEPKjPKNS_10PxgBodySimEj@@YAXPEIAV?$PxVec3T@M@physx@@PEIBIPEIBUPxgBodySim@2@I@Z 00000001800675c0 f   updateBodiesAndShapes.obj
 0001:000666d0       ?__device_stub__Z33getRigidDynamicLinearAccelerationPN5physx7PxVec3TIfEEPKjPKNS_10PxgBodySimEPKNS_20PxgBodySimVelocitiesEjf@@YAXPEIAV?$PxVec3T@M@physx@@PEIBIPEIBUPxgBodySim@2@PEIBUPxgBodySimVelocities@2@IM@Z 00000001800676d0 f   updateBodiesAndShapes.obj
 0001:000667f0       ?__device_stub__Z34getRigidDynamicAngularAccelerationPN5physx7PxVec3TIfEEPKjPKNS_10PxgBodySimEPKNS_20PxgBodySimVelocitiesEjf@@YAXPEIAV?$PxVec3T@M@physx@@PEIBIPEIBUPxgBodySim@2@PEIBUPxgBodySimVelocities@2@IM@Z 00000001800677f0 f   updateBodiesAndShapes.obj
 0001:00066910       ?__device_stub__Z25setRigidDynamicGlobalPosePKN5physx12PxTransformTIfEEPKjPKNS_22PxgUpdateActorDataDescEjj@@YAXPEIBV?$PxTransformT@M@physx@@PEIBIPEIBUPxgUpdateActorDataDesc@2@II@Z 0000000180067910 f   updateBodiesAndShapes.obj
 0001:00066a20       ?__device_stub__Z29setRigidDynamicLinearVelocityPKN5physx7PxVec3TIfEEPKjPKNS_22PxgUpdateActorDataDescEPNS_20PxgBodySimVelocitiesEj@@YAXPEIBV?$PxVec3T@M@physx@@PEIBIPEIBUPxgUpdateActorDataDesc@2@PEIAUPxgBodySimVelocities@2@I@Z 0000000180067a20 f   updateBodiesAndShapes.obj
 0001:00066b30       ?__device_stub__Z30setRigidDynamicAngularVelocityPKN5physx7PxVec3TIfEEPKjPKNS_22PxgUpdateActorDataDescEPNS_20PxgBodySimVelocitiesEj@@YAXPEIBV?$PxVec3T@M@physx@@PEIBIPEIBUPxgUpdateActorDataDesc@2@PEIAUPxgBodySimVelocities@2@I@Z 0000000180067b30 f   updateBodiesAndShapes.obj
 0001:00066c40       ?__device_stub__Z20setRigidDynamicForcePKN5physx7PxVec3TIfEEPKjPKNS_22PxgUpdateActorDataDescEj@@YAXPEIBV?$PxVec3T@M@physx@@PEIBIPEIBUPxgUpdateActorDataDesc@2@I@Z 0000000180067c40 f   updateBodiesAndShapes.obj
 0001:00066d50       ?__device_stub__Z21setRigidDynamicTorquePKN5physx7PxVec3TIfEEPKjPKNS_22PxgUpdateActorDataDescEj@@YAXPEIBV?$PxVec3T@M@physx@@PEIBIPEIBUPxgUpdateActorDataDesc@2@I@Z 0000000180067d50 f   updateBodiesAndShapes.obj
 0001:00066e60       ?__device_stub__Z12copyUserDataPN5physx10PxgPtrPairEj@@YAXPEAUPxgPtrPair@physx@@I@Z 0000000180067e60 f   updateBodiesAndShapes.obj
 0001:00066f30       ?__device_stub__Z16getD6JointForcesPN5physx7PxVec3TIfEEPKjjPKNS_22PxgConstraintWritebackEfPKNS_23PxgConstraintIdMapEntryEj@@YAXPEIAV?$PxVec3T@M@physx@@PEIBIIPEIBUPxgConstraintWriteback@2@MPEIBVPxgConstraintIdMapEntry@2@I@Z 0000000180067f30 f   updateBodiesAndShapes.obj
 0001:00067050       ?__device_stub__Z17getD6JointTorquesPN5physx7PxVec3TIfEEPKjjPKNS_22PxgConstraintWritebackEfPKNS_23PxgConstraintIdMapEntryEj@@YAXPEIAV?$PxVec3T@M@physx@@PEIBIIPEIBUPxgConstraintWriteback@2@MPEIBVPxgConstraintIdMapEntry@2@I@Z 0000000180068050 f   updateBodiesAndShapes.obj
 0001:00067740       initParticleSystemKernels0 0000000180068740 f   particlesystem.obj
 0001:00067750       ps_stepParticlesLaunch     0000000180068750 f   particlesystem.obj
 0001:000678b0       ps_updateUnsortedArrayLaunch 00000001800688b0 f   particlesystem.obj
 0001:00067980       ps_updateUserBufferLaunch  0000000180068980 f   particlesystem.obj
 0001:00067a50       ps_preIntegrateLaunch      0000000180068a50 f   particlesystem.obj
 0001:00067b80       ps_preDiffuseIntegrateLaunch 0000000180068b80 f   particlesystem.obj
 0001:00067c90       ps_updateBoundFirstPassLaunch 0000000180068c90 f   particlesystem.obj
 0001:00067da0       ps_updateBoundSecondPassLaunch 0000000180068da0 f   particlesystem.obj
 0001:00067ee0       ps_update_volume_bound     0000000180068ee0 f   particlesystem.obj
 0001:00067fb0       ps_updateSprings           0000000180068fb0 f   particlesystem.obj
 0001:000680d0       ps_calculateHashLaunch     00000001800690d0 f   particlesystem.obj
 0001:000681a0       ps_calculateHashForDiffuseParticlesLaunch 00000001800691a0 f   particlesystem.obj
 0001:00068270       ps_reorderDataAndFindCellStartLaunch 0000000180069270 f   particlesystem.obj
 0001:00068340       ?collideCell@@YAIIIIIMMAEBV?$PxVec3T@M@physx@@QEIBUfloat4@@1AEBVPxgParticleSystem@2@IIPEIAIIQEIBI0_N4PEIAUfloat2@@AEAUSelfCollideCache@@@Z 0000000180069340 f   particlesystem.obj
 0001:00068360       ps_selfCollisionLaunch     0000000180069360 f   particlesystem.obj
 0001:00068430       ps_contactPrepareLaunch    0000000180069430 f   particlesystem.obj
 0001:000685e0       ps_solvePCOutputParticleDeltaVLaunch 00000001800695e0 f   particlesystem.obj
 0001:000687b0       ps_solvePCOutputParticleDeltaVTGSLaunch 00000001800697b0 f   particlesystem.obj
 0001:00068980       ps_solveOneWayContactDeltaVLaunch 0000000180069980 f   particlesystem.obj
 0001:00068ab0       ps_solvePCOutputRigidDeltaVLaunch 0000000180069ab0 f   particlesystem.obj
 0001:00068c80       ps_solvePCOutputRigidDeltaVTGSLaunch 0000000180069c80 f   particlesystem.obj
 0001:00068e50       ps_findStartEndParticleFirstLaunch 0000000180069e50 f   particlesystem.obj
 0001:00068f70       ps_findStartEndParticleSecondLaunch 0000000180069f70 f   particlesystem.obj
 0001:000690c0       ps_findStartEndFEMFirstLaunch 000000018006a0c0 f   particlesystem.obj
 0001:000691e0       ps_findStartEndFEMSecondLaunch 000000018006a1e0 f   particlesystem.obj
 0001:00069330       ps_accumulateFEMParticleDeltaVLaunch 000000018006a330 f   particlesystem.obj
 0001:00069460       ps_accumulateDeltaVParticleLaunch 000000018006a460 f   particlesystem.obj
 0001:00069590       ps_accumulateStaticDensity 000000018006a590 f   particlesystem.obj
 0001:00069660       ps_accumulateRigidDensity  000000018006a660 f   particlesystem.obj
 0001:00069780       ps_updateParticleLaunch    000000018006a780 f   particlesystem.obj
 0001:00069890       ps_integrateLaunch         000000018006a890 f   particlesystem.obj
 0001:000699a0       ps_calculateDensityAndPotentialLaunch 000000018006a9a0 f   particlesystem.obj
 0001:00069aa0       ps_solveDensityLaunch      000000018006aaa0 f   particlesystem.obj
 0001:00069bb0       ps_applyDeltaLaunch        000000018006abb0 f   particlesystem.obj
 0001:00069cb0       ps_vorticityConfinementLaunch 000000018006acb0 f   particlesystem.obj
 0001:00069d80       ps_solveVelocityLaunch     000000018006ad80 f   particlesystem.obj
 0001:00069e80       ps_updateRemapVertsLaunch  000000018006ae80 f   particlesystem.obj
 0001:00069f50       ps_initializeSpringsLaunch 000000018006af50 f   particlesystem.obj
 0001:0006a020       ps_solveSpringsLaunch      000000018006b020 f   particlesystem.obj
 0001:0006a140       ps_averageVertsLaunch      000000018006b140 f   particlesystem.obj
 0001:0006a240       ps_solveAerodynamics1Launch 000000018006b240 f   particlesystem.obj
 0001:0006a340       ps_solveAerodynamics2Launch 000000018006b340 f   particlesystem.obj
 0001:0006a440       ps_calculateInflatableVolume 000000018006b440 f   particlesystem.obj
 0001:0006a510       ps_solveInflatableVolume   000000018006b510 f   particlesystem.obj
 0001:0006a620       ps_solveShapes             000000018006b620 f   particlesystem.obj
 0001:0006a730       ps_rigidAttachmentPrepareLaunch 000000018006b730 f   particlesystem.obj
 0001:0006a8a0       ps_solveRigidAttachmentsLaunch 000000018006b8a0 f   particlesystem.obj
 0001:0006aa10       ps_solveRigidAttachmentsTGSLaunch 000000018006ba10 f   particlesystem.obj
 0001:0006aba0       ps_finalizeParticlesLaunch 000000018006bba0 f   particlesystem.obj
 0001:0006acb0       ps_updateMaterials         000000018006bcb0 f   particlesystem.obj
 0001:0006adc0       applyParticleBufferDataDEPRECATED 000000018006bdc0 f   particlesystem.obj
 0001:0006af00       ?__device_stub__Z22ps_stepParticlesLaunchPKN5physx17PxgParticleSystemEPKjffbbbNS_7PxVec3TIfEE@@YAXPEIBVPxgParticleSystem@physx@@PEIBIMM_N_N3AEBV?$PxVec3T@M@2@@Z 000000018006bf00 f   particlesystem.obj
 0001:0006b030       ?__device_stub__Z28ps_updateUnsortedArrayLaunchPKN5physx17PxgParticleSystemEPKj@@YAXPEIBVPxgParticleSystem@physx@@PEIBI@Z 000000018006c030 f   particlesystem.obj
 0001:0006b100       ?__device_stub__Z25ps_updateUserBufferLaunchPKN5physx17PxgParticleSystemEPKj@@YAXPEIBVPxgParticleSystem@physx@@PEIBI@Z 000000018006c100 f   particlesystem.obj
 0001:0006b1d0       ?__device_stub__Z21ps_preIntegrateLaunchPKN5physx17PxgParticleSystemEPKjNS_7PxVec3TIfEEfbb@@YAXPEIBVPxgParticleSystem@physx@@PEIBIAEBV?$PxVec3T@M@2@M_N3@Z 000000018006c1d0 f   particlesystem.obj
 0001:0006b2f0       ?__device_stub__Z28ps_preDiffuseIntegrateLaunchPKN5physx17PxgParticleSystemEPKjNS_7PxVec3TIfEEf@@YAXPEIBVPxgParticleSystem@physx@@PEIBIAEBV?$PxVec3T@M@2@M@Z 000000018006c2f0 f   particlesystem.obj
 0001:0006b400       ?__device_stub__Z29ps_updateBoundFirstPassLaunchPKN5physx17PxgParticleSystemEjbPNS_9PxBounds3E@@YAXPEIBVPxgParticleSystem@physx@@I_NPEIAVPxBounds3@2@@Z 000000018006c400 f   particlesystem.obj
 0001:0006b510       ?__device_stub__Z30ps_updateBoundSecondPassLaunchPN5physx17PxgParticleSystemEjPKNS_9PxBounds3EjPS2_PKfj@@YAXPEIAVPxgParticleSystem@physx@@IPEIBVPxBounds3@2@IPEIAV32@PEIBMI@Z 000000018006c510 f   particlesystem.obj
 0001:0006b630       ?__device_stub__Z22ps_update_volume_boundPKN5physx17PxgParticleSystemEPKj@@YAXPEIBVPxgParticleSystem@physx@@PEIBI@Z 000000018006c630 f   particlesystem.obj
 0001:0006b700       ?__device_stub__Z16ps_updateSpringsPN5physx16PxParticleSpringEPKjPKS0_S3_j@@YAXPEIAUPxParticleSpring@physx@@PEIBIPEIBU12@1I@Z 000000018006c700 f   particlesystem.obj
 0001:0006b810       ?__device_stub__Z22ps_calculateHashLaunchPKN5physx17PxgParticleSystemEPKj@@YAXPEIBVPxgParticleSystem@physx@@PEIBI@Z 000000018006c810 f   particlesystem.obj
 0001:0006b8e0       ?__device_stub__Z41ps_calculateHashForDiffuseParticlesLaunchPKN5physx17PxgParticleSystemEPKj@@YAXPEIBVPxgParticleSystem@physx@@PEIBI@Z 000000018006c8e0 f   particlesystem.obj
 0001:0006b9b0       ?__device_stub__Z36ps_reorderDataAndFindCellStartLaunchPKN5physx17PxgParticleSystemEj@@YAXPEIBVPxgParticleSystem@physx@@I@Z 000000018006c9b0 f   particlesystem.obj
 0001:0006ba80       ?__device_stub__Z22ps_selfCollisionLaunchPKN5physx17PxgParticleSystemEj@@YAXQEIBVPxgParticleSystem@physx@@I@Z 000000018006ca80 f   particlesystem.obj
 0001:0006bb50       ?__device_stub__Z23ps_contactPrepareLaunchPN5physx17PxgParticleSystemEPNS_27PxgParticlePrimitiveContactEPjPNS_35PxgParticlePrimitiveConstraintBlockEPNS_14PxgPrePrepDescEPNS_24PxgConstraintPrepareDescEP6float2fbP6float4PNS_23PxgSolverSharedDescBaseE@@YAXPEAVPxgParticleSystem@physx@@PEAUPxgParticlePrimitiveContact@2@PEAIPEAUPxgParticlePrimitiveConstraintBlock@2@PEAUPxgPrePrepDesc@2@PEAUPxgConstraintPrepareDesc@2@PEAUfloat2@@M_NPEAUfloat4@@PEAUPxgSolverSharedDescBase@2@@Z 000000018006cb50 f   particlesystem.obj
 0001:0006bca0       ?__device_stub__Z36ps_solvePCOutputParticleDeltaVLaunchPN5physx17PxgParticleSystemEPNS_27PxgParticlePrimitiveContactEPNS_35PxgParticlePrimitiveConstraintBlockEPjPNS_14PxgPrePrepDescEPNS_17PxgSolverCoreDescEPNS_19PxgSolverSharedDescINS_18IterativeSolveDataEEEP6float4P6float2ffbPNS_23PxgArticulationCoreDescE@@YAXPEAVPxgParticleSystem@physx@@PEAUPxgParticlePrimitiveContact@2@PEAUPxgParticlePrimitiveConstraintBlock@2@PEAIPEAUPxgPrePrepDesc@2@PEAUPxgSolverCoreDesc@2@PEAU?$PxgSolverSharedDesc@UIterativeSolveData@physx@@@2@PEAUfloat4@@PEAUfloat2@@MM_NPEAUPxgArticulationCoreDesc@2@@Z 000000018006cca0 f   particlesystem.obj
 0001:0006be10       ?__device_stub__Z39ps_solvePCOutputParticleDeltaVTGSLaunchPN5physx17PxgParticleSystemEPNS_27PxgParticlePrimitiveContactEPNS_35PxgParticlePrimitiveConstraintBlockEPjPNS_14PxgPrePrepDescEPNS_17PxgSolverCoreDescEPNS_19PxgSolverSharedDescINS_18IterativeSolveDataEEEP6float4P6float2ffbPNS_23PxgArticulationCoreDescE@@YAXPEAVPxgParticleSystem@physx@@PEAUPxgParticlePrimitiveContact@2@PEAUPxgParticlePrimitiveConstraintBlock@2@PEAIPEAUPxgPrePrepDesc@2@PEAUPxgSolverCoreDesc@2@PEAU?$PxgSolverSharedDesc@UIterativeSolveData@physx@@@2@PEAUfloat4@@PEAUfloat2@@MM_NPEAUPxgArticulationCoreDesc@2@@Z 000000018006ce10 f   particlesystem.obj
 0001:0006bf80       ?__device_stub__Z33ps_solveOneWayContactDeltaVLaunchPN5physx17PxgParticleSystemEPKjfffb@@YAXPEAVPxgParticleSystem@physx@@PEBIMMM_N@Z 000000018006cf80 f   particlesystem.obj
 0001:0006c0a0       ?__device_stub__Z33ps_solvePCOutputRigidDeltaVLaunchPN5physx17PxgParticleSystemEPNS_27PxgParticlePrimitiveContactEPNS_35PxgParticlePrimitiveConstraintBlockEPjPNS_14PxgPrePrepDescEPNS_17PxgSolverCoreDescEPNS_19PxgSolverSharedDescINS_18IterativeSolveDataEEEP6float4P6float2ffbPNS_23PxgArticulationCoreDescE@@YAXPEAVPxgParticleSystem@physx@@PEAUPxgParticlePrimitiveContact@2@PEAUPxgParticlePrimitiveConstraintBlock@2@PEAIPEAUPxgPrePrepDesc@2@PEAUPxgSolverCoreDesc@2@PEAU?$PxgSolverSharedDesc@UIterativeSolveData@physx@@@2@PEAUfloat4@@PEAUfloat2@@MM_NPEAUPxgArticulationCoreDesc@2@@Z 000000018006d0a0 f   particlesystem.obj
 0001:0006c210       ?__device_stub__Z36ps_solvePCOutputRigidDeltaVTGSLaunchPN5physx17PxgParticleSystemEPNS_27PxgParticlePrimitiveContactEPNS_35PxgParticlePrimitiveConstraintBlockEPjPNS_14PxgPrePrepDescEPNS_17PxgSolverCoreDescEPNS_19PxgSolverSharedDescINS_18IterativeSolveDataEEEP6float4P6float2ffbPNS_23PxgArticulationCoreDescE@@YAXPEAVPxgParticleSystem@physx@@PEAUPxgParticlePrimitiveContact@2@PEAUPxgParticlePrimitiveConstraintBlock@2@PEAIPEAUPxgPrePrepDesc@2@PEAUPxgSolverCoreDesc@2@PEAU?$PxgSolverSharedDesc@UIterativeSolveData@physx@@@2@PEAUfloat4@@PEAUfloat2@@MM_NPEAUPxgArticulationCoreDesc@2@@Z 000000018006d210 f   particlesystem.obj
 0001:0006c380       ?__device_stub__Z34ps_findStartEndParticleFirstLaunchPN5physx17PxgParticleSystemEPNS_27PxgParticlePrimitiveContactEPjS4_S4_@@YAXPEAVPxgParticleSystem@physx@@PEAUPxgParticlePrimitiveContact@2@PEAI22@Z 000000018006d380 f   particlesystem.obj
 0001:0006c490       ?__device_stub__Z35ps_findStartEndParticleSecondLaunchPN5physx27PxgParticlePrimitiveContactEPjS2_S2_S2_S2_S2_@@YAXPEAUPxgParticlePrimitiveContact@physx@@PEAI11111@Z 000000018006d490 f   particlesystem.obj
 0001:0006c5b0       ?__device_stub__Z29ps_findStartEndFEMFirstLaunchPN5physx17PxgParticleSystemEPNS_17PxgFemContactInfoEPjS4_S4_@@YAXPEAVPxgParticleSystem@physx@@PEAUPxgFemContactInfo@2@PEAI22@Z 000000018006d5b0 f   particlesystem.obj
 0001:0006c6c0       ?__device_stub__Z30ps_findStartEndFEMSecondLaunchPN5physx17PxgFemContactInfoEPjS2_S2_S2_S2_S2_@@YAXPEAUPxgFemContactInfo@physx@@PEAI11111@Z 000000018006d6c0 f   particlesystem.obj
 0001:0006c7e0       ?__device_stub__Z36ps_accumulateFEMParticleDeltaVLaunchPN5physx17PxgParticleSystemEPNS_17PxgFemContactInfoEPjS4_S4_P6float4@@YAXPEAVPxgParticleSystem@physx@@PEAUPxgFemContactInfo@2@PEAI22PEAUfloat4@@@Z 000000018006d7e0 f   particlesystem.obj
 0001:0006c900       ?__device_stub__Z33ps_accumulateDeltaVParticleLaunchPN5physx17PxgParticleSystemEPNS_27PxgParticlePrimitiveContactEPjS4_S4_P6float4@@YAXPEAVPxgParticleSystem@physx@@PEAUPxgParticlePrimitiveContact@2@PEAI22PEAUfloat4@@@Z 000000018006d900 f   particlesystem.obj
 0001:0006ca20       ?__device_stub__Z26ps_accumulateStaticDensityPN5physx17PxgParticleSystemEPKj@@YAXPEAVPxgParticleSystem@physx@@PEBI@Z 000000018006da20 f   particlesystem.obj
 0001:0006caf0       ?__device_stub__Z25ps_accumulateRigidDensityPN5physx17PxgParticleSystemEPNS_27PxgParticlePrimitiveContactEPjS4_S4_@@YAXPEAVPxgParticleSystem@physx@@PEAUPxgParticlePrimitiveContact@2@PEAI22@Z 000000018006daf0 f   particlesystem.obj
 0001:0006cc00       ?__device_stub__Z23ps_updateParticleLaunchPKN5physx17PxgParticleSystemEPKjfb@@YAXQEIBVPxgParticleSystem@physx@@PEBIM_N@Z 000000018006dc00 f   particlesystem.obj
 0001:0006cd10       ?__device_stub__Z18ps_integrateLaunchPN5physx17PxgParticleSystemEPKjff@@YAXPEAVPxgParticleSystem@physx@@PEBIMM@Z 000000018006dd10 f   particlesystem.obj
 0001:0006ce20       ?__device_stub__Z37ps_calculateDensityAndPotentialLaunchPN5physx17PxgParticleSystemEPKjb@@YAXPEAVPxgParticleSystem@physx@@PEBI_N@Z 000000018006de20 f   particlesystem.obj
 0001:0006cf30       ?__device_stub__Z21ps_solveDensityLaunchPN5physx17PxgParticleSystemEPKjff@@YAXPEAVPxgParticleSystem@physx@@PEBIMM@Z 000000018006df30 f   particlesystem.obj
 0001:0006d040       ?__device_stub__Z19ps_applyDeltaLaunchPN5physx17PxgParticleSystemEPKjf@@YAXPEAVPxgParticleSystem@physx@@PEBIM@Z 000000018006e040 f   particlesystem.obj
 0001:0006d150       ?__device_stub__Z29ps_vorticityConfinementLaunchPN5physx17PxgParticleSystemEPKj@@YAXPEAVPxgParticleSystem@physx@@PEBI@Z 000000018006e150 f   particlesystem.obj
 0001:0006d220       ?__device_stub__Z22ps_solveVelocityLaunchPN5physx17PxgParticleSystemEPKjf@@YAXPEAVPxgParticleSystem@physx@@PEBIM@Z 000000018006e220 f   particlesystem.obj
 0001:0006d330       ?__device_stub__Z25ps_updateRemapVertsLaunchPKN5physx17PxgParticleSystemEPKj@@YAXPEIBVPxgParticleSystem@physx@@PEIBI@Z 000000018006e330 f   particlesystem.obj
 0001:0006d400       ?__device_stub__Z26ps_initializeSpringsLaunchPKN5physx17PxgParticleSystemEPKj@@YAXPEIBVPxgParticleSystem@physx@@PEIBI@Z 000000018006e400 f   particlesystem.obj
 0001:0006d4d0       ?__device_stub__Z21ps_solveSpringsLaunchPKN5physx17PxgParticleSystemEPKjfjb@@YAXPEIBVPxgParticleSystem@physx@@PEIBIMI_N@Z 000000018006e4d0 f   particlesystem.obj
 0001:0006d5e0       ?__device_stub__Z21ps_averageVertsLaunchPN5physx17PxgParticleSystemEPKjf@@YAXPEAVPxgParticleSystem@physx@@PEBIM@Z 000000018006e5e0 f   particlesystem.obj
 0001:0006d6f0       ?__device_stub__Z27ps_solveAerodynamics1LaunchPKN5physx17PxgParticleSystemEPKjf@@YAXPEIBVPxgParticleSystem@physx@@PEIBIM@Z 000000018006e6f0 f   particlesystem.obj
 0001:0006d800       ?__device_stub__Z27ps_solveAerodynamics2LaunchPKN5physx17PxgParticleSystemEPKjf@@YAXPEIBVPxgParticleSystem@physx@@PEIBIM@Z 000000018006e800 f   particlesystem.obj
 0001:0006d910       ?__device_stub__Z28ps_calculateInflatableVolumePN5physx17PxgParticleSystemEPKj@@YAXPEAVPxgParticleSystem@physx@@PEBI@Z 000000018006e910 f   particlesystem.obj
 0001:0006d9e0       ?__device_stub__Z24ps_solveInflatableVolumePN5physx17PxgParticleSystemEPKjff@@YAXPEAVPxgParticleSystem@physx@@PEBIMM@Z 000000018006e9e0 f   particlesystem.obj
 0001:0006daf0       ?__device_stub__Z14ps_solveShapesPN5physx17PxgParticleSystemEPKjff@@YAXPEAVPxgParticleSystem@physx@@PEBIMM@Z 000000018006eaf0 f   particlesystem.obj
 0001:0006dc00       ?__device_stub__Z31ps_rigidAttachmentPrepareLaunchPN5physx17PxgParticleSystemEPyPNS_26PxgParticleRigidConstraintEPNS_14PxgPrePrepDescEPNS_24PxgConstraintPrepareDescEfbPj@@YAXPEAVPxgParticleSystem@physx@@PEA_KPEAUPxgParticleRigidConstraint@2@PEAUPxgPrePrepDesc@2@PEAUPxgConstraintPrepareDesc@2@M_NPEAI@Z 000000018006ec00 f   particlesystem.obj
 0001:0006dd30       ?__device_stub__Z30ps_solveRigidAttachmentsLaunchPN5physx17PxgParticleSystemEPNS_26PxgParticleRigidConstraintEjPNS_14PxgPrePrepDescEPNS_17PxgSolverCoreDescEPNS_19PxgSolverSharedDescINS_18IterativeSolveDataEEEP6float4f@@YAXPEAVPxgParticleSystem@physx@@PEAUPxgParticleRigidConstraint@2@IPEAUPxgPrePrepDesc@2@PEAUPxgSolverCoreDesc@2@PEAU?$PxgSolverSharedDesc@UIterativeSolveData@physx@@@2@PEAUfloat4@@M@Z 000000018006ed30 f   particlesystem.obj
 0001:0006de60       ?__device_stub__Z33ps_solveRigidAttachmentsTGSLaunchPN5physx17PxgParticleSystemEPNS_26PxgParticleRigidConstraintEjPNS_14PxgPrePrepDescEPNS_17PxgSolverCoreDescEPNS_19PxgSolverSharedDescINS_18IterativeSolveDataEEEP6float4ffb@@YAXPEAVPxgParticleSystem@physx@@PEAUPxgParticleRigidConstraint@2@IPEAUPxgPrePrepDesc@2@PEAUPxgSolverCoreDesc@2@PEAU?$PxgSolverSharedDesc@UIterativeSolveData@physx@@@2@PEAUfloat4@@MM_N@Z 000000018006ee60 f   particlesystem.obj
 0001:0006dfa0       ?__device_stub__Z26ps_finalizeParticlesLaunchPKN5physx17PxgParticleSystemEjff@@YAXPEIBVPxgParticleSystem@physx@@IMM@Z 000000018006efa0 f   particlesystem.obj
 0001:0006e0b0       ?__device_stub__Z18ps_updateMaterialsPKN5physx17PxgParticleSystemEPKjPKNS_18PxsPBDMaterialDataEf@@YAXQEIBVPxgParticleSystem@physx@@QEIBIQEIBUPxsPBDMaterialData@2@M@Z 000000018006f0b0 f   particlesystem.obj
 0001:0006e1c0       ?__device_stub__Z33applyParticleBufferDataDEPRECATEDPKN5physx17PxgParticleSystemEPKjPKNS_28PxGpuParticleBufferIndexPairEPKNS_20PxParticleBufferFlagE@@YAXPEIBVPxgParticleSystem@physx@@PEBIPEBUPxGpuParticleBufferIndexPair@2@PEBUPxParticleBufferFlag@2@@Z 000000018006f1c0 f   particlesystem.obj
 0001:0006f1a0       initSoftBodyKernels0       00000001800701a0 f   softBody.obj
 0001:0006f1b0       sb_refitBoundLaunch        00000001800701b0 f   softBody.obj
 0001:0006f320       ?computeBarycentric@@YAXAEBV?$PxVec3T@M@physx@@0000AEAM11@Z 0000000180070320 f   softBody.obj
 0001:0006f340       ?computeInvMass@@YAMUuint4@@PEBUfloat4@@AEBV?$PxVec3T@M@physx@@AEAU2@@Z 0000000180070340 f   softBody.obj
 0001:0006f360       ?computeInvMass@@YAMUuint4@@PEBUfloat4@@U2@@Z 0000000180070360 f   softBody.obj
 0001:0006f380       ?computeTriInvMass@@YAMUuint4@@PEBUfloat4@@U2@@Z 0000000180070380 f   softBody.obj
 0001:0006f3a0       ?barycentricProjectTri@@YA?AUfloat4@@Uuint4@@PEBU1@U1@@Z 00000001800703a0 f   softBody.obj
 0001:0006f3d0       ?barycentricProject@@YA?AUfloat4@@Uuint4@@PEBU1@U1@@Z 00000001800703d0 f   softBody.obj
 0001:0006f400       sb_rigidContactPrepareLaunch 0000000180070400 f   softBody.obj
 0001:0006f5f0       sb_particleContactPrepareLaunch 00000001800705f0 f   softBody.obj
 0001:0006f780       sb_softbodyContactPrepareLaunch 0000000180070780 f   softBody.obj
 0001:0006f910       sb_clothContactPrepareLaunch 0000000180070910 f   softBody.obj
 0001:0006fad0       sb_solveOutputSPDeltaVLaunch 0000000180070ad0 f   softBody.obj
 0001:0006fc40       sb_solveOutputParticleDeltaVLaunch 0000000180070c40 f   softBody.obj
 0001:0006fdc0       sb_solveOutputSSDeltaVLaunch 0000000180070dc0 f   softBody.obj
 0001:0006ff30       sb_solveOutputSCDeltaVLaunch 0000000180070f30 f   softBody.obj
 0001:00070060       sb_solveOutputSSDeltaVLaunchTGS 0000000180071060 f   softBody.obj
 0001:000701d0       sb_queryRigidSoftContactReferenceCountLaunch 00000001800711d0 f   softBody.obj
 0001:00070380       sb_solveOutputSRDeltaVLaunch 0000000180071380 f   softBody.obj
 0001:00070570       sb_solveOutputRigidDeltaVLaunch 0000000180071570 f   softBody.obj
 0001:00070760       sb_queryRigidSoftContactReferenceCountLaunchTGS 0000000180071760 f   softBody.obj
 0001:00070910       sb_solveOutputSRDeltaVLaunchTGS 0000000180071910 f   softBody.obj
 0001:00070b00       sb_solveOutputRigidDeltaVLaunchTGS 0000000180071b00 f   softBody.obj
 0001:00070d20       ?__device_stub__Z19sb_refitBoundLaunchPN5physx11PxgSoftBodyEPKjjPfS4_S4_PNS_9PxBounds3ES3_@@YAXPEAVPxgSoftBody@physx@@PEBIIPEAM22PEAVPxBounds3@2@1@Z 0000000180071d20 f   softBody.obj
 0001:00070e50       ?__device_stub__Z28sb_rigidContactPrepareLaunchPN5physx11PxgSoftBodyEP6float4S3_S3_PNS_24PxgFemVsRigidContactInfoEPjPNS_26PxgFemRigidConstraintBlockEPNS_14PxgPrePrepDescEPNS_24PxgConstraintPrepareDescES3_S3_fPNS_23PxgSolverSharedDescBaseEb@@YAXPEAVPxgSoftBody@physx@@PEAUfloat4@@11PEAUPxgFemVsRigidContactInfo@2@PEAIPEAUPxgFemRigidConstraintBlock@2@PEAUPxgPrePrepDesc@2@PEAUPxgConstraintPrepareDesc@2@11MPEAUPxgSolverSharedDescBase@2@_N@Z 0000000180071e50 f   softBody.obj
 0001:00070fc0       ?__device_stub__Z31sb_particleContactPrepareLaunchPN5physx11PxgSoftBodyEPNS_17PxgParticleSystemEP6float4S5_S5_PNS_17PxgFemContactInfoEPjPNS_29PxgFEMParticleConstraintBlockEP6float2SC_@@YAXPEAVPxgSoftBody@physx@@PEAVPxgParticleSystem@2@PEAUfloat4@@22PEAUPxgFemContactInfo@2@PEAIPEAUPxgFEMParticleConstraintBlock@2@PEAUfloat2@@6@Z 0000000180071fc0 f   softBody.obj
 0001:00071100       ?__device_stub__Z31sb_softbodyContactPrepareLaunchPN5physx11PxgSoftBodyEP6float4S3_S3_S3_PNS_17PxgFemContactInfoEPjPNS_34PxgSoftBodySoftBodyConstraintBlockEP6float2j@@YAXPEAVPxgSoftBody@physx@@PEAUfloat4@@111PEAUPxgFemContactInfo@2@PEAIPEAUPxgSoftBodySoftBodyConstraintBlock@2@PEAUfloat2@@I@Z 0000000180072100 f   softBody.obj
 0001:00071240       ?__device_stub__Z28sb_clothContactPrepareLaunchPN5physx11PxgSoftBodyEPNS_11PxgFEMClothEP6float4S5_S5_PNS_17PxgFemContactInfoEPjPNS_34PxgSoftBodySoftBodyConstraintBlockEPfjPNS_31PxsDeformableVolumeMaterialDataEPNS_32PxsDeformableSurfaceMaterialDataE@@YAXPEAVPxgSoftBody@physx@@PEAVPxgFEMCloth@2@PEAUfloat4@@22PEAUPxgFemContactInfo@2@PEAIPEAUPxgSoftBodySoftBodyConstraintBlock@2@PEAMIPEAUPxsDeformableVolumeMaterialData@2@PEAUPxsDeformableSurfaceMaterialData@2@@Z 0000000180072240 f   softBody.obj
 0001:000713a0       ?__device_stub__Z28sb_solveOutputSPDeltaVLaunchPN5physx11PxgSoftBodyEPNS_17PxgParticleSystemEPNS_17PxgFemContactInfoEPNS_29PxgFEMParticleConstraintBlockEPjP6float2fPNS_31PxsDeformableVolumeMaterialDataE@@YAXPEAVPxgSoftBody@physx@@PEAVPxgParticleSystem@2@PEAUPxgFemContactInfo@2@PEAUPxgFEMParticleConstraintBlock@2@PEAIPEAUfloat2@@MPEAUPxsDeformableVolumeMaterialData@2@@Z 00000001800723a0 f   softBody.obj
 0001:000714d0       ?__device_stub__Z34sb_solveOutputParticleDeltaVLaunchPN5physx11PxgSoftBodyEPNS_17PxgParticleSystemEPNS_17PxgFemContactInfoEPNS_29PxgFEMParticleConstraintBlockEPjP6float4P6float2fPNS_31PxsDeformableVolumeMaterialDataE@@YAXPEAVPxgSoftBody@physx@@PEAVPxgParticleSystem@2@PEAUPxgFemContactInfo@2@PEAUPxgFEMParticleConstraintBlock@2@PEAIPEAUfloat4@@PEAUfloat2@@MPEAUPxsDeformableVolumeMaterialData@2@@Z 00000001800724d0 f   softBody.obj
 0001:00071610       ?__device_stub__Z28sb_solveOutputSSDeltaVLaunchPN5physx11PxgSoftBodyEPNS_17PxgFemContactInfoEPNS_34PxgSoftBodySoftBodyConstraintBlockEPjffP6float2PNS_31PxsDeformableVolumeMaterialDataE@@YAXPEAVPxgSoftBody@physx@@PEAUPxgFemContactInfo@2@PEAUPxgSoftBodySoftBodyConstraintBlock@2@PEAIMMPEAUfloat2@@PEAUPxsDeformableVolumeMaterialData@2@@Z 0000000180072610 f   softBody.obj
 0001:00071740       ?__device_stub__Z28sb_solveOutputSCDeltaVLaunchPN5physx11PxgSoftBodyEPNS_11PxgFEMClothEPNS_17PxgFemContactInfoEPNS_34PxgSoftBodySoftBodyConstraintBlockEPjPf@@YAXPEAVPxgSoftBody@physx@@PEAVPxgFEMCloth@2@PEAUPxgFemContactInfo@2@PEAUPxgSoftBodySoftBodyConstraintBlock@2@PEAIPEAM@Z 0000000180072740 f   softBody.obj
 0001:00071860       ?__device_stub__Z31sb_solveOutputSSDeltaVLaunchTGSPN5physx11PxgSoftBodyEPNS_17PxgFemContactInfoEPNS_34PxgSoftBodySoftBodyConstraintBlockEPjffP6float2PNS_31PxsDeformableVolumeMaterialDataE@@YAXPEAVPxgSoftBody@physx@@PEAUPxgFemContactInfo@2@PEAUPxgSoftBodySoftBodyConstraintBlock@2@PEAIMMPEAUfloat2@@PEAUPxsDeformableVolumeMaterialData@2@@Z 0000000180072860 f   softBody.obj
 0001:00071990       ?__device_stub__Z44sb_queryRigidSoftContactReferenceCountLaunchPN5physx11PxgSoftBodyEPNS_24PxgFemVsRigidContactInfoEPNS_26PxgFemRigidConstraintBlockEPjPNS_14PxgPrePrepDescEPNS_17PxgSolverCoreDescEPNS_23PxgArticulationCoreDescEPNS_19PxgSolverSharedDescINS_18IterativeSolveDataEEEfP6float4S6_@@YAXPEAVPxgSoftBody@physx@@PEAUPxgFemVsRigidContactInfo@2@PEAUPxgFemRigidConstraintBlock@2@PEAIPEAUPxgPrePrepDesc@2@PEAUPxgSolverCoreDesc@2@PEAUPxgArticulationCoreDesc@2@PEAU?$PxgSolverSharedDesc@UIterativeSolveData@physx@@@2@MPEAUfloat4@@3@Z 0000000180072990 f   softBody.obj
 0001:00071ae0       ?__device_stub__Z28sb_solveOutputSRDeltaVLaunchPN5physx11PxgSoftBodyEPNS_24PxgFemVsRigidContactInfoEPNS_26PxgFemRigidConstraintBlockEPjPNS_14PxgPrePrepDescEPNS_17PxgSolverCoreDescEPNS_23PxgArticulationCoreDescEPNS_19PxgSolverSharedDescINS_18IterativeSolveDataEEEP6float4SI_S6_fPNS_31PxsDeformableVolumeMaterialDataEPKNS_15PxsMaterialDataE@@YAXPEAVPxgSoftBody@physx@@PEAUPxgFemVsRigidContactInfo@2@PEAUPxgFemRigidConstraintBlock@2@PEAIPEAUPxgPrePrepDesc@2@PEAUPxgSolverCoreDesc@2@PEAUPxgArticulationCoreDesc@2@PEAU?$PxgSolverSharedDesc@UIterativeSolveData@physx@@@2@PEAUfloat4@@83MPEAUPxsDeformableVolumeMaterialData@2@PEIBUPxsMaterialData@2@@Z 0000000180072ae0 f   softBody.obj
 0001:00071c50       ?__device_stub__Z31sb_solveOutputRigidDeltaVLaunchPN5physx11PxgSoftBodyEPNS_24PxgFemVsRigidContactInfoEPNS_26PxgFemRigidConstraintBlockEPjPNS_14PxgPrePrepDescEPNS_17PxgSolverCoreDescEPNS_23PxgArticulationCoreDescEPNS_19PxgSolverSharedDescINS_18IterativeSolveDataEEEP6float4SI_S6_fPNS_31PxsDeformableVolumeMaterialDataEPKNS_15PxsMaterialDataE@@YAXPEAVPxgSoftBody@physx@@PEAUPxgFemVsRigidContactInfo@2@PEAUPxgFemRigidConstraintBlock@2@PEAIPEAUPxgPrePrepDesc@2@PEAUPxgSolverCoreDesc@2@PEAUPxgArticulationCoreDesc@2@PEAU?$PxgSolverSharedDesc@UIterativeSolveData@physx@@@2@PEAUfloat4@@83MPEAUPxsDeformableVolumeMaterialData@2@PEIBUPxsMaterialData@2@@Z 0000000180072c50 f   softBody.obj
 0001:00071dc0       ?__device_stub__Z47sb_queryRigidSoftContactReferenceCountLaunchTGSPN5physx11PxgSoftBodyEPNS_24PxgFemVsRigidContactInfoEPNS_26PxgFemRigidConstraintBlockEPjPNS_14PxgPrePrepDescEPNS_17PxgSolverCoreDescEPNS_23PxgArticulationCoreDescEPNS_19PxgSolverSharedDescINS_21IterativeSolveDataTGSEEEfP6float4S6_@@YAXPEAVPxgSoftBody@physx@@PEAUPxgFemVsRigidContactInfo@2@PEAUPxgFemRigidConstraintBlock@2@PEAIPEAUPxgPrePrepDesc@2@PEAUPxgSolverCoreDesc@2@PEAUPxgArticulationCoreDesc@2@PEAU?$PxgSolverSharedDesc@UIterativeSolveDataTGS@physx@@@2@MPEAUfloat4@@3@Z 0000000180072dc0 f   softBody.obj
 0001:00071f10       ?__device_stub__Z31sb_solveOutputSRDeltaVLaunchTGSPN5physx11PxgSoftBodyEPNS_24PxgFemVsRigidContactInfoEPNS_26PxgFemRigidConstraintBlockEPjPNS_14PxgPrePrepDescEPNS_17PxgSolverCoreDescEPNS_23PxgArticulationCoreDescEPNS_19PxgSolverSharedDescINS_21IterativeSolveDataTGSEEEP6float4SI_S6_fPNS_31PxsDeformableVolumeMaterialDataEPKNS_15PxsMaterialDataE@@YAXPEAVPxgSoftBody@physx@@PEAUPxgFemVsRigidContactInfo@2@PEAUPxgFemRigidConstraintBlock@2@PEAIPEAUPxgPrePrepDesc@2@PEAUPxgSolverCoreDesc@2@PEAUPxgArticulationCoreDesc@2@PEAU?$PxgSolverSharedDesc@UIterativeSolveDataTGS@physx@@@2@PEAUfloat4@@83MPEAUPxsDeformableVolumeMaterialData@2@PEIBUPxsMaterialData@2@@Z 0000000180072f10 f   softBody.obj
 0001:00072080       ?__device_stub__Z34sb_solveOutputRigidDeltaVLaunchTGSPN5physx11PxgSoftBodyEPNS_24PxgFemVsRigidContactInfoEPNS_26PxgFemRigidConstraintBlockEPjPNS_14PxgPrePrepDescEPNS_17PxgSolverCoreDescEPNS_23PxgArticulationCoreDescEPNS_19PxgSolverSharedDescINS_18IterativeSolveDataEEEP6float4SI_S6_fPNS_31PxsDeformableVolumeMaterialDataEPKNS_15PxsMaterialDataE@@YAXPEAVPxgSoftBody@physx@@PEAUPxgFemVsRigidContactInfo@2@PEAUPxgFemRigidConstraintBlock@2@PEAIPEAUPxgPrePrepDesc@2@PEAUPxgSolverCoreDesc@2@PEAUPxgArticulationCoreDesc@2@PEAU?$PxgSolverSharedDesc@UIterativeSolveData@physx@@@2@PEAUfloat4@@83MPEAUPxsDeformableVolumeMaterialData@2@PEIBUPxsMaterialData@2@@Z 0000000180073080 f   softBody.obj
 0001:000728b0       initSoftBodyKernels1       00000001800738b0 f   softBodyGM.obj
 0001:000728c0       sb_gm_preIntegrateLaunch   00000001800738c0 f   softBodyGM.obj
 0001:00072a00       sb_gm_stepSoftbodyLaunch   0000000180073a00 f   softBodyGM.obj
 0001:00072b20       ?computeGMTetrahedronRotations@@YAXAEBV?$PxVec3T@M@physx@@00AEBV?$PxMat33T@M@2@AEAV?$PxQuatT@M@2@_N@Z 0000000180073b20 f   softBodyGM.obj
 0001:00072b40       ?computeSimTetrahedronRotations@@YAXPEBUuint4@@IPEBUfloat4@@PEBUPxgMat33Block@physx@@PEAU2@V?$PxQuatT@M@4@@Z 0000000180073b40 f   softBodyGM.obj
 0001:00072b60       ?computeTetrahedronRotations@@YAXPEBUuint4@@IPEBUfloat4@@PEBV?$PxMat33T@M@physx@@PEAU2@V?$PxQuatT@M@4@@Z 0000000180073b60 f   softBodyGM.obj
 0001:00072b80       sb_gm_updateTetrahedraRotationsLaunch 0000000180073b80 f   softBodyGM.obj
 0001:00072c50       sb_updateTetrahedraRotationsLaunch 0000000180073c50 f   softBodyGM.obj
 0001:00072d20       ?tetrahedronsSolveGM@@YAXAEAV?$PxMat33T@M@physx@@AEBV?$PxVec3T@M@2@11AEBUfloat4@@222AEAVPxgSoftBody@2@MMIAEBV12@AEBV?$PxQuatT@M@2@_NAEAUPxsDeformableVolumeMaterialData@2@@Z 0000000180073d20 f   softBodyGM.obj
 0001:00072d40       sb_gm_cp_solveTetrahedronsPartitionLaunch 0000000180073d40 f   softBodyGM.obj
 0001:00072ea0       sb_gm_cp_solveTetrahedronsJacobiPartitionLaunch 0000000180073ea0 f   softBodyGM.obj
 0001:00072fd0       sb_gm_cp_averageVertsLaunch 0000000180073fd0 f   softBodyGM.obj
 0001:000730d0       sb_gm_updateTetModelVertsLaunch 00000001800740d0 f   softBodyGM.obj
 0001:000731a0       sb_gm_zeroTetMultipliers   00000001800741a0 f   softBodyGM.obj
 0001:00073270       sb_rigidAttachmentPrepareLaunch 0000000180074270 f   softBodyGM.obj
 0001:00073400       femAttachmentPrepareLaunch 0000000180074400 f   softBodyGM.obj
 0001:00073510       sb_solveOutputAttachmentRigidDeltaVLaunch 0000000180074510 f   softBodyGM.obj
 0001:00073690       sb_solveOutputAttachmentSoftDeltaVLaunch 0000000180074690 f   softBodyGM.obj
 0001:00073800       sb_solveOutputAttachmentRigidDeltaVLaunchTGS 0000000180074800 f   softBodyGM.obj
 0001:000739b0       sb_solveOutputAttachmentSoftDeltaVLaunchTGS 00000001800749b0 f   softBodyGM.obj
 0001:00073b40       sb_solveOutputSoftBodyAttachmentDeltaVLaunch 0000000180074b40 f   softBodyGM.obj
 0001:00073c40       sb_solveOutputClothAttachmentDeltaVLaunch 0000000180074c40 f   softBodyGM.obj
 0001:00073d50       sb_solveOutputParticleAttachmentDeltaVLaunch 0000000180074d50 f   softBodyGM.obj
 0001:00073e60       sb_gm_applyExternalDeltasLaunch 0000000180074e60 f   softBodyGM.obj
 0001:00073f60       sb_gm_applyDeformationDeltasLaunch 0000000180074f60 f   softBodyGM.obj
 0001:00074060       sb_calculateStressLaunch   0000000180075060 f   softBodyGM.obj
 0001:00074160       sb_plasticDeformLaunch     0000000180075160 f   softBodyGM.obj
 0001:00074260       sb_plasticDeformLaunch2    0000000180075260 f   softBodyGM.obj
 0001:00074330       sb_initPlasticDeformLaunch 0000000180075330 f   softBodyGM.obj
 0001:00074400       sb_copyOrApplySoftBodyDataDEPRECATED 0000000180075400 f   softBodyGM.obj
 0001:00074560       sb_gm_finalizeVelocitiesLaunch 0000000180075560 f   softBodyGM.obj
 0001:00074690       sb_sleeping                0000000180075690 f   softBodyGM.obj
 0001:00074810       ?__device_stub__Z24sb_gm_preIntegrateLaunchPN5physx11PxgSoftBodyEPKjNS_7PxVec3TIfEEfbPfb@@YAXPEIAVPxgSoftBody@physx@@PEBIAEBV?$PxVec3T@M@2@M_NPEAM3@Z 0000000180075810 f   softBodyGM.obj
 0001:00074930       ?__device_stub__Z24sb_gm_stepSoftbodyLaunchPKN5physx11PxgSoftBodyEPKjfNS_7PxVec3TIfEEb@@YAXPEIBVPxgSoftBody@physx@@PEBIMAEBV?$PxVec3T@M@2@_N@Z 0000000180075930 f   softBodyGM.obj
 0001:00074a40       ?__device_stub__Z37sb_gm_updateTetrahedraRotationsLaunchPN5physx11PxgSoftBodyEPKj@@YAXPEAVPxgSoftBody@physx@@PEBI@Z 0000000180075a40 f   softBodyGM.obj
 0001:00074b10       ?__device_stub__Z34sb_updateTetrahedraRotationsLaunchPN5physx11PxgSoftBodyEPKj@@YAXPEAVPxgSoftBody@physx@@PEBI@Z 0000000180075b10 f   softBodyGM.obj
 0001:00074be0       ?__device_stub__Z41sb_gm_cp_solveTetrahedronsPartitionLaunchPN5physx11PxgSoftBodyEPKjjfjbbPNS_31PxsDeformableVolumeMaterialDataE@@YAXPEAVPxgSoftBody@physx@@PEBIIMI_N2PEAUPxsDeformableVolumeMaterialData@2@@Z 0000000180075be0 f   softBodyGM.obj
 0001:00074d10       ?__device_stub__Z47sb_gm_cp_solveTetrahedronsJacobiPartitionLaunchPN5physx11PxgSoftBodyEPKjjfbPNS_31PxsDeformableVolumeMaterialDataE@@YAXPEAVPxgSoftBody@physx@@PEBIIM_NPEAUPxsDeformableVolumeMaterialData@2@@Z 0000000180075d10 f   softBodyGM.obj
 0001:00074e30       ?__device_stub__Z27sb_gm_cp_averageVertsLaunchPN5physx11PxgSoftBodyEPKjf@@YAXPEAVPxgSoftBody@physx@@PEBIM@Z 0000000180075e30 f   softBodyGM.obj
 0001:00074f40       ?__device_stub__Z31sb_gm_updateTetModelVertsLaunchPN5physx11PxgSoftBodyEPKj@@YAXPEAVPxgSoftBody@physx@@PEBI@Z 0000000180075f40 f   softBodyGM.obj
 0001:00075010       ?__device_stub__Z24sb_gm_zeroTetMultipliersPN5physx11PxgSoftBodyEPKj@@YAXPEAVPxgSoftBody@physx@@PEBI@Z 0000000180076010 f   softBodyGM.obj
 0001:000750e0       ?__device_stub__Z31sb_rigidAttachmentPrepareLaunchPN5physx11PxgSoftBodyEPNS_21PxgFEMRigidAttachmentEPjPNS_11PxNodeIndexEjPNS_31PxgFEMRigidAttachmentConstraintEPNS_14PxgPrePrepDescEPNS_24PxgConstraintPrepareDescEPNS_23PxgSolverSharedDescBaseEP6float4@@YAXPEAVPxgSoftBody@physx@@PEAVPxgFEMRigidAttachment@2@PEAIPEAVPxNodeIndex@2@IPEAUPxgFEMRigidAttachmentConstraint@2@PEAUPxgPrePrepDesc@2@PEAUPxgConstraintPrepareDesc@2@PEAUPxgSolverSharedDescBase@2@PEAUfloat4@@@Z 00000001800760e0 f   softBodyGM.obj
 0001:00075220       ?__device_stub__Z26femAttachmentPrepareLaunchPN5physx19PxgFEMFEMAttachmentEPjjPNS_29PxgFEMFEMAttachmentConstraintE@@YAXPEAVPxgFEMFEMAttachment@physx@@PEAIIPEAUPxgFEMFEMAttachmentConstraint@2@@Z 0000000180076220 f   softBodyGM.obj
 0001:00075330       ?__device_stub__Z41sb_solveOutputAttachmentRigidDeltaVLaunchPN5physx11PxgSoftBodyEPNS_31PxgFEMRigidAttachmentConstraintEjPNS_14PxgPrePrepDescEPNS_17PxgSolverCoreDescEPNS_23PxgArticulationCoreDescEPNS_19PxgSolverSharedDescINS_18IterativeSolveDataEEEfP6float4@@YAXPEAVPxgSoftBody@physx@@PEAUPxgFEMRigidAttachmentConstraint@2@IPEAUPxgPrePrepDesc@2@PEAUPxgSolverCoreDesc@2@PEAUPxgArticulationCoreDesc@2@PEAU?$PxgSolverSharedDesc@UIterativeSolveData@physx@@@2@MPEAUfloat4@@@Z 0000000180076330 f   softBodyGM.obj
 0001:00075470       ?__device_stub__Z40sb_solveOutputAttachmentSoftDeltaVLaunchPN5physx11PxgSoftBodyEPNS_31PxgFEMRigidAttachmentConstraintEjPNS_14PxgPrePrepDescEPNS_17PxgSolverCoreDescEPNS_23PxgArticulationCoreDescEPNS_19PxgSolverSharedDescINS_18IterativeSolveDataEEEf@@YAXPEAVPxgSoftBody@physx@@PEAUPxgFEMRigidAttachmentConstraint@2@IPEAUPxgPrePrepDesc@2@PEAUPxgSolverCoreDesc@2@PEAUPxgArticulationCoreDesc@2@PEAU?$PxgSolverSharedDesc@UIterativeSolveData@physx@@@2@M@Z 0000000180076470 f   softBodyGM.obj
 0001:000755a0       ?__device_stub__Z44sb_solveOutputAttachmentRigidDeltaVLaunchTGSPN5physx11PxgSoftBodyEPNS_31PxgFEMRigidAttachmentConstraintEjPNS_14PxgPrePrepDescEPNS_17PxgSolverCoreDescEPNS_23PxgArticulationCoreDescEPNS_19PxgSolverSharedDescINS_18IterativeSolveDataEEEffP6float4b@@YAXPEAVPxgSoftBody@physx@@PEAUPxgFEMRigidAttachmentConstraint@2@IPEAUPxgPrePrepDesc@2@PEAUPxgSolverCoreDesc@2@PEAUPxgArticulationCoreDesc@2@PEAU?$PxgSolverSharedDesc@UIterativeSolveData@physx@@@2@MMPEAUfloat4@@_N@Z 00000001800765a0 f   softBodyGM.obj
 0001:000756f0       ?__device_stub__Z43sb_solveOutputAttachmentSoftDeltaVLaunchTGSPN5physx11PxgSoftBodyEPNS_31PxgFEMRigidAttachmentConstraintEjPNS_14PxgPrePrepDescEPNS_17PxgSolverCoreDescEPNS_23PxgArticulationCoreDescEPNS_19PxgSolverSharedDescINS_18IterativeSolveDataEEEffb@@YAXPEAVPxgSoftBody@physx@@PEAUPxgFEMRigidAttachmentConstraint@2@IPEAUPxgPrePrepDesc@2@PEAUPxgSolverCoreDesc@2@PEAUPxgArticulationCoreDesc@2@PEAU?$PxgSolverSharedDesc@UIterativeSolveData@physx@@@2@MM_N@Z 00000001800766f0 f   softBodyGM.obj
 0001:00075830       ?__device_stub__Z44sb_solveOutputSoftBodyAttachmentDeltaVLaunchPN5physx11PxgSoftBodyEPNS_29PxgFEMFEMAttachmentConstraintEj@@YAXPEAVPxgSoftBody@physx@@PEAUPxgFEMFEMAttachmentConstraint@2@I@Z 0000000180076830 f   softBodyGM.obj
 0001:00075940       ?__device_stub__Z41sb_solveOutputClothAttachmentDeltaVLaunchPN5physx11PxgSoftBodyEPNS_11PxgFEMClothEPNS_29PxgFEMFEMAttachmentConstraintEj@@YAXPEAVPxgSoftBody@physx@@PEAVPxgFEMCloth@2@PEAUPxgFEMFEMAttachmentConstraint@2@I@Z 0000000180076940 f   softBodyGM.obj
 0001:00075a50       ?__device_stub__Z44sb_solveOutputParticleAttachmentDeltaVLaunchPN5physx11PxgSoftBodyEPNS_17PxgParticleSystemEPNS_29PxgFEMFEMAttachmentConstraintEj@@YAXPEAVPxgSoftBody@physx@@PEAVPxgParticleSystem@2@PEAUPxgFEMFEMAttachmentConstraint@2@I@Z 0000000180076a50 f   softBodyGM.obj
 0001:00075b60       ?__device_stub__Z31sb_gm_applyExternalDeltasLaunchPN5physx11PxgSoftBodyEPKjf@@YAXPEAVPxgSoftBody@physx@@PEBIM@Z 0000000180076b60 f   softBodyGM.obj
 0001:00075c70       ?__device_stub__Z34sb_gm_applyDeformationDeltasLaunchPN5physx11PxgSoftBodyEPKjf@@YAXPEAVPxgSoftBody@physx@@PEBIM@Z 0000000180076c70 f   softBodyGM.obj
 0001:00075d80       ?__device_stub__Z24sb_calculateStressLaunchPN5physx11PxgSoftBodyEPKjPNS_31PxsDeformableVolumeMaterialDataE@@YAXPEAVPxgSoftBody@physx@@PEBIPEAUPxsDeformableVolumeMaterialData@2@@Z 0000000180076d80 f   softBodyGM.obj
 0001:00075e90       ?__device_stub__Z22sb_plasticDeformLaunchPN5physx11PxgSoftBodyEPKjPNS_31PxsDeformableVolumeMaterialDataE@@YAXPEAVPxgSoftBody@physx@@PEBIPEAUPxsDeformableVolumeMaterialData@2@@Z 0000000180076e90 f   softBodyGM.obj
 0001:00075fa0       ?__device_stub__Z23sb_plasticDeformLaunch2PN5physx11PxgSoftBodyEPKj@@YAXPEAVPxgSoftBody@physx@@PEBI@Z 0000000180076fa0 f   softBodyGM.obj
 0001:00076070       ?__device_stub__Z26sb_initPlasticDeformLaunchPN5physx13PxgMat33BlockEj@@YAXPEAUPxgMat33Block@physx@@I@Z 0000000180077070 f   softBodyGM.obj
 0001:00076140       ?__device_stub__Z36sb_copyOrApplySoftBodyDataDEPRECATEDPN5physx11PxgSoftBodyEjPKjjPPjS3_jj@@YAXPEIAVPxgSoftBody@physx@@IPEBIIPEAPEAI1II@Z 0000000180077140 f   softBodyGM.obj
 0001:00076270       ?__device_stub__Z30sb_gm_finalizeVelocitiesLaunchPN5physx11PxgSoftBodyEPKjfffb@@YAXPEAVPxgSoftBody@physx@@PEBIMMM_N@Z 0000000180077270 f   softBodyGM.obj
 0001:00076390       ?__device_stub__Z11sb_sleepingPN5physx11PxgSoftBodyEjPKjffPfPj@@YAXPEIAVPxgSoftBody@physx@@IPEBIMMPEAMPEAI@Z 0000000180077390 f   softBodyGM.obj
 0001:00076ea0       initFEMClothKernels0       0000000180077ea0 f   FEMClothConstraintPrep.obj
 0001:00076eb0       cloth_rigidContactPrepareLaunch 0000000180077eb0 f   FEMClothConstraintPrep.obj
 0001:000770a0       cloth_clothContactPrepareLaunch 00000001800780a0 f   FEMClothConstraintPrep.obj
 0001:00077250       cloth_particleContactPrepareLaunch 0000000180078250 f   FEMClothConstraintPrep.obj
 0001:000773e0       cloth_rigidAttachmentPrepareLaunch 00000001800783e0 f   FEMClothConstraintPrep.obj
 0001:000775a0       ?__device_stub__Z31cloth_rigidContactPrepareLaunchPN5physx11PxgFEMClothEP6float4S3_S3_PNS_17PxgFemContactInfoEPjPNS_26PxgFemRigidConstraintBlockEPNS_14PxgPrePrepDescEPNS_24PxgConstraintPrepareDescES3_S3_fPNS_23PxgSolverSharedDescBaseEb@@YAXPEAVPxgFEMCloth@physx@@PEAUfloat4@@11PEAUPxgFemContactInfo@2@PEAIPEAUPxgFemRigidConstraintBlock@2@PEAUPxgPrePrepDesc@2@PEAUPxgConstraintPrepareDesc@2@11MPEAUPxgSolverSharedDescBase@2@_N@Z 00000001800785a0 f   FEMClothConstraintPrep.obj
 0001:00077710       ?__device_stub__Z31cloth_clothContactPrepareLaunchPN5physx11PxgFEMClothEP6float4S3_S3_S3_PNS_17PxgFemContactInfoEPjjPNS_23PxgClothConstraintBlockEPNS_32PxsDeformableSurfaceMaterialDataEPKh@@YAXPEAVPxgFEMCloth@physx@@PEAUfloat4@@111PEAUPxgFemContactInfo@2@PEAIIPEAUPxgClothConstraintBlock@2@PEAUPxsDeformableSurfaceMaterialData@2@PEBE@Z 0000000180078710 f   FEMClothConstraintPrep.obj
 0001:00077860       ?__device_stub__Z34cloth_particleContactPrepareLaunchPN5physx11PxgFEMClothEPNS_17PxgParticleSystemEP6float4S5_S5_PNS_17PxgFemContactInfoEPjPNS_29PxgFEMParticleConstraintBlockEP6float2SC_@@YAXPEAVPxgFEMCloth@physx@@PEAVPxgParticleSystem@2@PEAUfloat4@@22PEAUPxgFemContactInfo@2@PEAIPEAUPxgFEMParticleConstraintBlock@2@PEAUfloat2@@6@Z 0000000180078860 f   FEMClothConstraintPrep.obj
 0001:000779a0       ?__device_stub__Z34cloth_rigidAttachmentPrepareLaunchPN5physx11PxgFEMClothEPNS_21PxgFEMRigidAttachmentEPjPNS_11PxNodeIndexEjPNS_31PxgFEMRigidAttachmentConstraintEPKNS_14PxgPrePrepDescEPKNS_24PxgConstraintPrepareDescEPKNS_23PxgSolverSharedDescBaseEP6float4@@YAXPEAVPxgFEMCloth@physx@@PEAVPxgFEMRigidAttachment@2@PEAIPEAVPxNodeIndex@2@IPEAUPxgFEMRigidAttachmentConstraint@2@PEBUPxgPrePrepDesc@2@PEBUPxgConstraintPrepareDesc@2@PEBUPxgSolverSharedDescBase@2@PEAUfloat4@@@Z 00000001800789a0 f   FEMClothConstraintPrep.obj
 0001:00077ec0       initFEMClothKernels1       0000000180078ec0 f   FEMCloth.obj
 0001:00077ed0       cloth_preIntegrateLaunch   0000000180078ed0 f   FEMCloth.obj
 0001:00078050       cloth_stepLaunch           0000000180079050 f   FEMCloth.obj
 0001:00078190       cloth_rewindLaunch         0000000180079190 f   FEMCloth.obj
 0001:00078260       cloth_subStepLaunch        0000000180079260 f   FEMCloth.obj
 0001:00078370       cloth_refitBoundLaunch     0000000180079370 f   FEMCloth.obj
 0001:000784f0       cloth_averageTrianglePairVertsLaunch 00000001800794f0 f   FEMCloth.obj
 0001:00078600       cloth_solveNonSharedTriangleEnergyLaunch 0000000180079600 f   FEMCloth.obj
 0001:00078730       cloth_solveNonSharedTriangleEnergyClusterLaunch 0000000180079730 f   FEMCloth.obj
 0001:00078860       cloth_solveTrianglePairEnergyLaunch 0000000180079860 f   FEMCloth.obj
 0001:000789a0       cloth_applyAccumulatedDeltaVelocity 00000001800799a0 f   FEMCloth.obj
 0001:00078a70       cloth_accumulateInPlaneDampingDeltaVelocity 0000000180079a70 f   FEMCloth.obj
 0001:00078b80       cloth_accumulateBendingDampingDeltaVelocity 0000000180079b80 f   FEMCloth.obj
 0001:00078c80       cloth_solveTrianglePairEnergyClusterLaunch 0000000180079c80 f   FEMCloth.obj
 0001:00078dc0       cloth_finalizeVelocitiesLaunch 0000000180079dc0 f   FEMCloth.obj
 0001:00078ee0       cloth_sleeping             0000000180079ee0 f   FEMCloth.obj
 0001:00079060       ?__device_stub__Z24cloth_preIntegrateLaunchPN5physx11PxgFEMClothEPKjNS_7PxVec3TIfEEfbPfbbPhPj@@YAXPEIAVPxgFEMCloth@physx@@PEBIAEAV?$PxVec3T@M@2@M_NPEAM33PEAEPEAI@Z 000000018007a060 f   FEMCloth.obj
 0001:000791a0       ?__device_stub__Z16cloth_stepLaunchPN5physx11PxgFEMClothEPjfNS_7PxVec3TIfEEbbPh@@YAXPEIAVPxgFEMCloth@physx@@PEAIMAEAV?$PxVec3T@M@2@_N3PEAE@Z 000000018007a1a0 f   FEMCloth.obj
 0001:000792c0       ?__device_stub__Z18cloth_rewindLaunchPKN5physx11PxgFEMClothEPKj@@YAXPEIBVPxgFEMCloth@physx@@PEBI@Z 000000018007a2c0 f   FEMCloth.obj
 0001:00079390       ?__device_stub__Z19cloth_subStepLaunchPKN5physx11PxgFEMClothEPKjff@@YAXPEIBVPxgFEMCloth@physx@@PEBIMM@Z 000000018007a390 f   FEMCloth.obj
 0001:000794a0       ?__device_stub__Z22cloth_refitBoundLaunchPN5physx11PxgFEMClothEPKjjPfS4_PNS_9PxBounds3ES3_fPKh@@YAXPEAVPxgFEMCloth@physx@@PEBIIPEAM2PEAVPxBounds3@2@1MPEBE@Z 000000018007a4a0 f   FEMCloth.obj
 0001:000795e0       ?__device_stub__Z36cloth_averageTrianglePairVertsLaunchPN5physx11PxgFEMClothEPKjfb@@YAXPEAVPxgFEMCloth@physx@@PEBIM_N@Z 000000018007a5e0 f   FEMCloth.obj
 0001:000796f0       ?__device_stub__Z40cloth_solveNonSharedTriangleEnergyLaunchPN5physx11PxgFEMClothEPKjPKNS_32PxsDeformableSurfaceMaterialDataEfjb@@YAXPEIAVPxgFEMCloth@physx@@PEIBIPEIBUPxsDeformableSurfaceMaterialData@2@MI_N@Z 000000018007a6f0 f   FEMCloth.obj
 0001:00079810       ?__device_stub__Z47cloth_solveNonSharedTriangleEnergyClusterLaunchPN5physx11PxgFEMClothEPKjPKNS_32PxsDeformableSurfaceMaterialDataEfjb@@YAXPEIAVPxgFEMCloth@physx@@PEIBIPEIBUPxsDeformableSurfaceMaterialData@2@MI_N@Z 000000018007a810 f   FEMCloth.obj
 0001:00079930       ?__device_stub__Z35cloth_solveTrianglePairEnergyLaunchPN5physx11PxgFEMClothEPKjPKNS_32PxsDeformableSurfaceMaterialDataEfjbb@@YAXPEIAVPxgFEMCloth@physx@@PEIBIPEIBUPxsDeformableSurfaceMaterialData@2@MI_N3@Z 000000018007a930 f   FEMCloth.obj
 0001:00079a50       ?__device_stub__Z35cloth_applyAccumulatedDeltaVelocityPN5physx11PxgFEMClothEPKj@@YAXPEIAVPxgFEMCloth@physx@@PEBI@Z 000000018007aa50 f   FEMCloth.obj
 0001:00079b20       ?__device_stub__Z43cloth_accumulateInPlaneDampingDeltaVelocityPN5physx11PxgFEMClothEPKjPKNS_32PxsDeformableSurfaceMaterialDataEf@@YAXPEIAVPxgFEMCloth@physx@@PEBIPEIBUPxsDeformableSurfaceMaterialData@2@M@Z 000000018007ab20 f   FEMCloth.obj
 0001:00079c30       ?__device_stub__Z43cloth_accumulateBendingDampingDeltaVelocityPN5physx11PxgFEMClothEPKjf@@YAXPEIAVPxgFEMCloth@physx@@PEBIM@Z 000000018007ac30 f   FEMCloth.obj
 0001:00079d40       ?__device_stub__Z42cloth_solveTrianglePairEnergyClusterLaunchPN5physx11PxgFEMClothEPKjPKNS_32PxsDeformableSurfaceMaterialDataEfjbb@@YAXPEIAVPxgFEMCloth@physx@@PEIBIPEIBUPxsDeformableSurfaceMaterialData@2@MI_N3@Z 000000018007ad40 f   FEMCloth.obj
 0001:00079e60       ?__device_stub__Z30cloth_finalizeVelocitiesLaunchPN5physx11PxgFEMClothEPKjffb@@YAXPEIAVPxgFEMCloth@physx@@PEBIMM_N@Z 000000018007ae60 f   FEMCloth.obj
 0001:00079f70       ?__device_stub__Z14cloth_sleepingPN5physx11PxgFEMClothEjPKjffPfPj@@YAXPEIAVPxgFEMCloth@physx@@IPEBIMMPEAMPEAI@Z 000000018007af70 f   FEMCloth.obj
 0001:0007a720       initFEMClothKernels2       000000018007b720 f   FEMClothExternalSolve.obj
 0001:0007a730       ?updateTrianglePosDelta@@YAXAEBUfloat4@@0AEBUuint4@@AEBV?$PxVec3T@M@physx@@PEAU1@I@Z 000000018007b730 f   FEMClothExternalSolve.obj
 0001:0007a750       ?updateTrianglePosDelta@@YAXAEBV?$PxVec3T@M@physx@@0AEBUuint4@@0PEAUfloat4@@I@Z 000000018007b750 f   FEMClothExternalSolve.obj
 0001:0007a770       ?updateTrianglePosDelta2@@YAXAEBV?$PxVec3T@M@physx@@AEBUuint4@@0PEAUfloat4@@@Z 000000018007b770 f   FEMClothExternalSolve.obj
 0001:0007a790       ?updateVertexPosDelta@@YAXAEBV?$PxVec3T@M@physx@@00MAEAUfloat4@@@Z 000000018007b790 f   FEMClothExternalSolve.obj
 0001:0007a7b0       ?updateTrianglePosDelta2@@YAXAEBUuint4@@AEBV?$PxVec3T@M@physx@@1111PEAUfloat4@@I@Z 000000018007b7b0 f   FEMClothExternalSolve.obj
 0001:0007a7d0       ?computeTriangleContact@@YA?AUfloat4@@PEBU1@AEBUuint4@@AEBUfloat2@@AEAU1@@Z 000000018007b7d0 f   FEMClothExternalSolve.obj
 0001:0007a800       ?computeTriangleContact@@YA?AUfloat4@@PEBU1@AEBUuint4@@AEBUfloat2@@@Z 000000018007b800 f   FEMClothExternalSolve.obj
 0001:0007a830       ?loadBarycentric@@YA?AV?$PxVec3T@M@physx@@Ufloat2@@@Z 000000018007b830 f   FEMClothExternalSolve.obj
 0001:0007a850       ?toPxVec3@@YA?AV?$PxVec3T@M@physx@@Ufloat4@@@Z 000000018007b850 f   FEMClothExternalSolve.obj
 0001:0007a870       ?loadBarycentric@@YA?AV?$PxVec3T@M@physx@@Ufloat4@@@Z 000000018007b870 f   FEMClothExternalSolve.obj
 0001:0007a890       ?computeMassInertiaOffsets@@YA?AV?$PxVec3T@M@physx@@PEBUfloat4@@AEBUuint4@@AEBV12@MAEAV12@3333AEAM@Z 000000018007b890 f   FEMClothExternalSolve.obj
 0001:0007a8b0       ?triangleVertexCollisionConstraint@@YA_NAEAV?$PxVec3T@M@physx@@000AEBV12@111AEBV?$PxVec4T@M@2@MMAEBUfloat4@@1@Z 000000018007b8b0 f   FEMClothExternalSolve.obj
 0001:0007a8d0       cloth_queryRigidClothContactReferenceCountLaunch 000000018007b8d0 f   FEMClothExternalSolve.obj
 0001:0007aa80       cloth_solveOutputClothDeltaVLaunch 000000018007ba80 f   FEMClothExternalSolve.obj
 0001:0007ac70       cloth_solveOutputRigidDeltaVLaunch 000000018007bc70 f   FEMClothExternalSolve.obj
 0001:0007ae60       cloth_queryRigidClothContactReferenceCountTGSLaunch 000000018007be60 f   FEMClothExternalSolve.obj
 0001:0007b010       cloth_solveOutputClothDeltaVTGSLaunch 000000018007c010 f   FEMClothExternalSolve.obj
 0001:0007b200       cloth_solveOutputRigidDeltaVTGSLaunch 000000018007c200 f   FEMClothExternalSolve.obj
 0001:0007b3f0       cloth_solveClothTriClothVertDeltaVLaunch 000000018007c3f0 f   FEMClothExternalSolve.obj
 0001:0007b510       cloth_applyExternalDeltasLaunch 000000018007c510 f   FEMClothExternalSolve.obj
 0001:0007b610       cloth_applyExternalDeltasAndCheckClothCollisionValidityLaunch 000000018007c610 f   FEMClothExternalSolve.obj
 0001:0007b720       cloth_applyExternalDeltasWithVelocityClampingLaunch 000000018007c720 f   FEMClothExternalSolve.obj
 0001:0007b820       cloth_updateClothContactValidityLaunch 000000018007c820 f   FEMClothExternalSolve.obj
 0001:0007b930       cloth_solveCPOutputClothDeltaVLaunch 000000018007c930 f   FEMClothExternalSolve.obj
 0001:0007ba80       cloth_solveCPOutputParticleDeltaVLaunch 000000018007ca80 f   FEMClothExternalSolve.obj
 0001:0007bbf0       cloth_solveOutputAttachmentRigidDeltaVLaunch 000000018007cbf0 f   FEMClothExternalSolve.obj
 0001:0007bd70       cloth_solveOutputAttachmentClothDeltaVLaunch 000000018007cd70 f   FEMClothExternalSolve.obj
 0001:0007bee0       cloth_solveOutputAttachmentClothClothDeltaVLaunch 000000018007cee0 f   FEMClothExternalSolve.obj
 0001:0007bfe0       cloth_solveOutputAttachmentRigidDeltaVTGSLaunch 000000018007cfe0 f   FEMClothExternalSolve.obj
 0001:0007c160       cloth_solveOutputAttachmentClothDeltaVTGSLaunch 000000018007d160 f   FEMClothExternalSolve.obj
 0001:0007c300       ?__device_stub__Z48cloth_queryRigidClothContactReferenceCountLaunchPN5physx11PxgFEMClothEPNS_24PxgFemVsRigidContactInfoEPNS_26PxgFemRigidConstraintBlockEPjPNS_14PxgPrePrepDescEPNS_17PxgSolverCoreDescEPNS_23PxgArticulationCoreDescEPNS_19PxgSolverSharedDescINS_18IterativeSolveDataEEEfP6float4S6_@@YAXPEAVPxgFEMCloth@physx@@PEAUPxgFemVsRigidContactInfo@2@PEAUPxgFemRigidConstraintBlock@2@PEAIPEAUPxgPrePrepDesc@2@PEAUPxgSolverCoreDesc@2@PEAUPxgArticulationCoreDesc@2@PEAU?$PxgSolverSharedDesc@UIterativeSolveData@physx@@@2@MPEAUfloat4@@3@Z 000000018007d300 f   FEMClothExternalSolve.obj
 0001:0007c450       ?__device_stub__Z34cloth_solveOutputClothDeltaVLaunchPN5physx11PxgFEMClothEPNS_24PxgFemVsRigidContactInfoEPNS_26PxgFemRigidConstraintBlockEPjPNS_14PxgPrePrepDescEPNS_17PxgSolverCoreDescEPNS_23PxgArticulationCoreDescEPNS_19PxgSolverSharedDescINS_18IterativeSolveDataEEEfP6float4SI_S6_PNS_32PxsDeformableSurfaceMaterialDataEPKNS_15PxsMaterialDataE@@YAXPEAVPxgFEMCloth@physx@@PEAUPxgFemVsRigidContactInfo@2@PEAUPxgFemRigidConstraintBlock@2@PEAIPEAUPxgPrePrepDesc@2@PEAUPxgSolverCoreDesc@2@PEAUPxgArticulationCoreDesc@2@PEAU?$PxgSolverSharedDesc@UIterativeSolveData@physx@@@2@MPEAUfloat4@@83PEAUPxsDeformableSurfaceMaterialData@2@PEIBUPxsMaterialData@2@@Z 000000018007d450 f   FEMClothExternalSolve.obj
 0001:0007c5c0       ?__device_stub__Z34cloth_solveOutputRigidDeltaVLaunchPN5physx11PxgFEMClothEPNS_24PxgFemVsRigidContactInfoEPNS_26PxgFemRigidConstraintBlockEPjPNS_14PxgPrePrepDescEPNS_17PxgSolverCoreDescEPNS_23PxgArticulationCoreDescEPNS_19PxgSolverSharedDescINS_18IterativeSolveDataEEEP6float4SI_S6_fPNS_32PxsDeformableSurfaceMaterialDataEPKNS_15PxsMaterialDataE@@YAXPEAVPxgFEMCloth@physx@@PEAUPxgFemVsRigidContactInfo@2@PEAUPxgFemRigidConstraintBlock@2@PEAIPEAUPxgPrePrepDesc@2@PEAUPxgSolverCoreDesc@2@PEAUPxgArticulationCoreDesc@2@PEAU?$PxgSolverSharedDesc@UIterativeSolveData@physx@@@2@PEAUfloat4@@83MPEAUPxsDeformableSurfaceMaterialData@2@PEIBUPxsMaterialData@2@@Z 000000018007d5c0 f   FEMClothExternalSolve.obj
 0001:0007c730       ?__device_stub__Z51cloth_queryRigidClothContactReferenceCountTGSLaunchPN5physx11PxgFEMClothEPNS_24PxgFemVsRigidContactInfoEPNS_26PxgFemRigidConstraintBlockEPjPNS_14PxgPrePrepDescEPNS_17PxgSolverCoreDescEPNS_23PxgArticulationCoreDescEPNS_19PxgSolverSharedDescINS_21IterativeSolveDataTGSEEEfP6float4S6_@@YAXPEAVPxgFEMCloth@physx@@PEAUPxgFemVsRigidContactInfo@2@PEAUPxgFemRigidConstraintBlock@2@PEAIPEAUPxgPrePrepDesc@2@PEAUPxgSolverCoreDesc@2@PEAUPxgArticulationCoreDesc@2@PEAU?$PxgSolverSharedDesc@UIterativeSolveDataTGS@physx@@@2@MPEAUfloat4@@3@Z 000000018007d730 f   FEMClothExternalSolve.obj
 0001:0007c880       ?__device_stub__Z37cloth_solveOutputClothDeltaVTGSLaunchPN5physx11PxgFEMClothEPNS_24PxgFemVsRigidContactInfoEPNS_26PxgFemRigidConstraintBlockEPjPNS_14PxgPrePrepDescEPNS_17PxgSolverCoreDescEPNS_23PxgArticulationCoreDescEPNS_19PxgSolverSharedDescINS_21IterativeSolveDataTGSEEEfP6float4SI_S6_PNS_32PxsDeformableSurfaceMaterialDataEPKNS_15PxsMaterialDataE@@YAXPEAVPxgFEMCloth@physx@@PEAUPxgFemVsRigidContactInfo@2@PEAUPxgFemRigidConstraintBlock@2@PEAIPEAUPxgPrePrepDesc@2@PEAUPxgSolverCoreDesc@2@PEAUPxgArticulationCoreDesc@2@PEAU?$PxgSolverSharedDesc@UIterativeSolveDataTGS@physx@@@2@MPEAUfloat4@@83PEAUPxsDeformableSurfaceMaterialData@2@PEIBUPxsMaterialData@2@@Z 000000018007d880 f   FEMClothExternalSolve.obj
 0001:0007c9f0       ?__device_stub__Z37cloth_solveOutputRigidDeltaVTGSLaunchPN5physx11PxgFEMClothEPNS_24PxgFemVsRigidContactInfoEPNS_26PxgFemRigidConstraintBlockEPjPNS_14PxgPrePrepDescEPNS_17PxgSolverCoreDescEPNS_23PxgArticulationCoreDescEPNS_19PxgSolverSharedDescINS_21IterativeSolveDataTGSEEEP6float4SI_S6_fPNS_32PxsDeformableSurfaceMaterialDataEPKNS_15PxsMaterialDataE@@YAXPEAVPxgFEMCloth@physx@@PEAUPxgFemVsRigidContactInfo@2@PEAUPxgFemRigidConstraintBlock@2@PEAIPEAUPxgPrePrepDesc@2@PEAUPxgSolverCoreDesc@2@PEAUPxgArticulationCoreDesc@2@PEAU?$PxgSolverSharedDesc@UIterativeSolveDataTGS@physx@@@2@PEAUfloat4@@83MPEAUPxsDeformableSurfaceMaterialData@2@PEIBUPxsMaterialData@2@@Z 000000018007d9f0 f   FEMClothExternalSolve.obj
 0001:0007cb60       ?__device_stub__Z40cloth_solveClothTriClothVertDeltaVLaunchPN5physx11PxgFEMClothEPNS_17PxgFemContactInfoEPNS_23PxgClothConstraintBlockEPjf@@YAXPEAVPxgFEMCloth@physx@@PEAUPxgFemContactInfo@2@PEAUPxgClothConstraintBlock@2@PEAIM@Z 000000018007db60 f   FEMClothExternalSolve.obj
 0001:0007cc70       ?__device_stub__Z31cloth_applyExternalDeltasLaunchPN5physx11PxgFEMClothEPKjf@@YAXPEAVPxgFEMCloth@physx@@PEBIM@Z 000000018007dc70 f   FEMClothExternalSolve.obj
 0001:0007cd80       ?__device_stub__Z61cloth_applyExternalDeltasAndCheckClothCollisionValidityLaunchPN5physx11PxgFEMClothEPKjfPh@@YAXPEAVPxgFEMCloth@physx@@PEBIMPEAE@Z 000000018007dd80 f   FEMClothExternalSolve.obj
 0001:0007ce90       ?__device_stub__Z51cloth_applyExternalDeltasWithVelocityClampingLaunchPN5physx11PxgFEMClothEPKjf@@YAXPEAVPxgFEMCloth@physx@@PEBIM@Z 000000018007de90 f   FEMClothExternalSolve.obj
 0001:0007cfa0       ?__device_stub__Z38cloth_updateClothContactValidityLaunchPN5physx11PxgFEMClothEPKjPKhPj@@YAXPEIAVPxgFEMCloth@physx@@PEBIPEBEPEAI@Z 000000018007dfa0 f   FEMClothExternalSolve.obj
 0001:0007d0b0       ?__device_stub__Z36cloth_solveCPOutputClothDeltaVLaunchPN5physx11PxgFEMClothEPNS_17PxgParticleSystemEPNS_17PxgFemContactInfoEPNS_29PxgFEMParticleConstraintBlockEPjP6float2PNS_32PxsDeformableSurfaceMaterialDataE@@YAXPEAVPxgFEMCloth@physx@@PEAVPxgParticleSystem@2@PEAUPxgFemContactInfo@2@PEAUPxgFEMParticleConstraintBlock@2@PEAIPEAUfloat2@@PEAUPxsDeformableSurfaceMaterialData@2@@Z 000000018007e0b0 f   FEMClothExternalSolve.obj
 0001:0007d1d0       ?__device_stub__Z39cloth_solveCPOutputParticleDeltaVLaunchPN5physx11PxgFEMClothEPNS_17PxgParticleSystemEPNS_17PxgFemContactInfoEPNS_29PxgFEMParticleConstraintBlockEPjP6float4P6float2PNS_32PxsDeformableSurfaceMaterialDataE@@YAXPEAVPxgFEMCloth@physx@@PEAVPxgParticleSystem@2@PEAUPxgFemContactInfo@2@PEAUPxgFEMParticleConstraintBlock@2@PEAIPEAUfloat4@@PEAUfloat2@@PEAUPxsDeformableSurfaceMaterialData@2@@Z 000000018007e1d0 f   FEMClothExternalSolve.obj
 0001:0007d300       ?__device_stub__Z44cloth_solveOutputAttachmentRigidDeltaVLaunchPN5physx11PxgFEMClothEPNS_31PxgFEMRigidAttachmentConstraintEjPNS_14PxgPrePrepDescEPNS_17PxgSolverCoreDescEPNS_23PxgArticulationCoreDescEPNS_19PxgSolverSharedDescINS_18IterativeSolveDataEEEfP6float4@@YAXPEAVPxgFEMCloth@physx@@PEAUPxgFEMRigidAttachmentConstraint@2@IPEAUPxgPrePrepDesc@2@PEAUPxgSolverCoreDesc@2@PEAUPxgArticulationCoreDesc@2@PEAU?$PxgSolverSharedDesc@UIterativeSolveData@physx@@@2@MPEAUfloat4@@@Z 000000018007e300 f   FEMClothExternalSolve.obj
 0001:0007d440       ?__device_stub__Z44cloth_solveOutputAttachmentClothDeltaVLaunchPN5physx11PxgFEMClothEPNS_31PxgFEMRigidAttachmentConstraintEjPNS_14PxgPrePrepDescEPNS_17PxgSolverCoreDescEPNS_23PxgArticulationCoreDescEPNS_19PxgSolverSharedDescINS_18IterativeSolveDataEEEf@@YAXPEAVPxgFEMCloth@physx@@PEAUPxgFEMRigidAttachmentConstraint@2@IPEAUPxgPrePrepDesc@2@PEAUPxgSolverCoreDesc@2@PEAUPxgArticulationCoreDesc@2@PEAU?$PxgSolverSharedDesc@UIterativeSolveData@physx@@@2@M@Z 000000018007e440 f   FEMClothExternalSolve.obj
 0001:0007d570       ?__device_stub__Z49cloth_solveOutputAttachmentClothClothDeltaVLaunchPN5physx11PxgFEMClothEPNS_29PxgFEMFEMAttachmentConstraintEj@@YAXPEAVPxgFEMCloth@physx@@PEAUPxgFEMFEMAttachmentConstraint@2@I@Z 000000018007e570 f   FEMClothExternalSolve.obj
 0001:0007d680       ?__device_stub__Z47cloth_solveOutputAttachmentRigidDeltaVTGSLaunchPN5physx11PxgFEMClothEPNS_31PxgFEMRigidAttachmentConstraintEjPNS_14PxgPrePrepDescEPNS_17PxgSolverCoreDescEPNS_23PxgArticulationCoreDescEPNS_19PxgSolverSharedDescINS_18IterativeSolveDataEEEfP6float4@@YAXPEAVPxgFEMCloth@physx@@PEAUPxgFEMRigidAttachmentConstraint@2@IPEAUPxgPrePrepDesc@2@PEAUPxgSolverCoreDesc@2@PEAUPxgArticulationCoreDesc@2@PEAU?$PxgSolverSharedDesc@UIterativeSolveData@physx@@@2@MPEAUfloat4@@@Z 000000018007e680 f   FEMClothExternalSolve.obj
 0001:0007d7c0       ?__device_stub__Z47cloth_solveOutputAttachmentClothDeltaVTGSLaunchPN5physx11PxgFEMClothEPNS_31PxgFEMRigidAttachmentConstraintEjPNS_14PxgPrePrepDescEPNS_17PxgSolverCoreDescEPNS_23PxgArticulationCoreDescEPNS_19PxgSolverSharedDescINS_18IterativeSolveDataEEEf@@YAXPEAVPxgFEMCloth@physx@@PEAUPxgFEMRigidAttachmentConstraint@2@IPEAUPxgPrePrepDesc@2@PEAUPxgSolverCoreDesc@2@PEAUPxgArticulationCoreDesc@2@PEAU?$PxgSolverSharedDesc@UIterativeSolveData@physx@@@2@M@Z 000000018007e7c0 f   FEMClothExternalSolve.obj
 0001:0007e030       initSimulationControllerKernels2 000000018007f030 f   rigidDeltaAccum.obj
 0001:0007e040       accumulateDeltaVRigidFirstLaunch 000000018007f040 f   rigidDeltaAccum.obj
 0001:0007e160       accumulateDeltaVRigidSecondLaunch 000000018007f160 f   rigidDeltaAccum.obj
 0001:0007e2f0       clearDeltaVRigidSecondLaunchMulti 000000018007f2f0 f   rigidDeltaAccum.obj
 0001:0007e420       accumulateDeltaVRigidSecondLaunchMultiStage1 000000018007f420 f   rigidDeltaAccum.obj
 0001:0007e5f0       accumulateDeltaVRigidSecondLaunchMultiStage2 000000018007f5f0 f   rigidDeltaAccum.obj
 0001:0007e7f0       ?__device_stub__Z32accumulateDeltaVRigidFirstLaunchPKyPKjP6float4S4_Py@@YAXPEB_KPEBIPEAUfloat4@@2PEA_K@Z 000000018007f7f0 f   rigidDeltaAccum.obj
 0001:0007e900       ?__device_stub__Z33accumulateDeltaVRigidSecondLaunchPKyPKjPK6float4S5_S0_PN5physx14PxgPrePrepDescEPNS6_17PxgSolverCoreDescEPNS6_23PxgArticulationCoreDescEPNS6_19PxgSolverSharedDescINS6_18IterativeSolveDataEEEb@@YAXPEB_KPEBIPEBUfloat4@@20PEAUPxgPrePrepDesc@physx@@PEAUPxgSolverCoreDesc@3@PEAUPxgArticulationCoreDesc@3@PEAU?$PxgSolverSharedDesc@UIterativeSolveData@physx@@@3@_N@Z 000000018007f900 f   rigidDeltaAccum.obj
 0001:0007ea40       ?__device_stub__Z33clearDeltaVRigidSecondLaunchMultiPyPjPN5physx14PxgPrePrepDescEPNS1_17PxgSolverCoreDescEPNS1_23PxgArticulationCoreDescEPf@@YAXPEA_KPEAIPEAUPxgPrePrepDesc@physx@@PEAUPxgSolverCoreDesc@2@PEAUPxgArticulationCoreDesc@2@PEAM@Z 000000018007fa40 f   rigidDeltaAccum.obj
 0001:0007eb60       ?__device_stub__Z44accumulateDeltaVRigidSecondLaunchMultiStage1PyPjP6float4S2_S_PN5physx14PxgPrePrepDescEPNS3_17PxgSolverCoreDescEPNS3_23PxgArticulationCoreDescEPNS3_19PxgSolverSharedDescINS3_18IterativeSolveDataEEEPfbfb@@YAXPEA_KPEAIPEAUfloat4@@20PEAUPxgPrePrepDesc@physx@@PEAUPxgSolverCoreDesc@3@PEAUPxgArticulationCoreDesc@3@PEAU?$PxgSolverSharedDesc@UIterativeSolveData@physx@@@3@PEAM_NM_N@Z 000000018007fb60 f   rigidDeltaAccum.obj
 0001:0007ecd0       ?__device_stub__Z44accumulateDeltaVRigidSecondLaunchMultiStage2PyPjP6float4S2_S_PN5physx14PxgPrePrepDescEPNS3_17PxgSolverCoreDescEPNS3_23PxgArticulationCoreDescEPNS3_19PxgSolverSharedDescINS3_18IterativeSolveDataEEEPfbfb@@YAXPEA_KPEAIPEAUfloat4@@20PEAUPxgPrePrepDesc@physx@@PEAUPxgSolverCoreDesc@3@PEAUPxgArticulationCoreDesc@3@PEAU?$PxgSolverSharedDesc@UIterativeSolveData@physx@@@3@PEAM_NM_N@Z 000000018007fcd0 f   rigidDeltaAccum.obj
 0001:0007f180       initDiffuseParticlesKernels0 0000000180080180 f   diffuseParticles.obj
 0001:0007f190       ps_updateUnsortedDiffuseArrayLaunch 0000000180080190 f   diffuseParticles.obj
 0001:0007f260       ps_diffuseParticleOneWayCollision 0000000180080260 f   diffuseParticles.obj
 0001:0007f360       ps_diffuseParticleUpdatePBF 0000000180080360 f   diffuseParticles.obj
 0001:0007f470       ps_diffuseParticleCompact  0000000180080470 f   diffuseParticles.obj
 0001:0007f580       ps_diffuseParticleCreate   0000000180080580 f   diffuseParticles.obj
 0001:0007f6a0       ps_diffuseParticleCopy     00000001800806a0 f   diffuseParticles.obj
 0001:0007f7a0       ps_diffuseParticleSum      00000001800807a0 f   diffuseParticles.obj
 0001:0007f8d0       ?__device_stub__Z35ps_updateUnsortedDiffuseArrayLaunchPKN5physx17PxgParticleSystemEPKj@@YAXPEIBVPxgParticleSystem@physx@@PEIBI@Z 00000001800808d0 f   diffuseParticles.obj
 0001:0007f9a0       ?__device_stub__Z33ps_diffuseParticleOneWayCollisionPN5physx17PxgParticleSystemEPKjj@@YAXPEIAVPxgParticleSystem@physx@@PEIBII@Z 00000001800809a0 f   diffuseParticles.obj
 0001:0007fab0       ?__device_stub__Z27ps_diffuseParticleUpdatePBFPN5physx17PxgParticleSystemEPKjNS_7PxVec3TIfEEf@@YAXPEIAVPxgParticleSystem@physx@@PEBIAEBV?$PxVec3T@M@2@M@Z 0000000180080ab0 f   diffuseParticles.obj
 0001:0007fbc0       ?__device_stub__Z25ps_diffuseParticleCompactPN5physx17PxgParticleSystemEPKjNS_7PxVec3TIfEEf@@YAXPEIAVPxgParticleSystem@physx@@PEBIAEBV?$PxVec3T@M@2@M@Z 0000000180080bc0 f   diffuseParticles.obj
 0001:0007fcd0       ?__device_stub__Z24ps_diffuseParticleCreatePN5physx17PxgParticleSystemEPKjPKfjf@@YAXPEIAVPxgParticleSystem@physx@@QEIBIQEIBMIM@Z 0000000180080cd0 f   diffuseParticles.obj
 0001:0007fde0       ?__device_stub__Z22ps_diffuseParticleCopyPN5physx17PxgParticleSystemEPKjj@@YAXPEIAVPxgParticleSystem@physx@@QEIBII@Z 0000000180080de0 f   diffuseParticles.obj
 0001:0007fef0       ?__device_stub__Z21ps_diffuseParticleSumPN5physx17PxgParticleSystemEPKjj@@YAXPEIAVPxgParticleSystem@physx@@QEIBII@Z 0000000180080ef0 f   diffuseParticles.obj
 0001:000803d0       initIsosurfaceExtractionKernels0 00000001800813d0 f   isosurfaceExtraction.obj
 0001:000803e0       iso_ComputeParticleDensityUsingSDF 00000001800813e0 f   isosurfaceExtraction.obj
 0001:00080570       iso_ComputeParticleDensityUsingSDFSparse 0000000180081570 f   isosurfaceExtraction.obj
 0001:00080700       iso_ComputeParticleDensity 0000000180081700 f   isosurfaceExtraction.obj
 0001:00080820       iso_ComputeParticleDensitySparse 0000000180081820 f   isosurfaceExtraction.obj
 0001:00080940       iso_CountCellVerts         0000000180081940 f   isosurfaceExtraction.obj
 0001:00080a00       iso_CountCellVertsSparse   0000000180081a00 f   isosurfaceExtraction.obj
 0001:00080ac0       iso_CountCellVertsDC       0000000180081ac0 f   isosurfaceExtraction.obj
 0001:00080b80       iso_CountCellVertsDCSparse 0000000180081b80 f   isosurfaceExtraction.obj
 0001:00080c40       iso_CreateVerts            0000000180081c40 f   isosurfaceExtraction.obj
 0001:00080d00       iso_CreateVertsSparse      0000000180081d00 f   isosurfaceExtraction.obj
 0001:00080dc0       iso_CreateVertsDC          0000000180081dc0 f   isosurfaceExtraction.obj
 0001:00080e80       iso_CreateVertsDCSparse    0000000180081e80 f   isosurfaceExtraction.obj
 0001:00080f40       ?getDecodedId@@YAIII@Z     0000000180081f40 f   isosurfaceExtraction.obj
 0001:00080f60       iso_CountTriIds            0000000180081f60 f   isosurfaceExtraction.obj
 0001:00081020       iso_CountTriIdsSparse      0000000180082020 f   isosurfaceExtraction.obj
 0001:000810e0       iso_CountTriIdsDC          00000001800820e0 f   isosurfaceExtraction.obj
 0001:000811a0       iso_CountTriIdsDCSparse    00000001800821a0 f   isosurfaceExtraction.obj
 0001:00081260       iso_CreateTriIds           0000000180082260 f   isosurfaceExtraction.obj
 0001:00081330       iso_CreateTriIdsSparse     0000000180082330 f   isosurfaceExtraction.obj
 0001:00081400       ?directionSign@@YAMHAEBV?$PxVec3T@M@physx@@00@Z 0000000180082400 f   isosurfaceExtraction.obj
 0001:00081420       ?indexOfConcaveCorner@@YAHHAEBV?$PxVec3T@M@physx@@000@Z 0000000180082420 f   isosurfaceExtraction.obj
 0001:00081440       iso_CreateTriIdsDC         0000000180082440 f   isosurfaceExtraction.obj
 0001:00081510       iso_CreateTriIdsDCSparse   0000000180082510 f   isosurfaceExtraction.obj
 0001:000815e0       ?smoothVerts@@YAXPEBV?$PxVec4T@M@physx@@PEAV12@PEBII@Z 00000001800825e0 f   isosurfaceExtraction.obj
 0001:00081600       iso_SmoothVerts            0000000180082600 f   isosurfaceExtraction.obj
 0001:00081710       ?averageVerts@@YAXPEIAV?$PxVec4T@M@physx@@0IM@Z 0000000180082710 f   isosurfaceExtraction.obj
 0001:00081730       iso_AverageVerts           0000000180082730 f   isosurfaceExtraction.obj
 0001:00081840       ?normalize@@YA?AV?$PxVec3T@M@physx@@V12@@Z 0000000180082840 f   isosurfaceExtraction.obj
 0001:00081860       iso_SmoothNormals          0000000180082860 f   isosurfaceExtraction.obj
 0001:00081920       iso_SmoothNormalsSparse    0000000180082920 f   isosurfaceExtraction.obj
 0001:000819e0       ?normalize@@YA?AV?$PxVec4T@M@physx@@AEBV12@@Z 00000001800829e0 f   isosurfaceExtraction.obj
 0001:00081a00       iso_SmoothNormalsNormalize 0000000180082a00 f   isosurfaceExtraction.obj
 0001:00081ac0       iso_SmoothNormalsNormalizeSparse 0000000180082ac0 f   isosurfaceExtraction.obj
 0001:00081b80       iso_ComputeNormals         0000000180082b80 f   isosurfaceExtraction.obj
 0001:00081c40       iso_ComputeNormalsSparse   0000000180082c40 f   isosurfaceExtraction.obj
 0001:00081d00       iso_NormalizeNormals       0000000180082d00 f   isosurfaceExtraction.obj
 0001:00081dc0       iso_NormalizeNormalsSparse 0000000180082dc0 f   isosurfaceExtraction.obj
 0001:00081e80       iso_GridFilterGauss        0000000180082e80 f   isosurfaceExtraction.obj
 0001:00081f50       iso_GridFilterGaussSparse  0000000180082f50 f   isosurfaceExtraction.obj
 0001:00082020       iso_GridFilterDilateErode  0000000180083020 f   isosurfaceExtraction.obj
 0001:000820f0       iso_GridFilterDilateErodeSparse 00000001800830f0 f   isosurfaceExtraction.obj
 0001:000821f0       ?__device_stub__Z34iso_ComputeParticleDensityUsingSDFPN5physx7PxVec4TIfEEiPjjNS_26PxIsosurfaceExtractionDataES3_P6float4S6_S6_f@@YAXPEIAV?$PxVec4T@M@physx@@HPEIAIIAEAUPxIsosurfaceExtractionData@2@1PEIAUfloat4@@33M@Z 00000001800831f0 f   isosurfaceExtraction.obj
 0001:00082330       ?__device_stub__Z40iso_ComputeParticleDensityUsingSDFSparsePN5physx7PxVec4TIfEEiPjjNS_32PxSparseIsosurfaceExtractionDataES3_P6float4S6_S6_f@@YAXPEAV?$PxVec4T@M@physx@@HPEAIIAEAUPxSparseIsosurfaceExtractionData@2@PEIAIPEAUfloat4@@44M@Z 0000000180083330 f   isosurfaceExtraction.obj
 0001:00082470       ?__device_stub__Z26iso_ComputeParticleDensityPN5physx7PxVec4TIfEEiPjjNS_26PxIsosurfaceExtractionDataE@@YAXPEAV?$PxVec4T@M@physx@@HPEAIIAEAUPxIsosurfaceExtractionData@2@@Z 0000000180083470 f   isosurfaceExtraction.obj
 0001:00082580       ?__device_stub__Z32iso_ComputeParticleDensitySparsePN5physx7PxVec4TIfEEiPjjNS_32PxSparseIsosurfaceExtractionDataE@@YAXPEAV?$PxVec4T@M@physx@@HPEAIIAEAUPxSparseIsosurfaceExtractionData@2@@Z 0000000180083580 f   isosurfaceExtraction.obj
 0001:00082690       ?__device_stub__Z18iso_CountCellVertsN5physx26PxIsosurfaceExtractionDataE@@YAXAEAUPxIsosurfaceExtractionData@physx@@@Z 0000000180083690 f   isosurfaceExtraction.obj
 0001:00082750       ?__device_stub__Z24iso_CountCellVertsSparseN5physx32PxSparseIsosurfaceExtractionDataE@@YAXAEAUPxSparseIsosurfaceExtractionData@physx@@@Z 0000000180083750 f   isosurfaceExtraction.obj
 0001:00082810       ?__device_stub__Z20iso_CountCellVertsDCN5physx26PxIsosurfaceExtractionDataE@@YAXAEAUPxIsosurfaceExtractionData@physx@@@Z 0000000180083810 f   isosurfaceExtraction.obj
 0001:000828d0       ?__device_stub__Z26iso_CountCellVertsDCSparseN5physx32PxSparseIsosurfaceExtractionDataE@@YAXAEAUPxSparseIsosurfaceExtractionData@physx@@@Z 00000001800838d0 f   isosurfaceExtraction.obj
 0001:00082990       ?__device_stub__Z15iso_CreateVertsN5physx26PxIsosurfaceExtractionDataE@@YAXAEAUPxIsosurfaceExtractionData@physx@@@Z 0000000180083990 f   isosurfaceExtraction.obj
 0001:00082a50       ?__device_stub__Z21iso_CreateVertsSparseN5physx32PxSparseIsosurfaceExtractionDataE@@YAXAEAUPxSparseIsosurfaceExtractionData@physx@@@Z 0000000180083a50 f   isosurfaceExtraction.obj
 0001:00082b10       ?__device_stub__Z17iso_CreateVertsDCN5physx26PxIsosurfaceExtractionDataE@@YAXAEAUPxIsosurfaceExtractionData@physx@@@Z 0000000180083b10 f   isosurfaceExtraction.obj
 0001:00082bd0       ?__device_stub__Z23iso_CreateVertsDCSparseN5physx32PxSparseIsosurfaceExtractionDataE@@YAXAEAUPxSparseIsosurfaceExtractionData@physx@@@Z 0000000180083bd0 f   isosurfaceExtraction.obj
 0001:00082c90       ?__device_stub__Z15iso_CountTriIdsN5physx26PxIsosurfaceExtractionDataE@@YAXAEAUPxIsosurfaceExtractionData@physx@@@Z 0000000180083c90 f   isosurfaceExtraction.obj
 0001:00082d50       ?__device_stub__Z21iso_CountTriIdsSparseN5physx32PxSparseIsosurfaceExtractionDataE@@YAXAEAUPxSparseIsosurfaceExtractionData@physx@@@Z 0000000180083d50 f   isosurfaceExtraction.obj
 0001:00082e10       ?__device_stub__Z17iso_CountTriIdsDCN5physx26PxIsosurfaceExtractionDataE@@YAXAEAUPxIsosurfaceExtractionData@physx@@@Z 0000000180083e10 f   isosurfaceExtraction.obj
 0001:00082ed0       ?__device_stub__Z23iso_CountTriIdsDCSparseN5physx32PxSparseIsosurfaceExtractionDataE@@YAXAEAUPxSparseIsosurfaceExtractionData@physx@@@Z 0000000180083ed0 f   isosurfaceExtraction.obj
 0001:00082f90       ?__device_stub__Z16iso_CreateTriIdsN5physx26PxIsosurfaceExtractionDataEb@@YAXAEAUPxIsosurfaceExtractionData@physx@@_N@Z 0000000180083f90 f   isosurfaceExtraction.obj
 0001:00083060       ?__device_stub__Z22iso_CreateTriIdsSparseN5physx32PxSparseIsosurfaceExtractionDataEb@@YAXAEAUPxSparseIsosurfaceExtractionData@physx@@_N@Z 0000000180084060 f   isosurfaceExtraction.obj
 0001:00083130       ?__device_stub__Z18iso_CreateTriIdsDCN5physx26PxIsosurfaceExtractionDataEb@@YAXAEAUPxIsosurfaceExtractionData@physx@@_N@Z 0000000180084130 f   isosurfaceExtraction.obj
 0001:00083200       ?__device_stub__Z24iso_CreateTriIdsDCSparseN5physx32PxSparseIsosurfaceExtractionDataEb@@YAXAEAUPxSparseIsosurfaceExtractionData@physx@@_N@Z 0000000180084200 f   isosurfaceExtraction.obj
 0001:000832d0       ?__device_stub__Z15iso_SmoothVertsPKN5physx7PxVec4TIfEEPS1_PKjS6_@@YAXPEIBV?$PxVec4T@M@physx@@PEIAV12@PEIBI2@Z 00000001800842d0 f   isosurfaceExtraction.obj
 0001:000833e0       ?__device_stub__Z16iso_AverageVertsPN5physx7PxVec4TIfEES2_PKjf@@YAXPEIAV?$PxVec4T@M@physx@@0PEIBIM@Z 00000001800843e0 f   isosurfaceExtraction.obj
 0001:000834f0       ?__device_stub__Z17iso_SmoothNormalsN5physx26PxIsosurfaceExtractionDataE@@YAXAEAUPxIsosurfaceExtractionData@physx@@@Z 00000001800844f0 f   isosurfaceExtraction.obj
 0001:000835b0       ?__device_stub__Z23iso_SmoothNormalsSparseN5physx32PxSparseIsosurfaceExtractionDataE@@YAXAEAUPxSparseIsosurfaceExtractionData@physx@@@Z 00000001800845b0 f   isosurfaceExtraction.obj
 0001:00083670       ?__device_stub__Z26iso_SmoothNormalsNormalizeN5physx26PxIsosurfaceExtractionDataE@@YAXAEAUPxIsosurfaceExtractionData@physx@@@Z 0000000180084670 f   isosurfaceExtraction.obj
 0001:00083730       ?__device_stub__Z32iso_SmoothNormalsNormalizeSparseN5physx32PxSparseIsosurfaceExtractionDataE@@YAXAEAUPxSparseIsosurfaceExtractionData@physx@@@Z 0000000180084730 f   isosurfaceExtraction.obj
 0001:000837f0       ?__device_stub__Z18iso_ComputeNormalsN5physx26PxIsosurfaceExtractionDataE@@YAXAEAUPxIsosurfaceExtractionData@physx@@@Z 00000001800847f0 f   isosurfaceExtraction.obj
 0001:000838b0       ?__device_stub__Z24iso_ComputeNormalsSparseN5physx32PxSparseIsosurfaceExtractionDataE@@YAXAEAUPxSparseIsosurfaceExtractionData@physx@@@Z 00000001800848b0 f   isosurfaceExtraction.obj
 0001:00083970       ?__device_stub__Z20iso_NormalizeNormalsN5physx26PxIsosurfaceExtractionDataE@@YAXAEAUPxIsosurfaceExtractionData@physx@@@Z 0000000180084970 f   isosurfaceExtraction.obj
 0001:00083a30       ?__device_stub__Z26iso_NormalizeNormalsSparseN5physx32PxSparseIsosurfaceExtractionDataE@@YAXAEAUPxSparseIsosurfaceExtractionData@physx@@@Z 0000000180084a30 f   isosurfaceExtraction.obj
 0001:00083af0       ?__device_stub__Z19iso_GridFilterGaussN5physx26PxIsosurfaceExtractionDataEf@@YAXAEAUPxIsosurfaceExtractionData@physx@@M@Z 0000000180084af0 f   isosurfaceExtraction.obj
 0001:00083bc0       ?__device_stub__Z25iso_GridFilterGaussSparseN5physx32PxSparseIsosurfaceExtractionDataEf@@YAXAEAUPxSparseIsosurfaceExtractionData@physx@@M@Z 0000000180084bc0 f   isosurfaceExtraction.obj
 0001:00083c90       ?__device_stub__Z25iso_GridFilterDilateErodeN5physx26PxIsosurfaceExtractionDataEf@@YAXAEAUPxIsosurfaceExtractionData@physx@@M@Z 0000000180084c90 f   isosurfaceExtraction.obj
 0001:00083d60       ?__device_stub__Z31iso_GridFilterDilateErodeSparseN5physx32PxSparseIsosurfaceExtractionDataEf@@YAXAEAUPxSparseIsosurfaceExtractionData@physx@@M@Z 0000000180084d60 f   isosurfaceExtraction.obj
 0001:000848d0       initAnisotropyKernels0     00000001800858d0 f   anisotropy.obj
 0001:000848e0       smoothPositionsLaunch      00000001800858e0 f   anisotropy.obj
 0001:000849e0       calculateAnisotropyLaunch  00000001800859e0 f   anisotropy.obj
 0001:00084ae0       anisotropyKernel           0000000180085ae0 f   anisotropy.obj
 0001:00084d00       smoothPositionsKernel      0000000180085d00 f   anisotropy.obj
 0001:00084ef0       ?__device_stub__Z21smoothPositionsLaunchPN5physx19PxGpuParticleSystemEjPNS_22PxSmoothedPositionDataE@@YAXPEAVPxGpuParticleSystem@physx@@IPEAUPxSmoothedPositionData@2@@Z 0000000180085ef0 f   anisotropy.obj
 0001:00084ff0       ?__device_stub__Z25calculateAnisotropyLaunchPN5physx19PxGpuParticleSystemEjPNS_16PxAnisotropyDataE@@YAXPEAVPxGpuParticleSystem@physx@@IPEAUPxAnisotropyData@2@@Z 0000000180085ff0 f   anisotropy.obj
 0001:000850f0       ?__device_stub__Z16anisotropyKernelPK6float4PKjS3_jS3_S3_iPjjPS_S5_S5_ffff@@YAXQEIBUfloat4@@QEIBI1I11HPEAIIPEAU1@33MMMM@Z 00000001800860f0 f   anisotropy.obj
 0001:00085280       ?__device_stub__Z21smoothPositionsKernelP6float4PjS1_jS1_S1_iS1_jS0_ff@@YAXPEAUfloat4@@PEAI1I11H1I0MM@Z 0000000180086280 f   anisotropy.obj
 0001:000856d0       initAlgorithmsKernels0     00000001800866d0 f   algorithms.obj
 0001:000856e0       scanPerBlockKernel         00000001800866e0 f   algorithms.obj
 0001:00085810       ?exclusiveSumInt16@@YAXPEAUint4x4@@@Z 0000000180086810 f   algorithms.obj
 0001:00085830       scanPerBlockKernel4x4      0000000180086830 f   algorithms.obj
 0001:00085960       addBlockSumsKernel         0000000180086960 f   algorithms.obj
 0001:00085a70       addBlockSumsKernel4x4      0000000180086a70 f   algorithms.obj
 0001:00085b80       radixFourBitCountPerBlockKernel 0000000180086b80 f   algorithms.obj
 0001:00085cb0       radixFourBitReorderKernel  0000000180086cb0 f   algorithms.obj
 0001:00085e30       reorderKernel              0000000180086e30 f   algorithms.obj
 0001:00085f70       ?__device_stub__Z18scanPerBlockKernelPKjPjS1_jjS1_@@YAXPEBIPEAI1II1@Z 0000000180086f70 f   algorithms.obj
 0001:00086090       ?__device_stub__Z21scanPerBlockKernel4x4PK6int4x4PS_S2_jjS2_@@YAXPEBUint4x4@@PEAU1@1II1@Z 0000000180087090 f   algorithms.obj
 0001:000861b0       ?__device_stub__Z18addBlockSumsKernelPKjPjjS1_@@YAXPEBIPEAII1@Z 00000001800871b0 f   algorithms.obj
 0001:000862c0       ?__device_stub__Z21addBlockSumsKernel4x4PK6int4x4PS_jS2_@@YAXPEBUint4x4@@PEAU1@I1@Z 00000001800872c0 f   algorithms.obj
 0001:000863d0       ?__device_stub__Z31radixFourBitCountPerBlockKernelPKjPtjP6int4x4jS3_@@YAXPEBIPEAGIPEAUint4x4@@I2@Z 00000001800873d0 f   algorithms.obj
 0001:000864f0       ?__device_stub__Z25radixFourBitReorderKernelPKjPKtPjjP6int4x4jS5_S3_S3_@@YAXPEBIPEBGPEAIIPEAUint4x4@@I322@Z 00000001800874f0 f   algorithms.obj
 0001:00086630       ?__device_stub__Z13reorderKernelPK6float4PS_jPKj@@YAXPEBUfloat4@@PEAU1@IPEBI@Z 0000000180087630 f   algorithms.obj
 0001:00086bb0       initSparseGridStandaloneKernels0 0000000180087bb0 f   sparseGridStandalone.obj
 0001:00086bc0       sg_SparseGridCalcSubgridHashes 0000000180087bc0 f   sparseGridStandalone.obj
 0001:00086d20       ?applyMask@@YAXPEAIPEIBIII@Z 0000000180087d20 f   sparseGridStandalone.obj
 0001:00086d40       sg_SparseGridMarkRequiredNeighbors 0000000180087d40 f   sparseGridStandalone.obj
 0001:00086eb0       sg_SparseGridSortedArrayToDelta 0000000180087eb0 f   sparseGridStandalone.obj
 0001:00086fc0       sg_SparseGridGetUniqueValues 0000000180087fc0 f   sparseGridStandalone.obj
 0001:000870f0       sg_SparseGridClearDensity  00000001800880f0 f   sparseGridStandalone.obj
 0001:00087200       sg_SparseGridBuildSubgridNeighbors 0000000180088200 f   sparseGridStandalone.obj
 0001:00087310       sg_MarkSubgridEndIndices   0000000180088310 f   sparseGridStandalone.obj
 0001:00087410       sg_ReuseSubgrids           0000000180088410 f   sparseGridStandalone.obj
 0001:00087550       sg_AddReleasedSubgridsToUnusedStack 0000000180088550 f   sparseGridStandalone.obj
 0001:00087660       sg_AllocateNewSubgrids     0000000180088660 f   sparseGridStandalone.obj
 0001:000877c0       ?__device_stub__Z30sg_SparseGridCalcSubgridHashesN5physx18PxSparseGridParamsEPjS1_PKNS_7PxVec4TIfEEjPKjjS7_@@YAXAEAUPxSparseGridParams@physx@@PEIAI1QEIBV?$PxVec4T@M@2@IPEIBII3@Z 00000001800887c0 f   sparseGridStandalone.obj
 0001:000878f0       ?__device_stub__Z34sg_SparseGridMarkRequiredNeighborsPjPKjN5physx18PxSparseGridParamsEjPKNS2_7PxVec4TIfEEjS1_jS1_@@YAXPEAIPEIBIAEBUPxSparseGridParams@physx@@IPEBV?$PxVec4T@M@2@I1I1@Z 00000001800888f0 f   sparseGridStandalone.obj
 0001:00087a20       ?__device_stub__Z31sg_SparseGridSortedArrayToDeltaPKjS0_Pjj@@YAXPEBI0PEAII@Z 0000000180088a20 f   sparseGridStandalone.obj
 0001:00087b30       ?__device_stub__Z28sg_SparseGridGetUniqueValuesPKjS0_PjjS1_j@@YAXPEBI0PEAII1I@Z 0000000180088b30 f   sparseGridStandalone.obj
 0001:00087c50       ?__device_stub__Z25sg_SparseGridClearDensityPffPKjj@@YAXPEIAMMPEBII@Z 0000000180088c50 f   sparseGridStandalone.obj
 0001:00087d60       ?__device_stub__Z34sg_SparseGridBuildSubgridNeighborsPKjS0_jPj@@YAXPEIBI0IPEIAI@Z 0000000180088d60 f   sparseGridStandalone.obj
 0001:00087e70       ?__device_stub__Z24sg_MarkSubgridEndIndicesPKjjPj@@YAXPEBIIPEAI@Z 0000000180088e70 f   sparseGridStandalone.obj
 0001:00087f70       ?__device_stub__Z16sg_ReuseSubgridsN5physx18PxSparseGridParamsEPKjS2_PjS2_S2_S3_@@YAXAEBUPxSparseGridParams@physx@@PEBI1PEAI112@Z 0000000180088f70 f   sparseGridStandalone.obj
 0001:00088090       ?__device_stub__Z35sg_AddReleasedSubgridsToUnusedStackPKjS0_PjS1_@@YAXPEBI0PEAI1@Z 0000000180089090 f   sparseGridStandalone.obj
 0001:000881a0       ?__device_stub__Z22sg_AllocateNewSubgridsPKjPjS1_S1_S0_j@@YAXPEBIPEAI110I@Z 00000001800891a0 f   sparseGridStandalone.obj
 0001:00088650       initSdfConstructionKernels0 0000000180089650 f   SDFConstruction.obj
 0001:00088660       bvhCalculateMortonCodes    0000000180089660 f   SDFConstruction.obj
 0001:000887d0       bvhCalculateKeyDeltas      00000001800897d0 f   SDFConstruction.obj
 0001:000888d0       bvhCalculateKeyDeltasSquaredDistance 00000001800898d0 f   SDFConstruction.obj
 0001:000889f0       bvhBuildLeaves             00000001800899f0 f   SDFConstruction.obj
 0001:00088b60       bvhComputeTriangleBounds   0000000180089b60 f   SDFConstruction.obj
 0001:00088c90       bvhBuildHierarchy          0000000180089c90 f   SDFConstruction.obj
 0001:00088e10       bvhBuildHierarchyAndWindingClusters 0000000180089e10 f   SDFConstruction.obj
 0001:00088fd0       bvhComputeTotalBounds      0000000180089fd0 f   SDFConstruction.obj
 0001:000890f0       bvhComputeTotalInvEdges    000000018008a0f0 f   SDFConstruction.obj
 0001:000891f0       sdfCalculateDenseGridHybrid 000000018008a1f0 f   SDFConstruction.obj
 0001:00089320       sdfCalculateDenseGridBlocks 000000018008a320 f   SDFConstruction.obj
 0001:00089460       sdfPopulateBackgroundSDF   000000018008a460 f   SDFConstruction.obj
 0001:000895d0       sdfMarkRequiredSdfSubgrids 000000018008a5d0 f   SDFConstruction.obj
 0001:000897c0       sdfPopulateSdfSubgrids     000000018008a7c0 f   SDFConstruction.obj
 0001:000899f0       ?findHoles@@YAXPEIBMIIIV?$PxVec3T@M@physx@@PEAIPEBUGridQueryPointSampler@Gu@2@PEIAUfloat4@@4I@Z 000000018008a9f0 f   SDFConstruction.obj
 0001:00089a10       sdfCountHoles              000000018008aa10 f   SDFConstruction.obj
 0001:00089b40       sdfFindHoles               000000018008ab40 f   SDFConstruction.obj
 0001:00089cb0       sdfApplyHoleCorrections    000000018008acb0 f   SDFConstruction.obj
 0001:00089df0       sdfCalculateDenseGridPointCloud 000000018008adf0 f   SDFConstruction.obj
 0001:00089f40       ?__device_stub__Z23bvhCalculateMortonCodesPK6float4S1_PKiiPKN5physx7PxVec3TIfEES8_PiS9_@@YAXPEIBUfloat4@@0PEIBHHPEBV?$PxVec3T@M@physx@@2PEIAH3@Z 000000018008af40 f   SDFConstruction.obj
 0001:0008a070       ?__device_stub__Z21bvhCalculateKeyDeltasPKiPfi@@YAXPEIBHPEIAMH@Z 000000018008b070 f   SDFConstruction.obj
 0001:0008a180       ?__device_stub__Z36bvhCalculateKeyDeltasSquaredDistancePKiPfiPK6float4S4_@@YAXPEIBHPEIAMHPEIBUfloat4@@2@Z 000000018008b180 f   SDFConstruction.obj
 0001:0008a290       ?__device_stub__Z14bvhBuildLeavesPK6float4S1_iPKiPiS4_PN5physx17PxgPackedNodeHalfES7_@@YAXPEIBUfloat4@@0HPEIBHPEIAH2PEIAUPxgPackedNodeHalf@physx@@3@Z 000000018008b290 f   SDFConstruction.obj
 0001:0008a3c0       ?__device_stub__Z24bvhComputeTriangleBoundsPKN5physx7PxVec3TIfEEPKjjP6float4S7_f@@YAXPEIBV?$PxVec3T@M@physx@@PEIBIIPEIAUfloat4@@2M@Z 000000018008b3c0 f   SDFConstruction.obj
 0001:0008a4e0       ?__device_stub__Z17bvhBuildHierarchyiPiPjPKfS_PViS4_PVN5physx17PxgPackedNodeHalfES8_@@YAXHPEAHPEAIPEIBMPEIAHPEICH4PEICUPxgPackedNodeHalf@physx@@5@Z 000000018008b4e0 f   SDFConstruction.obj
 0001:0008a620       ?__device_stub__Z35bvhBuildHierarchyAndWindingClustersiPiPjPKfS_PViS4_PVN5physx17PxgPackedNodeHalfES8_PNS5_30PxgWindingClusterApproximationEPKNS5_7PxVec3TIfEEPKj@@YAXHPEAHPEAIPEIBMPEIAHPEICH4PEICUPxgPackedNodeHalf@physx@@5PEAUPxgWindingClusterApproximation@2@PEBV?$PxVec3T@M@2@PEBI@Z 000000018008b620 f   SDFConstruction.obj
 0001:0008a780       ?__device_stub__Z21bvhComputeTotalBoundsPK6float4S1_PN5physx7PxVec3TIfEES5_i@@YAXPEBUfloat4@@0PEAV?$PxVec3T@M@physx@@1H@Z 000000018008b780 f   SDFConstruction.obj
 0001:0008a890       ?__device_stub__Z23bvhComputeTotalInvEdgesPKN5physx7PxVec3TIfEES3_PS1_@@YAXPEBV?$PxVec3T@M@physx@@0PEAV12@@Z 000000018008b890 f   SDFConstruction.obj
 0001:0008a9a0       ?__device_stub__Z27sdfCalculateDenseGridHybridN5physx18PxgBvhTriangleMeshEPKNS_30PxgWindingClusterApproximationENS_2Gu21GridQueryPointSamplerEjjjPf@@YAXAEAUPxgBvhTriangleMesh@physx@@PEIBUPxgWindingClusterApproximation@2@AEAUGridQueryPointSampler@Gu@2@IIIPEIAM@Z 000000018008b9a0 f   SDFConstruction.obj
 0001:0008aac0       ?__device_stub__Z27sdfCalculateDenseGridBlocksN5physx18PxgBvhTriangleMeshEPKNS_30PxgWindingClusterApproximationENS_2Gu21GridQueryPointSamplerEjjjPfS6_@@YAXAEAUPxgBvhTriangleMesh@physx@@PEIBUPxgWindingClusterApproximation@2@AEAUGridQueryPointSampler@Gu@2@IIIPEIAM3@Z 000000018008bac0 f   SDFConstruction.obj
 0001:0008abe0       ?__device_stub__Z24sdfPopulateBackgroundSDFjPfjjjPKfjjj@@YAXIPEIAMIIIPEIBMIII@Z 000000018008bbe0 f   SDFConstruction.obj
 0001:0008ad20       ?__device_stub__Z26sdfMarkRequiredSdfSubgridsPfPKfPjPhjjjjjjjfS_S_f@@YAXPEIAMPEIBMPEIAIPEIAEIIIIIIIMPEAM4M@Z 000000018008bd20 f   SDFConstruction.obj
 0001:0008aea0       ?__device_stub__Z22sdfPopulateSdfSubgridsPKfjjjPjPhjjjjPvjjjS0_S0_jj@@YAXPEIBMIIIPEIAIPEIAEIIIIPEIAXIIIPEBM4II@Z 000000018008bea0 f   SDFConstruction.obj
 0001:0008b050       ?__device_stub__Z13sdfCountHolesPKfjjjN5physx7PxVec3TIfEEPj@@YAXPEIBMIIIAEBV?$PxVec3T@M@physx@@PEAI@Z 000000018008c050 f   SDFConstruction.obj
 0001:0008b170       ?__device_stub__Z12sdfFindHolesPKfjjjN5physx7PxVec3TIfEEPjNS1_2Gu21GridQueryPointSamplerEP6float4S8_j@@YAXPEIBMIIIAEBV?$PxVec3T@M@physx@@PEAIAEBUGridQueryPointSampler@Gu@2@PEIAUfloat4@@4I@Z 000000018008c170 f   SDFConstruction.obj
 0001:0008b2b0       ?__device_stub__Z23sdfApplyHoleCorrectionsPfjjjN5physx2Gu21GridQueryPointSamplerEPNS0_7PxVec4TIfEEj@@YAXPEIAMIIIAEAUGridQueryPointSampler@Gu@physx@@PEIAV?$PxVec4T@M@3@I@Z 000000018008c2b0 f   SDFConstruction.obj
 0001:0008b3d0       ?__device_stub__Z31sdfCalculateDenseGridPointCloudN5physx6PxgBVHENS_2Gu21GridQueryPointSamplerEjjjPf@@YAXAEAUPxgBVH@physx@@AEAUGridQueryPointSampler@Gu@2@IIIPEIAM@Z 000000018008c3d0 f   SDFConstruction.obj
 0001:0008bb60       ??1PxgBodySimManager@physx@@QEAA@XZ 000000018008cb60 f   PxgBodySimManager.obj
 0001:0008c150       ??4?$PxArray@UPxgSelfConstraint@physx@@V?$PxReflectionAllocator@UPxgSelfConstraint@physx@@@2@@physx@@QEAAAEAV01@AEBV01@@Z 000000018008d150 f i PxgBodySimManager.obj
 0001:0008c1e0       ??4?$PxArray@UPxgStaticConstraint@physx@@V?$PxReflectionAllocator@UPxgStaticConstraint@physx@@@2@@physx@@QEAAAEAV01@AEBV01@@Z 000000018008d1e0 f i PxgBodySimManager.obj
 0001:0008c260       ?activateCloth@PxgBodySimManager@physx@@QEAA_NPEAVDeformableSurface@Dy@2@@Z 000000018008d260 f   PxgBodySimManager.obj
 0001:0008c2f0       ?activateSoftbody@PxgBodySimManager@physx@@QEAA_NPEAVDeformableVolume@Dy@2@@Z 000000018008d2f0 f   PxgBodySimManager.obj
 0001:0008c410       ?activateSoftbodySelfCollision@PxgBodySimManager@physx@@QEAA_NPEAVDeformableVolume@Dy@2@@Z 000000018008d410 f   PxgBodySimManager.obj
 0001:0008c4a0       ?addArticulation@PxgBodySimManager@physx@@QEAAXPEAVFeatherstoneArticulation@Dy@2@I_N@Z 000000018008d4a0 f   PxgBodySimManager.obj
 0001:0008c6a0       ?addBody@PxgBodySimManager@physx@@QEAAXPEAVPxsRigidBody@2@I@Z 000000018008d6a0 f   PxgBodySimManager.obj
 0001:0008c7e0       ?addFEMCloth@PxgBodySimManager@physx@@QEAAXPEAVDeformableSurface@Dy@2@I@Z 000000018008d7e0 f   PxgBodySimManager.obj
 0001:0008ca00       ?addPBDParticleSystem@PxgBodySimManager@physx@@QEAAXPEAVParticleSystem@Dy@2@I@Z 000000018008da00 f   PxgBodySimManager.obj
 0001:0008cb80       ?addSelfArticulationContactManager@PxgBodySimManager@physx@@QEAA_NIVPxNodeIndex@2@0@Z 000000018008db80 f   PxgBodySimManager.obj
 0001:0008cc70       ?addSelfArticulationJoint@PxgBodySimManager@physx@@QEAA_NIVPxNodeIndex@2@0@Z 000000018008dc70 f   PxgBodySimManager.obj
 0001:0008cdc0       ?addSoftBody@PxgBodySimManager@physx@@QEAAXPEAVDeformableVolume@Dy@2@I@Z 000000018008ddc0 f   PxgBodySimManager.obj
 0001:0008d050       ?addStaticArticulationContactManager@PxgBodySimManager@physx@@QEAA_NIVPxNodeIndex@2@@Z 000000018008e050 f   PxgBodySimManager.obj
 0001:0008d150       ?addStaticArticulationJoint@PxgBodySimManager@physx@@QEAA_NIVPxNodeIndex@2@@Z 000000018008e150 f   PxgBodySimManager.obj
 0001:0008d240       ?addStaticRBContactManager@PxgBodySimManager@physx@@QEAA_NIVPxNodeIndex@2@@Z 000000018008e240 f   PxgBodySimManager.obj
 0001:0008d2e0       ?addStaticRBJoint@PxgBodySimManager@physx@@QEAA_NIVPxNodeIndex@2@@Z 000000018008e2e0 f   PxgBodySimManager.obj
 0001:0008d370       ?create@?$PxHashBase@V?$PxPair@$$CBII@physx@@IU?$PxHash@I@2@UGetKey@?$PxHashMapBase@IIU?$PxHash@I@physx@@VPxAllocator@2@@2@VPxAllocator@2@$00@physx@@QEAAPEAV?$PxPair@$$CBII@2@AEBIAEA_N@Z 000000018008e370 f i PxgBodySimManager.obj
 0001:0008d4c0       ?deactivateCloth@PxgBodySimManager@physx@@QEAA_NPEAVDeformableSurface@Dy@2@@Z 000000018008e4c0 f   PxgBodySimManager.obj
 0001:0008d530       ?deactivateSoftbody@PxgBodySimManager@physx@@QEAA_NPEAVDeformableVolume@Dy@2@@Z 000000018008e530 f   PxgBodySimManager.obj
 0001:0008d620       ?deactivateSoftbodySelfCollision@PxgBodySimManager@physx@@QEAA_NPEAVDeformableVolume@Dy@2@@Z 000000018008e620 f   PxgBodySimManager.obj
 0001:0008d6a0       ?erase@?$PxHashBase@V?$PxPair@$$CBII@physx@@IU?$PxHash@I@2@UGetKey@?$PxHashMapBase@IIU?$PxHash@I@physx@@VPxAllocator@2@@2@VPxAllocator@2@$00@physx@@QEAA_NAEBIAEAV?$PxPair@$$CBII@2@@Z 000000018008e6a0 f i PxgBodySimManager.obj
 0001:0008d7f0       ?growAndPushBack@?$PxArray@PEAUPxgArticulationSelfConstraints@physx@@V?$PxReflectionAllocator@PEAUPxgArticulationSelfConstraints@physx@@@2@@physx@@IEAAAEAPEAUPxgArticulationSelfConstraints@2@AEBQEAU32@@Z 000000018008e7f0 f i PxgBodySimManager.obj
 0001:0008d910       ?growAndPushBack@?$PxArray@PEAUPxgStaticConstraints@physx@@V?$PxReflectionAllocator@PEAUPxgStaticConstraints@physx@@@2@@physx@@IEAAAEAPEAUPxgStaticConstraints@2@AEBQEAU32@@Z 000000018008e910 f i PxgBodySimManager.obj
 0001:0008da30       ?growAndPushBack@?$PxArray@PEAVDeformableSurface@Dy@physx@@V?$PxReflectionAllocator@PEAVDeformableSurface@Dy@physx@@@3@@physx@@IEAAAEAPEAVDeformableSurface@Dy@2@AEBQEAV342@@Z 000000018008ea30 f i PxgBodySimManager.obj
 0001:0008db50       ?growAndPushBack@?$PxArray@PEAVDeformableVolume@Dy@physx@@V?$PxReflectionAllocator@PEAVDeformableVolume@Dy@physx@@@3@@physx@@IEAAAEAPEAVDeformableVolume@Dy@2@AEBQEAV342@@Z 000000018008eb50 f i PxgBodySimManager.obj
 0001:0008dc70       ?growAndPushBack@?$PxArray@UPxgArticulationIndices@physx@@V?$PxReflectionAllocator@UPxgArticulationIndices@physx@@@2@@physx@@IEAAAEAUPxgArticulationIndices@2@AEBU32@@Z 000000018008ec70 f i PxgBodySimManager.obj
 0001:0008dd90       ?growAndPushBack@?$PxArray@UPxgArticulationUpdate@physx@@V?$PxReflectionAllocator@UPxgArticulationUpdate@physx@@@2@@physx@@IEAAAEAUPxgArticulationUpdate@2@AEBU32@@Z 000000018008ed90 f i PxgBodySimManager.obj
 0001:0008deb0       ?growAndPushBack@?$PxArray@UPxgFEMClothIndices@physx@@V?$PxReflectionAllocator@UPxgFEMClothIndices@physx@@@2@@physx@@IEAAAEAUPxgFEMClothIndices@2@AEBU32@@Z 000000018008eeb0 f i PxgBodySimManager.obj
 0001:0008dfd0       ?growAndPushBack@?$PxArray@UPxgParticleSystemIndices@physx@@V?$PxReflectionAllocator@UPxgParticleSystemIndices@physx@@@2@@physx@@IEAAAEAUPxgParticleSystemIndices@2@AEBU32@@Z 000000018008efd0 f i PxgBodySimManager.obj
 0001:0008e0f0       ?growAndPushBack@?$PxArray@UPxgSoftBodyIndices@physx@@V?$PxReflectionAllocator@UPxgSoftBodyIndices@physx@@@2@@physx@@IEAAAEAUPxgSoftBodyIndices@2@AEBU32@@Z 000000018008f0f0 f i PxgBodySimManager.obj
 0001:0008e210       ?growAndPushBack@?$PxArray@UPxgStaticConstraint@physx@@V?$PxReflectionAllocator@UPxgStaticConstraint@physx@@@2@@physx@@IEAAAEAUPxgStaticConstraint@2@AEBU32@@Z 000000018008f210 f i PxgBodySimManager.obj
 0001:0008e330       ?recreate@?$PxArray@IV?$PxReflectionAllocator@I@physx@@@physx@@IEAAXI@Z 000000018008f330 f i PxgBodySimManager.obj
 0001:0008e420       ?recreate@?$PxArray@PEAUPxgArticulationSelfConstraints@physx@@V?$PxReflectionAllocator@PEAUPxgArticulationSelfConstraints@physx@@@2@@physx@@IEAAXI@Z 000000018008f420 f i PxgBodySimManager.obj
 0001:0008e510       ?recreate@?$PxArray@PEAUPxgStaticConstraints@physx@@V?$PxReflectionAllocator@PEAUPxgStaticConstraints@physx@@@2@@physx@@IEAAXI@Z 000000018008f510 f i PxgBodySimManager.obj
 0001:0008e600       ?recreate@?$PxArray@PEAXV?$PxReflectionAllocator@PEAX@physx@@@physx@@IEAAXI@Z 000000018008f600 f i PxgBodySimManager.obj
 0001:0008e6f0       ?recreate@?$PxArray@UPxgBodySimVelocityUpdate@physx@@VPxVirtualAllocator@2@@physx@@IEAAXI@Z 000000018008f6f0 f i PxgBodySimManager.obj
 0001:0008e6f0       ?recreate@?$PxArray@UPxgConstraintData@physx@@VPxVirtualAllocator@2@@physx@@IEAAXI@Z 000000018008f6f0 f i PxgJointManager.obj
 0001:0008e7b0       ?recreate@?$PxArray@UPxgSelfConstraint@physx@@V?$PxReflectionAllocator@UPxgSelfConstraint@physx@@@2@@physx@@IEAAXI@Z 000000018008f7b0 f i PxgBodySimManager.obj
 0001:0008e8c0       ?recreate@?$PxArray@UPxgStaticConstraint@physx@@V?$PxReflectionAllocator@UPxgStaticConstraint@physx@@@2@@physx@@IEAAXI@Z 000000018008f8c0 f i PxgBodySimManager.obj
 0001:0008e9b0       ?releaseArticulation@PxgBodySimManager@physx@@QEAAXPEAVFeatherstoneArticulation@Dy@2@I@Z 000000018008f9b0 f   PxgBodySimManager.obj
 0001:0008eaa0       ?releaseDeferredArticulationIds@PxgBodySimManager@physx@@QEAAXXZ 000000018008faa0 f   PxgBodySimManager.obj
 0001:0008eb70       ?releaseDeferredFEMClothIds@PxgBodySimManager@physx@@QEAAXXZ 000000018008fb70 f   PxgBodySimManager.obj
 0001:0008eb80       ?releaseDeferredPBDParticleSystemIds@PxgBodySimManager@physx@@QEAAXXZ 000000018008fb80 f   PxgBodySimManager.obj
 0001:0008eb90       ?releaseDeferredSoftBodyIds@PxgBodySimManager@physx@@QEAAXXZ 000000018008fb90 f   PxgBodySimManager.obj
 0001:0008eba0       ?releaseFEMCloth@PxgBodySimManager@physx@@QEAAXPEAVDeformableSurface@Dy@2@@Z 000000018008fba0 f   PxgBodySimManager.obj
 0001:0008eca0       ?releasePBDParticleSystem@PxgBodySimManager@physx@@QEAAXPEAVParticleSystem@Dy@2@@Z 000000018008fca0 f   PxgBodySimManager.obj
 0001:0008ed80       ?releaseSoftBody@PxgBodySimManager@physx@@QEAAXPEAVDeformableVolume@Dy@2@@Z 000000018008fd80 f   PxgBodySimManager.obj
 0001:0008eef0       ?removeSelfArticulationContactManager@PxgBodySimManager@physx@@QEAA_NIVPxNodeIndex@2@0@Z 000000018008fef0 f   PxgBodySimManager.obj
 0001:0008efb0       ?removeSelfArticulationJoint@PxgBodySimManager@physx@@QEAA_NIVPxNodeIndex@2@0@Z 000000018008ffb0 f   PxgBodySimManager.obj
 0001:0008f070       ?removeStaticArticulationContactManager@PxgBodySimManager@physx@@QEAA_NIVPxNodeIndex@2@@Z 0000000180090070 f   PxgBodySimManager.obj
 0001:0008f0b0       ?removeStaticArticulationJoint@PxgBodySimManager@physx@@QEAA_NIVPxNodeIndex@2@@Z 00000001800900b0 f   PxgBodySimManager.obj
 0001:0008f0f0       ?removeStaticRBContactManager@PxgBodySimManager@physx@@QEAA_NIVPxNodeIndex@2@@Z 00000001800900f0 f   PxgBodySimManager.obj
 0001:0008f130       ?removeStaticRBJoint@PxgBodySimManager@physx@@QEAA_NIVPxNodeIndex@2@@Z 0000000180090130 f   PxgBodySimManager.obj
 0001:0008f170       ?reserve@?$BlockArray@UPxgArticulationSelfConstraints@physx@@$0EAA@@Cm@physx@@QEAAXI@Z 0000000180090170 f i PxgBodySimManager.obj
 0001:0008f250       ?reserve@?$BlockArray@UPxgStaticConstraints@physx@@$0EAA@@Cm@physx@@QEAAXI@Z 0000000180090250 f i PxgBodySimManager.obj
 0001:0008f330       ?reserve@PxgBodySimManager@physx@@QEAAXI@Z 0000000180090330 f   PxgBodySimManager.obj
 0001:0008f370       ?reserveInternal@?$PxHashBase@V?$PxPair@$$CBII@physx@@IU?$PxHash@I@2@UGetKey@?$PxHashMapBase@IIU?$PxHash@I@physx@@VPxAllocator@2@@2@VPxAllocator@2@$00@physx@@AEAAXI@Z 0000000180090370 f i PxgBodySimManager.obj
 0001:0008f520       ?reset@PxgBodySimManager@physx@@QEAAXXZ 0000000180090520 f   PxgBodySimManager.obj
 0001:0008f550       ?resize@?$BlockArray@UPxgArticulationSelfConstraints@physx@@$0EAA@@Cm@physx@@QEAAXI@Z 0000000180090550 f i PxgBodySimManager.obj
 0001:0008f630       ?resize@?$BlockArray@UPxgStaticConstraints@physx@@$0EAA@@Cm@physx@@QEAAXI@Z 0000000180090630 f i PxgBodySimManager.obj
 0001:0008f710       ?resize@?$PxArray@IV?$PxReflectionAllocator@I@physx@@@physx@@QEAAXIAEBI@Z 0000000180090710 f i PxgBodySimManager.obj
 0001:0008f7d0       ?resize@?$PxArray@PEAUPxgArticulationSelfConstraints@physx@@V?$PxReflectionAllocator@PEAUPxgArticulationSelfConstraints@physx@@@2@@physx@@QEAAXIAEBQEAUPxgArticulationSelfConstraints@2@@Z 00000001800907d0 f i PxgBodySimManager.obj
 0001:0008f890       ?resize@?$PxArray@PEAUPxgStaticConstraints@physx@@V?$PxReflectionAllocator@PEAUPxgStaticConstraints@physx@@@2@@physx@@QEAAXIAEBQEAUPxgStaticConstraints@2@@Z 0000000180090890 f i PxgBodySimManager.obj
 0001:0008f950       ?resize@?$PxArray@PEAXV?$PxReflectionAllocator@PEAX@physx@@@physx@@QEAAXIAEBQEAX@Z 0000000180090950 f i PxgBodySimManager.obj
 0001:0008fa10       ?resizeUninitialized@?$PxArray@UPxgSelfConstraint@physx@@V?$PxReflectionAllocator@UPxgSelfConstraint@physx@@@2@@physx@@QEAAXI@Z 0000000180090a10 f i PxgBodySimManager.obj
 0001:0008fa50       ?resizeUninitialized@?$PxArray@UPxgStaticConstraint@physx@@V?$PxReflectionAllocator@UPxgStaticConstraint@physx@@@2@@physx@@QEAAXI@Z 0000000180090a50 f i PxgBodySimManager.obj
 0001:0008fa90       ?updateArticulation@PxgBodySimManager@physx@@QEAAXPEAVFeatherstoneArticulation@Dy@2@I@Z 0000000180090a90 f   PxgBodySimManager.obj
 0001:0008fb90       ?updateBodies@PxgBodySimManager@physx@@QEAAXPEAPEAVPxsRigidBody@2@PEAIIPEAUPxsExternalAccelerationProvider@2@@Z 0000000180090b90 f   PxgBodySimManager.obj
 0001:0008fd60       ?updateBody@PxgBodySimManager@physx@@QEAAXAEBVPxNodeIndex@2@@Z 0000000180090d60 f   PxgBodySimManager.obj
 0001:0008fe00       ??0PxgArticulationBuffer@physx@@QEAA@PEAVPxgHeapMemoryAllocatorManager@1@@Z 0000000180090e00 f   PxgSimulationCore.obj
 0001:000902a0       ??0PxgFEMClothBuffer@physx@@QEAA@PEAVPxgHeapMemoryAllocatorManager@1@@Z 00000001800912a0 f   PxgSimulationCore.obj
 0001:000906c0       ??0PxgParticleSystemBuffer@physx@@QEAA@PEAVPxgHeapMemoryAllocatorManager@1@@Z 00000001800916c0 f   PxgSimulationCore.obj
 0001:00090e00       ??0PxgParticleSystemDiffuseBuffer@physx@@QEAA@PEAVPxgHeapMemoryAllocatorManager@1@@Z 0000000180091e00 f   PxgSimulationCore.obj
 0001:00091030       ??0PxgSimulationCore@physx@@QEAA@PEAVPxgCudaKernelWranglerManager@1@PEAVPxCudaContextManager@1@PEAVPxgHeapMemoryAllocatorManager@1@PEAVPxgGpuContext@1@_N@Z 0000000180092030 f   PxgSimulationCore.obj
 0001:00092420       ??0PxgSoftBody@physx@@QEAA@AEBV01@@Z 0000000180093420 f i PxgSimulationCore.obj
 0001:00092760       ??0PxgSoftBodyBuffer@physx@@QEAA@PEAVPxgHeapMemoryAllocatorManager@1@@Z 0000000180093760 f   PxgSimulationCore.obj
 0001:00092c30       ??1PxgArticulationBuffer@physx@@QEAA@XZ 0000000180093c30 f   PxgSimulationCore.obj
 0001:00092fe0       ??1PxgShapeSimManager@physx@@QEAA@XZ 0000000180093fe0 f i PxgSimulationCore.obj
 0001:000930c0       ??1PxgSimulationCore@physx@@QEAA@XZ 00000001800940c0 f   PxgSimulationCore.obj
 0001:00093c90       ??1PxgSoftBodyBuffer@physx@@QEAA@XZ 0000000180094c90 f i PxgSimulationCore.obj
 0001:00093e50       ?constructDescriptor@PxgSimulationCore@physx@@AEAAX_K0II@Z 0000000180094e50 f   PxgSimulationCore.obj
 0001:00094020       ?create@?$PxArray@VPxgSoftBody@physx@@VPxVirtualAllocator@2@@physx@@KAXPEAVPxgSoftBody@2@0AEBV32@@Z 0000000180095020 f i PxgSimulationCore.obj
 0001:000943a0       ?getBoundArrayBuffer@PxgSimulationCore@physx@@QEAAPEAV?$PxgTypedCudaBuffer@VPxBounds3@physx@@@2@XZ 00000001800953a0 f   PxgSimulationCore.obj
 0001:000943c0       ?getD6JointData@PxgSimulationCore@physx@@QEBA_NPEAXPEBIW4Enum@PxD6JointGPUAPIReadType@2@IMIPEAUCUevent_st@@3@Z 00000001800953c0 f   PxgSimulationCore.obj
 0001:000945f0       ?getMaxArticuationAttachments@PxgSimulationCore@physx@@QEBAIXZ 00000001800955f0 f   PxgSimulationCore.obj
 0001:00094610       ?getMaxArticuationFixedTendons@PxgSimulationCore@physx@@QEBAIXZ 0000000180095610 f   PxgSimulationCore.obj
 0001:00094630       ?getMaxArticuationSpatialTendons@PxgSimulationCore@physx@@QEBAIXZ 0000000180095630 f   PxgSimulationCore.obj
 0001:00094650       ?getMaxArticuationTendonJoints@PxgSimulationCore@physx@@QEBAIXZ 0000000180095650 f   PxgSimulationCore.obj
 0001:00094670       ?getMaxArticulationDofs@PxgSimulationCore@physx@@QEBAIXZ 0000000180095670 f   PxgSimulationCore.obj
 0001:00094690       ?getMaxArticulationLinks@PxgSimulationCore@physx@@QEBAIXZ 0000000180095690 f   PxgSimulationCore.obj
 0001:000946b0       ?getMaxArticulationMimicJoints@PxgSimulationCore@physx@@QEBAIXZ 00000001800956b0 f   PxgSimulationCore.obj
 0001:000946d0       ?getRigidDynamicData@PxgSimulationCore@physx@@QEBA_NPEAXPEBIW4Enum@PxRigidDynamicGPUAPIReadType@2@IMPEAUCUevent_st@@3@Z 00000001800956d0 f   PxgSimulationCore.obj
 0001:00094ae0       ?gpuMemDmaBack@PxgSimulationCore@physx@@QEAAXAEAV?$PxArray@IVPxVirtualAllocator@physx@@@2@000PEAV?$PxArray@UPxsCachedTransform@physx@@VPxVirtualAllocator@2@@2@IAEAVBoundsArray@Bp@2@AEAV?$PxBitMapBase@VPxVirtualAllocator@physx@@@2@II_N@Z 0000000180095ae0 f   PxgSimulationCore.obj
 0001:00094f60       ?gpuMemDmaUp@PxgSimulationCore@physx@@QEAAXIIAEAV?$PxBitMapBase@VPxVirtualAllocator@physx@@@2@_N@Z 0000000180095f60 f   PxgSimulationCore.obj
 0001:00095500       ?gpuMemDmaUpBodySim@PxgSimulationCore@physx@@QEAAXAEAV?$PxArray@UPxgBodySimVelocityUpdate@physx@@VPxVirtualAllocator@2@@2@AEAV?$PxArray@UPxgBodySim@physx@@VPxVirtualAllocator@2@@2@AEAV?$PxArray@UPxgArticulationLink@physx@@VPxVirtualAllocator@2@@2@AEAV?$PxArray@MVPxVirtualAllocator@physx@@@2@AEAV?$PxArray@UUnAlignedSpatialVector@Cm@physx@@VPxVirtualAllocator@3@@2@AEAV?$PxArray@UPxgArticulationLinkProp@physx@@VPxVirtualAllocator@2@@2@AEAV?$PxArray@IVPxVirtualAllocator@physx@@@2@AEAV?$PxArray@_KVPxVirtualAllocator@physx@@@2@AEAV?$PxArray@V?$PxTransformT@M@physx@@VPxVirtualAllocator@2@@2@8AEAV?$PxArray@UArticulationJointCore@Dy@physx@@VPxVirtualAllocator@3@@2@AEAV?$PxArray@VArticulationJointCoreData@Dy@physx@@VPxVirtualAllocator@3@@2@AEAV?$PxArray@UPxgArticulationSimUpdate@physx@@VPxVirtualAllocator@2@@2@AEAV?$PxArray@VPxgArticulation@physx@@VPxVirtualAllocator@2@@2@AEAV?$PxArray@VPxGpuSpatialTendonData@physx@@VPxVirtualAllocator@2@@2@AEAV?$PxArray@VPxgArticulationTendon@physx@@VPxVirtualAllocator@2@@2@AEAV?$PxArray@VPxgArticulationTendonElementFixedData@physx@@VPxVirtualAllocator@2@@2@AEAV?$PxArray@VPxGpuTendonAttachmentData@physx@@VPxVirtualAllocator@2@@2@6AEAV?$PxArray@VPxGpuFixedTendonData@physx@@VPxVirtualAllocator@2@@2@AEAV?$PxArray@VPxgArticulationTendon@physx@@VPxVirtualAllocator@2@@2@AEAV?$PxArray@VPxgArticulationTendonElementFixedData@physx@@VPxVirtualAllocator@2@@2@AEAV?$PxArray@VPxGpuTendonJointCoefficientData@physx@@VPxVirtualAllocator@2@@2@6AEAV?$PxArray@UArticulationMimicJointCore@Dy@physx@@VPxVirtualAllocator@3@@2@6IIIIIIIII_N@Z 0000000180096500 f   PxgSimulationCore.obj
 0001:00097460       ?gpuMemDmaUpFEMCloths@PxgSimulationCore@physx@@QEAAXAEAV?$PxArray@VPxgFEMCloth@physx@@VPxVirtualAllocator@2@@2@PEAIAEAV?$PxArray@UPxgFEMClothData@physx@@V?$PxReflectionAllocator@UPxgFEMClothData@physx@@@2@@2@AEAV?$PxArray@IV?$PxReflectionAllocator@I@physx@@@2@302AEAV?$PxArray@IVPxVirtualAllocator@physx@@@2@3AEAVPxgBodySimManager@2@AEAV?$PxArray@VPxgFEMRigidAttachment@physx@@VPxVirtualAllocator@2@@2@AEAV?$PxArray@VPxgRigidFilterPair@physx@@VPxVirtualAllocator@2@@2@_N48AEAV?$PxArray@VPxgFEMFEMAttachment@physx@@VPxVirtualAllocator@2@@2@AEAV?$PxArray@VPxgNonRigidFilterPair@physx@@VPxVirtualAllocator@2@@2@848@Z 0000000180098460 f   PxgSimulationCore.obj
 0001:00098e90       ?gpuMemDmaUpParticleSystem@PxgSimulationCore@physx@@QEAAXAEAVPxgBodySimManager@2@@Z 0000000180099e90 f   PxgSimulationCore.obj
 0001:00098f10       ?gpuMemDmaUpSoftBodies@PxgSimulationCore@physx@@QEAAXAEAV?$PxArray@VPxgSoftBody@physx@@VPxVirtualAllocator@2@@2@PEAIAEAV?$PxArray@UPxgSoftBodyData@physx@@V?$PxReflectionAllocator@UPxgSoftBodyData@physx@@@2@@2@AEAV?$PxArray@IV?$PxReflectionAllocator@I@physx@@@2@302AEAV?$PxArray@IVPxVirtualAllocator@physx@@@2@3AEAVPxgBodySimManager@2@AEAUSoftBodyAttachmentAndFilterData@2@@Z 0000000180099f10 f   PxgSimulationCore.obj
 0001:0009ae10       ?growAndPushBack@?$PxArray@PEAVPxgCudaBuffer@physx@@V?$PxReflectionAllocator@PEAVPxgCudaBuffer@physx@@@2@@physx@@IEAAAEAPEAVPxgCudaBuffer@2@AEBQEAV32@@Z 000000018009be10 f i PxgSimulationCore.obj
 0001:0009af30       ?growAndPushBack@?$PxArray@VPxgFEMCloth@physx@@V?$PxReflectionAllocator@VPxgFEMCloth@physx@@@2@@physx@@IEAAAEAVPxgFEMCloth@2@AEBV32@@Z 000000018009bf30 f i PxgSimulationCore.obj
 0001:0009b130       ?growAndPushBack@?$PxArray@VPxgSoftBody@physx@@V?$PxReflectionAllocator@VPxgSoftBody@physx@@@2@@physx@@IEAAAEAVPxgSoftBody@2@AEBV32@@Z 000000018009c130 f i PxgSimulationCore.obj
 0001:0009b270       ?mergeChangedAABBMgHandle@PxgSimulationCore@physx@@QEAAXXZ 000000018009c270 f   PxgSimulationCore.obj
 0001:0009b340       ?recreate@?$PxArray@PEAVPxgArticulationBuffer@physx@@V?$PxReflectionAllocator@PEAVPxgArticulationBuffer@physx@@@2@@physx@@IEAAXI@Z 000000018009c340 f i PxgSimulationCore.obj
 0001:0009b430       ?recreate@?$PxArray@PEAVPxgCudaBuffer@physx@@V?$PxReflectionAllocator@PEAVPxgCudaBuffer@physx@@@2@@physx@@IEAAXI@Z 000000018009c430 f i PxgSimulationCore.obj
 0001:0009b520       ?recreate@?$PxArray@PEAVPxgFEMClothBuffer@physx@@V?$PxReflectionAllocator@PEAVPxgFEMClothBuffer@physx@@@2@@physx@@IEAAXI@Z 000000018009c520 f i PxgSimulationCore.obj
 0001:0009b610       ?recreate@?$PxArray@PEAVPxgSoftBodyBuffer@physx@@V?$PxReflectionAllocator@PEAVPxgSoftBodyBuffer@physx@@@2@@physx@@IEAAXI@Z 000000018009c610 f i PxgSimulationCore.obj
 0001:0009b700       ?recreate@?$PxArray@UPxgFEMClothData@physx@@V?$PxReflectionAllocator@UPxgFEMClothData@physx@@@2@@physx@@IEAAXI@Z 000000018009c700 f i PxgSimulationCore.obj
 0001:0009b810       ?recreate@?$PxArray@UPxgSoftBodyData@physx@@V?$PxReflectionAllocator@UPxgSoftBodyData@physx@@@2@@physx@@IEAAXI@Z 000000018009c810 f i PxgSimulationCore.obj
 0001:0009b900       ?recreate@?$PxArray@VPxgFEMCloth@physx@@VPxVirtualAllocator@2@@physx@@IEAAXI@Z 000000018009c900 f i PxgSimulationCore.obj
 0001:0009ba10       ?recreate@?$PxArray@VPxgSoftBody@physx@@VPxVirtualAllocator@2@@physx@@IEAAXI@Z 000000018009ca10 f i PxgSimulationCore.obj
 0001:0009bae0       ?resize@?$PxArray@MVPxVirtualAllocator@physx@@@physx@@QEAAXIAEBM@Z 000000018009cae0 f i PxgSimulationCore.obj
 0001:0009bbf0       ?resize@?$PxArray@PEAVPxgArticulationBuffer@physx@@V?$PxReflectionAllocator@PEAVPxgArticulationBuffer@physx@@@2@@physx@@QEAAXIAEBQEAVPxgArticulationBuffer@2@@Z 000000018009cbf0 f i PxgSimulationCore.obj
 0001:0009bcb0       ?resize@?$PxArray@PEAVPxgFEMClothBuffer@physx@@V?$PxReflectionAllocator@PEAVPxgFEMClothBuffer@physx@@@2@@physx@@QEAAXIAEBQEAVPxgFEMClothBuffer@2@@Z 000000018009ccb0 f i PxgSimulationCore.obj
 0001:0009bd70       ?resize@?$PxArray@PEAVPxgSoftBodyBuffer@physx@@V?$PxReflectionAllocator@PEAVPxgSoftBodyBuffer@physx@@@2@@physx@@QEAAXIAEBQEAVPxgSoftBodyBuffer@2@@Z 000000018009cd70 f i PxgSimulationCore.obj
 0001:0009be30       ?resize@?$PxArray@UPxgFEMClothData@physx@@V?$PxReflectionAllocator@UPxgFEMClothData@physx@@@2@@physx@@QEAAXIAEBUPxgFEMClothData@2@@Z 000000018009ce30 f i PxgSimulationCore.obj
 0001:0009beb0       ?resize@?$PxArray@UPxgSoftBodyData@physx@@V?$PxReflectionAllocator@UPxgSoftBodyData@physx@@@2@@physx@@QEAAXIAEBUPxgSoftBodyData@2@@Z 000000018009ceb0 f i PxgSimulationCore.obj
 0001:0009bf30       ?resize@?$PxArray@VPxgFEMCloth@physx@@VPxVirtualAllocator@2@@physx@@QEAAXIAEBVPxgFEMCloth@2@@Z 000000018009cf30 f i PxgSimulationCore.obj
 0001:0009c010       ?resize@?$PxArray@VPxgSoftBody@physx@@VPxVirtualAllocator@2@@physx@@QEAAXIAEBVPxgSoftBody@2@@Z 000000018009d010 f i PxgSimulationCore.obj
 0001:0009c070       ?setBounds@PxgSimulationCore@physx@@QEAAXPEAVBoundsArray@Bp@2@@Z 000000018009d070 f   PxgSimulationCore.obj
 0001:0009c080       ?setFEMClothWakeCounter@PxgSimulationCore@physx@@QEAAXIMI@Z 000000018009d080 f   PxgSimulationCore.obj
 0001:0009c0e0       ?setRigidDynamicData@PxgSimulationCore@physx@@QEAA_NPEBXPEBIW4Enum@PxRigidDynamicGPUAPIWriteType@2@IPEAUCUevent_st@@3@Z 000000018009d0e0 f   PxgSimulationCore.obj
 0001:0009c4c0       ?setSoftBodyWakeCounter@PxgSimulationCore@physx@@QEAAXIMI@Z 000000018009d4c0 f   PxgSimulationCore.obj
 0001:0009c520       ?syncDmaback@PxgSimulationCore@physx@@QEAAXAEAI0_N@Z 000000018009d520 f   PxgSimulationCore.obj
 0001:0009c5d0       ?synchronizeStreams@physx@@YAXPEAVPxCudaContext@1@AEAPEAUCUstream_st@@1AEAPEAUCUevent_st@@@Z 000000018009d5d0 f i PxgSimulationCore.obj
 0001:0009c6a0       ?update@PxgSimulationCore@physx@@QEAAX_N@Z 000000018009d6a0 f   PxgSimulationCore.obj
 0001:0009c9e0       ?updateArticulations@PxgSimulationCore@physx@@QEAAXIPEAUPxgArticulationSimUpdate@2@IPEAM@Z 000000018009d9e0 f   PxgSimulationCore.obj
 0001:0009cc70       ?updateBodies@PxgSimulationCore@physx@@QEAAXII@Z 000000018009dc70 f   PxgSimulationCore.obj
 0001:0009ce40       ?updateJointsAndSyncData@PxgSimulationCore@physx@@QEAAXAEBV?$PxArray@UPxgD6JointData@physx@@VPxVirtualAllocator@2@@2@AEBV?$PxArray@IVPxVirtualAllocator@physx@@@2@01AEBV?$PxArray@UPxgConstraintPrePrep@physx@@VPxVirtualAllocator@2@@2@2AEBV?$PxArray@VPxgConstraintIdMapEntry@physx@@VPxVirtualAllocator@2@@2@_NII@Z 000000018009de40 f   PxgSimulationCore.obj
 0001:0009d430       ??0PxgD6JointData@physx@@QEAA@AEBU01@@Z 000000018009e430 f i PxgJointManager.obj
 0001:0009d750       ??0PxgJointManager@physx@@QEAA@AEBVPxVirtualAllocator@1@_N@Z 000000018009e750 f   PxgJointManager.obj
 0001:0009da20       ??1PxgJointManager@physx@@QEAA@XZ 000000018009ea20 f   PxgJointManager.obj
 0001:0009de30       ??4PxgD6JointData@physx@@QEAAAEAU01@AEBU01@@Z 000000018009ee30 f i PxgJointManager.obj
 0001:0009e160       ?addJoint@PxgJointManager@physx@@QEAAXIPEBUConstraint@Dy@2@AEAVIslandSim@IG@2@AEAV?$PxArray@IV?$PxReflectionAllocator@I@physx@@@2@AEAV?$PxArray@UPxgSolverConstraintManagerConstants@physx@@VPxVirtualAllocator@2@@2@I@Z 000000018009f160 f   PxgJointManager.obj
 0001:0009e8e0       ?copy@?$PxArray@UPx1DConstraint@physx@@VPxVirtualAllocator@2@@physx@@KAXPEAUPx1DConstraint@2@0PEBU32@@Z 000000018009f8e0 f i PxgJointManager.obj
 0001:0009ec70       ?create@?$PxArray@UPxgD6JointData@physx@@VPxVirtualAllocator@2@@physx@@KAXPEAUPxgD6JointData@2@0AEBU32@@Z 000000018009fc70 f i PxgJointManager.obj
 0001:0009efb0       ?erase@?$PxHashMapBase@IIU?$PxHash@I@physx@@VPxAllocator@2@@physx@@QEAA_NAEBI@Z 000000018009ffb0 f i PxgJointManager.obj
 0001:0009f030       ?eraseInternal@?$PxHashBase@V?$PxPair@$$CBII@physx@@IU?$PxHash@I@2@UGetKey@?$PxHashMapBase@IIU?$PxHash@I@physx@@VPxAllocator@2@@2@VPxAllocator@2@$00@physx@@AEAA_NPEAI@Z 00000001800a0030 f i PxgJointManager.obj
 0001:0009f0f0       ?getCpuNbArtiConstraints@PxgJointManager@physx@@QEAAIXZ 00000001800a00f0 f   PxgJointManager.obj
 0001:0009f100       ?getCpuNbRigidConstraints@PxgJointManager@physx@@QEAAIXZ 00000001800a0100 f   PxgJointManager.obj
 0001:0009f110       ?getGpuNbArtiConstraints@PxgJointManager@physx@@QEAAIXZ 00000001800a0110 f   PxgJointManager.obj
 0001:0009f120       ?getGpuNbRigidConstraints@PxgJointManager@physx@@QEAAIXZ 00000001800a0120 f   PxgJointManager.obj
 0001:0009f130       ?growAndPushBack@?$PxArray@PEBUConstraint@Dy@physx@@V?$PxReflectionAllocator@PEBUConstraint@Dy@physx@@@3@@physx@@IEAAAEAPEBUConstraint@Dy@2@AEBQEBU342@@Z 00000001800a0130 f i PxgJointManager.obj
 0001:0009f250       ?recreate@?$PxArray@UPx1DConstraint@physx@@VPxVirtualAllocator@2@@physx@@IEAAXI@Z 00000001800a0250 f i PxgJointManager.obj
 0001:0009f2f0       ?recreate@?$PxArray@UPxgConstraintPrePrep@physx@@VPxVirtualAllocator@2@@physx@@IEAAXI@Z 00000001800a02f0 f i PxgJointManager.obj
 0001:0009f2f0       ?recreate@?$PxArray@UArticulationMimicJointCore@Dy@physx@@VPxVirtualAllocator@3@@physx@@IEAAXI@Z 00000001800a02f0 f i PxgSimulationController.obj
 0001:0009f3a0       ?recreate@?$PxArray@UPxgD6JointData@physx@@VPxVirtualAllocator@2@@physx@@IEAAXI@Z 00000001800a03a0 f i PxgJointManager.obj
 0001:0009f470       ?registerJoint@PxgJointManager@physx@@QEAAXAEBUConstraint@Dy@2@@Z 00000001800a0470 f   PxgJointManager.obj
 0001:0009f4a0       ?removeJoint@PxgJointManager@physx@@QEAAXIAEAV?$PxArray@IV?$PxReflectionAllocator@I@physx@@@2@AEBVCPUExternalData@IG@2@AEBVGPUExternalData@52@@Z 00000001800a04a0 f   PxgJointManager.obj
 0001:0009fc50       ?reserveMemory@PxgJointManager@physx@@QEAAXI@Z 00000001800a0c50 f   PxgJointManager.obj
 0001:0009fd20       ?reserveMemoryPreAddRemove@PxgJointManager@physx@@QEAAXXZ 00000001800a0d20 f   PxgJointManager.obj
 0001:0009fd70       ?reset@PxgJointManager@physx@@QEAAXXZ 00000001800a0d70 f   PxgJointManager.obj
 0001:0009fdc0       ?resize@?$PxArray@UPxgConstraintPrePrep@physx@@VPxVirtualAllocator@2@@physx@@QEAAXIAEBUPxgConstraintPrePrep@2@@Z 00000001800a0dc0 f i PxgJointManager.obj
 0001:0009fe40       ?resize@?$PxArray@UPxgD6JointData@physx@@VPxVirtualAllocator@2@@physx@@QEAAXIAEBUPxgD6JointData@2@@Z 00000001800a0e40 f i PxgJointManager.obj
 0001:0009fea0       ?resize@?$PxArray@VPxgConstraintIdMapEntry@physx@@VPxVirtualAllocator@2@@physx@@QEAAXIAEBVPxgConstraintIdMapEntry@2@@Z 00000001800a0ea0 f i PxgJointManager.obj
 0001:0009ff60       ?update@PxgJointManager@physx@@QEAAXAEAV?$PxArray@IV?$PxReflectionAllocator@I@physx@@@2@@Z 00000001800a0f60 f   PxgJointManager.obj
 0001:000a0010       ?updateJoint@PxgJointManager@physx@@QEAAXIPEBUConstraint@Dy@2@@Z 00000001800a1010 f   PxgJointManager.obj
 0001:000a0260       ??0PxgShapeSimManager@physx@@QEAA@PEAVPxgHeapMemoryAllocatorManager@1@@Z 00000001800a1260 f   PxgShapeSimManager.obj
 0001:000a02e0       ??_EPxgPostUpdateParticleAndSoftBodyTask@physx@@UEAAPEAXI@Z 00000001800a12e0 f i PxgSimulationController.obj
 0001:000a02e0       ??_GPxgCopyToPBDParticleSystemSimTask@physx@@UEAAPEAXI@Z 00000001800a12e0 f i PxgSimulationController.obj
 0001:000a02e0       ??_EPxgGpuTask@physx@@UEAAPEAXI@Z 00000001800a12e0 f i PxgContext.obj
 0001:000a02e0       ??_GPxgCopyToBodySimTask@physx@@UEAAPEAXI@Z 00000001800a12e0 f i PxgSimulationController.obj
 0001:000a02e0       ??_EPxgCopyToPBDParticleSystemSimTask@physx@@UEAAPEAXI@Z 00000001800a12e0 f i PxgSimulationController.obj
 0001:000a02e0       ??_GPxgPostUpdateParticleAndSoftBodyTask@physx@@UEAAPEAXI@Z 00000001800a12e0 f i PxgSimulationController.obj
 0001:000a02e0       ??_GPxgGpuTask@physx@@UEAAPEAXI@Z 00000001800a12e0 f i PxgContext.obj
 0001:000a02e0       ??_GPxgCopyToShapeSimTask@physx@@UEAAPEAXI@Z 00000001800a12e0 f i PxgShapeSimManager.obj
 0001:000a02e0       ??_EPxgCopyToShapeSimTask@physx@@UEAAPEAXI@Z 00000001800a12e0 f i PxgShapeSimManager.obj
 0001:000a02e0       ??_EPxgCopyToBodySimTask@physx@@UEAAPEAXI@Z 00000001800a12e0 f i PxgSimulationController.obj
 0001:000a0320       ?addPxgShape@PxgShapeSimManager@physx@@QEAAXPEAVShapeSimBase@Sc@2@PEBUPxsShapeCore@2@VPxNodeIndex@2@I@Z 00000001800a1320 f   PxgShapeSimManager.obj
 0001:000a0430       ?copy@?$PxArray@UPxgNewShapeSim@physx@@VPxVirtualAllocator@2@@physx@@KAXPEAUPxgNewShapeSim@2@0PEBU32@@Z 00000001800a1430 f i PxgShapeSimManager.obj
 0001:000a0790       ?copyToGpuShapeSim@PxgShapeSimManager@physx@@QEAAXPEAVPxgGpuNarrowphaseCore@2@PEAVPxBaseTask@2@AEAVFlushPool@Cm@2@@Z 00000001800a1790 f   PxgShapeSimManager.obj
 0001:000a09a0       ?getName@PxgCopyToShapeSimTask@physx@@UEBAPEBDXZ 00000001800a19a0 f i PxgShapeSimManager.obj
 0001:000a09b0       ?gpuMemDmaUpShapeSim@PxgShapeSimManager@physx@@QEAAXPEAVPxCudaContext@2@PEAUCUstream_st@@PEAVKernelWrangler@2@@Z 00000001800a19b0 f   PxgShapeSimManager.obj
 0001:000a0bd0       ?recreate@?$PxArray@PEAVShapeSimBase@Sc@physx@@V?$PxReflectionAllocator@PEAVShapeSimBase@Sc@physx@@@3@@physx@@IEAAXI@Z 00000001800a1bd0 f i PxgShapeSimManager.obj
 0001:000a0cc0       ?recreate@?$PxArray@UPxgNewShapeSim@physx@@VPxVirtualAllocator@2@@physx@@IEAAXI@Z 00000001800a1cc0 f i PxgShapeSimManager.obj
 0001:000a0d60       ?recreate@?$PxArray@UPxgShapeSimData@physx@@V?$PxReflectionAllocator@UPxgShapeSimData@physx@@@2@@physx@@IEAAXI@Z 00000001800a1d60 f i PxgShapeSimManager.obj
 0001:000a0e70       ?removePxgShape@PxgShapeSimManager@physx@@QEAAXI@Z 00000001800a1e70 f   PxgShapeSimManager.obj
 0001:000a0ef0       ?resize@?$PxArray@PEAVShapeSimBase@Sc@physx@@V?$PxReflectionAllocator@PEAVShapeSimBase@Sc@physx@@@3@@physx@@QEAAXIAEBQEAVShapeSimBase@Sc@2@@Z 00000001800a1ef0 f i PxgShapeSimManager.obj
 0001:000a0fb0       ?resize@?$PxArray@UPxgShapeSimData@physx@@V?$PxReflectionAllocator@UPxgShapeSimData@physx@@@2@@physx@@QEAAXIAEBUPxgShapeSimData@2@@Z 00000001800a1fb0 f i PxgShapeSimManager.obj
 0001:000a1030       ?runInternal@PxgCopyToShapeSimTask@physx@@UEAAXXZ 00000001800a2030 f i PxgShapeSimManager.obj
 0001:000a11b0       ?setPxgShapeBodyNodeIndex@PxgShapeSimManager@physx@@QEAAXVPxNodeIndex@2@I@Z 00000001800a21b0 f   PxgShapeSimManager.obj
 0001:000a11c0       ??$PxSort@VPxgNonRigidFilterPair@physx@@USortPxgNonRigidFilterPair@2@V?$PxReflectionAllocator@VPxgNonRigidFilterPair@physx@@@2@@physx@@YAXPEAVPxgNonRigidFilterPair@0@IAEBUSortPxgNonRigidFilterPair@0@AEBV?$PxReflectionAllocator@VPxgNonRigidFilterPair@physx@@@0@I@Z 00000001800a21c0 f i PxgSimulationController.obj
 0001:000a1710       ??$addFilterPairInternal@VPxgNonRigidFilterPair@physx@@V?$PxArray@VPxgNonRigidFilterPair@physx@@VPxVirtualAllocator@2@@2@@physx@@YAXAEAVPxgNonRigidFilterPair@0@AEAV?$PxArray@VPxgNonRigidFilterPair@physx@@VPxVirtualAllocator@2@@0@AEAV?$PxArray@IV?$PxReflectionAllocator@I@physx@@@0@AEA_N@Z 00000001800a2710 f i PxgSimulationController.obj
 0001:000a1900       ??$addFilterPairInternal@VPxgRigidFilterPair@physx@@V?$PxArray@VPxgRigidFilterPair@physx@@VPxVirtualAllocator@2@@2@@physx@@YAXAEAVPxgRigidFilterPair@0@AEAV?$PxArray@VPxgRigidFilterPair@physx@@VPxVirtualAllocator@2@@0@AEAV?$PxArray@IV?$PxReflectionAllocator@I@physx@@@0@AEA_N@Z 00000001800a2900 f i PxgSimulationController.obj
 0001:000a1b00       ??$releaseFilterPairInternal@VPxgNonRigidFilterPair@physx@@V?$PxArray@VPxgNonRigidFilterPair@physx@@VPxVirtualAllocator@2@@2@@physx@@YAXAEAVPxgNonRigidFilterPair@0@AEAV?$PxArray@VPxgNonRigidFilterPair@physx@@VPxVirtualAllocator@2@@0@AEAV?$PxArray@IV?$PxReflectionAllocator@I@physx@@@0@AEA_NI@Z 00000001800a2b00 f i PxgSimulationController.obj
 0001:000a1c80       ??$releaseFilterPairInternal@VPxgRigidFilterPair@physx@@V?$PxArray@VPxgRigidFilterPair@physx@@VPxVirtualAllocator@2@@2@@physx@@YAXAEAVPxgRigidFilterPair@0@AEAV?$PxArray@VPxgRigidFilterPair@physx@@VPxVirtualAllocator@2@@0@AEAV?$PxArray@IV?$PxReflectionAllocator@I@physx@@@0@AEA_NI@Z 00000001800a2c80 f i PxgSimulationController.obj
 0001:000a1e00       ??0?$AttachmentManager@VPxgFEMRigidAttachment@physx@@@physx@@QEAA@PEAVPxgHeapMemoryAllocatorManager@1@@Z 00000001800a2e00 f i PxgSimulationController.obj
 0001:000a1e00       ??0?$AttachmentManager@VPxgFEMFEMAttachment@physx@@@physx@@QEAA@PEAVPxgHeapMemoryAllocatorManager@1@@Z 00000001800a2e00 f i PxgSimulationController.obj
 0001:000a1ee0       ??0PxgBodySimManager@physx@@QEAA@AEBVPxVirtualAllocator@1@@Z 00000001800a2ee0 f i PxgSimulationController.obj
 0001:000a2180       ??0PxgParticleSystem@physx@@QEAA@AEBV01@@Z 00000001800a3180 f i PxgSimulationController.obj
 0001:000a25d0       ??0PxgSimulationController@physx@@QEAA@PEAVPxsKernelWranglerManager@1@PEAVPxCudaContextManager@1@PEAVPxgGpuContext@1@PEAVPxgNphaseImplementationContext@1@PEAVBroadPhase@Bp@1@_NPEAVPxsSimulationControllerCallback@1@PEAVPxgHeapMemoryAllocatorManager@1@IIII5@Z 00000001800a35d0 f   PxgSimulationController.obj
 0001:000a3060       ??1?$AttachmentManager@VPxgFEMRigidAttachment@physx@@@physx@@QEAA@XZ 00000001800a4060 f i PxgSimulationController.obj
 0001:000a3060       ??1?$AttachmentManager@VPxgFEMFEMAttachment@physx@@@physx@@QEAA@XZ 00000001800a4060 f i PxgSimulationController.obj
 0001:000a3130       ??1PxgSimulationController@physx@@UEAA@XZ 00000001800a4130 f   PxgSimulationController.obj
 0001:000a3d50       ??_GPxgCopyToArticulationSimTask@physx@@UEAAPEAXI@Z 00000001800a4d50 f i PxgSimulationController.obj
 0001:000a3d50       ??_EPxgCopyToArticulationSimTask@physx@@UEAAPEAXI@Z 00000001800a4d50 f i PxgSimulationController.obj
 0001:000a3d90       ??_GPxgSimulationController@physx@@UEAAPEAXI@Z 00000001800a4d90 f i PxgSimulationController.obj
 0001:000a3d90       ??_EPxgSimulationController@physx@@UEAAPEAXI@Z 00000001800a4d90 f i PxgSimulationController.obj
 0001:000a3e00       ??_EPxgUpdateArticulationSimTask@physx@@UEAAPEAXI@Z 00000001800a4e00 f i PxgSimulationController.obj
 0001:000a3e00       ??_GPxgUpdateArticulationSimTask@physx@@UEAAPEAXI@Z 00000001800a4e00 f i PxgSimulationController.obj
 0001:000a3e40       ??_GPxsSimulationController@physx@@UEAAPEAXI@Z 00000001800a4e40 f i PxgSimulationController.obj
 0001:000a3e40       ??_EPxsSimulationController@physx@@UEAAPEAXI@Z 00000001800a4e40 f i PxgSimulationController.obj
 0001:000a3e90       ?activateAttachment@?$AttachmentManager@VPxgFEMFEMAttachment@physx@@@physx@@QEAAXI@Z 00000001800a4e90 f i PxgSimulationController.obj
 0001:000a3e90       ?activateAttachment@?$AttachmentManager@VPxgFEMRigidAttachment@physx@@@physx@@QEAAXI@Z 00000001800a4e90 f i PxgSimulationController.obj
 0001:000a3f40       ?activateCloth@PxgSimulationController@physx@@UEAAXPEAVDeformableSurface@Dy@2@@Z 00000001800a4f40 f   PxgSimulationController.obj
 0001:000a4170       ?activateSoftbody@PxgSimulationController@physx@@UEAAXPEAVDeformableVolume@Dy@2@@Z 00000001800a5170 f   PxgSimulationController.obj
 0001:000a4530       ?activateSoftbodySelfCollision@PxgSimulationController@physx@@UEAAXPEAVDeformableVolume@Dy@2@@Z 00000001800a5530 f   PxgSimulationController.obj
 0001:000a4540       ?addArticulation@PxgSimulationController@physx@@UEAAXPEAVFeatherstoneArticulation@Dy@2@AEBVPxNodeIndex@2@@Z 00000001800a5540 f   PxgSimulationController.obj
 0001:000a4590       ?addAttachment@?$AttachmentManager@VPxgFEMFEMAttachment@physx@@@physx@@QEAAXAEBVPxgFEMFEMAttachment@2@I@Z 00000001800a5590 f i PxgSimulationController.obj
 0001:000a4660       ?addClothAttachment@PxgSimulationController@physx@@UEAAIPEAVDeformableVolume@Dy@2@PEAVDeformableSurface@42@IAEBV?$PxVec4T@M@2@I2PEAUPxConeLimitedConstraint@2@M_N_N@Z 00000001800a5660 f   PxgSimulationController.obj
 0001:000a4910       ?addClothFilter@PxgSimulationController@physx@@UEAAXPEAVDeformableSurface@Dy@2@0II@Z 00000001800a5910 f   PxgSimulationController.obj
 0001:000a4bc0       ?addClothFilter@PxgSimulationController@physx@@UEAAXPEAVDeformableVolume@Dy@2@PEAVDeformableSurface@42@II@Z 00000001800a5bc0 f   PxgSimulationController.obj
 0001:000a4d70       ?addDynamic@PxgSimulationController@physx@@UEAAXPEAVPxsRigidBody@2@AEBVPxNodeIndex@2@@Z 00000001800a5d70 f   PxgSimulationController.obj
 0001:000a4d80       ?addDynamics@PxgSimulationController@physx@@UEAAXPEAPEAVPxsRigidBody@2@PEBII@Z 00000001800a5d80 f   PxgSimulationController.obj
 0001:000a4df0       ?addFEMCloth@PxgSimulationController@physx@@UEAAXPEAVDeformableSurface@Dy@2@AEBVPxNodeIndex@2@@Z 00000001800a5df0 f   PxgSimulationController.obj
 0001:000a4e30       ?addJoint@PxgSimulationController@physx@@UEAAXAEBUConstraint@Dy@2@@Z 00000001800a5e30 f   PxgSimulationController.obj
 0001:000a4e40       ?addParticleAttachment@PxgSimulationController@physx@@UEAAIPEAVDeformableVolume@Dy@2@PEBVParticleSystem@42@IIIAEBV?$PxVec4T@M@2@_N@Z 00000001800a5e40 f   PxgSimulationController.obj
 0001:000a4fa0       ?addParticleFilter@PxgSimulationController@physx@@UEAAXPEAVDeformableVolume@Dy@2@PEAVParticleSystem@42@III@Z 00000001800a5fa0 f   PxgSimulationController.obj
 0001:000a5020       ?addParticleSystem@PxgSimulationController@physx@@UEAAXPEAVParticleSystem@Dy@2@AEBVPxNodeIndex@2@@Z 00000001800a6020 f   PxgSimulationController.obj
 0001:000a50d0       ?addPxgShape@PxgSimulationController@physx@@UEAAXPEAVShapeSimBase@Sc@2@PEBUPxsShapeCore@2@VPxNodeIndex@2@I@Z 00000001800a60d0 f   PxgSimulationController.obj
 0001:000a50f0       ?addRigidAttachment@PxgSimulationController@physx@@UEAAIPEAVDeformableSurface@Dy@2@AEBVPxNodeIndex@2@PEAVPxsRigidBody@2@1IAEBV?$PxVec3T@M@2@PEAUPxConeLimitedConstraint@2@_N@Z 00000001800a60f0 f   PxgSimulationController.obj
 0001:000a51c0       ?addRigidAttachment@PxgSimulationController@physx@@UEAAIPEAVDeformableVolume@Dy@2@AEBVPxNodeIndex@2@PEAVPxsRigidBody@2@1IAEBV?$PxVec3T@M@2@PEAUPxConeLimitedConstraint@2@_N_N@Z 00000001800a61c0 f   PxgSimulationController.obj
 0001:000a52d0       ?addRigidAttachmentInternal@PxgSimulationController@physx@@QEAAIII_NAEBV?$PxVec4T@M@2@PEAVPxsRigidBody@2@AEBVPxNodeIndex@2@AEBV?$PxVec3T@M@2@PEAUPxConeLimitedConstraint@2@AEAV?$AttachmentManager@VPxgFEMRigidAttachment@physx@@@2@_N@Z 00000001800a62d0 f   PxgSimulationController.obj
 0001:000a5600       ?addRigidFilter@PxgSimulationController@physx@@UEAAXPEAVDeformableVolume@Dy@2@AEBVPxNodeIndex@2@I@Z 00000001800a6600 f   PxgSimulationController.obj
 0001:000a5890       ?addSoftBody@PxgSimulationController@physx@@UEAAXPEAVDeformableVolume@Dy@2@AEBVPxNodeIndex@2@@Z 00000001800a6890 f   PxgSimulationController.obj
 0001:000a58d0       ?addSoftBodyAttachment@PxgSimulationController@physx@@UEAAIPEAVDeformableVolume@Dy@2@0IIAEBV?$PxVec4T@M@2@1PEAUPxConeLimitedConstraint@2@M_N_N@Z 00000001800a68d0 f   PxgSimulationController.obj
 0001:000a5c10       ?addSoftBodyFilter@PxgSimulationController@physx@@UEAAXPEAVDeformableVolume@Dy@2@0II@Z 00000001800a6c10 f   PxgSimulationController.obj
 0001:000a5f60       ?addSoftBodyFilters@PxgSimulationController@physx@@UEAAXPEAVDeformableVolume@Dy@2@0PEAI1I@Z 00000001800a6f60 f   PxgSimulationController.obj
 0001:000a6170       ?addSoftBodyFiltersInternal@PxgSimulationController@physx@@QEAAXPEAVDeformableVolume@Dy@2@0PEAII@Z 00000001800a7170 f   PxgSimulationController.obj
 0001:000a65e0       ?addTetRigidAttachment@PxgSimulationController@physx@@UEAAIPEAVDeformableVolume@Dy@2@PEAVPxsRigidBody@2@AEBVPxNodeIndex@2@IAEBV?$PxVec4T@M@2@AEBV?$PxVec3T@M@2@PEAUPxConeLimitedConstraint@2@_N_N@Z 00000001800a75e0 f   PxgSimulationController.obj
 0001:000a6710       ?addTetRigidFilter@PxgSimulationController@physx@@UEAAXPEAVDeformableVolume@Dy@2@AEBVPxNodeIndex@2@I@Z 00000001800a7710 f   PxgSimulationController.obj
 0001:000a6780       ?addTriClothAttachment@PxgSimulationController@physx@@UEAAIPEAVDeformableSurface@Dy@2@0IIAEBV?$PxVec4T@M@2@1_N@Z 00000001800a7780 f   PxgSimulationController.obj
 0001:000a68d0       ?addTriRigidAttachment@PxgSimulationController@physx@@UEAAIPEAVDeformableSurface@Dy@2@PEAVPxsRigidBody@2@AEBVPxNodeIndex@2@IAEBV?$PxVec4T@M@2@AEBV?$PxVec3T@M@2@PEAUPxConeLimitedConstraint@2@_N@Z 00000001800a78d0 f   PxgSimulationController.obj
 0001:000a69a0       ?addTriRigidFilter@PxgSimulationController@physx@@UEAAXPEAVDeformableSurface@Dy@2@AEBVPxNodeIndex@2@I@Z 00000001800a79a0 f   PxgSimulationController.obj
 0001:000a6ad0       ?applyParticleBufferDataDEPRECATED@PxgSimulationController@physx@@UEAAXPEBIPEBUPxGpuParticleBufferIndexPair@2@PEBV?$PxFlags@W4Enum@PxParticleBufferFlag@physx@@I@2@IPEAUCUevent_st@@3@Z 00000001800a7ad0 f   PxgSimulationController.obj
 0001:000a6b70       ?applySoftBodyDataDEPRECATED@PxgSimulationController@physx@@UEAAXPEAPEAXPEAX1W4Enum@PxSoftBodyGpuDataFlag@2@IIPEAUCUevent_st@@3@Z 00000001800a7b70 f   PxgSimulationController.obj
 0001:000a6c30       ?clear@PxgSimulationController@physx@@UEAAXXZ 00000001800a7c30 f i PxgSimulationController.obj
 0001:000a6c40       ?computeArticulationData@PxgSimulationController@physx@@UEAA_NPEAXPEBIW4Enum@PxArticulationGPUAPIComputeType@2@IPEAUCUevent_st@@3@Z 00000001800a7c40 f   PxgSimulationController.obj
 0001:000a6ca0       ?copy@?$PxArray@UPxgArticulationLink@physx@@VPxVirtualAllocator@2@@physx@@KAXPEAUPxgArticulationLink@2@0PEBU32@@Z 00000001800a7ca0 f i PxgSimulationController.obj
 0001:000a70c0       ?copy@?$PxArray@UPxgBodySim@physx@@VPxVirtualAllocator@2@@physx@@KAXPEAUPxgBodySim@2@0PEBU32@@Z 00000001800a80c0 f i PxgSimulationController.obj
 0001:000a75c0       ?copyBoundsAndTransforms@PxgSimulationController@physx@@AEAAXAEAVBoundsArray@Bp@2@AEAVPxsTransformCache@2@AEAVPxgCudaBuffer@2@IIPEAUCUstream_st@@@Z 00000001800a85c0 f   PxgSimulationController.obj
 0001:000a76f0       ?copyContactData@PxgSimulationController@physx@@UEAA_NPEAXPEAIIPEAUCUevent_st@@2@Z 00000001800a86f0 f   PxgSimulationController.obj
 0001:000a7790       ?copySoftBodyDataDEPRECATED@PxgSimulationController@physx@@UEAAXPEAPEAXPEAX1W4Enum@PxSoftBodyGpuDataFlag@2@IIPEAUCUevent_st@@@Z 00000001800a8790 f   PxgSimulationController.obj
 0001:000a7830       ?copyToGpuArticulationSim@PxgSimulationController@physx@@AEAAXIIIPEAH0000000@Z 00000001800a8830 f   PxgSimulationController.obj
 0001:000a8c40       ?copyToGpuBodySim@PxgSimulationController@physx@@AEAAXIII@Z 00000001800a9c40 f   PxgSimulationController.obj
 0001:000a9060       ?copyToGpuBodySim@PxgSimulationController@physx@@AEAAXPEAVPxBaseTask@2@@Z 00000001800aa060 f   PxgSimulationController.obj
 0001:000a9ed0       ?copyToGpuFEMCloth@PxgSimulationController@physx@@AEAAXPEAVPxBaseTask@2@@Z 00000001800aaed0 f   PxgSimulationController.obj
 0001:000aa170       ?copyToGpuFEMClothSim@PxgSimulationController@physx@@AEAAXII@Z 00000001800ab170 f   PxgSimulationController.obj
 0001:000aa9f0       ?copyToGpuPBDParticleSystemSim@PxgSimulationController@physx@@AEAAXII@Z 00000001800ab9f0 f   PxgSimulationController.obj
 0001:000aac20       ?copyToGpuParticleSystem@PxgSimulationController@physx@@AEAAXPEAVPxBaseTask@2@@Z 00000001800abc20 f   PxgSimulationController.obj
 0001:000aae80       ?copyToGpuSoftBody@PxgSimulationController@physx@@AEAAXPEAVPxBaseTask@2@@Z 00000001800abe80 f   PxgSimulationController.obj
 0001:000ab120       ?copyToGpuSoftBodySim@PxgSimulationController@physx@@AEAAXII@Z 00000001800ac120 f   PxgSimulationController.obj
 0001:000ab820       ?createDeformableSurfaceCore@PxgSimulationController@physx@@QEAAXXZ 00000001800ac820 f   PxgSimulationController.obj
 0001:000ab8e0       ?createDeformableVolumeCore@PxgSimulationController@physx@@QEAAXXZ 00000001800ac8e0 f   PxgSimulationController.obj
 0001:000ab9a0       ?createPxgSimulationController@physx@@YAXXZ 00000001800ac9a0 f   PxgSimulationController.obj
 0001:000ab9c0       ?deactivateAttachment@?$AttachmentManager@VPxgFEMFEMAttachment@physx@@@physx@@QEAAXI@Z 00000001800ac9c0 f i PxgSimulationController.obj
 0001:000ab9c0       ?deactivateAttachment@?$AttachmentManager@VPxgFEMRigidAttachment@physx@@@physx@@QEAAXI@Z 00000001800ac9c0 f i PxgSimulationController.obj
 0001:000aba70       ?deactivateCloth@PxgSimulationController@physx@@UEAAXPEAVDeformableSurface@Dy@2@@Z 00000001800aca70 f   PxgSimulationController.obj
 0001:000abc50       ?deactivateSoftbody@PxgSimulationController@physx@@UEAAXPEAVDeformableVolume@Dy@2@@Z 00000001800acc50 f   PxgSimulationController.obj
 0001:000abf90       ?deactivateSoftbodySelfCollision@PxgSimulationController@physx@@UEAAXPEAVDeformableVolume@Dy@2@@Z 00000001800acf90 f   PxgSimulationController.obj
 0001:000abfa0       ?evaluateSDFDistances@PxgSimulationController@physx@@UEAA_NPEAV?$PxVec4T@M@2@PEBIPEBV32@1IIPEAUCUevent_st@@3@Z 00000001800acfa0 f   PxgSimulationController.obj
 0001:000abfc0       ?getActivatedDeformableSurfaces@PxgSimulationController@physx@@UEBAPEAPEAVDeformableSurface@Dy@2@XZ 00000001800acfc0 f   PxgSimulationController.obj
 0001:000abfd0       ?getActivatedDeformableVolumes@PxgSimulationController@physx@@UEBAPEAPEAVDeformableVolume@Dy@2@XZ 00000001800acfd0 f   PxgSimulationController.obj
 0001:000abfe0       ?getActiveBodies@PxgSimulationController@physx@@UEAAPEAIXZ 00000001800acfe0 f   PxgSimulationController.obj
 0001:000abff0       ?getArticulationData@PxgSimulationController@physx@@UEBA_NPEAXPEBIW4Enum@PxArticulationGPUAPIReadType@2@IPEAUCUevent_st@@3@Z 00000001800acff0 f   PxgSimulationController.obj
 0001:000ac050       ?getArticulationGPUAPIMaxCounts@PxgSimulationController@physx@@UEBA?AUPxArticulationGPUAPIMaxCounts@2@XZ 00000001800ad050 f   PxgSimulationController.obj
 0001:000ac090       ?getArticulationGPUAPIMaxCounts@PxsSimulationController@physx@@UEBA?AUPxArticulationGPUAPIMaxCounts@2@XZ 00000001800ad090 f i PxgSimulationController.obj
 0001:000ac0b0       ?getArticulationRemapIndex@PxgSimulationController@physx@@UEAAII@Z 00000001800ad0b0 f i PxgSimulationController.obj
 0001:000ac140       ?getD6JointData@PxgSimulationController@physx@@UEBA_NPEAXPEBIW4Enum@PxD6JointGPUAPIReadType@2@IMPEAUCUevent_st@@3@Z 00000001800ad140 f   PxgSimulationController.obj
 0001:000ac1a0       ?getDeactivatedDeformableSurfaces@PxgSimulationController@physx@@UEBAPEAPEAVDeformableSurface@Dy@2@XZ 00000001800ad1a0 f   PxgSimulationController.obj
 0001:000ac1b0       ?getDeactivatedDeformableVolumes@PxgSimulationController@physx@@UEBAPEAPEAVDeformableVolume@Dy@2@XZ 00000001800ad1b0 f   PxgSimulationController.obj
 0001:000ac1c0       ?getDeactiveBodies@PxgSimulationController@physx@@UEAAPEAIXZ 00000001800ad1c0 f   PxgSimulationController.obj
 0001:000ac1d0       ?getDeformableVolumeWakeCounters@PxgSimulationController@physx@@UEBAPEBMXZ 00000001800ad1d0 f   PxgSimulationController.obj
 0001:000ac1e0       ?getEnableOVDCollisionReadback@PxgSimulationController@physx@@UEBA_NXZ 00000001800ad1e0 f   PxgSimulationController.obj
 0001:000ac1f0       ?getEnableOVDReadback@PxgSimulationController@physx@@UEBA_NXZ 00000001800ad1f0 f   PxgSimulationController.obj
 0001:000ac200       ?getFrozenShapes@PxgSimulationController@physx@@UEAAPEAIXZ 00000001800ad200 f   PxgSimulationController.obj
 0001:000ac210       ?getInternalShapeIndex@PxgSimulationController@physx@@UEAAIAEBUPxsShapeCore@2@@Z 00000001800ad210 f   PxgSimulationController.obj
 0001:000ac230       ?getName@PxgCopyToArticulationSimTask@physx@@UEBAPEBDXZ 00000001800ad230 f i PxgSimulationController.obj
 0001:000ac240       ?getName@PxgCopyToBodySimTask@physx@@UEBAPEBDXZ 00000001800ad240 f i PxgSimulationController.obj
 0001:000ac250       ?getName@PxgCopyToFEMClothSimTask@physx@@UEBAPEBDXZ 00000001800ad250 f i PxgSimulationController.obj
 0001:000ac260       ?getName@PxgCopyToPBDParticleSystemSimTask@physx@@UEBAPEBDXZ 00000001800ad260 f i PxgSimulationController.obj
 0001:000ac270       ?getName@PxgCopyToSoftBodySimTask@physx@@UEBAPEBDXZ 00000001800ad270 f i PxgSimulationController.obj
 0001:000ac280       ?getName@PxgPostCopyToBodySimTask@physx@@UEBAPEBDXZ 00000001800ad280 f i PxgSimulationController.obj
 0001:000ac290       ?getName@PxgPostCopyToShapeSimTask@physx@@UEBAPEBDXZ 00000001800ad290 f i PxgSimulationController.obj
 0001:000ac2a0       ?getName@PxgPostUpdateParticleAndSoftBodyTask@physx@@UEBAPEBDXZ 00000001800ad2a0 f i PxgSimulationController.obj
 0001:000ac2b0       ?getName@PxgUpdateArticulationSimTask@physx@@UEBAPEBDXZ 00000001800ad2b0 f i PxgSimulationController.obj
 0001:000ac2c0       ?getNbActivatedDeformableSurfaces@PxgSimulationController@physx@@UEBAIXZ 00000001800ad2c0 f   PxgSimulationController.obj
 0001:000ac2d0       ?getNbActivatedDeformableVolumes@PxgSimulationController@physx@@UEBAIXZ 00000001800ad2d0 f   PxgSimulationController.obj
 0001:000ac2e0       ?getNbBodies@PxgSimulationController@physx@@UEAAIXZ 00000001800ad2e0 f   PxgSimulationController.obj
 0001:000ac2f0       ?getNbDeactivatedDeformableSurfaces@PxgSimulationController@physx@@UEBAIXZ 00000001800ad2f0 f   PxgSimulationController.obj
 0001:000ac300       ?getNbDeactivatedDeformableVolumes@PxgSimulationController@physx@@UEBAIXZ 00000001800ad300 f   PxgSimulationController.obj
 0001:000ac310       ?getNbFrozenShapes@PxgSimulationController@physx@@UEAAIXZ 00000001800ad310 f   PxgSimulationController.obj
 0001:000ac320       ?getNbShapes@PxgSimulationController@physx@@UEAAIXZ 00000001800ad320 f   PxgSimulationController.obj
 0001:000ac330       ?getNbUnfrozenShapes@PxgSimulationController@physx@@UEAAIXZ 00000001800ad330 f   PxgSimulationController.obj
 0001:000ac340       ?getRigidBodies@PxgSimulationController@physx@@UEAAPEAPEAXXZ 00000001800ad340 f   PxgSimulationController.obj
 0001:000ac350       ?getRigidDynamicData@PxgSimulationController@physx@@UEBA_NPEAXPEBIW4Enum@PxRigidDynamicGPUAPIReadType@2@IMPEAUCUevent_st@@3@Z 00000001800ad350 f   PxgSimulationController.obj
 0001:000ac360       ?getShapeSims@PxgSimulationController@physx@@UEAAPEAPEAVShapeSimBase@Sc@2@XZ 00000001800ad360 f   PxgSimulationController.obj
 0001:000ac370       ?getUnfrozenShapes@PxgSimulationController@physx@@UEAAPEAIXZ 00000001800ad370 f   PxgSimulationController.obj
 0001:000ac380       ?gpuDmabackData@PxgSimulationController@physx@@UEAAXAEAVPxsTransformCache@2@AEAVBoundsArray@Bp@2@AEAV?$PxBitMapBase@VPxVirtualAllocator@physx@@@2@_N@Z 00000001800ad380 f   PxgSimulationController.obj
 0001:000ac520       ?growAndPushBack@?$PxArray@VPxgFEMFEMAttachment@physx@@VPxVirtualAllocator@2@@physx@@IEAAAEAVPxgFEMFEMAttachment@2@AEBV32@@Z 00000001800ad520 f i PxgSimulationController.obj
 0001:000ac660       ?growAndPushBack@?$PxArray@VPxgFEMRigidAttachment@physx@@VPxVirtualAllocator@2@@physx@@IEAAAEAVPxgFEMRigidAttachment@2@AEBV32@@Z 00000001800ad660 f i PxgSimulationController.obj
 0001:000ac7b0       ?growAndPushBack@?$PxArray@VPxgNonRigidFilterPair@physx@@V?$PxReflectionAllocator@VPxgNonRigidFilterPair@physx@@@2@@physx@@IEAAAEAVPxgNonRigidFilterPair@2@AEBV32@@Z 00000001800ad7b0 f i PxgSimulationController.obj
 0001:000ac8d0       ?hasDeformableSurfaces@PxgSimulationController@physx@@UEBA_NXZ 00000001800ad8d0 f i PxgSimulationController.obj
 0001:000ac8e0       ?hasDeformableVolumes@PxgSimulationController@physx@@UEBA_NXZ 00000001800ad8e0 f i PxgSimulationController.obj
 0001:000ac8f0       ?mergeBoundsAndTransformsChanges@PxgSimulationController@physx@@AEAAXAEAVPxgBoundsArray@2@AEAVPxsTransformCache@2@AEAVPxgCudaBuffer@2@IIIPEAUCUstream_st@@@Z 00000001800ad8f0 f   PxgSimulationController.obj
 0001:000acb70       ?mergeChangedAABBMgHandle@PxgSimulationController@physx@@UEAAXXZ 00000001800adb70 f   PxgSimulationController.obj
 0001:000acbb0       ?preIntegrateAndUpdateBound@PxgSimulationController@physx@@UEAAXPEAVPxBaseTask@2@V?$PxVec3T@M@2@M@Z 00000001800adbb0 f   PxgSimulationController.obj
 0001:000acc70       ?preIntegrateAndUpdateBoundSoftBody@PxgSimulationController@physx@@QEAAXV?$PxVec3T@M@2@M@Z 00000001800adc70 f   PxgSimulationController.obj
 0001:000acf10       ?recreate@?$PxArray@UArticulationJointCore@Dy@physx@@VPxVirtualAllocator@3@@physx@@IEAAXI@Z 00000001800adf10 f i PxgSimulationController.obj
 0001:000ad1d0       ?recreate@?$PxArray@UPxgArticulationLink@physx@@VPxVirtualAllocator@2@@physx@@IEAAXI@Z 00000001800ae1d0 f i PxgSimulationController.obj
 0001:000ad270       ?recreate@?$PxArray@UPxgArticulationLinkProp@physx@@VPxVirtualAllocator@2@@physx@@IEAAXI@Z 00000001800ae270 f i PxgSimulationController.obj
 0001:000ad3e0       ?recreate@?$PxArray@UPxgBodySim@physx@@VPxVirtualAllocator@2@@physx@@IEAAXI@Z 00000001800ae3e0 f i PxgSimulationController.obj
 0001:000ad470       ?recreate@?$PxArray@UUnAlignedSpatialVector@Cm@physx@@VPxVirtualAllocator@3@@physx@@IEAAXI@Z 00000001800ae470 f i PxgSimulationController.obj
 0001:000ad620       ?recreate@?$PxArray@V?$PxTransformT@M@physx@@VPxVirtualAllocator@2@@physx@@IEAAXI@Z 00000001800ae620 f i PxgSimulationController.obj
 0001:000ad800       ?recreate@?$PxArray@VPxgRigidFilterPair@physx@@VPxVirtualAllocator@2@@physx@@IEAAXI@Z 00000001800ae800 f i PxgSimulationController.obj
 0001:000ad800       ?recreate@?$PxArray@VPxGpuFixedTendonData@physx@@VPxVirtualAllocator@2@@physx@@IEAAXI@Z 00000001800ae800 f i PxgSimulationController.obj
 0001:000ad8b0       ?recreate@?$PxArray@VPxGpuTendonAttachmentData@physx@@VPxVirtualAllocator@2@@physx@@IEAAXI@Z 00000001800ae8b0 f i PxgSimulationController.obj
 0001:000adad0       ?recreate@?$PxArray@VPxgArticulation@physx@@VPxVirtualAllocator@2@@physx@@IEAAXI@Z 00000001800aead0 f i PxgSimulationController.obj
 0001:000adbf0       ?recreate@?$PxArray@VPxgArticulationTendon@physx@@VPxVirtualAllocator@2@@physx@@IEAAXI@Z 00000001800aebf0 f i PxgSimulationController.obj
 0001:000adbf0       ?recreate@?$PxArray@UPartitionNodeData@physx@@VPxVirtualAllocator@2@@physx@@IEAAXI@Z 00000001800aebf0 f i PxgConstraintPartition.obj
 0001:000adca0       ?recreate@?$PxArray@VPxgArticulationTendonElementFixedData@physx@@VPxVirtualAllocator@2@@physx@@IEAAXI@Z 00000001800aeca0 f i PxgSimulationController.obj
 0001:000adca0       ?recreate@?$PxArray@UVolumeData@Bp@physx@@VPxVirtualAllocator@3@@physx@@IEAAXI@Z 00000001800aeca0 f i BpAABBManagerBase.obj
 0001:000add50       ?recreate@?$PxArray@VPxgNonRigidFilterPair@physx@@V?$PxReflectionAllocator@VPxgNonRigidFilterPair@physx@@@2@@physx@@IEAAXI@Z 00000001800aed50 f i PxgSimulationController.obj
 0001:000ade40       ?recreate@?$PxArray@VPxgParticleSystem@physx@@VPxVirtualAllocator@2@@physx@@IEAAXI@Z 00000001800aee40 f i PxgSimulationController.obj
 0001:000adf10       ?releaseArticulation@PxgSimulationController@physx@@UEAAXPEAVFeatherstoneArticulation@Dy@2@AEBVPxNodeIndex@2@@Z 00000001800aef10 f   PxgSimulationController.obj
 0001:000adf20       ?releaseDeferredArticulationIds@PxgSimulationController@physx@@UEAAXXZ 00000001800aef20 f   PxgSimulationController.obj
 0001:000adf30       ?releaseDeferredFEMClothIds@PxgSimulationController@physx@@UEAAXXZ 00000001800aef30 f   PxgSimulationController.obj
 0001:000adf40       ?releaseDeferredParticleSystemIds@PxgSimulationController@physx@@UEAAXXZ 00000001800aef40 f   PxgSimulationController.obj
 0001:000adf50       ?releaseDeferredSoftBodyIds@PxgSimulationController@physx@@UEAAXXZ 00000001800aef50 f   PxgSimulationController.obj
 0001:000adf60       ?releaseFEMCloth@PxgSimulationController@physx@@UEAAXPEAVDeformableSurface@Dy@2@@Z 00000001800aef60 f   PxgSimulationController.obj
 0001:000adf70       ?releaseParticleSystem@PxgSimulationController@physx@@UEAAXPEAVParticleSystem@Dy@2@@Z 00000001800aef70 f   PxgSimulationController.obj
 0001:000adf80       ?releaseSoftBody@PxgSimulationController@physx@@UEAAXPEAVDeformableVolume@Dy@2@@Z 00000001800aef80 f   PxgSimulationController.obj
 0001:000adf90       ?removeAttachment@?$AttachmentManager@VPxgFEMFEMAttachment@physx@@@physx@@QEAA_NI@Z 00000001800aef90 f i PxgSimulationController.obj
 0001:000ae120       ?removeAttachment@?$AttachmentManager@VPxgFEMRigidAttachment@physx@@@physx@@QEAA_NI@Z 00000001800af120 f i PxgSimulationController.obj
 0001:000ae2c0       ?removeClothAttachment@PxgSimulationController@physx@@UEAAXPEAVDeformableVolume@Dy@2@I@Z 00000001800af2c0 f   PxgSimulationController.obj
 0001:000ae330       ?removeClothFilter@PxgSimulationController@physx@@UEAAXPEAVDeformableSurface@Dy@2@0II@Z 00000001800af330 f   PxgSimulationController.obj
 0001:000ae5d0       ?removeClothFilter@PxgSimulationController@physx@@UEAAXPEAVDeformableVolume@Dy@2@PEAVDeformableSurface@42@II@Z 00000001800af5d0 f   PxgSimulationController.obj
 0001:000ae790       ?removeParticleAttachment@PxgSimulationController@physx@@UEAAXPEAVDeformableVolume@Dy@2@I@Z 00000001800af790 f   PxgSimulationController.obj
 0001:000ae800       ?removeParticleFilter@PxgSimulationController@physx@@UEAAXPEAVDeformableVolume@Dy@2@PEBVParticleSystem@42@III@Z 00000001800af800 f   PxgSimulationController.obj
 0001:000ae890       ?removePxgShape@PxgSimulationController@physx@@UEAAXI@Z 00000001800af890 f   PxgSimulationController.obj
 0001:000ae8b0       ?removeTriRigidAttachment@PxgSimulationController@physx@@UEAAXPEAVDeformableSurface@Dy@2@I@Z 00000001800af8b0 f   PxgSimulationController.obj
 0001:000ae8b0       ?removeRigidAttachment@PxgSimulationController@physx@@UEAAXPEAVDeformableSurface@Dy@2@I@Z 00000001800af8b0 f   PxgSimulationController.obj
 0001:000ae920       ?removeRigidAttachment@PxgSimulationController@physx@@UEAAXPEAVDeformableVolume@Dy@2@I@Z 00000001800af920 f   PxgSimulationController.obj
 0001:000ae990       ?removeRigidFilter@PxgSimulationController@physx@@UEAAXPEAVDeformableVolume@Dy@2@AEBVPxNodeIndex@2@I@Z 00000001800af990 f   PxgSimulationController.obj
 0001:000aea90       ?removeSoftBodyAttachment@PxgSimulationController@physx@@UEAAXPEAVDeformableVolume@Dy@2@I@Z 00000001800afa90 f   PxgSimulationController.obj
 0001:000aeb00       ?removeSoftBodyFilter@PxgSimulationController@physx@@UEAAXPEAVDeformableVolume@Dy@2@0II@Z 00000001800afb00 f   PxgSimulationController.obj
 0001:000aeda0       ?removeSoftBodyFilters@PxgSimulationController@physx@@UEAAXPEAVDeformableVolume@Dy@2@0PEAI1I@Z 00000001800afda0 f   PxgSimulationController.obj
 0001:000aefb0       ?removeSoftBodyFiltersInternal@PxgSimulationController@physx@@QEAAXPEAVDeformableVolume@Dy@2@0PEAII@Z 00000001800affb0 f   PxgSimulationController.obj
 0001:000af3c0       ?removeTetRigidFilter@PxgSimulationController@physx@@UEAAXPEAVDeformableVolume@Dy@2@AEBVPxNodeIndex@2@I@Z 00000001800b03c0 f   PxgSimulationController.obj
 0001:000af440       ?removeTriClothAttachment@PxgSimulationController@physx@@UEAAXPEAVDeformableSurface@Dy@2@I@Z 00000001800b0440 f   PxgSimulationController.obj
 0001:000af4b0       ?removeTriRigidFilter@PxgSimulationController@physx@@UEAAXPEAVDeformableSurface@Dy@2@AEBVPxNodeIndex@2@I@Z 00000001800b04b0 f   PxgSimulationController.obj
 0001:000af600       ?reserve@PxgSimulationController@physx@@UEAAXI@Z 00000001800b0600 f   PxgSimulationController.obj
 0001:000af660       ?runInternal@PxgCopyToArticulationSimTask@physx@@UEAAXXZ 00000001800b0660 f   PxgSimulationController.obj
 0001:000af6c0       ?runInternal@PxgCopyToBodySimTask@physx@@UEAAXXZ 00000001800b06c0 f   PxgSimulationController.obj
 0001:000af6e0       ?runInternal@PxgCopyToFEMClothSimTask@physx@@UEAAXXZ 00000001800b06e0 f   PxgSimulationController.obj
 0001:000af6f0       ?runInternal@PxgCopyToPBDParticleSystemSimTask@physx@@UEAAXXZ 00000001800b06f0 f   PxgSimulationController.obj
 0001:000af700       ?runInternal@PxgCopyToSoftBodySimTask@physx@@UEAAXXZ 00000001800b0700 f   PxgSimulationController.obj
 0001:000af710       ?runInternal@PxgPostCopyToBodySimTask@physx@@UEAAXXZ 00000001800b0710 f   PxgSimulationController.obj
 0001:000af9c0       ?runInternal@PxgPostCopyToShapeSimTask@physx@@UEAAXXZ 00000001800b09c0 f   PxgSimulationController.obj
 0001:000afa10       ?runInternal@PxgPostUpdateParticleAndSoftBodyTask@physx@@UEAAXXZ 00000001800b0a10 f   PxgSimulationController.obj
 0001:000afd70       ?runInternal@PxgUpdateArticulationSimTask@physx@@UEAAXXZ 00000001800b0d70 f   PxgSimulationController.obj
 0001:000afdd0       ?setArticulationData@PxgSimulationController@physx@@UEAA_NPEBXPEBIW4Enum@PxArticulationGPUAPIWriteType@2@IPEAUCUevent_st@@3@Z 00000001800b0dd0 f   PxgSimulationController.obj
 0001:000afe50       ?setBounds@PxgSimulationController@physx@@UEAAXPEAVBoundsArray@Bp@2@@Z 00000001800b0e50 f   PxgSimulationController.obj
 0001:000afe60       ?setClothWakeCounter@PxgSimulationController@physx@@UEAAXPEAVDeformableSurface@Dy@2@@Z 00000001800b0e60 f   PxgSimulationController.obj
 0001:000afed0       ?setDeformableSurfaceGpuPostSolveCallback@PxgSimulationController@physx@@UEAAXPEAVPxPostSolveCallback@2@@Z 00000001800b0ed0 f   PxgSimulationController.obj
 0001:000aff10       ?setDeformableVolumeGpuPostSolveCallback@PxgSimulationController@physx@@UEAAXPEAVPxPostSolveCallback@2@@Z 00000001800b0f10 f   PxgSimulationController.obj
 0001:000aff50       ?setEnableOVDCollisionReadback@PxgSimulationController@physx@@UEAAX_N@Z 00000001800b0f50 f   PxgSimulationController.obj
 0001:000aff60       ?setEnableOVDReadback@PxgSimulationController@physx@@UEAAX_N@Z 00000001800b0f60 f   PxgSimulationController.obj
 0001:000aff70       ?setPxgShapeBodyNodeIndex@PxgSimulationController@physx@@UEAAXVPxNodeIndex@2@I@Z 00000001800b0f70 f   PxgSimulationController.obj
 0001:000aff90       ?setRigidDynamicData@PxgSimulationController@physx@@UEAA_NPEBXPEBIW4Enum@PxRigidDynamicGPUAPIWriteType@2@IPEAUCUevent_st@@3@Z 00000001800b0f90 f   PxgSimulationController.obj
 0001:000affa0       ?setSoftBodyWakeCounter@PxgSimulationController@physx@@UEAAXPEAVDeformableVolume@Dy@2@@Z 00000001800b0fa0 f   PxgSimulationController.obj
 0001:000b0010       ?sortContacts@PxgSimulationController@physx@@UEAAXXZ 00000001800b1010 f   PxgSimulationController.obj
 0001:000b00a0       ?syncParticleData@PxgSimulationController@physx@@UEAAXXZ 00000001800b10a0 f   PxgSimulationController.obj
 0001:000b01b0       ?update@PxgSimulationController@physx@@UEAAXAEAV?$PxBitMapBase@VPxVirtualAllocator@physx@@@2@@Z 00000001800b11b0 f   PxgSimulationController.obj
 0001:000b0240       ?updateArticulation@PxgSimulationController@physx@@UEAAXPEAVFeatherstoneArticulation@Dy@2@AEBVPxNodeIndex@2@@Z 00000001800b1240 f   PxgSimulationController.obj
 0001:000b0250       ?updateArticulationExtAccel@PxgSimulationController@physx@@UEAAXPEAVFeatherstoneArticulation@Dy@2@AEBVPxNodeIndex@2@@Z 00000001800b1250 f   PxgSimulationController.obj
 0001:000b0270       ?updateArticulationJoint@PxgSimulationController@physx@@UEAAXPEAVFeatherstoneArticulation@Dy@2@AEBVPxNodeIndex@2@@Z 00000001800b1270 f   PxgSimulationController.obj
 0001:000b0290       ?updateBodies@PxgSimulationController@physx@@UEAAXPEAPEAVPxsRigidBody@2@PEAIIPEAUPxsExternalAccelerationProvider@2@@Z 00000001800b1290 f   PxgSimulationController.obj
 0001:000b02a0       ?updateBodies@PxgSimulationController@physx@@UEAAXPEAVPxBaseTask@2@@Z 00000001800b12a0 f   PxgSimulationController.obj
 0001:000b0300       ?updateBoundsAndShapes@PxgSimulationController@physx@@UEAAXAEAVAABBManagerBase@Bp@2@_N@Z 00000001800b1300 f   PxgSimulationController.obj
 0001:000b04b0       ?updateDynamic@PxgSimulationController@physx@@UEAAXPEAVFeatherstoneArticulation@Dy@2@AEBVPxNodeIndex@2@@Z 00000001800b14b0 f   PxgSimulationController.obj
 0001:000b04e0       ?updateGpuArticulationSim@PxgSimulationController@physx@@AEAAXIIPEAH000000@Z 00000001800b14e0 f   PxgSimulationController.obj
 0001:000b1e60       ?updateJoint@PxgSimulationController@physx@@UEAAXIPEAUConstraint@Dy@2@@Z 00000001800b2e60 f   PxgSimulationController.obj
 0001:000b1e70       ?updateJointsAndSyncData@PxgSimulationController@physx@@QEAAXXZ 00000001800b2e70 f   PxgSimulationController.obj
 0001:000b1f60       ?updateParticleSystemsAndSoftBodies@PxgSimulationController@physx@@UEAAXXZ 00000001800b2f60 f   PxgSimulationController.obj
 0001:000b2000       ?updateScBodyAndShapeSim@PxgSimulationController@physx@@UEAAXAEAVPxsTransformCache@2@AEAVBoundsArray@Bp@2@PEAVPxBaseTask@2@@Z 00000001800b3000 f   PxgSimulationController.obj
 0001:000b2100       ?updateShapes@PxgSimulationController@physx@@UEAAXPEAVPxBaseTask@2@@Z 00000001800b3100 f   PxgSimulationController.obj
 0001:000b2190       ??0?$PxgParticleBufferBase@VPxsParticleClothBuffer@physx@@@physx@@QEAA@IIAEAVPxCudaContextManager@1@@Z 00000001800b3190 f i PxgParticleSystemCore.obj
 0001:000b2190       ??0?$PxgParticleBufferBase@VPxsParticleAndDiffuseBuffer@physx@@@physx@@QEAA@IIAEAVPxCudaContextManager@1@@Z 00000001800b3190 f i PxgParticleSystemCore.obj
 0001:000b2340       ??0?$PxgParticleBufferBase@VPxsParticleBuffer@physx@@@physx@@QEAA@IIAEAVPxCudaContextManager@1@@Z 00000001800b3340 f i PxgParticleSystemCore.obj
 0001:000b24f0       ??0?$PxgParticleBufferBase@VPxsParticleRigidBuffer@physx@@@physx@@QEAA@IIAEAVPxCudaContextManager@1@@Z 00000001800b34f0 f i PxgParticleSystemCore.obj
 0001:000b26a0       ??0PxgDiffuseParticleCore@physx@@QEAA@PEAVPxgEssentialCore@1@@Z 00000001800b36a0 f   PxgParticleSystemCore.obj
 0001:000b26e0       ??0PxgParticleAndDiffuseBuffer@physx@@QEAA@IIIAEAVPxCudaContextManager@1@@Z 00000001800b36e0 f   PxgParticleSystemCore.obj
 0001:000b2920       ??0PxgParticleBuffer@physx@@QEAA@IIAEAVPxCudaContextManager@1@@Z 00000001800b3920 f   PxgParticleSystemCore.obj
 0001:000b2950       ??0PxgParticleClothBuffer@physx@@QEAA@IIIIIAEAVPxCudaContextManager@1@@Z 00000001800b3950 f   PxgParticleSystemCore.obj
 0001:000b2ac0       ??0PxgParticleRigidBuffer@physx@@QEAA@IIIAEAVPxCudaContextManager@1@@Z 00000001800b3ac0 f   PxgParticleSystemCore.obj
 0001:000b2cf0       ??0PxgParticleSystemCore@physx@@QEAA@PEAVPxgCudaKernelWranglerManager@1@PEAVPxCudaContextManager@1@PEAVPxgHeapMemoryAllocatorManager@1@PEAVPxgSimulationController@1@PEAVPxgGpuContext@1@I@Z 00000001800b3cf0 f   PxgParticleSystemCore.obj
 0001:000b3560       ??1?$PxgParticleBufferBase@VPxsParticleClothBuffer@physx@@@physx@@UEAA@XZ 00000001800b4560 f i PxgParticleSystemCore.obj
 0001:000b3560       ??1?$PxgParticleBufferBase@VPxsParticleAndDiffuseBuffer@physx@@@physx@@UEAA@XZ 00000001800b4560 f i PxgParticleSystemCore.obj
 0001:000b3740       ??1?$PxgParticleBufferBase@VPxsParticleBuffer@physx@@@physx@@UEAA@XZ 00000001800b4740 f i PxgParticleSystemCore.obj
 0001:000b3920       ??1?$PxgParticleBufferBase@VPxsParticleRigidBuffer@physx@@@physx@@UEAA@XZ 00000001800b4920 f i PxgParticleSystemCore.obj
 0001:000b3b00       ??1PxgDiffuseParticleCore@physx@@UEAA@XZ 00000001800b4b00 f   PxgParticleSystemCore.obj
 0001:000b3b60       ??1PxgParticleClothBuffer@physx@@UEAA@XZ 00000001800b4b60 f   PxgParticleSystemCore.obj
 0001:000b3e80       ??1PxgParticleRigidBuffer@physx@@UEAA@XZ 00000001800b4e80 f   PxgParticleSystemCore.obj
 0001:000b4030       ??1PxgParticleSystemBuffer@physx@@QEAA@XZ 00000001800b5030 f i PxgParticleSystemCore.obj
 0001:000b4400       ??1PxgParticleSystemCore@physx@@UEAA@XZ 00000001800b5400 f   PxgParticleSystemCore.obj
 0001:000b47a0       ??_G?$PxgParticleBufferBase@VPxsParticleAndDiffuseBuffer@physx@@@physx@@UEAAPEAXI@Z 00000001800b57a0 f i PxgParticleSystemCore.obj
 0001:000b47a0       ??_G?$PxgParticleBufferBase@VPxsParticleClothBuffer@physx@@@physx@@UEAAPEAXI@Z 00000001800b57a0 f i PxgParticleSystemCore.obj
 0001:000b47a0       ??_E?$PxgParticleBufferBase@VPxsParticleClothBuffer@physx@@@physx@@UEAAPEAXI@Z 00000001800b57a0 f i PxgParticleSystemCore.obj
 0001:000b47a0       ??_E?$PxgParticleBufferBase@VPxsParticleAndDiffuseBuffer@physx@@@physx@@UEAAPEAXI@Z 00000001800b57a0 f i PxgParticleSystemCore.obj
 0001:000b4810       ??_G?$PxgParticleBufferBase@VPxsParticleBuffer@physx@@@physx@@UEAAPEAXI@Z 00000001800b5810 f i PxgParticleSystemCore.obj
 0001:000b4810       ??_E?$PxgParticleBufferBase@VPxsParticleBuffer@physx@@@physx@@UEAAPEAXI@Z 00000001800b5810 f i PxgParticleSystemCore.obj
 0001:000b4880       ??_E?$PxgParticleBufferBase@VPxsParticleRigidBuffer@physx@@@physx@@UEAAPEAXI@Z 00000001800b5880 f i PxgParticleSystemCore.obj
 0001:000b4880       ??_G?$PxgParticleBufferBase@VPxsParticleRigidBuffer@physx@@@physx@@UEAAPEAXI@Z 00000001800b5880 f i PxgParticleSystemCore.obj
 0001:000b48f0       ??_EPxgDiffuseParticleCore@physx@@UEAAPEAXI@Z 00000001800b58f0 f i PxgParticleSystemCore.obj
 0001:000b48f0       ??_GPxgDiffuseParticleCore@physx@@UEAAPEAXI@Z 00000001800b58f0 f i PxgParticleSystemCore.obj
 0001:000b4970       ??_EPxgParticleAndDiffuseBuffer@physx@@UEAAPEAXI@Z 00000001800b5970 f i PxgParticleSystemCore.obj
 0001:000b4970       ??_GPxgParticleAndDiffuseBuffer@physx@@UEAAPEAXI@Z 00000001800b5970 f i PxgParticleSystemCore.obj
 0001:000b4ae0       ??_EPxgParticleBuffer@physx@@UEAAPEAXI@Z 00000001800b5ae0 f i PxgParticleSystemCore.obj
 0001:000b4ae0       ??_GPxgParticleBuffer@physx@@UEAAPEAXI@Z 00000001800b5ae0 f i PxgParticleSystemCore.obj
 0001:000b4b50       ??_EPxgParticleClothBuffer@physx@@UEAAPEAXI@Z 00000001800b5b50 f i PxgParticleSystemCore.obj
 0001:000b4b50       ??_GPxgParticleClothBuffer@physx@@UEAAPEAXI@Z 00000001800b5b50 f i PxgParticleSystemCore.obj
 0001:000b4bc0       ??_EPxgParticleRigidBuffer@physx@@UEAAPEAXI@Z 00000001800b5bc0 f i PxgParticleSystemCore.obj
 0001:000b4bc0       ??_GPxgParticleRigidBuffer@physx@@UEAAPEAXI@Z 00000001800b5bc0 f i PxgParticleSystemCore.obj
 0001:000b4c30       ??_GPxgParticleSystemCore@physx@@UEAAPEAXI@Z 00000001800b5c30 f i PxgParticleSystemCore.obj
 0001:000b4c30       ??_EPxgParticleSystemCore@physx@@UEAAPEAXI@Z 00000001800b5c30 f i PxgParticleSystemCore.obj
 0001:000b4c70       ??_GPxsParticleBuffer@physx@@MEAAPEAXI@Z 00000001800b5c70 f i PxgParticleSystemCore.obj
 0001:000b4c70       ??_EPxsParticleBuffer@physx@@MEAAPEAXI@Z 00000001800b5c70 f i PxgParticleSystemCore.obj
 0001:000b5030       ?accumulateRigidDeltas@PxgParticleSystemCore@physx@@IEAAX_K00000PEAUCUstream_st@@_N@Z 00000001800b6030 f   PxgParticleSystemCore.obj
 0001:000b52f0       ?allocHostBuffers@?$PxgParticleBufferBase@VPxsParticleBuffer@physx@@@physx@@UEAAXXZ 00000001800b62f0 f i PxgParticleSystemCore.obj
 0001:000b52f0       ?allocHostBuffers@?$PxgParticleBufferBase@VPxsParticleAndDiffuseBuffer@physx@@@physx@@UEAAXXZ 00000001800b62f0 f i PxgParticleSystemCore.obj
 0001:000b52f0       ?allocHostBuffers@?$PxgParticleBufferBase@VPxsParticleClothBuffer@physx@@@physx@@UEAAXXZ 00000001800b62f0 f i PxgParticleSystemCore.obj
 0001:000b52f0       ?allocHostBuffers@?$PxgParticleBufferBase@VPxsParticleRigidBuffer@physx@@@physx@@UEAAXXZ 00000001800b62f0 f i PxgParticleSystemCore.obj
 0001:000b5440       ?applyDeltas@PxgParticleSystemCore@physx@@IEAAX_K0IMPEAUCUstream_st@@@Z 00000001800b6440 f   PxgParticleSystemCore.obj
 0001:000b5560       ?calculateHash@PxgParticleSystemCore@physx@@IEAAX_K0I@Z 00000001800b6560 f   PxgParticleSystemCore.obj
 0001:000b5660       ?copyUnsortedArrayToUserBuffer@PxgParticleSystemCore@physx@@IEAAX_K0I@Z 00000001800b6660 f   PxgParticleSystemCore.obj
 0001:000b5770       ?copyUserBufferDataToHost@PxgParticleSystemCore@physx@@IEAAXPEAVPxgParticleSystem@2@PEAII@Z 00000001800b6770 f   PxgParticleSystemCore.obj
 0001:000b5960       ?copyUserBufferToUnsortedArray@PxgParticleSystemCore@physx@@IEAAX_K0IPEAUCUstream_st@@@Z 00000001800b6960 f   PxgParticleSystemCore.obj
 0001:000b5a50       ?copyUserDiffuseBufferToUnsortedArray@PxgParticleSystemCore@physx@@IEAAX_K0IPEAUCUstream_st@@@Z 00000001800b6a50 f   PxgParticleSystemCore.obj
 0001:000b5b40       ?getDiffuseParticleParams@PxgParticleAndDiffuseBuffer@physx@@UEBAAEBVPxDiffuseParticleParams@2@XZ 00000001800b6b40 f i PxgParticleSystemCore.obj
 0001:000b5b50       ?getRigidRotationsD@PxgParticleRigidBuffer@physx@@UEBAPEAV?$PxVec4T@M@2@XZ 00000001800b6b50 f i PxgParticleSystemCore.obj
 0001:000b5b50       ?getDiffusePositionLifeTimeD@PxgParticleAndDiffuseBuffer@physx@@UEBAPEAV?$PxVec4T@M@2@XZ 00000001800b6b50 f i PxgParticleSystemCore.obj
 0001:000b5b50       ?getSpringsD@PxgParticleClothBuffer@physx@@UEAAPEAUPxParticleSpring@2@XZ 00000001800b6b50 f i PxgParticleSystemCore.obj
 0001:000b5b60       ?getDiffuseVelocitiesD@PxgParticleAndDiffuseBuffer@physx@@UEBAPEAV?$PxVec4T@M@2@XZ 00000001800b6b60 f i PxgParticleSystemCore.obj
 0001:000b5b70       ?getFlatListStartIndex@?$PxgParticleBufferBase@VPxsParticleClothBuffer@physx@@@physx@@UEBAIXZ 00000001800b6b70 f i PxgParticleSystemCore.obj
 0001:000b5b70       ?getFlatListStartIndex@?$PxgParticleBufferBase@VPxsParticleBuffer@physx@@@physx@@UEBAIXZ 00000001800b6b70 f i PxgParticleSystemCore.obj
 0001:000b5b70       ?getFlatListStartIndex@?$PxgParticleBufferBase@VPxsParticleRigidBuffer@physx@@@physx@@UEBAIXZ 00000001800b6b70 f i PxgParticleSystemCore.obj
 0001:000b5b70       ?getFlatListStartIndex@?$PxgParticleBufferBase@VPxsParticleAndDiffuseBuffer@physx@@@physx@@UEBAIXZ 00000001800b6b70 f i PxgParticleSystemCore.obj
 0001:000b5b80       ?getMaxDiffuseParticles@PxgParticleAndDiffuseBuffer@physx@@UEBAIXZ 00000001800b6b80 f i PxgParticleSystemCore.obj
 0001:000b5b90       ?getMaxIterationCount@PxgParticleSystemCore@physx@@IEAAXAEAVPxgBodySimManager@2@IPEBIAEAH2@Z 00000001800b6b90 f   PxgParticleSystemCore.obj
 0001:000b5c10       ?getMaxParticleVolumes@?$PxgParticleBufferBase@VPxsParticleClothBuffer@physx@@@physx@@UEBAIXZ 00000001800b6c10 f i PxgParticleSystemCore.obj
 0001:000b5c10       ?getMaxParticleVolumes@?$PxgParticleBufferBase@VPxsParticleAndDiffuseBuffer@physx@@@physx@@UEBAIXZ 00000001800b6c10 f i PxgParticleSystemCore.obj
 0001:000b5c10       ?getMaxParticleVolumes@?$PxgParticleBufferBase@VPxsParticleBuffer@physx@@@physx@@UEBAIXZ 00000001800b6c10 f i PxgParticleSystemCore.obj
 0001:000b5c10       ?getMaxParticleVolumes@?$PxgParticleBufferBase@VPxsParticleRigidBuffer@physx@@@physx@@UEBAIXZ 00000001800b6c10 f i PxgParticleSystemCore.obj
 0001:000b5c20       ?getMaxParticles@?$PxgParticleBufferBase@VPxsParticleRigidBuffer@physx@@@physx@@UEBAIXZ 00000001800b6c20 f i PxgParticleSystemCore.obj
 0001:000b5c20       ?getMaxParticles@?$PxgParticleBufferBase@VPxsParticleClothBuffer@physx@@@physx@@UEBAIXZ 00000001800b6c20 f i PxgParticleSystemCore.obj
 0001:000b5c20       ?getMaxParticles@?$PxgParticleBufferBase@VPxsParticleBuffer@physx@@@physx@@UEBAIXZ 00000001800b6c20 f i PxgParticleSystemCore.obj
 0001:000b5c20       ?getMaxParticles@?$PxgParticleBufferBase@VPxsParticleAndDiffuseBuffer@physx@@@physx@@UEBAIXZ 00000001800b6c20 f i PxgParticleSystemCore.obj
 0001:000b5c30       ?getNbActiveDiffuseParticles@PxgParticleAndDiffuseBuffer@physx@@UEBAIXZ 00000001800b6c30 f i PxgParticleSystemCore.obj
 0001:000b5c40       ?getNbActiveParticles@?$PxgParticleBufferBase@VPxsParticleRigidBuffer@physx@@@physx@@UEBAIXZ 00000001800b6c40 f i PxgParticleSystemCore.obj
 0001:000b5c40       ?getNbActiveParticles@?$PxgParticleBufferBase@VPxsParticleClothBuffer@physx@@@physx@@UEBAIXZ 00000001800b6c40 f i PxgParticleSystemCore.obj
 0001:000b5c40       ?getNbActiveParticles@?$PxgParticleBufferBase@VPxsParticleBuffer@physx@@@physx@@UEBAIXZ 00000001800b6c40 f i PxgParticleSystemCore.obj
 0001:000b5c40       ?getNbActiveParticles@?$PxgParticleBufferBase@VPxsParticleAndDiffuseBuffer@physx@@@physx@@UEBAIXZ 00000001800b6c40 f i PxgParticleSystemCore.obj
 0001:000b5c50       ?getNbParticleVolumes@?$PxgParticleBufferBase@VPxsParticleClothBuffer@physx@@@physx@@UEBAIXZ 00000001800b6c50 f i PxgParticleSystemCore.obj
 0001:000b5c50       ?getNbParticleVolumes@?$PxgParticleBufferBase@VPxsParticleRigidBuffer@physx@@@physx@@UEBAIXZ 00000001800b6c50 f i PxgParticleSystemCore.obj
 0001:000b5c50       ?getNbParticleVolumes@?$PxgParticleBufferBase@VPxsParticleAndDiffuseBuffer@physx@@@physx@@UEBAIXZ 00000001800b6c50 f i PxgParticleSystemCore.obj
 0001:000b5c50       ?getNbParticleVolumes@?$PxgParticleBufferBase@VPxsParticleBuffer@physx@@@physx@@UEBAIXZ 00000001800b6c50 f i PxgParticleSystemCore.obj
 0001:000b5c60       ?getNbRigids@PxgParticleRigidBuffer@physx@@UEBAIXZ 00000001800b6c60 f i PxgParticleSystemCore.obj
 0001:000b5c70       ?getNbSprings@PxgParticleClothBuffer@physx@@UEBAIXZ 00000001800b6c70 f i PxgParticleSystemCore.obj
 0001:000b5c80       ?getNbTriangles@PxgParticleClothBuffer@physx@@UEBAIXZ 00000001800b6c80 f i PxgParticleSystemCore.obj
 0001:000b5c90       ?getParticleVolumesD@?$PxgParticleBufferBase@VPxsParticleBuffer@physx@@@physx@@UEBAPEAUPxParticleVolume@2@XZ 00000001800b6c90 f i PxgParticleSystemCore.obj
 0001:000b5c90       ?getParticleVolumesD@?$PxgParticleBufferBase@VPxsParticleRigidBuffer@physx@@@physx@@UEBAPEAUPxParticleVolume@2@XZ 00000001800b6c90 f i PxgParticleSystemCore.obj
 0001:000b5c90       ?getParticleVolumesD@?$PxgParticleBufferBase@VPxsParticleAndDiffuseBuffer@physx@@@physx@@UEBAPEAUPxParticleVolume@2@XZ 00000001800b6c90 f i PxgParticleSystemCore.obj
 0001:000b5c90       ?getParticleVolumesD@?$PxgParticleBufferBase@VPxsParticleClothBuffer@physx@@@physx@@UEBAPEAUPxParticleVolume@2@XZ 00000001800b6c90 f i PxgParticleSystemCore.obj
 0001:000b5ca0       ?getParticleVolumesH@?$PxgParticleBufferBase@VPxsParticleRigidBuffer@physx@@@physx@@UEBAPEAUPxParticleVolume@2@XZ 00000001800b6ca0 f i PxgParticleSystemCore.obj
 0001:000b5ca0       ?getParticleVolumesH@?$PxgParticleBufferBase@VPxsParticleBuffer@physx@@@physx@@UEBAPEAUPxParticleVolume@2@XZ 00000001800b6ca0 f i PxgParticleSystemCore.obj
 0001:000b5ca0       ?getParticleVolumesH@?$PxgParticleBufferBase@VPxsParticleAndDiffuseBuffer@physx@@@physx@@UEBAPEAUPxParticleVolume@2@XZ 00000001800b6ca0 f i PxgParticleSystemCore.obj
 0001:000b5ca0       ?getParticleVolumesH@?$PxgParticleBufferBase@VPxsParticleClothBuffer@physx@@@physx@@UEBAPEAUPxParticleVolume@2@XZ 00000001800b6ca0 f i PxgParticleSystemCore.obj
 0001:000b5ca0       ?getSimulationController@PxgGpuContext@physx@@QEAAPEAVPxgSimulationController@2@XZ 00000001800b6ca0 f i PxgContext.obj
 0001:000b5cb0       ?getAnisotropy1DevicePointer@PxgAnisotropyGenerator@physx@@UEBAPEAV?$PxVec4T@M@2@XZ 00000001800b6cb0 f i PxgAnisotropy.obj
 0001:000b5cb0       ?getPositionInvMassesD@?$PxgParticleBufferBase@VPxsParticleAndDiffuseBuffer@physx@@@physx@@UEBAPEAV?$PxVec4T@M@2@XZ 00000001800b6cb0 f i PxgParticleSystemCore.obj
 0001:000b5cb0       ?getPositionInvMassesD@?$PxgParticleBufferBase@VPxsParticleBuffer@physx@@@physx@@UEBAPEAV?$PxVec4T@M@2@XZ 00000001800b6cb0 f i PxgParticleSystemCore.obj
 0001:000b5cb0       ?getPositionInvMassesD@?$PxgParticleBufferBase@VPxsParticleRigidBuffer@physx@@@physx@@UEBAPEAV?$PxVec4T@M@2@XZ 00000001800b6cb0 f i PxgParticleSystemCore.obj
 0001:000b5cb0       ?getPositionInvMassesD@?$PxgParticleBufferBase@VPxsParticleClothBuffer@physx@@@physx@@UEBAPEAV?$PxVec4T@M@2@XZ 00000001800b6cb0 f i PxgParticleSystemCore.obj
 0001:000b5cb0       ?getSmoothedPositionsDevicePointer@PxgSmoothedPositionGenerator@physx@@UEBAPEAV?$PxVec4T@M@2@XZ 00000001800b6cb0 f i PxgSmoothing.obj
 0001:000b5cc0       ?getPositionInvMassesH@?$PxgParticleBufferBase@VPxsParticleBuffer@physx@@@physx@@UEBAPEAV?$PxVec4T@M@2@XZ 00000001800b6cc0 f i PxgParticleSystemCore.obj
 0001:000b5cc0       ?getPositionInvMassesH@?$PxgParticleBufferBase@VPxsParticleAndDiffuseBuffer@physx@@@physx@@UEBAPEAV?$PxVec4T@M@2@XZ 00000001800b6cc0 f i PxgParticleSystemCore.obj
 0001:000b5cc0       ?getPositionInvMassesH@?$PxgParticleBufferBase@VPxsParticleRigidBuffer@physx@@@physx@@UEBAPEAV?$PxVec4T@M@2@XZ 00000001800b6cc0 f i PxgParticleSystemCore.obj
 0001:000b5cc0       ?getPositionInvMassesH@?$PxgParticleBufferBase@VPxsParticleClothBuffer@physx@@@physx@@UEBAPEAV?$PxVec4T@M@2@XZ 00000001800b6cc0 f i PxgParticleSystemCore.obj
 0001:000b5cd0       ?getRigidOffsetsD@PxgParticleRigidBuffer@physx@@UEBAPEAIXZ 00000001800b6cd0 f i PxgParticleSystemCore.obj
 0001:000b5cd0       ?getRestPositionsD@PxgParticleClothBuffer@physx@@UEAAPEAV?$PxVec4T@M@2@XZ 00000001800b6cd0 f i PxgParticleSystemCore.obj
 0001:000b5ce0       ?getTrianglesD@PxgParticleClothBuffer@physx@@UEBAPEAIXZ 00000001800b6ce0 f i PxgParticleSystemCore.obj
 0001:000b5ce0       ?getRigidCoefficientsD@PxgParticleRigidBuffer@physx@@UEBAPEAMXZ 00000001800b6ce0 f i PxgParticleSystemCore.obj
 0001:000b5cf0       ?getRigidLocalNormalsD@PxgParticleRigidBuffer@physx@@UEBAPEAV?$PxVec4T@M@2@XZ 00000001800b6cf0 f i PxgParticleSystemCore.obj
 0001:000b5d00       ?getRigidLocalPositionsD@PxgParticleRigidBuffer@physx@@UEBAPEAV?$PxVec4T@M@2@XZ 00000001800b6d00 f i PxgParticleSystemCore.obj
 0001:000b5d10       ?getRigidTranslationsD@PxgParticleRigidBuffer@physx@@UEBAPEAV?$PxVec4T@M@2@XZ 00000001800b6d10 f i PxgParticleSystemCore.obj
 0001:000b5d20       ?getUniqueId@?$PxgParticleBufferBase@VPxsParticleAndDiffuseBuffer@physx@@@physx@@UEBAIXZ 00000001800b6d20 f i PxgParticleSystemCore.obj
 0001:000b5d20       ?getUniqueId@?$PxgParticleBufferBase@VPxsParticleRigidBuffer@physx@@@physx@@UEBAIXZ 00000001800b6d20 f i PxgParticleSystemCore.obj
 0001:000b5d20       ?getUniqueId@?$PxgParticleBufferBase@VPxsParticleClothBuffer@physx@@@physx@@UEBAIXZ 00000001800b6d20 f i PxgParticleSystemCore.obj
 0001:000b5d20       ?getUniqueId@?$PxgParticleBufferBase@VPxsParticleBuffer@physx@@@physx@@UEBAIXZ 00000001800b6d20 f i PxgParticleSystemCore.obj
 0001:000b5d30       ?getVelocitiesH@?$PxgParticleBufferBase@VPxsParticleRigidBuffer@physx@@@physx@@UEBAPEAV?$PxVec4T@M@2@XZ 00000001800b6d30 f i PxgParticleSystemCore.obj
 0001:000b5d30       ?getVelocitiesH@?$PxgParticleBufferBase@VPxsParticleClothBuffer@physx@@@physx@@UEBAPEAV?$PxVec4T@M@2@XZ 00000001800b6d30 f i PxgParticleSystemCore.obj
 0001:000b5d30       ?getVelocitiesH@?$PxgParticleBufferBase@VPxsParticleAndDiffuseBuffer@physx@@@physx@@UEBAPEAV?$PxVec4T@M@2@XZ 00000001800b6d30 f i PxgParticleSystemCore.obj
 0001:000b5d30       ?getVelocitiesH@?$PxgParticleBufferBase@VPxsParticleBuffer@physx@@@physx@@UEBAPEAV?$PxVec4T@M@2@XZ 00000001800b6d30 f i PxgParticleSystemCore.obj
 0001:000b5d40       ?gpuDMAActiveParticleIndices@PxgParticleSystemCore@physx@@QEAAXPEBIIPEAUCUstream_st@@@Z 00000001800b6d40 f   PxgParticleSystemCore.obj
 0001:000b5dc0       ?integrateSystem@PxgParticleSystemCore@physx@@IEAAX_K0IMM@Z 00000001800b6dc0 f   PxgParticleSystemCore.obj
 0001:000b5ed0       ?preDiffuseIntegrateSystem@PxgDiffuseParticleCore@physx@@QEAAX_K0IV?$PxVec3T@M@2@MPEAUCUstream_st@@@Z 00000001800b6ed0 f   PxgParticleSystemCore.obj
 0001:000b5fe0       ?preIntegrateSystem@PxgParticleSystemCore@physx@@IEAAX_K0IV?$PxVec3T@M@2@MPEAUCUstream_st@@@Z 00000001800b6fe0 f   PxgParticleSystemCore.obj
 0001:000b6130       ?prepParticleConstraint@PxgParticleSystemCore@physx@@MEAAX_K00_NM@Z 00000001800b7130 f   PxgParticleSystemCore.obj
 0001:000b6310       ?prepPrimitiveConstraint@PxgParticleSystemCore@physx@@IEAAX_K00M_NPEAUCUstream_st@@@Z 00000001800b7310 f   PxgParticleSystemCore.obj
 0001:000b6740       ?prepRigidAttachments@PxgParticleSystemCore@physx@@IEAAX_K0_NMPEAUCUstream_st@@I0I@Z 00000001800b7740 f   PxgParticleSystemCore.obj
 0001:000b6900       ?raiseFlags@?$PxgParticleBufferBase@VPxsParticleAndDiffuseBuffer@physx@@@physx@@UEAAXW4Enum@PxParticleBufferFlag@2@@Z 00000001800b7900 f i PxgParticleSystemCore.obj
 0001:000b6900       ?raiseFlags@?$PxgParticleBufferBase@VPxsParticleRigidBuffer@physx@@@physx@@UEAAXW4Enum@PxParticleBufferFlag@2@@Z 00000001800b7900 f i PxgParticleSystemCore.obj
 0001:000b6900       ?raiseFlags@?$PxgParticleBufferBase@VPxsParticleClothBuffer@physx@@@physx@@UEAAXW4Enum@PxParticleBufferFlag@2@@Z 00000001800b7900 f i PxgParticleSystemCore.obj
 0001:000b6900       ?raiseFlags@?$PxgParticleBufferBase@VPxsParticleBuffer@physx@@@physx@@UEAAXW4Enum@PxParticleBufferFlag@2@@Z 00000001800b7900 f i PxgParticleSystemCore.obj
 0001:000b6910       ?recreate@?$PxArray@UPxgRadixSortBlockDesc@physx@@VPxVirtualAllocator@2@@physx@@IEAAXI@Z 00000001800b7910 f i PxgParticleSystemCore.obj
 0001:000b6910       ?recreate@?$PxArray@UPxgParticleRigidSimBuffer@physx@@VPxVirtualAllocator@2@@physx@@IEAAXI@Z 00000001800b7910 f i PxgPBDParticleSystemCore.obj
 0001:000b69d0       ?release@PxgParticleBuffer@physx@@UEAAXXZ 00000001800b79d0 f i PxgParticleSystemCore.obj
 0001:000b69d0       ?release@PxgParticleClothBuffer@physx@@UEAAXXZ 00000001800b79d0 f i PxgParticleSystemCore.obj
 0001:000b69d0       ?release@PxgParticleAndDiffuseBuffer@physx@@UEAAXXZ 00000001800b79d0 f i PxgParticleSystemCore.obj
 0001:000b69d0       ?release@PxgParticleRigidBuffer@physx@@UEAAXXZ 00000001800b79d0 f i PxgParticleSystemCore.obj
 0001:000b69f0       ?releaseInternalDiffuseParticleDataBuffer@PxgDiffuseParticleCore@physx@@QEAAXXZ 00000001800b79f0 f   PxgParticleSystemCore.obj
 0001:000b6b50       ?releaseInternalParticleSystemDataBuffer@PxgParticleSystemCore@physx@@IEAAXXZ 00000001800b7b50 f   PxgParticleSystemCore.obj
 0001:000b6c00       ?reorderDataAndFindCellStart@PxgParticleSystemCore@physx@@IEAAXPEAVPxgParticleSystem@2@_KII@Z 00000001800b7c00 f   PxgParticleSystemCore.obj
 0001:000b6da0       ?resetContactCounts@PxgParticleSystemCore@physx@@QEAAXXZ 00000001800b7da0 f   PxgParticleSystemCore.obj
 0001:000b6e00       ?resize@?$PxArray@UPxgRadixSortBlockDesc@physx@@VPxVirtualAllocator@2@@physx@@QEAAXIAEBUPxgRadixSortBlockDesc@2@@Z 00000001800b7e00 f i PxgParticleSystemCore.obj
 0001:000b6e80       ?resizeDiffuseParticleParticleBuffers@PxgDiffuseParticleCore@physx@@IEAAXAEAVPxgParticleSystem@2@PEAVPxgParticleSystemDiffuseBuffer@2@I@Z 00000001800b7e80 f   PxgParticleSystemCore.obj
 0001:000b6ed0       ?selfCollision@PxgParticleSystemCore@physx@@IEAAXAEAVPxgParticleSystem@2@PEAV32@II@Z 00000001800b7ed0 f   PxgParticleSystemCore.obj
 0001:000b7020       ?setCloths@PxgParticleClothBuffer@physx@@UEAAXAEAUPxPartitionedParticleCloth@2@@Z 00000001800b8020 f   PxgParticleSystemCore.obj
 0001:000b7780       ?setDiffuseParticleParams@PxgParticleAndDiffuseBuffer@physx@@UEAAXAEBVPxDiffuseParticleParams@2@@Z 00000001800b8780 f   PxgParticleSystemCore.obj
 0001:000b77b0       ?setMaxActiveDiffuseParticles@PxgParticleAndDiffuseBuffer@physx@@UEAAXI@Z 00000001800b87b0 f   PxgParticleSystemCore.obj
 0001:000b77c0       ?setNbActiveParticles@?$PxgParticleBufferBase@VPxsParticleBuffer@physx@@@physx@@UEAAXI@Z 00000001800b87c0 f i PxgParticleSystemCore.obj
 0001:000b77c0       ?setNbActiveParticles@?$PxgParticleBufferBase@VPxsParticleClothBuffer@physx@@@physx@@UEAAXI@Z 00000001800b87c0 f i PxgParticleSystemCore.obj
 0001:000b77c0       ?setNbActiveParticles@?$PxgParticleBufferBase@VPxsParticleAndDiffuseBuffer@physx@@@physx@@UEAAXI@Z 00000001800b87c0 f i PxgParticleSystemCore.obj
 0001:000b77c0       ?setNbActiveParticles@?$PxgParticleBufferBase@VPxsParticleRigidBuffer@physx@@@physx@@UEAAXI@Z 00000001800b87c0 f i PxgParticleSystemCore.obj
 0001:000b77d0       ?setNbActiveParticles@PxgParticleClothBuffer@physx@@UEAAXI@Z 00000001800b87d0 f   PxgParticleSystemCore.obj
 0001:000b77f0       ?setNbParticleVolumes@?$PxgParticleBufferBase@VPxsParticleBuffer@physx@@@physx@@UEAAXI@Z 00000001800b87f0 f i PxgParticleSystemCore.obj
 0001:000b77f0       ?setNbParticleVolumes@?$PxgParticleBufferBase@VPxsParticleRigidBuffer@physx@@@physx@@UEAAXI@Z 00000001800b87f0 f i PxgParticleSystemCore.obj
 0001:000b77f0       ?setNbParticleVolumes@?$PxgParticleBufferBase@VPxsParticleAndDiffuseBuffer@physx@@@physx@@UEAAXI@Z 00000001800b87f0 f i PxgParticleSystemCore.obj
 0001:000b77f0       ?setNbParticleVolumes@?$PxgParticleBufferBase@VPxsParticleClothBuffer@physx@@@physx@@UEAAXI@Z 00000001800b87f0 f i PxgParticleSystemCore.obj
 0001:000b7800       ?setNbRigids@PxgParticleRigidBuffer@physx@@UEAAXI@Z 00000001800b8800 f i PxgParticleSystemCore.obj
 0001:000b7810       ?setNbTriangles@PxgParticleClothBuffer@physx@@UEAAXI@Z 00000001800b8810 f i PxgParticleSystemCore.obj
 0001:000b7820       ?setRigidAttachments@?$PxgParticleBufferBase@VPxsParticleBuffer@physx@@@physx@@UEAAXPEAUPxParticleRigidAttachment@2@I@Z 00000001800b8820 f i PxgParticleSystemCore.obj
 0001:000b7820       ?setRigidAttachments@?$PxgParticleBufferBase@VPxsParticleAndDiffuseBuffer@physx@@@physx@@UEAAXPEAUPxParticleRigidAttachment@2@I@Z 00000001800b8820 f i PxgParticleSystemCore.obj
 0001:000b7820       ?setRigidAttachments@?$PxgParticleBufferBase@VPxsParticleClothBuffer@physx@@@physx@@UEAAXPEAUPxParticleRigidAttachment@2@I@Z 00000001800b8820 f i PxgParticleSystemCore.obj
 0001:000b7820       ?setRigidAttachments@?$PxgParticleBufferBase@VPxsParticleRigidBuffer@physx@@@physx@@UEAAXPEAUPxParticleRigidAttachment@2@I@Z 00000001800b8820 f i PxgParticleSystemCore.obj
 0001:000b7830       ?setRigidFilters@?$PxgParticleBufferBase@VPxsParticleClothBuffer@physx@@@physx@@UEAAXPEAUPxParticleRigidFilterPair@2@I@Z 00000001800b8830 f i PxgParticleSystemCore.obj
 0001:000b7830       ?setRigidFilters@?$PxgParticleBufferBase@VPxsParticleAndDiffuseBuffer@physx@@@physx@@UEAAXPEAUPxParticleRigidFilterPair@2@I@Z 00000001800b8830 f i PxgParticleSystemCore.obj
 0001:000b7830       ?setRigidFilters@?$PxgParticleBufferBase@VPxsParticleBuffer@physx@@@physx@@UEAAXPEAUPxParticleRigidFilterPair@2@I@Z 00000001800b8830 f i PxgParticleSystemCore.obj
 0001:000b7830       ?setRigidFilters@?$PxgParticleBufferBase@VPxsParticleRigidBuffer@physx@@@physx@@UEAAXPEAUPxParticleRigidFilterPair@2@I@Z 00000001800b8830 f i PxgParticleSystemCore.obj
 0001:000b7840       ?setSeed@RandomR250@Cm@physx@@QEAAXH@Z 00000001800b8840 f i PxgParticleSystemCore.obj
 0001:000b7a10       ?solveOneWayCollision@PxgParticleSystemCore@physx@@IEAAX_K0IMM_N@Z 00000001800b8a10 f   PxgParticleSystemCore.obj
 0001:000b7b60       ?solvePrimitiveCollisionForParticles@PxgParticleSystemCore@physx@@IEAAX_K000M_NM1@Z 00000001800b8b60 f   PxgParticleSystemCore.obj
 0001:000b7f00       ?solvePrimitiveCollisionForRigids@PxgParticleSystemCore@physx@@IEAAX_K000PEAUCUstream_st@@M_NM2@Z 00000001800b8f00 f   PxgParticleSystemCore.obj
 0001:000b81e0       ?solveRigidAttachments@PxgParticleSystemCore@physx@@IEAAX_K000PEAUCUstream_st@@M_NM200I@Z 00000001800b91e0 f   PxgParticleSystemCore.obj
 0001:000b8a10       ?sortContacts@PxgParticleSystemCore@physx@@QEAAXI@Z 00000001800b9a10 f   PxgParticleSystemCore.obj
 0001:000b9510       ?stepParticleSystems@PxgParticleSystemCore@physx@@IEAAX_K0IMM_N@Z 00000001800ba510 f   PxgParticleSystemCore.obj
 0001:000b9680       ?updateBounds@PxgParticleSystemCore@physx@@UEAAXPEAVPxgParticleSystem@2@PEAII@Z 00000001800ba680 f   PxgParticleSystemCore.obj
 0001:000b99d0       ?updateParticleSystemData@PxgParticleSystemCore@physx@@QEAAXAEAVPxgParticleSystem@2@AEAVParticleSystemCore@Dy@2@@Z 00000001800ba9d0 f   PxgParticleSystemCore.obj
 0001:000b9b70       ?updateSortedVelocity@PxgParticleSystemCore@physx@@IEAAX_K0IM_N@Z 00000001800bab70 f   PxgParticleSystemCore.obj
 0001:000b9cd0       ??$PxSort@IUComparer@physx@@V?$PxReflectionAllocator@I@2@@physx@@YAXPEAIIAEBUComparer@0@AEBV?$PxReflectionAllocator@I@0@I@Z 00000001800bacd0 f i PxgPBDParticleSystemCore.obj
 0001:000ba150       ??0PxgPBDParticleSystemCore@physx@@QEAA@PEAVPxgCudaKernelWranglerManager@1@PEAVPxCudaContextManager@1@PEAVPxgHeapMemoryAllocatorManager@1@PEAVPxgSimulationController@1@PEAVPxgGpuContext@1@I@Z 00000001800bb150 f   PxgPBDParticleSystemCore.obj
 0001:000ba240       ??_EPxgPBDParticleSystemCore@physx@@WHEA@EAAPEAXI@Z 00000001800bb240 f i PxgPBDParticleSystemCore.obj
 0001:000ba250       ??_GPxgPBDParticleSystemCore@physx@@UEAAPEAXI@Z 00000001800bb250 f i PxgPBDParticleSystemCore.obj
 0001:000ba250       ??_EPxgPBDParticleSystemCore@physx@@UEAAPEAXI@Z 00000001800bb250 f i PxgPBDParticleSystemCore.obj
 0001:000ba2c0       ?allocateParticleDataBuffer@PxgPBDParticleSystemCore@physx@@AEAAXPEAPEAXPEAUCUstream_st@@@Z 00000001800bb2c0 f   PxgPBDParticleSystemCore.obj
 0001:000baa60       ?applyParticleBufferDataDEPRECATED@PxgPBDParticleSystemCore@physx@@QEAAXPEBIPEBUPxGpuParticleBufferIndexPair@2@PEBV?$PxFlags@W4Enum@PxParticleBufferFlag@physx@@I@2@IPEAUCUevent_st@@3@Z 00000001800bba60 f   PxgPBDParticleSystemCore.obj
 0001:000bac10       ?constraintPrep@PxgPBDParticleSystemCore@physx@@UEAAX_K000MPEAUCUstream_st@@_NI@Z 00000001800bbc10 f   PxgPBDParticleSystemCore.obj
 0001:000bae90       ?createUserParticleData@PxgPBDParticleSystemCore@physx@@AEAA_NAEAVPxgParticleSystem@2@AEAVParticleSystemCore@Dy@2@PEAVPxgParticleSystemBuffer@2@PEAVPxgParticleSystemDiffuseBuffer@2@PEAUCUstream_st@@@Z 00000001800bbe90 f   PxgPBDParticleSystemCore.obj
 0001:000bbf80       ?finalizeVelocities@PxgPBDParticleSystemCore@physx@@UEAAXMM@Z 00000001800bcf80 f   PxgPBDParticleSystemCore.obj
 0001:000bc180       ?getMaxIterationCount@PxgPBDParticleSystemCore@physx@@UEAAXAEAVPxgBodySimManager@2@AEAH1@Z 00000001800bd180 f   PxgPBDParticleSystemCore.obj
 0001:000bc1b0       ?gpuMemDmaUpParticleSystem@PxgPBDParticleSystemCore@physx@@UEAAXAEAVPxgBodySimManager@2@PEAUCUstream_st@@@Z 00000001800bd1b0 f   PxgPBDParticleSystemCore.obj
 0001:000bc370       ?growAndPushBack@?$PxArray@PEAVPxgParticleSystemCore@physx@@V?$PxReflectionAllocator@PEAVPxgParticleSystemCore@physx@@@2@@physx@@IEAAAEAPEAVPxgParticleSystemCore@2@AEBQEAV32@@Z 00000001800bd370 f i PxgPBDParticleSystemCore.obj
 0001:000bc490       ?integrateSystems@PxgPBDParticleSystemCore@physx@@UEAAXMM@Z 00000001800bd490 f   PxgPBDParticleSystemCore.obj
 0001:000bca70       ?onPostSolve@PxgPBDParticleSystemCore@physx@@UEAAXXZ 00000001800bda70 f   PxgPBDParticleSystemCore.obj
 0001:000bcb60       ?preIntegrateSystems@PxgPBDParticleSystemCore@physx@@UEAAXIV?$PxVec3T@M@2@M@Z 00000001800bdb60 f   PxgPBDParticleSystemCore.obj
 0001:000bcda0       ?prepParticleConstraint@PxgPBDParticleSystemCore@physx@@UEAAX_K00_NM@Z 00000001800bdda0 f   PxgPBDParticleSystemCore.obj
 0001:000bd1c0       ?recreate@?$PxArray@GVPxVirtualAllocator@physx@@@physx@@IEAAXI@Z 00000001800be1c0 f i PxgPBDParticleSystemCore.obj
 0001:000bd270       ?recreate@?$PxArray@PEAVPxgParticleSystemBuffer@physx@@V?$PxReflectionAllocator@PEAVPxgParticleSystemBuffer@physx@@@2@@physx@@IEAAXI@Z 00000001800be270 f i PxgPBDParticleSystemCore.obj
 0001:000bd360       ?recreate@?$PxArray@PEAVPxgParticleSystemDiffuseBuffer@physx@@V?$PxReflectionAllocator@PEAVPxgParticleSystemDiffuseBuffer@physx@@@2@@physx@@IEAAXI@Z 00000001800be360 f i PxgPBDParticleSystemCore.obj
 0001:000bd450       ?recreate@?$PxArray@UPxgParticleClothSimBuffer@physx@@VPxVirtualAllocator@2@@physx@@IEAAXI@Z 00000001800be450 f i PxgPBDParticleSystemCore.obj
 0001:000bd530       ?recreate@?$PxArray@UPxgParticleDiffuseSimBuffer@physx@@VPxVirtualAllocator@2@@physx@@IEAAXI@Z 00000001800be530 f i PxgPBDParticleSystemCore.obj
 0001:000bd530       ?recreate@?$PxArray@UPxgParticleSimBuffer@physx@@VPxVirtualAllocator@2@@physx@@IEAAXI@Z 00000001800be530 f i PxgPBDParticleSystemCore.obj
 0001:000bd600       ?releaseParticleSystemDataBuffer@PxgPBDParticleSystemCore@physx@@UEAAXXZ 00000001800be600 f   PxgPBDParticleSystemCore.obj
 0001:000bd630       ?resize@?$PxArray@GVPxVirtualAllocator@physx@@@physx@@QEAAXIAEBG@Z 00000001800be630 f i PxgPBDParticleSystemCore.obj
 0001:000bd6f0       ?resize@?$PxArray@PEAVPxgParticleSystemBuffer@physx@@V?$PxReflectionAllocator@PEAVPxgParticleSystemBuffer@physx@@@2@@physx@@QEAAXIAEBQEAVPxgParticleSystemBuffer@2@@Z 00000001800be6f0 f i PxgPBDParticleSystemCore.obj
 0001:000bd7b0       ?resize@?$PxArray@PEAVPxgParticleSystemDiffuseBuffer@physx@@V?$PxReflectionAllocator@PEAVPxgParticleSystemDiffuseBuffer@physx@@@2@@physx@@QEAAXIAEBQEAVPxgParticleSystemDiffuseBuffer@2@@Z 00000001800be7b0 f i PxgPBDParticleSystemCore.obj
 0001:000bd870       ?resize@?$PxArray@VPxgParticleSystem@physx@@VPxVirtualAllocator@2@@physx@@QEAAXIAEBVPxgParticleSystem@2@@Z 00000001800be870 f i PxgPBDParticleSystemCore.obj
 0001:000bd900       ?resizeDiffuseParticleDiffuseBuffer@PxgPBDParticleSystemCore@physx@@AEAAXAEAVPxgParticleSystem@2@PEAVPxgParticleSystemDiffuseBuffer@2@IPEAUCUstream_st@@@Z 00000001800be900 f   PxgPBDParticleSystemCore.obj
 0001:000bdca0       ?resizeParticleDataBuffer@PxgPBDParticleSystemCore@physx@@AEAAXAEAVPxgParticleSystem@2@PEAVPxgParticleSystemBuffer@2@IIPEAUCUstream_st@@@Z 00000001800beca0 f   PxgPBDParticleSystemCore.obj
 0001:000be300       ?selfCollision@PxgPBDParticleSystemCore@physx@@UEAAXXZ 00000001800bf300 f   PxgPBDParticleSystemCore.obj
 0001:000be3a0       ?solve@PxgPBDParticleSystemCore@physx@@UEAAX_K000MPEAUCUstream_st@@@Z 00000001800bf3a0 f   PxgPBDParticleSystemCore.obj
 0001:000be5a0       ?solveDiffuseParticles@PxgPBDParticleSystemCore@physx@@AEAAX_K0IM@Z 00000001800bf5a0 f   PxgPBDParticleSystemCore.obj
 0001:000beac0       ?solveParticleCollision@PxgPBDParticleSystemCore@physx@@QEAAXM_NM@Z 00000001800bfac0 f   PxgPBDParticleSystemCore.obj
 0001:000bef90       ?solveSprings@PxgPBDParticleSystemCore@physx@@QEAAX_K0IM_N@Z 00000001800bff90 f   PxgPBDParticleSystemCore.obj
 0001:000bf2c0       ?solveTGS@PxgPBDParticleSystemCore@physx@@UEAAX_K000MMPEAUCUstream_st@@_NHHM@Z 00000001800c02c0 f   PxgPBDParticleSystemCore.obj
 0001:000bf540       ?updateDirtyData@PxgPBDParticleSystemCore@physx@@AEAAXAEAVPxgBodySimManager@2@PEAUCUstream_st@@@Z 00000001800c0540 f   PxgPBDParticleSystemCore.obj
 0001:000bfc20       ?updateGrid@PxgPBDParticleSystemCore@physx@@UEAAXXZ 00000001800c0c20 f   PxgPBDParticleSystemCore.obj
 0001:000c02b0       ?updateParticles@PxgPBDParticleSystemCore@physx@@UEAAXM@Z 00000001800c12b0 f   PxgPBDParticleSystemCore.obj
 0001:000c0300       ??0PxgSoftBodyCore@physx@@QEAA@PEAVPxgCudaKernelWranglerManager@1@PEAVPxCudaContextManager@1@PEAVPxgHeapMemoryAllocatorManager@1@PEAVPxgSimulationController@1@PEAVPxgGpuContext@1@II_N@Z 00000001800c1300 f   PxgSoftBodyCore.obj
 0001:000c0740       ??1PxgSoftBodyCore@physx@@UEAA@XZ 00000001800c1740 f   PxgSoftBodyCore.obj
 0001:000c0900       ??_GPxgSoftBodyCore@physx@@UEAAPEAXI@Z 00000001800c1900 f i PxgSoftBodyCore.obj
 0001:000c0900       ??_EPxgSoftBodyCore@physx@@UEAAPEAXI@Z 00000001800c1900 f i PxgSoftBodyCore.obj
 0001:000c0940       ?applyExternalTetraDeltaGM@PxgSoftBodyCore@physx@@QEAAXIMPEAUCUstream_st@@@Z 00000001800c1940 f   PxgSoftBodyCore.obj
 0001:000c0aa0       ?applySoftBodyDataDEPRECATED@PxgSoftBodyCore@physx@@QEAAXPEAPEAXPEAX1W4Enum@PxSoftBodyGpuDataFlag@2@IIPEAUCUevent_st@@3@Z 00000001800c1aa0 f   PxgSoftBodyCore.obj
 0001:000c0b70       ?checkBufferOverflows@PxgSoftBodyCore@physx@@QEAAXXZ 00000001800c1b70 f   PxgSoftBodyCore.obj
 0001:000c0c90       ?constraintPrep@PxgSoftBodyCore@physx@@QEAAXU?$PxgDevicePointer@UPxgPrePrepDesc@physx@@@2@U?$PxgDevicePointer@UPxgConstraintPrepareDesc@physx@@@2@MU?$PxgDevicePointer@UPxgSolverSharedDescBase@physx@@@2@PEAUCUstream_st@@_NII@Z 00000001800c1c90 f   PxgSoftBodyCore.obj
 0001:000c1730       ?copyOrApplySoftBodyDataDEPRECATED@PxgSoftBodyCore@physx@@AEAAXIPEAIPEAPEAE0III@Z 00000001800c2730 f   PxgSoftBodyCore.obj
 0001:000c1890       ?copySoftBodyDataDEPRECATED@PxgSoftBodyCore@physx@@QEAAXPEAPEAXPEAX1W4Enum@PxSoftBodyGpuDataFlag@2@IIPEAUCUevent_st@@@Z 00000001800c2890 f   PxgSoftBodyCore.obj
 0001:000c1940       ?createActivatedDeactivatedLists@PxgSoftBodyCore@physx@@QEAAXXZ 00000001800c2940 f   PxgSoftBodyCore.obj
 0001:000c1aa0       ?finalizeVelocities@PxgSoftBodyCore@physx@@QEAAXMM_N@Z 00000001800c2aa0 f   PxgSoftBodyCore.obj
 0001:000c1f40       ?preIntegrateSystem@PxgSoftBodyCore@physx@@AEAAXU?$PxgDevicePointer@VPxgSoftBody@physx@@@2@U?$PxgDevicePointer@I@2@IIV?$PxVec3T@M@2@MPEAUCUstream_st@@@Z 00000001800c2f40 f   PxgSoftBodyCore.obj
 0001:000c21c0       ?preIntegrateSystems@PxgSoftBodyCore@physx@@QEAAXPEAVPxgSoftBody@2@PEAIIV?$PxVec3T@M@2@M@Z 00000001800c31c0 f   PxgSoftBodyCore.obj
 0001:000c22b0       ?prepRigidContactConstraint@PxgSoftBodyCore@physx@@AEAAXU?$PxgDevicePointer@UPxgPrePrepDesc@physx@@@2@U?$PxgDevicePointer@UPxgConstraintPrepareDesc@physx@@@2@MU?$PxgDevicePointer@UPxgSolverSharedDescBase@physx@@@2@PEAUCUstream_st@@_NII@Z 00000001800c32b0 f   PxgSoftBodyCore.obj
 0001:000c2570       ?prepSoftBodyParticleConstraint@PxgSoftBodyCore@physx@@AEAAXXZ 00000001800c3570 f   PxgSoftBodyCore.obj
 0001:000c2a20       ?queryRigidContactReferenceCount@PxgSoftBodyCore@physx@@AEAAXU?$PxgDevicePointer@UPxgPrePrepDesc@physx@@@2@U?$PxgDevicePointer@UPxgSolverCoreDesc@physx@@@2@U?$PxgDevicePointer@UPxgSolverSharedDescBase@physx@@@2@U?$PxgDevicePointer@UPxgArticulationCoreDesc@physx@@@2@M@Z 00000001800c3a20 f   PxgSoftBodyCore.obj
 0001:000c2c60       ?refitBound@PxgSoftBodyCore@physx@@QEAAXPEAVPxgSoftBody@2@I@Z 00000001800c3c60 f   PxgSoftBodyCore.obj
 0001:000c2e50       ?resetContactCounts@PxgSoftBodyCore@physx@@QEAAXXZ 00000001800c3e50 f   PxgSoftBodyCore.obj
 0001:000c2fa0       ?selfCollision@PxgSoftBodyCore@physx@@QEAAXXZ 00000001800c3fa0 f   PxgSoftBodyCore.obj
 0001:000c3450       ?solve@PxgSoftBodyCore@physx@@QEAAXU?$PxgDevicePointer@UPxgPrePrepDesc@physx@@@2@U?$PxgDevicePointer@UPxgConstraintPrepareDesc@physx@@@2@U?$PxgDevicePointer@UPxgSolverCoreDesc@physx@@@2@U?$PxgDevicePointer@UPxgSolverSharedDescBase@physx@@@2@U?$PxgDevicePointer@UPxgArticulationCoreDesc@physx@@@2@MPEAUCUstream_st@@_N@Z 00000001800c4450 f   PxgSoftBodyCore.obj
 0001:000c3eb0       ?solveClothAttachmentDelta@PxgSoftBodyCore@physx@@AEAAXXZ 00000001800c4eb0 f   PxgSoftBodyCore.obj
 0001:000c3ff0       ?solveCorotationalFEM@PxgSoftBodyCore@physx@@AEAAXPEAVPxgSoftBody@2@0U?$PxgDevicePointer@I@2@IMPEAUCUstream_st@@_N3@Z 00000001800c4ff0 f   PxgSoftBodyCore.obj
 0001:000c44b0       ?solveParticleAttachmentDelta@PxgSoftBodyCore@physx@@AEAAXXZ 00000001800c54b0 f   PxgSoftBodyCore.obj
 0001:000c45f0       ?solveRSContactsOutputRigidDelta@PxgSoftBodyCore@physx@@AEAAXU?$PxgDevicePointer@UPxgPrePrepDesc@physx@@@2@U?$PxgDevicePointer@UPxgSolverCoreDesc@physx@@@2@U?$PxgDevicePointer@UPxgSolverSharedDescBase@physx@@@2@U?$PxgDevicePointer@UPxgArticulationCoreDesc@physx@@@2@PEAUCUstream_st@@M@Z 00000001800c55f0 f   PxgSoftBodyCore.obj
 0001:000c4930       ?solveRSContactsOutputRigidDeltaTGS@PxgSoftBodyCore@physx@@AEAAXU?$PxgDevicePointer@UPxgPrePrepDesc@physx@@@2@U?$PxgDevicePointer@UPxgSolverCoreDesc@physx@@@2@U?$PxgDevicePointer@UPxgSolverSharedDescBase@physx@@@2@U?$PxgDevicePointer@UPxgArticulationCoreDesc@physx@@@2@PEAUCUstream_st@@M@Z 00000001800c5930 f   PxgSoftBodyCore.obj
 0001:000c4c50       ?solveSCContactsOutputDelta@PxgSoftBodyCore@physx@@AEAAXXZ 00000001800c5c50 f   PxgSoftBodyCore.obj
 0001:000c4de0       ?solveSPContactsOutputParticleDelta@PxgSoftBodyCore@physx@@AEAAXMMPEAUCUstream_st@@@Z 00000001800c5de0 f   PxgSoftBodyCore.obj
 0001:000c5180       ?solveSPContactsOutputSoftBodyDelta@PxgSoftBodyCore@physx@@AEAAXMM@Z 00000001800c6180 f   PxgSoftBodyCore.obj
 0001:000c5360       ?solveSSContactsOutputSoftBodyDelta@PxgSoftBodyCore@physx@@AEAAXMM_N@Z 00000001800c6360 f   PxgSoftBodyCore.obj
 0001:000c5530       ?solveSoftBodyAttachmentDelta@PxgSoftBodyCore@physx@@AEAAXXZ 00000001800c6530 f   PxgSoftBodyCore.obj
 0001:000c5640       ?solveTGS@PxgSoftBodyCore@physx@@QEAAXU?$PxgDevicePointer@UPxgPrePrepDesc@physx@@@2@U?$PxgDevicePointer@UPxgConstraintPrepareDesc@physx@@@2@U?$PxgDevicePointer@UPxgSolverCoreDesc@physx@@@2@U?$PxgDevicePointer@UPxgSolverSharedDescBase@physx@@@2@U?$PxgDevicePointer@UPxgArticulationCoreDesc@physx@@@2@MPEAUCUstream_st@@_NM6AEBV?$PxVec3T@M@2@@Z 00000001800c6640 f   PxgSoftBodyCore.obj
 0001:000c6280       ?sortContacts@PxgSoftBodyCore@physx@@QEAAXI@Z 00000001800c7280 f   PxgSoftBodyCore.obj
 0001:000c70e0       ?syncSoftBodies@PxgSoftBodyCore@physx@@QEAAXXZ 00000001800c80e0 f   PxgSoftBodyCore.obj
 0001:000c70e0       ?syncCloths@PxgFEMClothCore@physx@@QEAAXXZ 00000001800c80e0 f   PxgFEMClothCore.obj
 0001:000c7120       ?updateTetModelVerts@PxgSoftBodyCore@physx@@AEAAXU?$PxgDevicePointer@VPxgSoftBody@physx@@@2@U?$PxgDevicePointer@I@2@IPEAUCUstream_st@@@Z 00000001800c8120 f   PxgSoftBodyCore.obj
 0001:000c7230       ?updateTetraRotations@PxgSoftBodyCore@physx@@QEAAXXZ 00000001800c8230 f   PxgSoftBodyCore.obj
 0001:000c7360       ?updateUserData@PxgSoftBodyCore@physx@@QEAA_NAEAV?$PxArray@VPxgSoftBody@physx@@VPxVirtualAllocator@2@@2@AEAV?$PxArray@IV?$PxReflectionAllocator@I@physx@@@2@PEBIIPEAPEAX@Z 00000001800c8360 f   PxgSoftBodyCore.obj
 0001:000c7790       ?computeTetMeshByteSize@PxgSoftBodyUtil@physx@@SAIPEBVBVTetrahedronMesh@Gu@2@@Z 00000001800c8790 f   PxgSoftBody.obj
 0001:000c7d80       ?dataIndexFromFlagDEPRECATED@PxgSoftBody@physx@@SAIW4Enum@PxSoftBodyGpuDataFlag@2@@Z 00000001800c8d80 f   PxgSoftBody.obj
 0001:000c7df0       ?deallocate@PxgSoftBody@physx@@QEAAXPEAVPxsHeapMemoryAllocator@2@@Z 00000001800c8df0 f   PxgSoftBody.obj
 0001:000c7f60       ?initialTetData@PxgSoftBodyUtil@physx@@SAXAEAVPxgSoftBody@2@PEBVBVTetrahedronMesh@Gu@2@PEBVTetrahedronMesh@52@PEBVDeformableVolumeAuxData@52@PEBGPEAVPxsHeapMemoryAllocator@2@@Z 00000001800c8f60 f   PxgSoftBody.obj
 0001:000c8a00       ?loadOutTetMesh@PxgSoftBodyUtil@physx@@SAIPEAXPEBVBVTetrahedronMesh@Gu@2@@Z 00000001800c9a00 f   PxgSoftBody.obj
 0001:000c8ac0       ??0PxgFEMClothCore@physx@@QEAA@PEAVPxgCudaKernelWranglerManager@1@PEAVPxCudaContextManager@1@PEAVPxgHeapMemoryAllocatorManager@1@PEAVPxgSimulationController@1@PEAVPxgGpuContext@1@II_N@Z 00000001800c9ac0 f   PxgFEMClothCore.obj
 0001:000c8cd0       ??_GPxgFEMClothCore@physx@@UEAAPEAXI@Z 00000001800c9cd0 f i PxgFEMClothCore.obj
 0001:000c8cd0       ??_EPxgFEMClothCore@physx@@UEAAPEAXI@Z 00000001800c9cd0 f i PxgFEMClothCore.obj
 0001:000c8e40       ?applyDamping@PxgFEMClothCore@physx@@QEAAXIMPEAUCUstream_st@@@Z 00000001800c9e40 f   PxgFEMClothCore.obj
 0001:000c9120       ?applyExternalDelta@PxgFEMClothCore@physx@@QEAAXIMPEAUCUstream_st@@@Z 00000001800ca120 f   PxgFEMClothCore.obj
 0001:000c9270       ?checkBufferOverflows@PxgFEMClothCore@physx@@QEAAXXZ 00000001800ca270 f   PxgFEMClothCore.obj
 0001:000c9390       ?classifyTrianglePairs@physx@@YAXAEBV?$PxArray@Uuint4@@V?$PxReflectionAllocator@Uuint4@@@physx@@@1@AEBV?$PxArray@IV?$PxReflectionAllocator@I@physx@@@1@IPEAI2AEAV31@@Z 00000001800ca390 f   PxgFEMClothCore.obj
 0001:000c9520       ?classifyTriangles@physx@@YAXQEBUuint4@@AEBV?$PxArray@IV?$PxReflectionAllocator@I@physx@@@1@IPEAI2AEAV31@@Z 00000001800ca520 f   PxgFEMClothCore.obj
 0001:000c9780       ?combineTrianglePairPartitions@physx@@YAXAEAVPxgFEMCloth@1@AEAV?$PxArray@IV?$PxReflectionAllocator@I@physx@@@1@PEAIAEAUPxgFEMClothData@1@IAEBV31@AEBV?$PxArray@Uuint4@@V?$PxReflectionAllocator@Uuint4@@@physx@@@1@_NPEAVPxsHeapMemoryAllocator@1@@Z 00000001800ca780 f   PxgFEMClothCore.obj
 0001:000ca050       ?computeTrianglePairPartition@physx@@YAIAEBUuint4@@IPEAI@Z 00000001800cb050 f   PxgFEMClothCore.obj
 0001:000ca0f0       ?constraintPrep@PxgFEMClothCore@physx@@QEAAXU?$PxgDevicePointer@UPxgPrePrepDesc@physx@@@2@U?$PxgDevicePointer@UPxgConstraintPrepareDesc@physx@@@2@MU?$PxgDevicePointer@UPxgSolverSharedDescBase@physx@@@2@PEAUCUstream_st@@II@Z 00000001800cb0f0 f   PxgFEMClothCore.obj
 0001:000ca4e0       ?createActivatedDeactivatedLists@PxgFEMClothCore@physx@@QEAAXXZ 00000001800cb4e0 f   PxgFEMClothCore.obj
 0001:000ca640       ?differentClothCollision@PxgFEMClothCore@physx@@QEAAXXZ 00000001800cb640 f   PxgFEMClothCore.obj
 0001:000ca9a0       ?finalizeVelocities@PxgFEMClothCore@physx@@QEAAXM@Z 00000001800cb9a0 f   PxgFEMClothCore.obj
 0001:000cacf0       ?partitionTrianglePairSimData@PxgFEMClothCore@physx@@QEAAXAEAVPxgFEMCloth@2@AEAUPxgFEMClothData@2@IAEAV?$PxArray@IV?$PxReflectionAllocator@I@physx@@@2@AEBV52@AEBV?$PxArray@Uuint4@@V?$PxReflectionAllocator@Uuint4@@@physx@@@2@_NPEAVPxsHeapMemoryAllocator@2@@Z 00000001800cbcf0 f   PxgFEMClothCore.obj
 0001:000cae40       ?partitionTriangleSimData@PxgFEMClothCore@physx@@QEAAXAEAVPxgFEMCloth@2@AEAUPxgFEMClothData@2@AEAV?$PxArray@IV?$PxReflectionAllocator@I@physx@@@2@AEBV52@PEAVPxsHeapMemoryAllocator@2@@Z 00000001800cbe40 f   PxgFEMClothCore.obj
 0001:000cb120       ?preIntegrateSystems@PxgFEMClothCore@physx@@QEAAXIAEBV?$PxVec3T@M@2@M@Z 00000001800cc120 f   PxgFEMClothCore.obj
 0001:000cb3c0       ?preIteration@PxgFEMClothCore@physx@@QEAAXXZ 00000001800cc3c0 f   PxgFEMClothCore.obj
 0001:000cb540       ?prepClothParticleConstraint@PxgFEMClothCore@physx@@AEAAXXZ 00000001800cc540 f   PxgFEMClothCore.obj
 0001:000cb9f0       ?prepRigidContactConstraint@PxgFEMClothCore@physx@@AEAAXU?$PxgDevicePointer@UPxgPrePrepDesc@physx@@@2@U?$PxgDevicePointer@UPxgConstraintPrepareDesc@physx@@@2@MU?$PxgDevicePointer@UPxgSolverSharedDescBase@physx@@@2@PEAUCUstream_st@@II@Z 00000001800cc9f0 f   PxgFEMClothCore.obj
 0001:000cbcb0       ?prepareClothClothCollision@PxgFEMClothCore@physx@@AEAAX_N0@Z 00000001800cccb0 f   PxgFEMClothCore.obj
 0001:000cc2a0       ?refitBound@PxgFEMClothCore@physx@@QEAAXIPEAUCUstream_st@@@Z 00000001800cd2a0 f   PxgFEMClothCore.obj
 0001:000cc4b0       ?resetClothVsNonclothContactCounts@PxgFEMClothCore@physx@@QEAAXXZ 00000001800cd4b0 f   PxgFEMClothCore.obj
 0001:000cc570       ?selfCollision@PxgFEMClothCore@physx@@QEAAXXZ 00000001800cd570 f   PxgFEMClothCore.obj
 0001:000cc840       ?solve@PxgFEMClothCore@physx@@QEAAXU?$PxgDevicePointer@UPxgPrePrepDesc@physx@@@2@U?$PxgDevicePointer@UPxgSolverCoreDesc@physx@@@2@U?$PxgDevicePointer@UPxgSolverSharedDescBase@physx@@@2@U?$PxgDevicePointer@UPxgArticulationCoreDesc@physx@@@2@MPEAUCUstream_st@@II_NAEBV?$PxVec3T@M@2@@Z 00000001800cd840 f   PxgFEMClothCore.obj
 0001:000cc910       ?solveClothContactsOutputClothDelta@PxgFEMClothCore@physx@@AEAAXM@Z 00000001800cd910 f   PxgFEMClothCore.obj
 0001:000cca60       ?solveNonSharedTriangles@PxgFEMClothCore@physx@@AEAAXPEAVPxgFEMCloth@2@U?$PxgDevicePointer@I@2@IM@Z 00000001800cda60 f   PxgFEMClothCore.obj
 0001:000ccce0       ?solveParticleContactsOutputParticleDelta@PxgFEMClothCore@physx@@AEAAXPEAUCUstream_st@@@Z 00000001800cdce0 f   PxgFEMClothCore.obj
 0001:000cd010       ?solveRigidContactsOutputClothDelta@PxgFEMClothCore@physx@@AEAAXU?$PxgDevicePointer@UPxgPrePrepDesc@physx@@@2@U?$PxgDevicePointer@UPxgSolverCoreDesc@physx@@@2@U?$PxgDevicePointer@UPxgSolverSharedDescBase@physx@@@2@U?$PxgDevicePointer@UPxgArticulationCoreDesc@physx@@@2@M@Z 00000001800ce010 f   PxgFEMClothCore.obj
 0001:000cd2c0       ?solveRigidContactsOutputRigidDelta@PxgFEMClothCore@physx@@AEAAXU?$PxgDevicePointer@UPxgPrePrepDesc@physx@@@2@U?$PxgDevicePointer@UPxgSolverCoreDesc@physx@@@2@U?$PxgDevicePointer@UPxgSolverSharedDescBase@physx@@@2@U?$PxgDevicePointer@UPxgArticulationCoreDesc@physx@@@2@PEAUCUstream_st@@M@Z 00000001800ce2c0 f   PxgFEMClothCore.obj
 0001:000cd600       ?solveTrianglePairs@PxgFEMClothCore@physx@@AEAAXPEAVPxgFEMCloth@2@U?$PxgDevicePointer@I@2@IM_N@Z 00000001800ce600 f   PxgFEMClothCore.obj
 0001:000cd9c0       ?solve_position@PxgFEMClothCore@physx@@QEAAXU?$PxgDevicePointer@UPxgPrePrepDesc@physx@@@2@U?$PxgDevicePointer@UPxgSolverCoreDesc@physx@@@2@U?$PxgDevicePointer@UPxgSolverSharedDescBase@physx@@@2@U?$PxgDevicePointer@UPxgArticulationCoreDesc@physx@@@2@MPEAUCUstream_st@@IIAEBV?$PxVec3T@M@2@@Z 00000001800ce9c0 f   PxgFEMClothCore.obj
 0001:000cea20       ?sortContacts@PxgFEMClothCore@physx@@QEAAXI@Z 00000001800cfa20 f   PxgFEMClothCore.obj
 0001:000cf9d0       ?trianglePairPartitions@physx@@YAPEAIAEAVPxgFEMCloth@1@AEAV?$PxArray@IV?$PxReflectionAllocator@I@physx@@@1@AEBV31@AEBV?$PxArray@Uuint4@@V?$PxReflectionAllocator@Uuint4@@@physx@@@1@_N@Z 00000001800d09d0 f   PxgFEMClothCore.obj
 0001:000cfc40       ?updateUserData@PxgFEMClothCore@physx@@QEAA_NAEAV?$PxArray@VPxgFEMCloth@physx@@VPxVirtualAllocator@2@@2@AEAV?$PxArray@IV?$PxReflectionAllocator@I@physx@@@2@PEBIIPEAPEAX@Z 00000001800d0c40 f   PxgFEMClothCore.obj
 0001:000d0050       ?writeTrianglePairs@physx@@YAXAEBV?$PxArray@Uuint4@@V?$PxReflectionAllocator@Uuint4@@@physx@@@1@AEBV?$PxArray@IV?$PxReflectionAllocator@I@physx@@@1@IPEAI2AEAV31@2@Z 00000001800d1050 f   PxgFEMClothCore.obj
 0001:000d01b0       ?writeTriangles@physx@@YAXQEBUuint4@@AEBV?$PxArray@IV?$PxReflectionAllocator@I@physx@@@1@IPEAI2AEAV31@2@Z 00000001800d11b0 f   PxgFEMClothCore.obj
 0001:000d0930       ?categorizeClothConstraints@PxgFEMClothUtil@physx@@SAXAEAV?$PxArray@IV?$PxReflectionAllocator@I@physx@@@2@00AEAVPxgFEMCloth@2@AEBV?$PxArray@Uuint2@@V?$PxReflectionAllocator@Uuint2@@@physx@@@2@AEBV?$PxArray@Uuint4@@V?$PxReflectionAllocator@Uuint4@@@physx@@@2@@Z 00000001800d1930 f   PxgFEMCloth.obj
 0001:000d0b60       ?computeNonSharedTriangleConfiguration@PxgFEMClothUtil@physx@@SAXAEAVPxgFEMCloth@2@AEBV?$PxArray@IV?$PxReflectionAllocator@I@physx@@@2@1QEBVTriangleMesh@Gu@2@@Z 00000001800d1b60 f   PxgFEMCloth.obj
 0001:000d0f10       ?computeTriangleMeshByteSize@PxgFEMClothUtil@physx@@SAIPEBVTriangleMesh@Gu@2@@Z 00000001800d1f10 f   PxgFEMCloth.obj
 0001:000d0f30       ?computeTrianglePairConfiguration@PxgFEMClothUtil@physx@@SAXAEAVPxgFEMCloth@2@AEAV?$PxArray@Uuint2@@V?$PxReflectionAllocator@Uuint2@@@physx@@@2@AEBV?$PxArray@Uuint4@@V?$PxReflectionAllocator@Uuint4@@@physx@@@2@AEBV?$PxArray@IV?$PxReflectionAllocator@I@physx@@@2@3QEBVTriangleMesh@Gu@2@PEBUPxsDeformableSurfaceMaterialData@2@_N6@Z 00000001800d1f30 f   PxgFEMCloth.obj
 0001:000d10a0       ?deallocate@PxgFEMCloth@physx@@QEAAXPEAVPxsHeapMemoryAllocator@2@@Z 00000001800d20a0 f   PxgFEMCloth.obj
 0001:000d1200       ?growAndPushBack@?$PxArray@Uuint2@@V?$PxReflectionAllocator@Uuint2@@@physx@@@physx@@IEAAAEAUuint2@@AEBU3@@Z 00000001800d2200 f i PxgFEMCloth.obj
 0001:000d1320       ?growAndPushBack@?$PxArray@Uuint4@@V?$PxReflectionAllocator@Uuint4@@@physx@@@physx@@IEAAAEAUuint4@@AEBU3@@Z 00000001800d2320 f i PxgFEMCloth.obj
 0001:000d1440       ?growAndPushBack@?$PxArray@V?$PxPair@II@physx@@V?$PxReflectionAllocator@V?$PxPair@II@physx@@@2@@physx@@IEAAAEAV?$PxPair@II@2@AEBV32@@Z 00000001800d2440 f i PxgFEMCloth.obj
 0001:000d1570       ?initialTriangleData@PxgFEMClothUtil@physx@@SAIAEAVPxgFEMCloth@2@AEAV?$PxArray@Uuint2@@V?$PxReflectionAllocator@Uuint2@@@physx@@@2@AEAV?$PxArray@Uuint4@@V?$PxReflectionAllocator@Uuint4@@@physx@@@2@PEBVTriangleMesh@Gu@2@PEBGPEAUPxsDeformableSurfaceMaterialData@2@I@Z 00000001800d2570 f   PxgFEMCloth.obj
 0001:000d1e30       ?loadOutTriangleMesh@PxgFEMClothUtil@physx@@SAIPEAXPEBVTriangleMesh@Gu@2@@Z 00000001800d2e30 f   PxgFEMCloth.obj
 0001:000d1ef0       ?recreate@?$PxArray@Uuint2@@V?$PxReflectionAllocator@Uuint2@@@physx@@@physx@@IEAAXI@Z 00000001800d2ef0 f i PxgFEMCloth.obj
 0001:000d1fe0       ?recreate@?$PxArray@Uuint4@@V?$PxReflectionAllocator@Uuint4@@@physx@@@physx@@IEAAXI@Z 00000001800d2fe0 f i PxgFEMCloth.obj
 0001:000d20d0       ?recreate@?$PxArray@V?$PxPair@II@physx@@V?$PxReflectionAllocator@V?$PxPair@II@physx@@@2@@physx@@IEAAXI@Z 00000001800d30d0 f i PxgFEMCloth.obj
 0001:000d21c0       ?recreate@?$PxArray@_NV?$PxReflectionAllocator@_N@physx@@@physx@@IEAAXI@Z 00000001800d31c0 f i PxgFEMCloth.obj
 0001:000d22b0       ?resize@?$PxArray@_NV?$PxReflectionAllocator@_N@physx@@@physx@@QEAAXIAEB_N@Z 00000001800d32b0 f i PxgFEMCloth.obj
 0001:000d2370       ?updateRestConfiguration@PxgFEMClothUtil@physx@@SA_NPEAUfloat4@@PEAUuint4@@AEAVPxgFEMCloth@2@IIAEAV?$PxArray@Uuint2@@V?$PxReflectionAllocator@Uuint2@@@physx@@@2@AEBV?$PxArray@Uuint4@@V?$PxReflectionAllocator@Uuint4@@@physx@@@2@PEBUPxsDeformableSurfaceMaterialData@2@PEBV?$PxVec3T@M@2@_N00@Z 00000001800d3370 f   PxgFEMCloth.obj
 0001:000d2d30       ??0PxgNonRigidCore@physx@@QEAA@PEAVPxgCudaKernelWranglerManager@1@PEAVPxCudaContextManager@1@PEAVPxgHeapMemoryAllocatorManager@1@PEAVPxgSimulationController@1@PEAVPxgGpuContext@1@IIW4Enum@PxsHeapStats@1@@Z 00000001800d3d30 f   PxgNonRigidCoreCommon.obj
 0001:000d3230       ??1PxgNonRigidCore@physx@@UEAA@XZ 00000001800d4230 f   PxgNonRigidCoreCommon.obj
 0001:000d33c0       ??_GPxgNonRigidCore@physx@@UEAAPEAXI@Z 00000001800d43c0 f i PxgNonRigidCoreCommon.obj
 0001:000d33c0       ??_EPxgNonRigidCore@physx@@UEAAPEAXI@Z 00000001800d43c0 f i PxgNonRigidCoreCommon.obj
 0001:000d3400       ?updateGPURadixSortBlockDesc@PxgNonRigidCore@physx@@QEAAXPEAUCUstream_st@@_K11111PEAUPxgRadixSortBlockDesc@2@11@Z 00000001800d4400 f   PxgNonRigidCoreCommon.obj
 0001:000d34f0       ??0PxgFEMCore@physx@@QEAA@PEAVPxgCudaKernelWranglerManager@1@PEAVPxCudaContextManager@1@PEAVPxgHeapMemoryAllocatorManager@1@PEAVPxgSimulationController@1@PEAVPxgGpuContext@1@II_NW4Enum@PxsHeapStats@1@@Z 00000001800d44f0 f   PxgFEMCore.obj
 0001:000d41a0       ??1PxgFEMCore@physx@@UEAA@XZ 00000001800d51a0 f   PxgFEMCore.obj
 0001:000d44f0       ??_EPxgFEMCore@physx@@UEAAPEAXI@Z 00000001800d54f0 f i PxgFEMCore.obj
 0001:000d44f0       ??_GPxgFEMCore@physx@@UEAAPEAXI@Z 00000001800d54f0 f i PxgFEMCore.obj
 0001:000d4530       ?accumulateRigidDeltas@PxgFEMCore@physx@@IEAAXU?$PxgDevicePointer@UPxgPrePrepDesc@physx@@@2@U?$PxgDevicePointer@UPxgSolverCoreDesc@physx@@@2@U?$PxgDevicePointer@UPxgSolverSharedDescBase@physx@@@2@U?$PxgDevicePointer@UPxgArticulationCoreDesc@physx@@@2@U?$PxgDevicePointer@VPxNodeIndex@physx@@@2@U?$PxgDevicePointer@I@2@PEAUCUstream_st@@PEAUCUevent_st@@_N@Z 00000001800d5530 f   PxgFEMCore.obj
 0001:000d4800       ?copyContactCountsToHost@PxgFEMCore@physx@@QEAAXXZ 00000001800d5800 f   PxgFEMCore.obj
 0001:000d4a50       ?reorderRigidContacts@PxgFEMCore@physx@@QEAAXXZ 00000001800d5a50 f   PxgFEMCore.obj
 0001:000d4cc0       ?reserveRigidDeltaVelBuf@PxgFEMCore@physx@@QEAAXI@Z 00000001800d5cc0 f   PxgFEMCore.obj
 0001:000d4cf0       ?updateGPURadixSortDesc@PxgRadixSortCore@physx@@SAXPEAVPxCudaContext@2@AEBQEAUCUstream_st@@_K2222PEAUPxgRadixSortDesc@2@22I@Z 00000001800d5cf0 f   PxgRadixSortCore.obj
 0001:000d4de0       ??$computeBlockSum@I@physx@@YAXAEAVPxgKernelLauncher@0@PEBIPEAI22IIIAEBQEAUCUstream_st@@2@Z 00000001800d5de0 f i PxgAlgorithms.obj
 0001:000d4fe0       ??$computeBlockSum@UPxInt4x4@physx@@@physx@@YAXAEAVPxgKernelLauncher@0@PEBUPxInt4x4@0@PEAU20@22IIIAEBQEAUCUstream_st@@2@Z 00000001800d5fe0 f i PxgAlgorithms.obj
 0001:000d52e0       ?initialize@?$PxGpuRadixSort@I@physx@@UEAA_NPEAVPxgKernelLauncher@2@II@Z 00000001800d62e0 f i PxgAlgorithms.obj
 0001:000d54c0       ?initialize@PxGpuScan@physx@@QEAA_NPEAVPxgKernelLauncher@2@II@Z 00000001800d64c0 f   PxgAlgorithms.obj
 0001:000d5610       ?release@?$PxGpuRadixSort@I@physx@@UEAA_NXZ 00000001800d6610 f i PxgAlgorithms.obj
 0001:000d5790       ?release@PxGpuScan@physx@@QEAA_NXZ 00000001800d6790 f   PxgAlgorithms.obj
 0001:000d5870       ?scan@PxGpuScan@physx@@AEAAXPEAIIAEBQEAUCUstream_st@@I@Z 00000001800d6870 f   PxgAlgorithms.obj
 0001:000d5960       ?scanPerBlockLaunch@physx@@YAXAEAVPxgKernelLauncher@1@PEBIPEAI2IIIPEAUCUstream_st@@I2@Z 00000001800d6960 f   PxgAlgorithms.obj
 0001:000d5a90       ?sort@?$PxGpuRadixSort@I@physx@@UEAAXPEAIIAEBQEAUCUstream_st@@0I@Z 00000001800d6a90 f i PxgAlgorithms.obj
 0001:000d5ed0       ??0PxgAnisotropyGenerator@physx@@QEAA@AEAVPxgKernelLauncher@1@IMMM@Z 00000001800d6ed0 f   PxgAnisotropy.obj
 0001:000d5fa0       ??_GPxgAnisotropyGenerator@physx@@UEAAPEAXI@Z 00000001800d6fa0 f i PxgAnisotropy.obj
 0001:000d5fa0       ??_EPxgAnisotropyGenerator@physx@@UEAAPEAXI@Z 00000001800d6fa0 f i PxgAnisotropy.obj
 0001:000d5ff0       ?allocateGPUAnisotropyBuffers@PxgAnisotropyGenerator@physx@@AEAAXXZ 00000001800d6ff0 f   PxgAnisotropy.obj
 0001:000d6100       ?generateAnisotropy@PxgAnisotropyGenerator@physx@@UEAAXPEAV?$PxVec4T@M@2@AEAVPxParticleNeighborhoodProvider@2@IMPEAUCUstream_st@@@Z 00000001800d7100 f   PxgAnisotropy.obj
 0001:000d63c0       ?generateAnisotropy@PxgAnisotropyGenerator@physx@@UEAAXPEAVPxGpuParticleSystem@2@IPEAUCUstream_st@@@Z 00000001800d73c0 f   PxgAnisotropy.obj
 0001:000d65e0       ?getMaxParticles@PxgAnisotropyGenerator@physx@@UEBAIXZ 00000001800d75e0 f i PxgAnisotropy.obj
 0001:000d65f0       ?isEnabled@PxgAnisotropyGenerator@physx@@UEBA_NXZ 00000001800d75f0 f i PxgAnisotropy.obj
 0001:000d6600       ?release@PxgAnisotropyGenerator@physx@@UEAAXXZ 00000001800d7600 f   PxgAnisotropy.obj
 0001:000d6680       ?releaseGPUAnisotropyBuffers@PxgAnisotropyGenerator@physx@@AEAAXXZ 00000001800d7680 f   PxgAnisotropy.obj
 0001:000d6750       ?setAnisotropyMax@PxgAnisotropyGenerator@physx@@UEAAXM@Z 00000001800d7750 f i PxgAnisotropy.obj
 0001:000d6760       ?setAnisotropyMin@PxgAnisotropyGenerator@physx@@UEAAXM@Z 00000001800d7760 f i PxgAnisotropy.obj
 0001:000d6770       ?setAnisotropyScale@PxgAnisotropyGenerator@physx@@UEAAXM@Z 00000001800d7770 f i PxgAnisotropy.obj
 0001:000d6780       ?setEnabled@PxgAnisotropyGenerator@physx@@UEAAX_N@Z 00000001800d7780 f i PxgAnisotropy.obj
 0001:000d6790       ?setMaxParticles@PxgAnisotropyGenerator@physx@@UEAAXI@Z 00000001800d7790 f   PxgAnisotropy.obj
 0001:000d67c0       ?setResultBufferDevice@PxgAnisotropyGenerator@physx@@UEAAXPEAV?$PxVec4T@M@2@00@Z 00000001800d77c0 f   PxgAnisotropy.obj
 0001:000d6820       ?setResultBufferHost@PxgAnisotropyGenerator@physx@@UEAAXPEAV?$PxVec4T@M@2@00@Z 00000001800d7820 f   PxgAnisotropy.obj
 0001:000d6850       ??0PxgParticleNeighborhoodProvider@physx@@QEAA@AEAVPxgKernelLauncher@1@IMI@Z 00000001800d7850 f   PxgParticleNeighborhood.obj
 0001:000d6990       ??_GPxParticleNeighborhoodProvider@physx@@UEAAPEAXI@Z 00000001800d7990 f i PxgParticleNeighborhood.obj
 0001:000d6990       ??_EPxParticleNeighborhoodProvider@physx@@UEAAPEAXI@Z 00000001800d7990 f i PxgParticleNeighborhood.obj
 0001:000d69c0       ??_GPxgParticleNeighborhoodProvider@physx@@UEAAPEAXI@Z 00000001800d79c0 f i PxgParticleNeighborhood.obj
 0001:000d69c0       ??_EPxgParticleNeighborhoodProvider@physx@@UEAAPEAXI@Z 00000001800d79c0 f i PxgParticleNeighborhood.obj
 0001:000d6a70       ?buildNeighborhood@PxgParticleNeighborhoodProvider@physx@@UEAAXPEAV?$PxVec4T@M@2@IPEAUCUstream_st@@PEAIIPEBI@Z 00000001800d7a70 f i PxgParticleNeighborhood.obj
 0001:000d6ad0       ?getCellSize@PxgParticleNeighborhoodProvider@physx@@UEBAMXZ 00000001800d7ad0 f i PxgParticleNeighborhood.obj
 0001:000d6ae0       ?getMaxGridCells@PxgParticleNeighborhoodProvider@physx@@UEBAIXZ 00000001800d7ae0 f i PxgParticleNeighborhood.obj
 0001:000d6af0       ?getMaxParticles@PxgParticleNeighborhoodProvider@physx@@UEBAIXZ 00000001800d7af0 f i PxgParticleNeighborhood.obj
 0001:000d6b00       ?getNumGridCellsInUse@PxgParticleNeighborhoodProvider@physx@@UEBAIXZ 00000001800d7b00 f i PxgParticleNeighborhood.obj
 0001:000d6b10       ?release@PxgParticleNeighborhoodProvider@physx@@UEAAXXZ 00000001800d7b10 f i PxgParticleNeighborhood.obj
 0001:000d6b40       ?setCellProperties@PxgParticleNeighborhoodProvider@physx@@UEAAXIM@Z 00000001800d7b40 f   PxgParticleNeighborhood.obj
 0001:000d6bd0       ?setMaxParticles@PxgParticleNeighborhoodProvider@physx@@UEAAXI@Z 00000001800d7bd0 f i PxgParticleNeighborhood.obj
 0001:000d6c30       ??0PxgSmoothedPositionGenerator@physx@@QEAA@AEAVPxgKernelLauncher@1@IM@Z 00000001800d7c30 f   PxgSmoothing.obj
 0001:000d6ce0       ??_GPxSmoothedPositionGenerator@physx@@UEAAPEAXI@Z 00000001800d7ce0 f i PxgSmoothing.obj
 0001:000d6ce0       ??_EPxSmoothedPositionGenerator@physx@@UEAAPEAXI@Z 00000001800d7ce0 f i PxgSmoothing.obj
 0001:000d6d10       ??_EPxgSmoothedPositionGenerator@physx@@UEAAPEAXI@Z 00000001800d7d10 f i PxgSmoothing.obj
 0001:000d6d10       ??_GPxgSmoothedPositionGenerator@physx@@UEAAPEAXI@Z 00000001800d7d10 f i PxgSmoothing.obj
 0001:000d6d60       ?allocateGPUSmoothedPositionBuffers@PxgSmoothedPositionGenerator@physx@@AEAAXXZ 00000001800d7d60 f   PxgSmoothing.obj
 0001:000d6de0       ?generateSmoothedPositions@PxgSmoothedPositionGenerator@physx@@UEAAXPEAV?$PxVec4T@M@2@AEAVPxParticleNeighborhoodProvider@2@IMPEAUCUstream_st@@@Z 00000001800d7de0 f   PxgSmoothing.obj
 0001:000d6fe0       ?generateSmoothedPositions@PxgSmoothedPositionGenerator@physx@@UEAAXPEAVPxGpuParticleSystem@2@IPEAUCUstream_st@@@Z 00000001800d7fe0 f   PxgSmoothing.obj
 0001:000d71a0       ?getMaxParticles@PxgSmoothedPositionGenerator@physx@@UEBAIXZ 00000001800d81a0 f i PxgSmoothing.obj
 0001:000d71b0       ?isEnabled@PxgSmoothedPositionGenerator@physx@@UEBA_NXZ 00000001800d81b0 f i PxgSmoothing.obj
 0001:000d71c0       ?release@PxgSmoothedPositionGenerator@physx@@UEAAXXZ 00000001800d81c0 f   PxgSmoothing.obj
 0001:000d7240       ?releaseGPUSmoothedPositionBuffers@PxgSmoothedPositionGenerator@physx@@AEAAXXZ 00000001800d8240 f   PxgSmoothing.obj
 0001:000d72a0       ?setEnabled@PxgSmoothedPositionGenerator@physx@@UEAAX_N@Z 00000001800d82a0 f i PxgSmoothing.obj
 0001:000d72b0       ?setMaxParticles@PxgSmoothedPositionGenerator@physx@@UEAAXI@Z 00000001800d82b0 f   PxgSmoothing.obj
 0001:000d72e0       ?setResultBufferDevice@PxgSmoothedPositionGenerator@physx@@UEAAXPEAV?$PxVec4T@M@2@@Z 00000001800d82e0 f i PxgSmoothing.obj
 0001:000d7360       ?setResultBufferHost@PxgSmoothedPositionGenerator@physx@@UEAAXPEAV?$PxVec4T@M@2@@Z 00000001800d8360 f i PxgSmoothing.obj
 0001:000d7380       ?setSmoothing@PxgSmoothedPositionGenerator@physx@@UEAAXM@Z 00000001800d8380 f i PxgSmoothing.obj
 0001:000d7390       ?initialize@PxSparseGridBuilder@physx@@UEAAXPEAVPxgKernelLauncher@2@AEBUPxSparseGridParams@2@II_N@Z 00000001800d8390 f   PxgSparseGridStandalone.obj
 0001:000d76a0       ?release@PxSparseGridBuilder@physx@@UEAAXXZ 00000001800d86a0 f   PxgSparseGridStandalone.obj
 0001:000d78e0       ?sparseGridGetUniqueValues@physx@@YAXAEAVPxgKernelLauncher@1@PEBI1PEAII2IPEAUCUstream_st@@@Z 00000001800d88e0 f   PxgSparseGridStandalone.obj
 0001:000d7a00       ?sparseGridSortedArrayToDelta@physx@@YAXAEAVPxgKernelLauncher@1@PEBI1PEAIIPEAUCUstream_st@@@Z 00000001800d8a00 f   PxgSparseGridStandalone.obj
 0001:000d7b10       ?updateSparseGrid@PxSparseGridBuilder@physx@@UEAAXPEAV?$PxVec4T@M@2@IPEAIPEAUCUstream_st@@IPEBI@Z 00000001800d8b10 f   PxgSparseGridStandalone.obj
 0001:000d7ce0       ?updateSubgridEndIndices@PxSparseGridBuilder@physx@@QEAAXIPEAUCUstream_st@@@Z 00000001800d8ce0 f   PxgSparseGridStandalone.obj
 0001:000d7df0       ?updateSubgrids@PxSparseGridBuilder@physx@@IEAAPEAIPEAV?$PxVec4T@M@2@IPEAIPEAUCUstream_st@@IPEBI@Z 00000001800d8df0 f   PxgSparseGridStandalone.obj
 0001:000d8350       ??$launchKernel@UPxSparseIsosurfaceExtractionData@physx@@@PxgKernelLauncher@physx@@QEAA?AU?$PxCUenum@I@1@GIIIPEAUCUstream_st@@AEBUPxSparseIsosurfaceExtractionData@1@@Z 00000001800d9350 f i PxgIsosurfaceExtraction.obj
 0001:000d8350       ??$launchKernel@UPxIsosurfaceExtractionData@physx@@@PxgKernelLauncher@physx@@QEAA?AU?$PxCUenum@I@1@GIIIPEAUCUstream_st@@AEBUPxIsosurfaceExtractionData@1@@Z 00000001800d9350 f i PxgIsosurfaceExtraction.obj
 0001:000d8470       ??$launchKernel@UPxSparseIsosurfaceExtractionData@physx@@M@PxgKernelLauncher@physx@@QEAA?AU?$PxCUenum@I@1@GIIIPEAUCUstream_st@@AEBUPxSparseIsosurfaceExtractionData@1@AEBM@Z 00000001800d9470 f i PxgIsosurfaceExtraction.obj
 0001:000d8470       ??$launchKernel@UPxIsosurfaceExtractionData@physx@@M@PxgKernelLauncher@physx@@QEAA?AU?$PxCUenum@I@1@GIIIPEAUCUstream_st@@AEBUPxIsosurfaceExtractionData@1@AEBM@Z 00000001800d9470 f i PxgIsosurfaceExtraction.obj
 0001:000d85a0       ??$meshFromDensity@UPxIsosurfaceExtractionData@physx@@@PxgSharedIsosurfaceExtractor@physx@@QEAAXAEAUPxIsosurfaceExtractionData@1@PEAUCUstream_st@@@Z 00000001800d95a0 f i PxgIsosurfaceExtraction.obj
 0001:000d8c00       ??$meshFromDensity@UPxSparseIsosurfaceExtractionData@physx@@@PxgSharedIsosurfaceExtractor@physx@@QEAAXAEAUPxSparseIsosurfaceExtractionData@1@PEAUCUstream_st@@@Z 00000001800d9c00 f i PxgIsosurfaceExtraction.obj
 0001:000d92b0       ?allocateGPUBuffers@PxgDenseGridIsosurfaceExtractor@physx@@MEAAXXZ 00000001800da2b0 f   PxgIsosurfaceExtraction.obj
 0001:000d93d0       ?allocateGPUBuffers@PxgSparseGridIsosurfaceExtractor@physx@@MEAAXXZ 00000001800da3d0 f   PxgIsosurfaceExtraction.obj
 0001:000d94f0       ?averageVertsLaunch@physx@@YAXAEAVPxgKernelLauncher@1@PEAV?$PxVec4T@M@1@1PEBIPEAUCUstream_st@@M@Z 00000001800da4f0 f   PxgIsosurfaceExtraction.obj
 0001:000d95f0       ?clearDensity@PxgDenseGridIsosurfaceExtractor@physx@@UEAAXPEAUCUstream_st@@@Z 00000001800da5f0 f   PxgIsosurfaceExtraction.obj
 0001:000d96d0       ?clearDensity@PxgSparseGridIsosurfaceExtractor@physx@@UEAAXPEAUCUstream_st@@@Z 00000001800da6d0 f   PxgIsosurfaceExtraction.obj
 0001:000d9860       ?extractIsosurface@PxgDenseGridIsosurfaceExtractor@physx@@UEAAXPEAV?$PxVec4T@M@2@IPEAUCUstream_st@@PEAII2000M@Z 00000001800da860 f   PxgIsosurfaceExtraction.obj
 0001:000d9a30       ?extractIsosurface@PxgSparseGridIsosurfaceExtractor@physx@@UEAAXPEAV?$PxVec4T@M@2@IPEAUCUstream_st@@PEAII2000M@Z 00000001800daa30 f   PxgIsosurfaceExtraction.obj
 0001:000d9c50       ?initialize@PxgDenseGridIsosurfaceExtractor@physx@@QEAAXAEAVPxgKernelLauncher@2@AEBVPxBounds3@2@MAEBUPxIsosurfaceParams@2@III@Z 00000001800dac50 f   PxgIsosurfaceExtraction.obj
 0001:000d9ff0       ?initialize@PxgSparseGridIsosurfaceExtractor@physx@@QEAAXAEAVPxgKernelLauncher@2@UPxSparseGridParams@2@AEBUPxIsosurfaceParams@2@III@Z 00000001800daff0 f   PxgIsosurfaceExtraction.obj
 0001:000da340       ?paramsToMCData@PxgDenseGridIsosurfaceExtractor@physx@@IEAAXXZ 00000001800db340 f   PxgIsosurfaceExtraction.obj
 0001:000da380       ?paramsToMCData@PxgSparseGridIsosurfaceExtractor@physx@@IEAAXXZ 00000001800db380 f   PxgIsosurfaceExtraction.obj
 0001:000da3c0       ?release@PxgDenseGridIsosurfaceExtractor@physx@@UEAAXXZ 00000001800db3c0 f   PxgIsosurfaceExtraction.obj
 0001:000da630       ?release@PxgSparseGridIsosurfaceExtractor@physx@@UEAAXXZ 00000001800db630 f   PxgIsosurfaceExtraction.obj
 0001:000da8b0       ?releaseGPUBuffers@PxgDenseGridIsosurfaceExtractor@physx@@MEAAXXZ 00000001800db8b0 f   PxgIsosurfaceExtraction.obj
 0001:000da9a0       ?releaseGPUBuffers@PxgSparseGridIsosurfaceExtractor@physx@@MEAAXXZ 00000001800db9a0 f   PxgIsosurfaceExtraction.obj
 0001:000daa90       ?setMaxParticles@PxgSparseGridIsosurfaceExtractor@physx@@UEAAXI@Z 00000001800dba90 f   PxgIsosurfaceExtraction.obj
 0001:000dab50       ?setMaxVerticesAndTriangles@PxgDenseGridIsosurfaceExtractor@physx@@MEAAXII@Z 00000001800dbb50 f   PxgIsosurfaceExtraction.obj
 0001:000dae10       ?setMaxVerticesAndTriangles@PxgSparseGridIsosurfaceExtractor@physx@@MEAAXII@Z 00000001800dbe10 f   PxgIsosurfaceExtraction.obj
 0001:000db0d0       ?setResultBufferDevice@PxgDenseGridIsosurfaceExtractor@physx@@UEAAXPEAV?$PxVec4T@M@2@PEAI0@Z 00000001800dc0d0 f   PxgIsosurfaceExtraction.obj
 0001:000db150       ?setResultBufferDevice@PxgSparseGridIsosurfaceExtractor@physx@@UEAAXPEAV?$PxVec4T@M@2@PEAI0@Z 00000001800dc150 f   PxgIsosurfaceExtraction.obj
 0001:000db1d0       ?setResultBufferHost@PxgDenseGridIsosurfaceExtractor@physx@@UEAAXPEAV?$PxVec4T@M@2@PEAI0@Z 00000001800dc1d0 f   PxgIsosurfaceExtraction.obj
 0001:000db240       ?setResultBufferHost@PxgSparseGridIsosurfaceExtractor@physx@@UEAAXPEAV?$PxVec4T@M@2@PEAI0@Z 00000001800dc240 f   PxgIsosurfaceExtraction.obj
 0001:000db2b0       ?smoothVertsLaunch@physx@@YAXAEAVPxgKernelLauncher@1@PEBV?$PxVec4T@M@1@PEAV31@PEBI3PEAUCUstream_st@@@Z 00000001800dc2b0 f   PxgIsosurfaceExtraction.obj
 0001:000db3b0       ??0PxgArrayConverter@physx@@QEAA@AEAVPxgKernelLauncher@1@@Z 00000001800dc3b0 f   PxgArrayConverter.obj
 0001:000db3d0       ??_EPxArrayConverter@physx@@UEAAPEAXI@Z 00000001800dc3d0 f i PxgArrayConverter.obj
 0001:000db3d0       ??_GPxArrayConverter@physx@@UEAAPEAXI@Z 00000001800dc3d0 f i PxgArrayConverter.obj
 0001:000db400       ??_GPxgArrayConverter@physx@@UEAAPEAXI@Z 00000001800dc400 f i PxgArrayConverter.obj
 0001:000db400       ??_EPxgArrayConverter@physx@@UEAAPEAXI@Z 00000001800dc400 f i PxgArrayConverter.obj
 0001:000db450       ?interleaveGpuBuffers@PxgArrayConverter@physx@@UEAAXPEBV?$PxVec4T@M@2@0IPEAV?$PxVec3T@M@2@PEAUCUstream_st@@@Z 00000001800dc450 f   PxgArrayConverter.obj
 0001:000db560       ??$launchKernelPtr@HPEAIPEAHPEAMPEAHPEAHPEAHPEAUPxgPackedNodeHalf@physx@@PEAU12@@PxgKernelLauncher@physx@@QEAA?AU?$PxCUenum@I@1@GIIIPEAUCUstream_st@@PEBHPEBQEAIPEBQEAHPEBQEAM333PEBQEAUPxgPackedNodeHalf@1@5@Z 00000001800dc560 f i PxgSDFBuilder.obj
 0001:000db6e0       ??0PxgLinearBVHBuilderGPU@physx@@QEAA@AEAVPxgKernelLauncher@1@@Z 00000001800dc6e0 f   PxgSDFBuilder.obj
 0001:000db830       ??0PxgSDFBuilder@physx@@QEAA@AEAVPxgKernelLauncher@1@@Z 00000001800dc830 f   PxgSDFBuilder.obj
 0001:000db850       ??_GPxDeformableSkinning@physx@@UEAAPEAXI@Z 00000001800dc850 f i PxgDeformableSkinning.obj
 0001:000db850       ??_GPxSDFBuilder@physx@@UEAAPEAXI@Z 00000001800dc850 f i PxgSDFBuilder.obj
 0001:000db850       ??_EPxDeformableSkinning@physx@@UEAAPEAXI@Z 00000001800dc850 f i PxgDeformableSkinning.obj
 0001:000db850       ??_EPxSDFBuilder@physx@@UEAAPEAXI@Z 00000001800dc850 f i PxgSDFBuilder.obj
 0001:000db880       ??_EPxgDeformableSkinning@physx@@UEAAPEAXI@Z 00000001800dc880 f i PxgDeformableSkinning.obj
 0001:000db880       ??_EPxgSDFBuilder@physx@@UEAAPEAXI@Z 00000001800dc880 f i PxgSDFBuilder.obj
 0001:000db880       ??_GPxgSDFBuilder@physx@@UEAAPEAXI@Z 00000001800dc880 f i PxgSDFBuilder.obj
 0001:000db880       ??_GPxgDeformableSkinning@physx@@UEAAPEAXI@Z 00000001800dc880 f i PxgDeformableSkinning.obj
 0001:000db8d0       ?allocateOrResize@PxgLinearBVHBuilderGPU@physx@@QEAAXAEAUPxgBVH@2@I@Z 00000001800dc8d0 f   PxgSDFBuilder.obj
 0001:000dbdd0       ?buildDenseSDF@PxgSDFBuilder@physx@@AEAAPEAMPEBV?$PxVec3T@M@2@IPEBIIIIIAEBV32@2_NPEAUCUstream_st@@@Z 00000001800dcdd0 f   PxgSDFBuilder.obj
 0001:000dc720       ?buildSDF@PxgSDFBuilder@physx@@UEAA_NPEBV?$PxVec3T@M@2@IPEBIIIIIAEBV32@2_NPEAMPEAUCUstream_st@@@Z 00000001800dd720 f   PxgSDFBuilder.obj
 0001:000dc960       ?buildSparseSDF@PxgSDFBuilder@physx@@UEAA_NPEBV?$PxVec3T@M@2@IPEBIIIIIAEBV32@2MIW4Enum@PxSdfBitsPerSubgridPixel@2@AEAV?$PxArray@MV?$PxReflectionAllocator@M@physx@@@2@AEAV?$PxArray@IV?$PxReflectionAllocator@I@physx@@@2@AEAV?$PxArray@EV?$PxReflectionAllocator@E@physx@@@2@AEAM7AEAI88PEAUCUstream_st@@@Z 00000001800dd960 f   PxgSDFBuilder.obj
 0001:000dccf0       ?buildTreeAndWindingClustersFromTriangles@PxgLinearBVHBuilderGPU@physx@@QEAAXAEAUPxgBVH@2@PEAUPxgWindingClusterApproximation@2@PEBV?$PxVec3T@M@2@PEBIPEBHHPEAVPxBounds3@2@PEAUCUstream_st@@M_N@Z 00000001800ddcf0 f   PxgSDFBuilder.obj
 0001:000dcfa0       ?compressSDF@PxgSDFBuilder@physx@@AEAAXPEAMIIIIMIMAEAM1AEAV?$PxArray@MV?$PxReflectionAllocator@M@physx@@@2@AEAV?$PxArray@IV?$PxReflectionAllocator@I@physx@@@2@AEAV?$PxArray@EV?$PxReflectionAllocator@E@physx@@@2@AEAI55PEAUCUstream_st@@@Z 00000001800ddfa0 f   PxgSDFBuilder.obj
 0001:000ddf60       ?fixHoles@PxgSDFBuilder@physx@@AEAAXIIIPEAMAEBV?$PxVec3T@M@2@11AEAUGridQueryPointSampler@Gu@2@PEAUCUstream_st@@@Z 00000001800def60 f   PxgSDFBuilder.obj
 0001:000de930       ?prepareHierarchConstruction@PxgLinearBVHBuilderGPU@physx@@AEAAXAEAUPxgBVH@2@PEBV?$PxVec4T@M@2@1PEBHHPEAVPxBounds3@2@PEAUCUstream_st@@@Z 00000001800df930 f   PxgSDFBuilder.obj
 0001:000df160       ?recreate@?$PxArray@EV?$PxReflectionAllocator@E@physx@@@physx@@IEAAXI@Z 00000001800e0160 f i PxgSDFBuilder.obj
 0001:000df250       ?recreate@?$PxArray@MV?$PxReflectionAllocator@M@physx@@@physx@@IEAAXI@Z 00000001800e0250 f i PxgSDFBuilder.obj
 0001:000df380       ?release@PxgLinearBVHBuilderGPU@physx@@QEAAXXZ 00000001800e0380 f   PxgSDFBuilder.obj
 0001:000df5e0       ?release@PxgSDFBuilder@physx@@UEAAXXZ 00000001800e05e0 f   PxgSDFBuilder.obj
 0001:000df600       ?resize@?$PxArray@EV?$PxReflectionAllocator@E@physx@@@physx@@QEAAXIAEBE@Z 00000001800e0600 f i PxgSDFBuilder.obj
 0001:000df6c0       ?resize@?$PxArray@MV?$PxReflectionAllocator@M@physx@@@physx@@QEAAXIAEBM@Z 00000001800e06c0 f i PxgSDFBuilder.obj
 0001:000df7d0       ??0PxgDeformableSkinning@physx@@QEAA@AEAVPxgKernelLauncher@1@@Z 00000001800e07d0 f   PxgDeformableSkinning.obj
 0001:000df7f0       ?computeNormalVectors@PxgDeformableSkinning@physx@@UEAAXPEAUPxTrimeshSkinningGpuData@2@IPEAUCUstream_st@@I@Z 00000001800e07f0 f   PxgDeformableSkinning.obj
 0001:000dfaa0       ?evaluateVerticesEmbeddedIntoSurface@PxgDeformableSkinning@physx@@UEAAXPEAUPxTrimeshSkinningGpuData@2@IPEAUCUstream_st@@I@Z 00000001800e0aa0 f   PxgDeformableSkinning.obj
 0001:000dfbc0       ?evaluateVerticesEmbeddedIntoVolume@PxgDeformableSkinning@physx@@UEAAXPEAUPxTetmeshSkinningGpuData@2@IPEAUCUstream_st@@I@Z 00000001800e0bc0 f   PxgDeformableSkinning.obj
 0001:000dfd00       initSolverKernels6         00000001800e0d00 f   solverMultiBlock.obj
 0001:000dfd10       ZeroBodies                 00000001800e0d10 f   solverMultiBlock.obj
 0001:000dfde0       markActiveSlabPGS          00000001800e0de0 f   solverMultiBlock.obj
 0001:000dff00       solveBlockPartition        00000001800e0f00 f   solverMultiBlock.obj
 0001:000e0020       writebackBlocks            00000001800e1020 f   solverMultiBlock.obj
 0001:000e0120       concludeBlocks             00000001800e1120 f   solverMultiBlock.obj
 0001:000e0220       writeBackBodies            00000001800e1220 f   solverMultiBlock.obj
 0001:000e0320       computeAverageSolverBodyVelocity 00000001800e1320 f   solverMultiBlock.obj
 0001:000e03f0       propagateSolverBodyVelocity 00000001800e13f0 f   solverMultiBlock.obj
 0001:000e04c0       dmaBackChangedElems        00000001800e14c0 f   solverMultiBlock.obj
 0001:000e0590       dmaConstraintResidual      00000001800e1590 f   solverMultiBlock.obj
 0001:000e0690       solveStaticBlock           00000001800e1690 f   solverMultiBlock.obj
 0001:000e07c0       propagateStaticSolverBodyVelocities 00000001800e17c0 f   solverMultiBlock.obj
 0001:000e0910       ?__device_stub__Z10ZeroBodiesPKN5physx17PxgSolverCoreDescEPKNS_19PxgSolverSharedDescINS_18IterativeSolveDataEEE@@YAXPEBUPxgSolverCoreDesc@physx@@PEBU?$PxgSolverSharedDesc@UIterativeSolveData@physx@@@2@@Z 00000001800e1910 f   solverMultiBlock.obj
 0001:000e09e0       ?__device_stub__Z17markActiveSlabPGSPKN5physx17PxgSolverCoreDescEPKNS_19PxgSolverSharedDescINS_18IterativeSolveDataEEEjjPKNS_23PxgArticulationCoreDescE@@YAXPEIBUPxgSolverCoreDesc@physx@@PEIBU?$PxgSolverSharedDesc@UIterativeSolveData@physx@@@2@IIQEIBUPxgArticulationCoreDesc@2@@Z 00000001800e19e0 f   solverMultiBlock.obj
 0001:000e0af0       ?__device_stub__Z19solveBlockPartitionPN5physx17PxgSolverCoreDescEPKNS_19PxgSolverSharedDescINS_18IterativeSolveDataEEEjjb@@YAXPEIAUPxgSolverCoreDesc@physx@@PEIBU?$PxgSolverSharedDesc@UIterativeSolveData@physx@@@2@II_N@Z 00000001800e1af0 f   solverMultiBlock.obj
 0001:000e0c00       ?__device_stub__Z15writebackBlocksPN5physx17PxgSolverCoreDescEPNS_19PxgSolverSharedDescINS_18IterativeSolveDataEEEj@@YAXPEAUPxgSolverCoreDesc@physx@@PEAU?$PxgSolverSharedDesc@UIterativeSolveData@physx@@@2@I@Z 00000001800e1c00 f   solverMultiBlock.obj
 0001:000e0d10       ?__device_stub__Z14concludeBlocksPN5physx17PxgSolverCoreDescEPNS_19PxgSolverSharedDescINS_18IterativeSolveDataEEEj@@YAXPEAUPxgSolverCoreDesc@physx@@PEAU?$PxgSolverSharedDesc@UIterativeSolveData@physx@@@2@I@Z 00000001800e1d10 f   solverMultiBlock.obj
 0001:000e0e20       ?__device_stub__Z15writeBackBodiesPKN5physx17PxgSolverCoreDescEPKNS_19PxgSolverSharedDescINS_18IterativeSolveDataEEEj@@YAXPEBUPxgSolverCoreDesc@physx@@PEBU?$PxgSolverSharedDesc@UIterativeSolveData@physx@@@2@I@Z 00000001800e1e20 f   solverMultiBlock.obj
 0001:000e0f30       ?__device_stub__Z32computeAverageSolverBodyVelocityPKN5physx17PxgSolverCoreDescEPKNS_19PxgSolverSharedDescINS_18IterativeSolveDataEEE@@YAXQEIBUPxgSolverCoreDesc@physx@@PEIBU?$PxgSolverSharedDesc@UIterativeSolveData@physx@@@2@@Z 00000001800e1f30 f   solverMultiBlock.obj
 0001:000e1000       ?__device_stub__Z27propagateSolverBodyVelocityPKN5physx17PxgSolverCoreDescEPKNS_19PxgSolverSharedDescINS_18IterativeSolveDataEEE@@YAXPEBUPxgSolverCoreDesc@physx@@PEBU?$PxgSolverSharedDesc@UIterativeSolveData@physx@@@2@@Z 00000001800e2000 f   solverMultiBlock.obj
 0001:000e10d0       ?__device_stub__Z19dmaBackChangedElemsPKN5physx17PxgSolverCoreDescEPNS_2Dy22ThresholdStreamElementE@@YAXPEBUPxgSolverCoreDesc@physx@@PEAUThresholdStreamElement@Dy@2@@Z 00000001800e20d0 f   solverMultiBlock.obj
 0001:000e11a0       ?__device_stub__Z21dmaConstraintResidualPKN5physx22PxgConstraintWritebackEPfj@@YAXPEBUPxgConstraintWriteback@physx@@PEAMI@Z 00000001800e21a0 f   solverMultiBlock.obj
 0001:000e12b0       ?__device_stub__Z16solveStaticBlockPN5physx17PxgSolverCoreDescEPKNS_19PxgSolverSharedDescINS_18IterativeSolveDataEEEjjjb@@YAXPEIAUPxgSolverCoreDesc@physx@@PEIBU?$PxgSolverSharedDesc@UIterativeSolveData@physx@@@2@III_N@Z 00000001800e22b0 f   solverMultiBlock.obj
 0001:000e13d0       ?__device_stub__Z35propagateStaticSolverBodyVelocitiesPKN5physx17PxgSolverCoreDescEPKNS_19PxgSolverSharedDescINS_18IterativeSolveDataEEEjjj@@YAXPEIBUPxgSolverCoreDesc@physx@@PEIBU?$PxgSolverSharedDesc@UIterativeSolveData@physx@@@2@III@Z 00000001800e23d0 f   solverMultiBlock.obj
 0001:000e19d0       initSolverKernels5         00000001800e29d0 f   solverMultiBlockTGS.obj
 0001:000e19e0       ZeroBodiesTGS              00000001800e29e0 f   solverMultiBlockTGS.obj
 0001:000e1ab0       writebackBlocksTGS         00000001800e2ab0 f   solverMultiBlockTGS.obj
 0001:000e1bb0       concludeBlocksTGS          00000001800e2bb0 f   solverMultiBlockTGS.obj
 0001:000e1cb0       writeBackBodiesTGS         00000001800e2cb0 f   solverMultiBlockTGS.obj
 0001:000e1db0       computeAverageSolverBodyVelocityTGS 00000001800e2db0 f   solverMultiBlockTGS.obj
 0001:000e1e80       propagateAverageSolverBodyVelocityTGS 00000001800e2e80 f   solverMultiBlockTGS.obj
 0001:000e1fa0       initializeSolverVelocitiesTGS 00000001800e2fa0 f   solverMultiBlockTGS.obj
 0001:000e2070       ?artiSolveBlockPartitionTGSInternal@@YAXPEIAUPxgSolverCoreDesc@physx@@PEIBU?$PxgSolverSharedDesc@UIterativeSolveDataTGS@physx@@@2@IIMMQEIBUPxgArticulationCoreDesc@2@@Z 00000001800e3070 f   solverMultiBlockTGS.obj
 0001:000e2090       ?solveBlockPartitionTGSInternal@@YAXPEIAUPxgSolverCoreDesc@physx@@PEIBU?$PxgSolverSharedDesc@UIterativeSolveDataTGS@physx@@@2@IIMMII@Z 00000001800e3090 f   solverMultiBlockTGS.obj
 0001:000e20b0       markActiveSlabTGS          00000001800e30b0 f   solverMultiBlockTGS.obj
 0001:000e2200       solveBlockUnified          00000001800e3200 f   solverMultiBlockTGS.obj
 0001:000e2370       solveStaticBlockTGS        00000001800e3370 f   solverMultiBlockTGS.obj
 0001:000e24c0       applyTGSSubstepGravity     00000001800e34c0 f   solverMultiBlockTGS.obj
 0001:000e25c0       solveWholeIslandTGS        00000001800e35c0 f   solverMultiBlockTGS.obj
 0001:000e26f0       propagateStaticSolverBodyVelocitiesTGS 00000001800e36f0 f   solverMultiBlockTGS.obj
 0001:000e2840       ?__device_stub__Z13ZeroBodiesTGSPKN5physx17PxgSolverCoreDescEPKNS_19PxgSolverSharedDescINS_21IterativeSolveDataTGSEEE@@YAXPEBUPxgSolverCoreDesc@physx@@PEBU?$PxgSolverSharedDesc@UIterativeSolveDataTGS@physx@@@2@@Z 00000001800e3840 f   solverMultiBlockTGS.obj
 0001:000e2910       ?__device_stub__Z18writebackBlocksTGSPN5physx17PxgSolverCoreDescEPKNS_19PxgSolverSharedDescINS_21IterativeSolveDataTGSEEEj@@YAXPEAUPxgSolverCoreDesc@physx@@PEBU?$PxgSolverSharedDesc@UIterativeSolveDataTGS@physx@@@2@I@Z 00000001800e3910 f   solverMultiBlockTGS.obj
 0001:000e2a20       ?__device_stub__Z17concludeBlocksTGSPKN5physx17PxgSolverCoreDescEPKNS_19PxgSolverSharedDescINS_21IterativeSolveDataTGSEEEj@@YAXPEBUPxgSolverCoreDesc@physx@@PEBU?$PxgSolverSharedDesc@UIterativeSolveDataTGS@physx@@@2@I@Z 00000001800e3a20 f   solverMultiBlockTGS.obj
 0001:000e2b30       ?__device_stub__Z18writeBackBodiesTGSPKN5physx17PxgSolverCoreDescEPKNS_19PxgSolverSharedDescINS_21IterativeSolveDataTGSEEEj@@YAXPEBUPxgSolverCoreDesc@physx@@PEBU?$PxgSolverSharedDesc@UIterativeSolveDataTGS@physx@@@2@I@Z 00000001800e3b30 f   solverMultiBlockTGS.obj
 0001:000e2c40       ?__device_stub__Z35computeAverageSolverBodyVelocityTGSPKN5physx17PxgSolverCoreDescEPKNS_19PxgSolverSharedDescINS_21IterativeSolveDataTGSEEE@@YAXPEBUPxgSolverCoreDesc@physx@@PEBU?$PxgSolverSharedDesc@UIterativeSolveDataTGS@physx@@@2@@Z 00000001800e3c40 f   solverMultiBlockTGS.obj
 0001:000e2d10       ?__device_stub__Z37propagateAverageSolverBodyVelocityTGSPKN5physx17PxgSolverCoreDescEPKNS_19PxgSolverSharedDescINS_21IterativeSolveDataTGSEEEbbf@@YAXPEBUPxgSolverCoreDesc@physx@@PEBU?$PxgSolverSharedDesc@UIterativeSolveDataTGS@physx@@@2@_N2M@Z 00000001800e3d10 f   solverMultiBlockTGS.obj
 0001:000e2e20       ?__device_stub__Z29initializeSolverVelocitiesTGSPKN5physx17PxgSolverCoreDescEPKNS_19PxgSolverSharedDescINS_21IterativeSolveDataTGSEEE@@YAXPEBUPxgSolverCoreDesc@physx@@PEBU?$PxgSolverSharedDesc@UIterativeSolveDataTGS@physx@@@2@@Z 00000001800e3e20 f   solverMultiBlockTGS.obj
 0001:000e2ef0       ?__device_stub__Z17markActiveSlabTGSPKN5physx17PxgSolverCoreDescEPKNS_19PxgSolverSharedDescINS_21IterativeSolveDataTGSEEEjjffPKNS_23PxgArticulationCoreDescE@@YAXPEIBUPxgSolverCoreDesc@physx@@PEIBU?$PxgSolverSharedDesc@UIterativeSolveDataTGS@physx@@@2@IIMMQEIBUPxgArticulationCoreDesc@2@@Z 00000001800e3ef0 f   solverMultiBlockTGS.obj
 0001:000e3010       ?__device_stub__Z17solveBlockUnifiedPN5physx17PxgSolverCoreDescEPKNS_19PxgSolverSharedDescINS_21IterativeSolveDataTGSEEEjjbffPKNS_23PxgArticulationCoreDescE@@YAXPEIAUPxgSolverCoreDesc@physx@@PEIBU?$PxgSolverSharedDesc@UIterativeSolveDataTGS@physx@@@2@II_NMMQEIBUPxgArticulationCoreDesc@2@@Z 00000001800e4010 f   solverMultiBlockTGS.obj
 0001:000e3140       ?__device_stub__Z19solveStaticBlockTGSPN5physx17PxgSolverCoreDescEPKNS_19PxgSolverSharedDescINS_21IterativeSolveDataTGSEEEjjjff@@YAXPEIAUPxgSolverCoreDesc@physx@@PEIBU?$PxgSolverSharedDesc@UIterativeSolveDataTGS@physx@@@2@IIIMM@Z 00000001800e4140 f   solverMultiBlockTGS.obj
 0001:000e3260       ?__device_stub__Z22applyTGSSubstepGravityPKN5physx17PxgSolverCoreDescEPKNS_19PxgSolverSharedDescINS_21IterativeSolveDataTGSEEENS_7PxVec3TIfEE@@YAXPEIBUPxgSolverCoreDesc@physx@@PEIBU?$PxgSolverSharedDesc@UIterativeSolveDataTGS@physx@@@2@AEAV?$PxVec3T@M@2@@Z 00000001800e4260 f   solverMultiBlockTGS.obj
 0001:000e3360       ?__device_stub__Z19solveWholeIslandTGSPN5physx17PxgSolverCoreDescEPKNS_19PxgSolverSharedDescINS_21IterativeSolveDataTGSEEEjbff@@YAXPEIAUPxgSolverCoreDesc@physx@@PEIBU?$PxgSolverSharedDesc@UIterativeSolveDataTGS@physx@@@2@I_NMM@Z 00000001800e4360 f   solverMultiBlockTGS.obj
 0001:000e3480       ?__device_stub__Z38propagateStaticSolverBodyVelocitiesTGSPKN5physx17PxgSolverCoreDescEPKNS_19PxgSolverSharedDescINS_21IterativeSolveDataTGSEEEjjj@@YAXPEIBUPxgSolverCoreDesc@physx@@PEIBU?$PxgSolverSharedDesc@UIterativeSolveDataTGS@physx@@@2@III@Z 00000001800e4480 f   solverMultiBlockTGS.obj
 0001:000e3ad0       initSolverKernels0         00000001800e4ad0 f   accumulateThresholdStream.obj
 0001:000e3ae0       bodyInputAndRanksSingleBlockLaunch 00000001800e4ae0 f   accumulateThresholdStream.obj
 0001:000e3be0       bodyInputAndRanksBlocksLaunch 00000001800e4be0 f   accumulateThresholdStream.obj
 0001:000e3ce0       initialRanksAndBodyIndexB  00000001800e4ce0 f   accumulateThresholdStream.obj
 0001:000e3db0       initialRanksAndBodyIndexA  00000001800e4db0 f   accumulateThresholdStream.obj
 0001:000e3e80       reorganizeThresholdElements 00000001800e4e80 f   accumulateThresholdStream.obj
 0001:000e3f50       computeAccumulateThresholdStream 00000001800e4f50 f   accumulateThresholdStream.obj
 0001:000e4010       outputAccumulateThresholdStream 00000001800e5010 f   accumulateThresholdStream.obj
 0001:000e40d0       writeoutAccumulatedForcePerObject 00000001800e50d0 f   accumulateThresholdStream.obj
 0001:000e4190       computeExceededForceThresholdElementIndice 00000001800e5190 f   accumulateThresholdStream.obj
 0001:000e4260       outputExceededForceThresholdElementIndice 00000001800e5260 f   accumulateThresholdStream.obj
 0001:000e4320       setThresholdElementsMask   00000001800e5320 f   accumulateThresholdStream.obj
 0001:000e43e0       ?setPersistentForceElementMask@@YAXPEAUPxgSolverCoreDesc@physx@@@Z 00000001800e53e0 f   accumulateThresholdStream.obj
 0001:000e4400       computeThresholdElementMaskIndices 00000001800e5400 f   accumulateThresholdStream.obj
 0001:000e44c0       outputThresholdPairsMaskIndices 00000001800e54c0 f   accumulateThresholdStream.obj
 0001:000e4580       createForceChangeThresholdElements 00000001800e5580 f   accumulateThresholdStream.obj
 0001:000e4670       ?__device_stub__Z34bodyInputAndRanksSingleBlockLaunchPKN5physx17PxgSolverCoreDescEPKNS_16PxgRadixSortDescEj@@YAXPEBUPxgSolverCoreDesc@physx@@PEBUPxgRadixSortDesc@2@I@Z 00000001800e5670 f   accumulateThresholdStream.obj
 0001:000e4780       ?__device_stub__Z29bodyInputAndRanksBlocksLaunchPKN5physx17PxgSolverCoreDescEPNS_16PxgRadixSortDescEj@@YAXPEBUPxgSolverCoreDesc@physx@@PEAUPxgRadixSortDesc@2@I@Z 00000001800e5780 f   accumulateThresholdStream.obj
 0001:000e4890       ?__device_stub__Z25initialRanksAndBodyIndexBPKN5physx17PxgSolverCoreDescEPKNS_16PxgRadixSortDescE@@YAXPEBUPxgSolverCoreDesc@physx@@PEBUPxgRadixSortDesc@2@@Z 00000001800e5890 f   accumulateThresholdStream.obj
 0001:000e4960       ?__device_stub__Z25initialRanksAndBodyIndexAPKN5physx17PxgSolverCoreDescEPKNS_16PxgRadixSortDescE@@YAXPEBUPxgSolverCoreDesc@physx@@PEBUPxgRadixSortDesc@2@@Z 00000001800e5960 f   accumulateThresholdStream.obj
 0001:000e4a30       ?__device_stub__Z27reorganizeThresholdElementsPKN5physx17PxgSolverCoreDescEPKNS_16PxgRadixSortDescE@@YAXPEBUPxgSolverCoreDesc@physx@@PEBUPxgRadixSortDesc@2@@Z 00000001800e5a30 f   accumulateThresholdStream.obj
 0001:000e4b00       ?__device_stub__Z32computeAccumulateThresholdStreamPN5physx17PxgSolverCoreDescE@@YAXPEAUPxgSolverCoreDesc@physx@@@Z 00000001800e5b00 f   accumulateThresholdStream.obj
 0001:000e4bc0       ?__device_stub__Z31outputAccumulateThresholdStreamPN5physx17PxgSolverCoreDescE@@YAXPEAUPxgSolverCoreDesc@physx@@@Z 00000001800e5bc0 f   accumulateThresholdStream.obj
 0001:000e4c80       ?__device_stub__Z33writeoutAccumulatedForcePerObjectPN5physx17PxgSolverCoreDescE@@YAXPEAUPxgSolverCoreDesc@physx@@@Z 00000001800e5c80 f   accumulateThresholdStream.obj
 0001:000e4d40       ?__device_stub__Z42computeExceededForceThresholdElementIndicePN5physx17PxgSolverCoreDescEPNS_19PxgSolverSharedDescINS_18IterativeSolveDataEEE@@YAXPEAUPxgSolverCoreDesc@physx@@PEAU?$PxgSolverSharedDesc@UIterativeSolveData@physx@@@2@@Z 00000001800e5d40 f   accumulateThresholdStream.obj
 0001:000e4e10       ?__device_stub__Z41outputExceededForceThresholdElementIndicePN5physx17PxgSolverCoreDescE@@YAXPEAUPxgSolverCoreDesc@physx@@@Z 00000001800e5e10 f   accumulateThresholdStream.obj
 0001:000e4ed0       ?__device_stub__Z24setThresholdElementsMaskPN5physx17PxgSolverCoreDescE@@YAXPEAUPxgSolverCoreDesc@physx@@@Z 00000001800e5ed0 f   accumulateThresholdStream.obj
 0001:000e4f90       ?__device_stub__Z34computeThresholdElementMaskIndicesPN5physx17PxgSolverCoreDescE@@YAXPEAUPxgSolverCoreDesc@physx@@@Z 00000001800e5f90 f   accumulateThresholdStream.obj
 0001:000e5050       ?__device_stub__Z31outputThresholdPairsMaskIndicesPN5physx17PxgSolverCoreDescE@@YAXPEAUPxgSolverCoreDesc@physx@@@Z 00000001800e6050 f   accumulateThresholdStream.obj
 0001:000e5110       ?__device_stub__Z34createForceChangeThresholdElementsPN5physx17PxgSolverCoreDescE@@YAXPEAUPxgSolverCoreDesc@physx@@@Z 00000001800e6110 f   accumulateThresholdStream.obj
 0001:000e5740       initSolverKernels1         00000001800e6740 f   constraintBlockPrep.obj
 0001:000e5750       jointConstraintBlockPrepareParallelLaunch 00000001800e6750 f   constraintBlockPrep.obj
 0001:000e5820       contactConstraintBlockPrepareParallelLaunch 00000001800e6820 f   constraintBlockPrep.obj
 0001:000e5920       ?__device_stub__Z41jointConstraintBlockPrepareParallelLaunchPN5physx24PxgConstraintPrepareDescEPNS_19PxgSolverSharedDescINS_18IterativeSolveDataEEE@@YAXPEAUPxgConstraintPrepareDesc@physx@@PEAU?$PxgSolverSharedDesc@UIterativeSolveData@physx@@@2@@Z 00000001800e6920 f   constraintBlockPrep.obj
 0001:000e59f0       ?__device_stub__Z43contactConstraintBlockPrepareParallelLaunchPN5physx24PxgConstraintPrepareDescEPNS_19PxgSolverSharedDescINS_18IterativeSolveDataEEE@@YAXPEAUPxgConstraintPrepareDesc@physx@@PEAU?$PxgSolverSharedDesc@UIterativeSolveData@physx@@@2@@Z 00000001800e69f0 f   constraintBlockPrep.obj
 0001:000e6030       initSolverKernels2         00000001800e7030 f   constraintBlockPrePrep.obj
 0001:000e6040       constraintContactBlockPrePrepLaunch 00000001800e7040 f   constraintBlockPrePrep.obj
 0001:000e6110       constraint1DPrePrepLaunch  00000001800e7110 f   constraintBlockPrePrep.obj
 0001:000e61e0       constraint1DBlockPrePrepLaunch 00000001800e71e0 f   constraintBlockPrePrep.obj
 0001:000e62b0       clearFrictionPatchCounts   00000001800e72b0 f   constraintBlockPrePrep.obj
 0001:000e63b0       rigidSumInternalContactAndJointBatches1 00000001800e73b0 f   constraintBlockPrePrep.obj
 0001:000e6480       rigidSumInternalContactAndJointBatches2 00000001800e7480 f   constraintBlockPrePrep.obj
 0001:000e65c0       ?__device_stub__Z35constraintContactBlockPrePrepLaunchPN5physx14PxgPrePrepDescEPNS_19PxgSolverSharedDescINS_18IterativeSolveDataEEE@@YAXPEAUPxgPrePrepDesc@physx@@PEAU?$PxgSolverSharedDesc@UIterativeSolveData@physx@@@2@@Z 00000001800e75c0 f   constraintBlockPrePrep.obj
 0001:000e6690       ?__device_stub__Z25constraint1DPrePrepLaunchPN5physx14PxgPrePrepDescEPNS_19PxgSolverSharedDescINS_18IterativeSolveDataEEE@@YAXPEAUPxgPrePrepDesc@physx@@PEAU?$PxgSolverSharedDesc@UIterativeSolveData@physx@@@2@@Z 00000001800e7690 f   constraintBlockPrePrep.obj
 0001:000e6760       ?__device_stub__Z30constraint1DBlockPrePrepLaunchPN5physx14PxgPrePrepDescEPNS_19PxgSolverSharedDescINS_18IterativeSolveDataEEE@@YAXPEAUPxgPrePrepDesc@physx@@PEAU?$PxgSolverSharedDesc@UIterativeSolveData@physx@@@2@@Z 00000001800e7760 f   constraintBlockPrePrep.obj
 0001:000e6830       ?__device_stub__Z24clearFrictionPatchCountsPjS_j@@YAXPEAI0I@Z 00000001800e7830 f   constraintBlockPrePrep.obj
 0001:000e6940       ?__device_stub__Z39rigidSumInternalContactAndJointBatches1PN5physx14PxgPrePrepDescEj@@YAXPEIAUPxgPrePrepDesc@physx@@I@Z 00000001800e7940 f   constraintBlockPrePrep.obj
 0001:000e6a10       ?__device_stub__Z39rigidSumInternalContactAndJointBatches2PN5physx14PxgPrePrepDescEPNS_17PxgSolverCoreDescEPNS_24PxgConstraintPrepareDescEj@@YAXPEIAUPxgPrePrepDesc@physx@@PEIAUPxgSolverCoreDesc@2@PEAUPxgConstraintPrepareDesc@2@I@Z 00000001800e7a10 f   constraintBlockPrePrep.obj
 0001:000e6ea0       initSolverKernels13        00000001800e7ea0 f   artiConstraintPrep2.obj
 0001:000e6eb0       artiContactConstraintBlockPrepareLaunch 00000001800e7eb0 f   artiConstraintPrep2.obj
 0001:000e6f80       artiTGSContactConstraintBlockPrepareLaunch 00000001800e7f80 f   artiConstraintPrep2.obj
 0001:000e7050       ?fillJointBlockParams@@YAXPEAU?$PxgSolverSharedDesc@UIterativeSolveData@physx@@@physx@@PEAUPxgConstraintPrepareDesc@2@AEAUPxgJointBlockParams@2@II@Z 00000001800e8050 f   artiConstraintPrep2.obj
 0001:000e7070       ?fillJointBlockParams@@YAXPEAU?$PxgSolverSharedDesc@UIterativeSolveDataTGS@physx@@@physx@@PEAUPxgConstraintPrepareDesc@2@AEAUPxgTGSJointBlockParams@2@II@Z 00000001800e8070 f   artiConstraintPrep2.obj
 0001:000e7090       artiJointConstraintBlockPrepareParallelLaunch 00000001800e8090 f   artiConstraintPrep2.obj
 0001:000e7160       artiTGSJointConstraintBlockPrepareParallelLaunch 00000001800e8160 f   artiConstraintPrep2.obj
 0001:000e7260       ?__device_stub__Z39artiContactConstraintBlockPrepareLaunchPN5physx24PxgConstraintPrepareDescEPNS_19PxgSolverSharedDescINS_18IterativeSolveDataEEE@@YAXPEAUPxgConstraintPrepareDesc@physx@@PEAU?$PxgSolverSharedDesc@UIterativeSolveData@physx@@@2@@Z 00000001800e8260 f   artiConstraintPrep2.obj
 0001:000e7330       ?__device_stub__Z42artiTGSContactConstraintBlockPrepareLaunchPN5physx24PxgConstraintPrepareDescEPNS_19PxgSolverSharedDescINS_21IterativeSolveDataTGSEEE@@YAXPEAUPxgConstraintPrepareDesc@physx@@PEAU?$PxgSolverSharedDesc@UIterativeSolveDataTGS@physx@@@2@@Z 00000001800e8330 f   artiConstraintPrep2.obj
 0001:000e7400       ?__device_stub__Z45artiJointConstraintBlockPrepareParallelLaunchPN5physx24PxgConstraintPrepareDescEPNS_19PxgSolverSharedDescINS_18IterativeSolveDataEEE@@YAXPEAUPxgConstraintPrepareDesc@physx@@PEAU?$PxgSolverSharedDesc@UIterativeSolveData@physx@@@2@@Z 00000001800e8400 f   artiConstraintPrep2.obj
 0001:000e74d0       ?__device_stub__Z48artiTGSJointConstraintBlockPrepareParallelLaunchPN5physx24PxgConstraintPrepareDescEPNS_19PxgSolverSharedDescINS_21IterativeSolveDataTGSEEE@@YAXPEAUPxgConstraintPrepareDesc@physx@@PEAU?$PxgSolverSharedDesc@UIterativeSolveDataTGS@physx@@@2@@Z 00000001800e84d0 f   artiConstraintPrep2.obj
 0001:000e7ab0       initSolverKernels3         00000001800e8ab0 f   integration.obj
 0001:000e7ac0       integrateCoreParallelLaunch 00000001800e8ac0 f   integration.obj
 0001:000e7c20       ?__device_stub__Z27integrateCoreParallelLaunchjPKN5physx17PxgSolverCoreDescEPKNS_19PxgSolverSharedDescINS_18IterativeSolveDataEEEPKjS9_S9_@@YAXIPEIBUPxgSolverCoreDesc@physx@@PEIBU?$PxgSolverSharedDesc@UIterativeSolveData@physx@@@2@PEIBI22@Z 00000001800e8c20 f   integration.obj
 0001:000e80f0       initSolverKernels11        00000001800e90f0 f   integrationTGS.obj
 0001:000e8100       integrateCoreParallelLaunchTGS 00000001800e9100 f   integrationTGS.obj
 0001:000e8260       ?__device_stub__Z30integrateCoreParallelLaunchTGSjPKN5physx17PxgSolverCoreDescEPKNS_19PxgSolverSharedDescINS_21IterativeSolveDataTGSEEEPKjS9_S9_@@YAXIPEIBUPxgSolverCoreDesc@physx@@PEIBU?$PxgSolverSharedDesc@UIterativeSolveDataTGS@physx@@@2@PEIBI22@Z 00000001800e9260 f   integrationTGS.obj
 0001:000e8730       initSolverKernels4         00000001800e9730 f   preIntegration.obj
 0001:000e8740       preIntegrationLaunch       00000001800e9740 f   preIntegration.obj
 0001:000e8900       initStaticKinematics       00000001800e9900 f   preIntegration.obj
 0001:000e8a90       ?__device_stub__Z20preIntegrationLaunchjjfN5physx7PxVec3TIfEEPNS_17PxgSolverBodyDataEPNS_22PxgSolverBodySleepDataEPNS_16PxgSolverTxIDataEPKNS_10PxgBodySimEPKNS_11PxNodeIndexEPNS_18PxAlignedTransformEP6float4Pj@@YAXIIMAEBV?$PxVec3T@M@physx@@PEIAUPxgSolverBodyData@2@PEIAUPxgSolverBodySleepData@2@PEIAUPxgSolverTxIData@2@PEIBUPxgBodySim@2@PEIBVPxNodeIndex@2@PEAVPxAlignedTransform@2@PEAUfloat4@@PEAI@Z 00000001800e9a90 f   preIntegration.obj
 0001:000e8bf0       ?__device_stub__Z20initStaticKinematicsjjPN5physx17PxgSolverBodyDataEPNS_16PxgSolverTxIDataEPNS_18PxAlignedTransformEP6float4PNS_11PxNodeIndexEPj@@YAXIIPEIAUPxgSolverBodyData@physx@@PEIAUPxgSolverTxIData@2@PEAVPxAlignedTransform@2@PEAUfloat4@@PEAVPxNodeIndex@2@PEAI@Z 00000001800e9bf0 f   preIntegration.obj
 0001:000e8f40       initSolverKernels9         00000001800e9f40 f   preIntegrationTGS.obj
 0001:000e8f50       preIntegrationLaunchTGS    00000001800e9f50 f   preIntegrationTGS.obj
 0001:000e9150       ?__device_stub__Z23preIntegrationLaunchTGSjjfN5physx7PxVec3TIfEEPNS_17PxgSolverBodyDataEPNS_22PxgSolverBodySleepDataEPNS_16PxgSolverTxIDataEPKNS_10PxgBodySimEPKNS_11PxNodeIndexEPNS_18PxAlignedTransformEP6float4Pjb@@YAXIIMAEBV?$PxVec3T@M@physx@@PEIAUPxgSolverBodyData@2@PEIAUPxgSolverBodySleepData@2@PEIAUPxgSolverTxIData@2@QEIBUPxgBodySim@2@QEIBVPxNodeIndex@2@PEAVPxAlignedTransform@2@PEAUfloat4@@PEAI_N@Z 00000001800ea150 f   preIntegrationTGS.obj
 0001:000e9440       initSolverKernels7         00000001800ea440 f   solver.obj
 0001:000e9450       artiSolveBlockPartition    00000001800ea450 f   solver.obj
 0001:000e95b0       ?__device_stub__Z23artiSolveBlockPartitionPN5physx17PxgSolverCoreDescEPKNS_19PxgSolverSharedDescINS_18IterativeSolveDataEEEjjbPKNS_23PxgArticulationCoreDescE@@YAXPEIAUPxgSolverCoreDesc@physx@@PEIBU?$PxgSolverSharedDesc@UIterativeSolveData@physx@@@2@II_NQEIBUPxgArticulationCoreDesc@2@@Z 00000001800ea5b0 f   solver.obj
 0001:000e9a80       initSolverKernels10        00000001800eaa80 f   constraintBlockPrepTGS.obj
 0001:000e9a90       jointConstraintBlockPrepareParallelLaunchTGS 00000001800eaa90 f   constraintBlockPrepTGS.obj
 0001:000e9b60       contactConstraintBlockPrepareParallelLaunchTGS 00000001800eab60 f   constraintBlockPrepTGS.obj
 0001:000e9c60       ?__device_stub__Z44jointConstraintBlockPrepareParallelLaunchTGSPN5physx24PxgConstraintPrepareDescEPNS_19PxgSolverSharedDescINS_21IterativeSolveDataTGSEEE@@YAXPEAUPxgConstraintPrepareDesc@physx@@PEAU?$PxgSolverSharedDesc@UIterativeSolveDataTGS@physx@@@2@@Z 00000001800eac60 f   constraintBlockPrepTGS.obj
 0001:000e9d30       ?__device_stub__Z46contactConstraintBlockPrepareParallelLaunchTGSPN5physx24PxgConstraintPrepareDescEPNS_19PxgSolverSharedDescINS_21IterativeSolveDataTGSEEE@@YAXPEAUPxgConstraintPrepareDesc@physx@@PEAU?$PxgSolverSharedDesc@UIterativeSolveDataTGS@physx@@@2@@Z 00000001800ead30 f   constraintBlockPrepTGS.obj
 0001:000ea210       ??0PartitionSlab@physx@@QEAA@XZ 00000001800eb210 f i PxgConstraintPartition.obj
 0001:000ea280       ??0PxgIncrementalPartition@physx@@QEAA@AEBVPxVirtualAllocator@1@I_K@Z 00000001800eb280 f   PxgConstraintPartition.obj
 0001:000ea520       ??1?$BlockArray@I$0BAAA@@Cm@physx@@QEAA@XZ 00000001800eb520 f i PxgConstraintPartition.obj
 0001:000ea5f0       ??1PartitionEdgeManager@physx@@QEAA@XZ 00000001800eb5f0 f   PxgConstraintPartition.obj
 0001:000ea6c0       ??1PxgCombinedPartitionSlab@physx@@QEAA@XZ 00000001800eb6c0 f i PxgConstraintPartition.obj
 0001:000ea730       ??1PxgIncrementalPartition@physx@@QEAA@XZ 00000001800eb730 f   PxgConstraintPartition.obj
 0001:000eadb0       ?addEdgeInternal@PxgIncrementalPartition@physx@@QEAAXPEIBUPartitionEdge@2@PEIAUPartitionSlab@2@GG@Z 00000001800ebdb0 f   PxgConstraintPartition.obj
 0001:000eb0b0       ?addEdge_Stage1@PxgIncrementalPartition@physx@@QEAAPEAUPartitionEdge@2@AEBVIslandSim@IG@2@IIIVPxNodeIndex@2@1@Z 00000001800ec0b0 f   PxgConstraintPartition.obj
 0001:000eb2d0       ?addEdge_Stage2@PxgIncrementalPartition@physx@@QEAAXAEAVGPUExternalData@IG@2@IPEAUPartitionEdge@2@_N22@Z 00000001800ec2d0 f   PxgConstraintPartition.obj
 0001:000eb540       ?allocate@FlushPool@Cm@physx@@QEAAPEAXII@Z 00000001800ec540 f i PxgConstraintPartition.obj
 0001:000eb670       ?allocateSlab@PartitionEdgeManager@physx@@AEAAXXZ 00000001800ec670 f   PxgConstraintPartition.obj
 0001:000eb770       ?destroyEdges@PxgIncrementalPartition@physx@@QEAAXAEBVCPUExternalData@IG@2@AEAVGPUExternalData@42@AEAVPxgBodySimManager@2@AEAVPxgJointManager@2@_N4@Z 00000001800ec770 f   PxgConstraintPartition.obj
 0001:000eb8e0       ?doCompaction@PxgIncrementalPartition@physx@@QEAAXXZ 00000001800ec8e0 f   PxgConstraintPartition.obj
 0001:000ebc60       ?growAndPushBack@?$PxArray@PEAIV?$PxReflectionAllocator@PEAI@physx@@@physx@@IEAAAEAPEAIAEBQEAI@Z 00000001800ecc60 f i PxgConstraintPartition.obj
 0001:000ebd80       ?growAndPushBack@?$PxArray@PEAUPartition@physx@@V?$PxReflectionAllocator@PEAUPartition@physx@@@2@@physx@@IEAAAEAPEAUPartition@2@AEBQEAU32@@Z 00000001800ecd80 f i PxgConstraintPartition.obj
 0001:000ebea0       ?growAndPushBack@?$PxArray@PEAUPartitionEdge@physx@@V?$PxReflectionAllocator@PEAUPartitionEdge@physx@@@2@@physx@@IEAAAEAPEAUPartitionEdge@2@AEBQEAU32@@Z 00000001800ecea0 f i PxgConstraintPartition.obj
 0001:000ebfc0       ?growAndPushBack@?$PxArray@PEAUPartitionEdgeSlab@physx@@V?$PxReflectionAllocator@PEAUPartitionEdgeSlab@physx@@@2@@physx@@IEAAAEAPEAUPartitionEdgeSlab@2@AEBQEAU32@@Z 00000001800ecfc0 f i PxgConstraintPartition.obj
 0001:000ec0e0       ?growAndPushBack@?$PxArray@PEAUPartitionSlab@physx@@V?$PxReflectionAllocator@PEAUPartitionSlab@physx@@@2@@physx@@IEAAAEAPEAUPartitionSlab@2@AEBQEAU32@@Z 00000001800ed0e0 f i PxgConstraintPartition.obj
 0001:000ec600       ?processFoundPatches_Reference@PxgIncrementalPartition@physx@@QEAAXAEAVIslandSim@IG@2@AEAVPxgBodySimManager@2@PEAPEAVPxsContactManager@2@IPEBUPxsContactManagerOutputCounts@2@@Z 00000001800ed600 f   PxgConstraintPartition.obj
 0001:000ec8b0       ?processLostFoundPatches@PxgIncrementalPartition@physx@@QEAAXAEAVFlushPool@Cm@2@PEAVPxBaseTask@2@AEAVIslandSim@IG@2@AEAVPxgBodySimManager@2@AEAVPxgJointManager@2@PEAPEAVPxsContactManager@2@IPEBUPxsContactManagerOutputCounts@2@@Z 00000001800ed8b0 f   PxgConstraintPartition.obj
 0001:000eca40       ?processLostPatchesMT@PxgIncrementalPartition@physx@@QEAAXAEAVIslandSim@IG@2@AEAVFlushPool@Cm@2@PEAVPxBaseTask@2@PEAPEAVPxsContactManager@2@IPEBUPxsContactManagerOutputCounts@2@AEAVPxgBodySimManager@2@AEAVPxgJointManager@2@@Z 00000001800eda40 f   PxgConstraintPartition.obj
 0001:000ecf00       ?pullForwardConstraints@PxgIncrementalPartition@physx@@QEAAXI@Z 00000001800edf00 f   PxgConstraintPartition.obj
 0001:000ed160       ?recreate@?$PxArray@PEAIV?$PxReflectionAllocator@PEAI@physx@@@physx@@IEAAXI@Z 00000001800ee160 f i PxgConstraintPartition.obj
 0001:000ed250       ?recreate@?$PxArray@PEAUPartition@physx@@V?$PxReflectionAllocator@PEAUPartition@physx@@@2@@physx@@IEAAXI@Z 00000001800ee250 f i PxgConstraintPartition.obj
 0001:000ed340       ?recreate@?$PxArray@PEAUPartitionEdgeBatch@PxgIncrementalPartition@physx@@V?$PxReflectionAllocator@PEAUPartitionEdgeBatch@PxgIncrementalPartition@physx@@@3@@physx@@IEAAXI@Z 00000001800ee340 f i PxgConstraintPartition.obj
 0001:000ed430       ?recreate@?$PxArray@UNodeEntries@physx@@V?$PxReflectionAllocator@UNodeEntries@physx@@@2@@physx@@IEAAXI@Z 00000001800ee430 f i PxgConstraintPartition.obj
 0001:000ed560       ?recreate@?$PxArray@UPart2WorkItem@PxgIncrementalPartition@physx@@V?$PxReflectionAllocator@UPart2WorkItem@PxgIncrementalPartition@physx@@@3@@physx@@IEAAXI@Z 00000001800ee560 f i PxgConstraintPartition.obj
 0001:000ed650       ?removeEdge@PxgIncrementalPartition@physx@@QEAAXPEAUPartitionEdge@2@AEAVGPUExternalData@IG@2@AEAVPxgBodySimManager@2@@Z 00000001800ee650 f   PxgConstraintPartition.obj
 0001:000ed810       ?removeEdgeInternal@PxgIncrementalPartition@physx@@QEAAXPEIAUPartitionSlab@2@PEIBUPartitionEdge@2@I@Z 00000001800ee810 f   PxgConstraintPartition.obj
 0001:000eda90       ?removeFromPartition@Partition@physx@@QEAAXIAEAV?$PxArray@UPartitionIndexData@physx@@VPxVirtualAllocator@2@@2@@Z 00000001800eea90 f i PxgConstraintPartition.obj
 0001:000edb40       ?reserve@?$BlockArray@I$0BAAA@@Cm@physx@@QEAAXI@Z 00000001800eeb40 f i PxgConstraintPartition.obj
 0001:000edc10       ?resize@?$PxArray@PEAIV?$PxReflectionAllocator@PEAI@physx@@@physx@@QEAAXIAEBQEAI@Z 00000001800eec10 f i PxgConstraintPartition.obj
 0001:000edcd0       ?resize@?$PxArray@PEAUPartition@physx@@V?$PxReflectionAllocator@PEAUPartition@physx@@@2@@physx@@QEAAXIAEBQEAUPartition@2@@Z 00000001800eecd0 f i PxgConstraintPartition.obj
 0001:000edd90       ?resize@?$PxArray@PEAUPartitionEdgeBatch@PxgIncrementalPartition@physx@@V?$PxReflectionAllocator@PEAUPartitionEdgeBatch@PxgIncrementalPartition@physx@@@3@@physx@@QEAAXIAEBQEAUPartitionEdgeBatch@PxgIncrementalPartition@2@@Z 00000001800eed90 f i PxgConstraintPartition.obj
 0001:000ede50       ?resize@?$PxArray@UNodeEntries@physx@@V?$PxReflectionAllocator@UNodeEntries@physx@@@2@@physx@@QEAAXIAEBUNodeEntries@2@@Z 00000001800eee50 f i PxgConstraintPartition.obj
 0001:000edef0       ?resizeUninitialized@?$PxArray@IV?$PxReflectionAllocator@I@physx@@@physx@@QEAAXI@Z 00000001800eeef0 f i PxgConstraintPartition.obj
 0001:000edf30       ?resizeUninitialized@?$PxArray@UPartitionIndexData@physx@@VPxVirtualAllocator@2@@physx@@QEAAXI@Z 00000001800eef30 f i PxgConstraintPartition.obj
 0001:000edf70       ?resizeUninitialized@?$PxArray@UPartitionNodeData@physx@@VPxVirtualAllocator@2@@physx@@QEAAXI@Z 00000001800eef70 f i PxgConstraintPartition.obj
 0001:000eec20       ?updateIncrementalIslands@PxgIncrementalPartition@physx@@QEAAXAEAVIslandSim@IG@2@AEBVAuxCpuData@42@PEAVFlushPool@Cm@2@PEAVPxBaseTask@2@AEAVPxsContactManagerOutputIterator@2@AEAVPxgBodySimManager@2@AEAVPxgJointManager@2@@Z 00000001800efc20 f   PxgConstraintPartition.obj
 0001:000ef210       ?updateIncrementalIslands_Part1@PxgIncrementalPartition@physx@@QEAAXAEAVIslandSim@IG@2@AEBVAuxCpuData@42@AEAVPxsContactManagerOutputIterator@2@AEAVPxgBodySimManager@2@AEAVPxgJointManager@2@@Z 00000001800f0210 f   PxgConstraintPartition.obj
 0001:000ef850       ?updateIncrementalIslands_Part2@PxgIncrementalPartition@physx@@QEAAXAEAVIslandSim@IG@2@AEBVAuxCpuData@42@AEAVPxsContactManagerOutputIterator@2@AEAVPxgBodySimManager@2@@Z 00000001800f0850 f   PxgConstraintPartition.obj
 0001:000efb70       ?updateIncrementalIslands_Part2_0@PxgIncrementalPartition@physx@@QEAAXAEAVIslandSim@IG@2@AEBVAuxCpuData@42@AEAVPxsContactManagerOutputIterator@2@@Z 00000001800f0b70 f   PxgConstraintPartition.obj
 0001:000efea0       ?updateIncrementalIslands_Part2_1@PxgIncrementalPartition@physx@@QEAAXIIAEAVIslandSim@IG@2@AEBVAuxCpuData@42@@Z 00000001800f0ea0 f   PxgConstraintPartition.obj
 0001:000f0120       ?updateIncrementalIslands_Part2_2@PxgIncrementalPartition@physx@@QEAAXAEAVIslandSim@IG@2@AEAVPxgBodySimManager@2@_N22@Z 00000001800f1120 f   PxgConstraintPartition.obj
 0001:000f02c0       ?updateIncrementalIslands_Part2_2_ProcessEdgeCases@PxgIncrementalPartition@physx@@QEAAXAEAVIslandSim@IG@2@@Z 00000001800f12c0 f   PxgConstraintPartition.obj
 0001:000f0530       ?updateIncrementalIslands_Part3@PxgIncrementalPartition@physx@@QEAAXAEAVIslandSim@IG@2@AEAVPxgJointManager@2@@Z 00000001800f1530 f   PxgConstraintPartition.obj
 0001:000f0c50       ?updateIncrementalIslands_Reference@PxgIncrementalPartition@physx@@QEAAXAEAVIslandSim@IG@2@AEBVAuxCpuData@42@AEAVPxsContactManagerOutputIterator@2@AEAVPxgBodySimManager@2@AEAVPxgJointManager@2@@Z 00000001800f1c50 f   PxgConstraintPartition.obj
 0001:000f0cd0       ??0PxgCudaSolverCore@physx@@QEAA@PEAVPxgCudaKernelWranglerManager@1@PEAVPxCudaContextManager@1@PEAVPxgGpuContext@1@PEAVPxgHeapMemoryAllocatorManager@1@AEBUPxGpuDynamicsMemoryConfig@1@_N@Z 00000001800f1cd0 f   PxgCudaSolverCore.obj
 0001:000f10d0       ??1PxgSolverCore@physx@@UEAA@XZ 00000001800f20d0 f i PxgCudaSolverCore.obj
 0001:000f1540       ??_EPxgCudaSolverCore@physx@@UEAAPEAXI@Z 00000001800f2540 f i PxgCudaSolverCore.obj
 0001:000f1540       ??_GPxgCudaSolverCore@physx@@UEAAPEAXI@Z 00000001800f2540 f i PxgCudaSolverCore.obj
 0001:000f16d0       ??_GPxgSolverCore@physx@@UEAAPEAXI@Z 00000001800f26d0 f i PxgCudaSolverCore.obj
 0001:000f16d0       ??_EPxgSolverCore@physx@@UEAAPEAXI@Z 00000001800f26d0 f i PxgCudaSolverCore.obj
 0001:000f1740       ?accumulatedForceThresholdStream@PxgCudaSolverCore@physx@@UEAAXI@Z 00000001800f2740 f   PxgCudaSolverCore.obj
 0001:000f1f00       ?acquireContext@PxgTGSCudaSolverCore@physx@@UEAAXXZ 00000001800f2f00 f   PxgTGSCudaSolverCore.obj
 0001:000f1f00       ?acquireContext@PxgCudaSolverCore@physx@@UEAAXXZ 00000001800f2f00 f   PxgCudaSolverCore.obj
 0001:000f1f10       ?allocatePinnedDescriptors@PxgTGSCudaSolverCore@physx@@UEAAXAEAVPxgPinnedHostLinearMemoryAllocator@2@@Z 00000001800f2f10 f   PxgTGSCudaSolverCore.obj
 0001:000f1f10       ?allocatePinnedDescriptors@PxgCudaSolverCore@physx@@UEAAXAEAVPxgPinnedHostLinearMemoryAllocator@2@@Z 00000001800f2f10 f   PxgCudaSolverCore.obj
 0001:000f1fa0       ?allocateSolverBodyBuffers@PxgCudaSolverCore@physx@@UEAAXIAEAV?$PxArray@VPxNodeIndex@physx@@VPxVirtualAllocator@2@@2@II@Z 00000001800f2fa0 f   PxgCudaSolverCore.obj
 0001:000f1ff0       ?artiContactConstraintPrepare@PxgCudaSolverCore@physx@@UEAAXI@Z 00000001800f2ff0 f   PxgCudaSolverCore.obj
 0001:000f2110       ?artiJointConstraintPrepare@PxgCudaSolverCore@physx@@UEAAXI@Z 00000001800f3110 f   PxgCudaSolverCore.obj
 0001:000f2230       ?constructConstraitPrepareDesc@PxgCudaSolverCore@physx@@QEAAXAEAUPxgConstraintPrepareDesc@2@IIIIIIIIIIIIAEBUPxgConstantData@2@III@Z 00000001800f3230 f   PxgCudaSolverCore.obj
 0001:000f2530       ?contactConstraintPrepareParallel@PxgCudaSolverCore@physx@@UEAAXI@Z 00000001800f3530 f   PxgCudaSolverCore.obj
 0001:000f2650       ?createStreams@PxgCudaSolverCore@physx@@UEAAXXZ 00000001800f3650 f   PxgCudaSolverCore.obj
 0001:000f27b0       ?getDataStreamBase@PxgTGSCudaSolverCore@physx@@UEAAXAEAPEAX00@Z 00000001800f37b0 f   PxgTGSCudaSolverCore.obj
 0001:000f27b0       ?getDataStreamBase@PxgCudaSolverCore@physx@@UEAAXAEAPEAX00@Z 00000001800f37b0 f   PxgCudaSolverCore.obj
 0001:000f27f0       ?getDescriptorsAllocationSize@PxgTGSCudaSolverCore@physx@@UEAAIXZ 00000001800f37f0 f   PxgTGSCudaSolverCore.obj
 0001:000f27f0       ?getDescriptorsAllocationSize@PxgCudaSolverCore@physx@@UEAAIXZ 00000001800f37f0 f   PxgCudaSolverCore.obj
 0001:000f2800       ?gpuMemDMAUp@PxgCudaSolverCore@physx@@UEAAXAEAVPxgPinnedHostLinearMemoryAllocator@2@AEBUPxgConstraintPrePrepData@2@IPEAUPxgConstraintBatchHeader@2@PEAUPxgIslandContext@2@IAEBUPxgPartitionData@2@IIIIIAEBUPxgConstantData@2@IIIIIIII_NPEAE77AEAVPxsContactManagerOutputIterator@2@IIIPEAUUnAlignedSpatialVector@Cm@2@PEAIPEAUuint4@@PEAPEAVShapeInteraction@Sc@2@PEAMPEAUPxsTorsionalFrictionData@2@PEAIIPEAIIPEAIPEAIPEAIIPEAIIPEAIPEAIPEAIIPEAIIPEAIPEAIM_N@Z 00000001800f3800 f   PxgCudaSolverCore.obj
 0001:000f3c30       ?gpuMemDMAUpContactData@PxgCudaSolverCore@physx@@UEAAXPEAVPxgPinnedHostLinearMemoryAllocator@2@II0IIIPEBUPartitionIndexData@2@PEBUPartitionNodeData@2@PEBUPxgSolverConstraintManagerConstants@2@IIPEBI444I4I4II44I4I@Z 00000001800f4c30 f   PxgCudaSolverCore.obj
 0001:000f4350       ?gpuMemDMAbackSolverData@PxgCudaSolverCore@physx@@UEAAXPEAEIIIPEAUThresholdStreamElement@Dy@2@_NPEAUConstraintWriteback@42@I2AEAPEAUErrorAccumulator@42@@Z 00000001800f5350 f   PxgCudaSolverCore.obj
 0001:000f4770       ?gpuMemDmaUpBodyData@PxgCudaSolverCore@physx@@UEAAXAEAV?$PxArray@UPxgSolverBodyData@physx@@VPxVirtualAllocator@2@@2@AEAV?$PxArray@UPxgSolverTxIData@physx@@VPxVirtualAllocator@2@@2@IIIIII@Z 00000001800f5770 f   PxgCudaSolverCore.obj
 0001:000f4940       ?integrateCoreParallel@PxgCudaSolverCore@physx@@UEAAXII@Z 00000001800f5940 f   PxgCudaSolverCore.obj
 0001:000f4af0       ?jointConstraintBlockPrePrepParallel@PxgCudaSolverCore@physx@@UEAAXI@Z 00000001800f5af0 f   PxgCudaSolverCore.obj
 0001:000f4bd0       ?jointConstraintPrepareParallel@PxgCudaSolverCore@physx@@UEAAXI@Z 00000001800f5bd0 f   PxgCudaSolverCore.obj
 0001:000f4d00       ?nonRigidConstraintPrepare@PxgCudaSolverCore@physx@@UEAAXI@Z 00000001800f5d00 f   PxgCudaSolverCore.obj
 0001:000f4e40       ?preIntegration@PxgCudaSolverCore@physx@@UEAAXIIMAEBV?$PxVec3T@M@2@@Z 00000001800f5e40 f   PxgCudaSolverCore.obj
 0001:000f5200       ?radixSort@PxgCudaSolverCore@physx@@AEAAXI@Z 00000001800f6200 f   PxgCudaSolverCore.obj
 0001:000f5410       ?releaseContext@PxgCudaSolverCore@physx@@UEAAXXZ 00000001800f6410 f   PxgCudaSolverCore.obj
 0001:000f5410       ?releaseContext@PxgTGSCudaSolverCore@physx@@UEAAXXZ 00000001800f6410 f   PxgTGSCudaSolverCore.obj
 0001:000f5420       ?releaseStreams@PxgTGSCudaSolverCore@physx@@UEAAXXZ 00000001800f6420 f   PxgTGSCudaSolverCore.obj
 0001:000f5420       ?releaseStreams@PxgCudaSolverCore@physx@@UEAAXXZ 00000001800f6420 f   PxgCudaSolverCore.obj
 0001:000f54e0       ?solveContactMultiBlockParallel@PxgCudaSolverCore@physx@@UEAAXPEAUPxgIslandContext@2@IIAEAV?$PxArray@IVPxVirtualAllocator@physx@@@2@1AEBV?$PxVec3T@M@2@PEAMIPEAUErrorAccumulator@Dy@2@AEAV?$PxArray@UErrorAccumulator@Dy@physx@@VPxVirtualAllocator@3@@2@5@Z 00000001800f64e0 f   PxgCudaSolverCore.obj
 0001:000f66d0       ?solvePartitions@PxgCudaSolverCore@physx@@QEAAXPEAUPxgIslandContext@2@AEAV?$PxArray@IVPxVirtualAllocator@physx@@@2@1I_N2@Z 00000001800f76d0 f   PxgCudaSolverCore.obj
 0001:000f6bd0       ?syncDmaBack@PxgTGSCudaSolverCore@physx@@UEAAXAEAI@Z 00000001800f7bd0 f   PxgTGSCudaSolverCore.obj
 0001:000f6bd0       ?syncDmaBack@PxgCudaSolverCore@physx@@UEAAXAEAI@Z 00000001800f7bd0 f   PxgCudaSolverCore.obj
 0001:000f6ca0       ?syncSimulationController@PxgCudaSolverCore@physx@@UEAAXXZ 00000001800f7ca0 f   PxgCudaSolverCore.obj
 0001:000f6ca0       ?syncSimulationController@PxgTGSCudaSolverCore@physx@@UEAAXXZ 00000001800f7ca0 f   PxgTGSCudaSolverCore.obj
 0001:000f6dc0       ?writeBackBlock@PxgCudaSolverCore@physx@@QEAAXIAEAUPxgIslandContext@2@@Z 00000001800f7dc0 f   PxgCudaSolverCore.obj
 0001:000f6f30       ??0PxgTGSCudaSolverCore@physx@@QEAA@PEAVPxgCudaKernelWranglerManager@1@PEAVPxCudaContextManager@1@PEAVPxgGpuContext@1@PEAVPxgHeapMemoryAllocatorManager@1@AEBUPxGpuDynamicsMemoryConfig@1@@Z 00000001800f7f30 f   PxgTGSCudaSolverCore.obj
 0001:000f7330       ??_EPxgTGSCudaSolverCore@physx@@UEAAPEAXI@Z 00000001800f8330 f i PxgTGSCudaSolverCore.obj
 0001:000f7330       ??_GPxgTGSCudaSolverCore@physx@@UEAAPEAXI@Z 00000001800f8330 f i PxgTGSCudaSolverCore.obj
 0001:000f74c0       ?accumulatedForceThresholdStream@PxgTGSCudaSolverCore@physx@@UEAAXI@Z 00000001800f84c0 f   PxgTGSCudaSolverCore.obj
 0001:000f7c80       ?allocateSolverBodyBuffers@PxgTGSCudaSolverCore@physx@@UEAAXIAEAV?$PxArray@VPxNodeIndex@physx@@VPxVirtualAllocator@2@@2@II@Z 00000001800f8c80 f   PxgTGSCudaSolverCore.obj
 0001:000f7cd0       ?artiContactConstraintPrepare@PxgTGSCudaSolverCore@physx@@UEAAXI@Z 00000001800f8cd0 f   PxgTGSCudaSolverCore.obj
 0001:000f7df0       ?artiJointConstraintPrepare@PxgTGSCudaSolverCore@physx@@UEAAXI@Z 00000001800f8df0 f   PxgTGSCudaSolverCore.obj
 0001:000f7f10       ?constructConstraitPrepareDesc@PxgTGSCudaSolverCore@physx@@QEAAXAEAUPxgConstraintPrepareDesc@2@IIIIIIIIIIIIAEBUPxgConstantData@2@III@Z 00000001800f8f10 f   PxgTGSCudaSolverCore.obj
 0001:000f8220       ?contactConstraintPrepareParallel@PxgTGSCudaSolverCore@physx@@UEAAXI@Z 00000001800f9220 f   PxgTGSCudaSolverCore.obj
 0001:000f8340       ?createStreams@PxgTGSCudaSolverCore@physx@@UEAAXXZ 00000001800f9340 f   PxgTGSCudaSolverCore.obj
 0001:000f84a0       ?gpuMemDMAUp@PxgTGSCudaSolverCore@physx@@UEAAXAEAVPxgPinnedHostLinearMemoryAllocator@2@AEBUPxgConstraintPrePrepData@2@IPEAUPxgConstraintBatchHeader@2@PEAUPxgIslandContext@2@IAEBUPxgPartitionData@2@IIIIIAEBUPxgConstantData@2@IIIIIIII_NPEAE77AEAVPxsContactManagerOutputIterator@2@IIIPEAUUnAlignedSpatialVector@Cm@2@PEAIPEAUuint4@@PEAPEAVShapeInteraction@Sc@2@PEAMPEAUPxsTorsionalFrictionData@2@PEAIIPEAIIPEAIPEAIPEAIIPEAIIPEAIPEAIPEAIIPEAIIPEAIPEAIM_N@Z 00000001800f94a0 f   PxgTGSCudaSolverCore.obj
 0001:000f9890       ?gpuMemDMAUpContactData@PxgTGSCudaSolverCore@physx@@UEAAXPEAVPxgPinnedHostLinearMemoryAllocator@2@II0IIIPEBUPartitionIndexData@2@PEBUPartitionNodeData@2@PEBUPxgSolverConstraintManagerConstants@2@IIPEBI444I4I4II44I4I@Z 00000001800fa890 f   PxgTGSCudaSolverCore.obj
 0001:000f9f90       ?gpuMemDMAbackSolverData@PxgTGSCudaSolverCore@physx@@UEAAXPEAEIIIPEAUThresholdStreamElement@Dy@2@_NPEAUConstraintWriteback@42@I2AEAPEAUErrorAccumulator@42@@Z 00000001800faf90 f   PxgTGSCudaSolverCore.obj
 0001:000fa3d0       ?gpuMemDmaUpBodyData@PxgTGSCudaSolverCore@physx@@UEAAXAEAV?$PxArray@UPxgSolverBodyData@physx@@VPxVirtualAllocator@2@@2@AEAV?$PxArray@UPxgSolverTxIData@physx@@VPxVirtualAllocator@2@@2@IIIIII@Z 00000001800fb3d0 f   PxgTGSCudaSolverCore.obj
 0001:000fa590       ?integrateCoreParallel@PxgTGSCudaSolverCore@physx@@UEAAXII@Z 00000001800fb590 f   PxgTGSCudaSolverCore.obj
 0001:000fa780       ?jointConstraintBlockPrePrepParallel@PxgTGSCudaSolverCore@physx@@UEAAXI@Z 00000001800fb780 f   PxgTGSCudaSolverCore.obj
 0001:000fa870       ?jointConstraintPrepareParallel@PxgTGSCudaSolverCore@physx@@UEAAXI@Z 00000001800fb870 f   PxgTGSCudaSolverCore.obj
 0001:000fa9a0       ?nonRigidConstraintPrepare@PxgTGSCudaSolverCore@physx@@UEAAXI@Z 00000001800fb9a0 f   PxgTGSCudaSolverCore.obj
 0001:000faae0       ?preIntegration@PxgTGSCudaSolverCore@physx@@UEAAXIIMAEBV?$PxVec3T@M@2@@Z 00000001800fbae0 f   PxgTGSCudaSolverCore.obj
 0001:000faec0       ?radixSort@PxgTGSCudaSolverCore@physx@@AEAAXI@Z 00000001800fbec0 f   PxgTGSCudaSolverCore.obj
