 PhysXGpu_64

 Timestamp is 68e06247 (Fri Oct  3 16:54:47 2025)

 Preferred load address is 0000000180000000

 Start         Length     Name                   Class
 0001:00000000 00001fd0H .text$di                CODE
 0001:00001fd0 00131150H .text$mn                CODE
 0001:00133120 00000040H .text$mn$00             CODE
 0001:00133160 00000640H .text$x                 CODE
 0002:00000000 000002a8H .idata$5                DATA
 0002:000002a8 00000028H .00cfg                  DATA
 0002:000002d0 00000008H .CRT$XCA                DATA
 0002:000002d8 000001e8H .CRT$XCT                DATA
 0002:000004c0 00000fb0H .CRT$XCU                DATA
 0002:00001470 00000008H .CRT$XCZ                DATA
 0002:00001478 00000008H .CRT$XIA                DATA
 0002:00001480 00000018H .CRT$XIC                DATA
 0002:00001498 00000008H .CRT$XIZ                DATA
 0002:000014a0 00000008H .CRT$XLA                DATA
 0002:000014a8 00000008H .CRT$XLZ                DATA
 0002:000014b0 00000008H .CRT$XPA                DATA
 0002:000014b8 00000010H .CRT$XPX                DATA
 0002:000014c8 00000008H .CRT$XPXA               DATA
 0002:000014d0 00000008H .CRT$XPZ                DATA
 0002:000014d8 00000008H .CRT$XTA                DATA
 0002:000014e0 00000010H .CRT$XTZ                DATA
 0002:000014e8 00000000H .gehcont$y              DATA
 0002:000014e8 00000000H .gfids$y                DATA
 0002:000014f0 00027090H .rdata                  DATA
 0002:00028580 00000000H .rdata$CastGuardVftablesA DATA
 0002:00028580 00000000H .rdata$CastGuardVftablesC DATA
 0002:00028580 00000028H .rdata$T                DATA
 0002:000285a8 0000043cH .rdata$r                DATA
 0002:000289e4 00000750H .rdata$voltmd           DATA
 0002:00029134 000004d4H .rdata$zzzdbg           DATA
 0002:00029608 00000008H .rtc$IAA                DATA
 0002:00029610 00000008H .rtc$IZZ                DATA
 0002:00029618 00000008H .rtc$TAA                DATA
 0002:00029620 00000008H .rtc$TZZ                DATA
 0002:00029628 00000001H .tls                    DATA
 0002:00029629 00000007H .tls$ZZZ                DATA
 0002:00029630 0000e348H .xdata                  DATA
 0002:00037978 00000084H .xdata$x                DATA
 0002:000379fc 00000020H .didat$2                DATA
 0002:00037a1c 00000024H .didat$3                DATA
 0002:00037a40 00000198H .didat$4                DATA
 0002:00037bd8 000003e0H .didat$6                DATA
 0002:00037fb8 00000198H .didat$7                DATA
 0002:00038150 000001f4H .edata                  DATA
 0002:00038344 00000014H .idata$2                DATA
 0002:00038358 00000018H .idata$3                DATA
 0002:00038370 000002a8H .idata$4                DATA
 0002:00038618 0000063eH .idata$6                DATA
 0003:00000000 00001e60H .data                   DATA
 0003:00001e60 00001268H .data$r                 DATA
 0003:000030c8 000000f0H .data$rs                DATA
 0003:000031b8 00000198H .didat$5                DATA
 0003:00003350 0000dc9cH .bss                    DATA
 0004:00000000 0000bf88H .pdata                  DATA
 0005:00000000 0f6c3340H .nv_fatbin              DATA
 0006:00000000 000005b8H .nvFatBinSegment        DATA
 0007:00000000 00002304H _RDATA                  DATA
 0008:00000000 000000a0H .rsrc$01                DATA
 0008:000000a0 00000498H .rsrc$02                DATA

  Address         Publics by Value              Rva+Base               Lib:Object

 0000:00000000       __guard_iat_table          0000000000000000     <absolute>
 0000:00000000       __guard_iat_count          0000000000000000     <absolute>
 0000:00000000       __x64_code_ranges_to_entry_points_count 0000000000000000     <absolute>
 0000:00000000       __guard_longjmp_count      0000000000000000     <absolute>
 0000:00000000       ___safe_se_handler_table   0000000000000000     <absolute>
 0000:00000000       __dynamic_value_reloc_table 0000000000000000     <absolute>
 0000:00000000       __hybrid_auxiliary_iat     0000000000000000     <absolute>
 0000:00000000       __hybrid_auxiliary_iat_copy 0000000000000000     <absolute>
 0000:00000000       __guard_longjmp_table      0000000000000000     <absolute>
 0000:00000000       __arm64x_redirection_metadata 0000000000000000     <absolute>
 0000:00000000       __x64_code_ranges_to_entry_points 0000000000000000     <absolute>
 0000:00000000       __AbsoluteZero             0000000000000000     <absolute>
 0000:00000000       __guard_fids_count         0000000000000000     <absolute>
 0000:00000000       __guard_check_icall_a64n_fptr 0000000000000000     <absolute>
 0000:00000000       __arm64x_extra_rfe_table   0000000000000000     <absolute>
 0000:00000000       __guard_fids_table         0000000000000000     <absolute>
 0000:00000000       __hybrid_code_map          0000000000000000     <absolute>
 0000:00000000       __arm64x_extra_rfe_table_size 0000000000000000     <absolute>
 0000:00000000       ___safe_se_handler_count   0000000000000000     <absolute>
 0000:00000000       __arm64x_redirection_metadata_count 0000000000000000     <absolute>
 0000:00000000       __enclave_config           0000000000000000     <absolute>
 0000:00000000       __guard_eh_cont_count      0000000000000000     <absolute>
 0000:00000000       __guard_eh_cont_table      0000000000000000     <absolute>
 0000:00000000       __arm64x_native_entrypoint 0000000000000000     <absolute>
 0000:00000000       __hybrid_code_map_count    0000000000000000     <absolute>
 0000:00000100       __guard_flags              0000000000000100     <absolute>
 0000:00000000       __ImageBase                0000000180000000     <linker-defined>
 0001:00001fd0       ??0PxgSparseGridIsosurfaceExtractor@physx@@QEAA@AEAVPxgKernelLauncher@1@UPxSparseGridParams@1@AEBUPxIsosurfaceParams@1@III@Z 0000000180002fd0 f i PxgPhysXGpu.obj
 0001:00002230       ??_G?$PxGpuRadixSort@I@physx@@UEAAPEAXI@Z 0000000180003230 f i PxgPhysXGpu.obj
 0001:00002230       ??_E?$PxGpuRadixSort@I@physx@@UEAAPEAXI@Z 0000000180003230 f i PxgPhysXGpu.obj
 0001:00002260       ??_EBoundsArray@Bp@physx@@UEAAPEAXI@Z 0000000180003260 f i PxgPhysXGpu.obj
 0001:00002260       ??_GBoundsArray@Bp@physx@@UEAAPEAXI@Z 0000000180003260 f i PxgPhysXGpu.obj
 0001:000022f0       ??_GPxAnisotropyGenerator@physx@@UEAAPEAXI@Z 00000001800032f0 f i PxgAnisotropy.obj
 0001:000022f0       ??_EPxIsosurfaceExtractor@physx@@UEAAPEAXI@Z 00000001800032f0 f i PxgPhysXGpu.obj
 0001:000022f0       ??_EPxAnisotropyGenerator@physx@@UEAAPEAXI@Z 00000001800032f0 f i PxgAnisotropy.obj
 0001:000022f0       ??_GPxIsosurfaceExtractor@physx@@UEAAPEAXI@Z 00000001800032f0 f i PxgPhysXGpu.obj
 0001:00002320       ??_GPxPhysXGpu@physx@@MEAAPEAXI@Z 0000000180003320 f i PxgPhysXGpu.obj
 0001:00002320       ??_EPxPhysXGpu@physx@@MEAAPEAXI@Z 0000000180003320 f i PxgPhysXGpu.obj
 0001:00002350       ??_GPxPhysicsGpu@physx@@UEAAPEAXI@Z 0000000180003350 f i PxgPhysXGpu.obj
 0001:00002350       ??_EPxPhysicsGpu@physx@@UEAAPEAXI@Z 0000000180003350 f i PxgPhysXGpu.obj
 0001:00002380       ??_EPxgBoundsArray@physx@@UEAAPEAXI@Z 0000000180003380 f i PxgPhysXGpu.obj
 0001:00002380       ??_GPxgBoundsArray@physx@@UEAAPEAXI@Z 0000000180003380 f i PxgPhysXGpu.obj
 0001:00002440       ??_GPxgDenseGridIsosurfaceExtractor@physx@@UEAAPEAXI@Z 0000000180003440 f i PxgPhysXGpu.obj
 0001:00002440       ??_EPxgDenseGridIsosurfaceExtractor@physx@@UEAAPEAXI@Z 0000000180003440 f i PxgPhysXGpu.obj
 0001:000024a0       ??_EPxgPhysXGpu@physx@@EEAAPEAXI@Z 00000001800034a0 f i PxgPhysXGpu.obj
 0001:000024a0       ??_GPxgPhysXGpu@physx@@EEAAPEAXI@Z 00000001800034a0 f i PxgPhysXGpu.obj
 0001:00002540       ??_EPxgPhysicsGpu@@UEAAPEAXI@Z 0000000180003540 f i PxgPhysXGpu.obj
 0001:00002540       ??_GPxgPhysicsGpu@@UEAAPEAXI@Z 0000000180003540 f i PxgPhysXGpu.obj
 0001:00002590       ??_EPxgSharedIsosurfaceExtractor@physx@@UEAAPEAXI@Z 0000000180003590 f i PxgPhysXGpu.obj
 0001:00002590       ??_GPxgSharedIsosurfaceExtractor@physx@@UEAAPEAXI@Z 0000000180003590 f i PxgPhysXGpu.obj
 0001:000025c0       ??_EPxgSparseGridIsosurfaceExtractor@physx@@UEAAPEAXI@Z 00000001800035c0 f i PxgPhysXGpu.obj
 0001:000025c0       ??_GPxgSparseGridIsosurfaceExtractor@physx@@UEAAPEAXI@Z 00000001800035c0 f i PxgPhysXGpu.obj
 0001:00002680       ??_I@YAXPEAX_K1P6AX0@Z@Z   0000000180003680 f i PxgPhysXGpu.obj
 0001:000026e0       ?releaseArticulation@PxsSimulationController@physx@@UEAAXPEAVFeatherstoneArticulation@Dy@2@AEBVPxNodeIndex@2@@Z 00000001800036e0 f i PxgSimulationController.obj
 0001:000026e0       ?addSoftBodyFilters@PxsSimulationController@physx@@UEAAXPEAVDeformableVolume@Dy@2@0PEAI1I@Z 00000001800036e0 f i PxgSimulationController.obj
 0001:000026e0       ?releaseDeferredSoftBodyIds@PxsSimulationController@physx@@UEAAXXZ 00000001800036e0 f i PxgSimulationController.obj
 0001:000026e0       ?updateBodies@PxsSimulationController@physx@@UEAAXPEAVPxBaseTask@2@@Z 00000001800036e0 f i PxgSimulationController.obj
 0001:000026e0       _guard_check_icall_nop     00000001800036e0 f i LIBCMT:guard_support.obj
 0001:000026e0       ?addFEMCloth@PxsSimulationController@physx@@UEAAXPEAVDeformableSurface@Dy@2@AEBVPxNodeIndex@2@@Z 00000001800036e0 f i PxgSimulationController.obj
 0001:000026e0       ?setClothWakeCounter@PxsSimulationController@physx@@UEAAXPEAVDeformableSurface@Dy@2@@Z 00000001800036e0 f i PxgSimulationController.obj
 0001:000026e0       ?removeParticleAttachment@PxsSimulationController@physx@@UEAAXPEAVDeformableVolume@Dy@2@I@Z 00000001800036e0 f i PxgSimulationController.obj
 0001:000026e0       ?gpuDmabackData@PxsSimulationController@physx@@UEAAXAEAVPxsTransformCache@2@AEAVBoundsArray@Bp@2@AEAV?$PxBitMapBase@VPxVirtualAllocator@physx@@@2@_N@Z 00000001800036e0 f i PxgSimulationController.obj
 0001:000026e0       ?removeSoftBodyFilters@PxsSimulationController@physx@@UEAAXPEAVDeformableVolume@Dy@2@0PEAI1I@Z 00000001800036e0 f i PxgSimulationController.obj
 0001:000026e0       __cudaRegisterVar          00000001800036e0 f i CudaKernelWrangler.obj
 0001:000026e0       ?deactivateCloth@PxsSimulationController@physx@@UEAAXPEAVDeformableSurface@Dy@2@@Z 00000001800036e0 f i PxgSimulationController.obj
 0001:000026e0       ?setDeformableSurfaceGpuPostSolveCallback@PxsSimulationController@physx@@UEAAXPEAVPxPostSolveCallback@2@@Z 00000001800036e0 f i PxgSimulationController.obj
 0001:000026e0       ?removeRigidFilter@PxsSimulationController@physx@@UEAAXPEAVDeformableVolume@Dy@2@AEBVPxNodeIndex@2@I@Z 00000001800036e0 f i PxgSimulationController.obj
 0001:000026e0       ?copySoftBodyDataDEPRECATED@PxsSimulationController@physx@@UEAAXPEAPEAXPEAX1W4Enum@PxSoftBodyGpuDataFlag@2@IIPEAUCUevent_st@@@Z 00000001800036e0 f i PxgSimulationController.obj
 0001:000026e0       ?addDynamics@PxsSimulationController@physx@@UEAAXPEAPEAVPxsRigidBody@2@PEBII@Z 00000001800036e0 f i PxgSimulationController.obj
 0001:000026e0       ?deactivateSoftbody@PxsSimulationController@physx@@UEAAXPEAVDeformableVolume@Dy@2@@Z 00000001800036e0 f i PxgSimulationController.obj
 0001:000026e0       ?updateJoint@PxsSimulationController@physx@@UEAAXIPEAUConstraint@Dy@2@@Z 00000001800036e0 f i PxgSimulationController.obj
 0001:000026e0       ?removeVertClothFilter@PxsSimulationController@physx@@UEAAXPEAVDeformableVolume@Dy@2@PEAVDeformableSurface@42@II@Z 00000001800036e0 f i PxgSimulationController.obj
 0001:000026e0       ?addRigidFilter@PxsSimulationController@physx@@UEAAXPEAVDeformableVolume@Dy@2@AEBVPxNodeIndex@2@I@Z 00000001800036e0 f i PxgSimulationController.obj
 0001:000026e0       ?removeRigidAttachment@PxsSimulationController@physx@@UEAAXPEAVDeformableVolume@Dy@2@I@Z 00000001800036e0 f i PxgSimulationController.obj
 0001:000026e0       ?updateBodyCore@Context@Dy@physx@@UEAAXPEAVPxBaseTask@3@@Z 00000001800036e0 f i PxgContext.obj
 0001:000026e0       ?addParticleFilter@PxsSimulationController@physx@@UEAAXPEAVDeformableVolume@Dy@2@PEAVParticleSystem@42@III@Z 00000001800036e0 f i PxgSimulationController.obj
 0001:000026e0       ?sortContacts@PxsSimulationController@physx@@UEAAXXZ 00000001800036e0 f i PxgSimulationController.obj
 0001:000026e0       ?addVertClothFilter@PxsSimulationController@physx@@UEAAXPEAVDeformableVolume@Dy@2@PEAVDeformableSurface@42@II@Z 00000001800036e0 f i PxgSimulationController.obj
 0001:000026e0       ?removeRigidAttachment@PxsSimulationController@physx@@UEAAXPEAVDeformableSurface@Dy@2@I@Z 00000001800036e0 f i PxgSimulationController.obj
 0001:000026e0       ?setPersistentStateChanged@AABBManagerBase@Bp@physx@@UEAAXXZ 00000001800036e0 f i PxgAABBManager.obj
 0001:000026e0       ?appendContactManagers@PxgNphaseImplementationContext@physx@@UEAAXXZ 00000001800036e0 f i PxgNphaseImplementationContext.obj
 0001:000026e0       ?updateBoundsAndShapes@PxsSimulationController@physx@@UEAAXAEAVAABBManagerBase@Bp@2@_N@Z 00000001800036e0 f i PxgSimulationController.obj
 0001:000026e0       ?clearOutOfBoundsObjects@AABBManagerBase@Bp@physx@@UEAAXXZ 00000001800036e0 f i PxgAABBManager.obj
 0001:000026e0       ?removeClothAttachment@PxsSimulationController@physx@@UEAAXPEAVDeformableVolume@Dy@2@I@Z 00000001800036e0 f i PxgSimulationController.obj
 0001:000026e0       ?addClothFilter@PxsSimulationController@physx@@UEAAXPEAVDeformableSurface@Dy@2@0II@Z 00000001800036e0 f i PxgSimulationController.obj
 0001:000026e0       ?setBounds@PxsSimulationController@physx@@UEAAXPEAVBoundsArray@Bp@2@@Z 00000001800036e0 f i PxgSimulationController.obj
 0001:000026e0       ?shiftOrigin@PxgCudaBroadPhaseSap@physx@@UEAAXAEBV?$PxVec3T@M@2@PEBVPxBounds3@2@PEBM@Z 00000001800036e0 f i PxgCudaBroadPhaseSap.obj
 0001:000026e0       ?setEnableOVDReadback@PxsSimulationController@physx@@UEAAX_N@Z 00000001800036e0 f i PxgSimulationController.obj
 0001:000026e0       ?addSoftBodyFilter@PxsSimulationController@physx@@UEAAXPEAVDeformableVolume@Dy@2@0II@Z 00000001800036e0 f i PxgSimulationController.obj
 0001:000026e0       ?activateSoftbody@PxsSimulationController@physx@@UEAAXPEAVDeformableVolume@Dy@2@@Z 00000001800036e0 f i PxgSimulationController.obj
 0001:000026e0       ?releaseParticleSystem@PxsSimulationController@physx@@UEAAXPEAVParticleSystem@Dy@2@@Z 00000001800036e0 f i PxgSimulationController.obj
 0001:000026e0       ?releaseDeferredFEMClothIds@PxsSimulationController@physx@@UEAAXXZ 00000001800036e0 f i PxgSimulationController.obj
 0001:000026e0       ?mergeChangedAABBMgHandle@PxsSimulationController@physx@@UEAAXXZ 00000001800036e0 f i PxgSimulationController.obj
 0001:000026e0       ?releaseFEMCloth@PxsSimulationController@physx@@UEAAXPEAVDeformableSurface@Dy@2@@Z 00000001800036e0 f i PxgSimulationController.obj
 0001:000026e0       ?removePxgShape@PxsSimulationController@physx@@UEAAXI@Z 00000001800036e0 f i PxgSimulationController.obj
 0001:000026e0       ?reserve@PxsSimulationController@physx@@UEAAXI@Z 00000001800036e0 f i PxgSimulationController.obj
 0001:000026e0       ?update@PxsSimulationController@physx@@UEAAXAEAV?$PxBitMapBase@VPxVirtualAllocator@physx@@@2@@Z 00000001800036e0 f i PxgSimulationController.obj
 0001:000026e0       ?removeTriRigidAttachment@PxsSimulationController@physx@@UEAAXPEAVDeformableSurface@Dy@2@I@Z 00000001800036e0 f i PxgSimulationController.obj
 0001:000026e0       ?updateParticleSystemsAndSoftBodies@PxsSimulationController@physx@@UEAAXXZ 00000001800036e0 f i PxgSimulationController.obj
 0001:000026e0       ?setPxgShapeBodyNodeIndex@PxsSimulationController@physx@@UEAAXVPxNodeIndex@2@I@Z 00000001800036e0 f i PxgSimulationController.obj
 0001:000026e0       ?addTetRigidFilter@PxsSimulationController@physx@@UEAAXPEAVDeformableVolume@Dy@2@AEBVPxNodeIndex@2@I@Z 00000001800036e0 f i PxgSimulationController.obj
 0001:000026e0       ?removeSoftBodyAttachment@PxsSimulationController@physx@@UEAAXPEAVDeformableVolume@Dy@2@I@Z 00000001800036e0 f i PxgSimulationController.obj
 0001:000026e0       ?setDeformableVolumeGpuPostSolveCallback@PxsSimulationController@physx@@UEAAXPEAVPxPostSolveCallback@2@@Z 00000001800036e0 f i PxgSimulationController.obj
 0001:000026e0       ?updateArticulation@PxsSimulationController@physx@@UEAAXPEAVFeatherstoneArticulation@Dy@2@AEBVPxNodeIndex@2@@Z 00000001800036e0 f i PxgSimulationController.obj
 0001:000026e0       ?addArticulation@PxsSimulationController@physx@@UEAAXPEAVFeatherstoneArticulation@Dy@2@AEBVPxNodeIndex@2@@Z 00000001800036e0 f i PxgSimulationController.obj
 0001:000026e0       ?processPatches@Context@Dy@physx@@UEAAXAEAVFlushPool@Cm@3@PEAVPxBaseTask@3@PEAPEAVPxsContactManager@3@IPEAUPxsContactManagerOutputCounts@3@@Z 00000001800036e0 f i PxgContext.obj
 0001:000026e0       ?updateDynamic@PxsSimulationController@physx@@UEAAXPEAVFeatherstoneArticulation@Dy@2@AEBVPxNodeIndex@2@@Z 00000001800036e0 f i PxgSimulationController.obj
 0001:000026e0       ?syncParticleData@PxsSimulationController@physx@@UEAAXXZ 00000001800036e0 f i PxgSimulationController.obj
 0001:000026e0       ?removeParticleFilter@PxsSimulationController@physx@@UEAAXPEAVDeformableVolume@Dy@2@PEBVParticleSystem@42@III@Z 00000001800036e0 f i PxgSimulationController.obj
 0001:000026e0       ?updateArticulationAfterIntegration@PxsSimulationController@physx@@UEAAXPEAVPxsContext@2@PEAVAABBManagerBase@Bp@2@AEAV?$PxArray@PEAVBodySim@Sc@physx@@V?$PxReflectionAllocator@PEAVBodySim@Sc@physx@@@3@@2@PEAVPxBaseTask@2@AEAVIslandSim@IG@2@M@Z 00000001800036e0 f i PxgSimulationController.obj
 0001:000026e0       __cudaRegisterFatBinaryEnd 00000001800036e0 f i CudaKernelWrangler.obj
 0001:000026e0       ?addDynamic@PxsSimulationController@physx@@UEAAXPEAVPxsRigidBody@2@AEBVPxNodeIndex@2@@Z 00000001800036e0 f i PxgSimulationController.obj
 0001:000026e0       ?applySoftBodyDataDEPRECATED@PxsSimulationController@physx@@UEAAXPEAPEAXPEAX1W4Enum@PxSoftBodyGpuDataFlag@2@IIPEAUCUevent_st@@3@Z 00000001800036e0 f i PxgSimulationController.obj
 0001:000026e0       ?preIntegrateAndUpdateBound@PxsSimulationController@physx@@UEAAXPEAVPxBaseTask@2@V?$PxVec3T@M@2@M@Z 00000001800036e0 f i PxgSimulationController.obj
 0001:000026e0       ?activateSoftbodySelfCollision@PxsSimulationController@physx@@UEAAXPEAVDeformableVolume@Dy@2@@Z 00000001800036e0 f i PxgSimulationController.obj
 0001:000026e0       ?addSoftBody@PxsSimulationController@physx@@UEAAXPEAVDeformableVolume@Dy@2@AEBVPxNodeIndex@2@@Z 00000001800036e0 f i PxgSimulationController.obj
 0001:000026e0       ?releaseDeferredArticulationIds@PxsSimulationController@physx@@UEAAXXZ 00000001800036e0 f i PxgSimulationController.obj
 0001:000026e0       ?testSDKFemClothCloth@PxgGpuNarrowphaseCore@physx@@QEAAXAEAUPxgGpuContactManagers@2@IPEAVPxRenderOutput@2@@Z 00000001800036e0 f i PxgNarrowphaseCore.obj
 0001:000026e0       ?addJoint@PxsSimulationController@physx@@UEAAXAEBUConstraint@Dy@2@@Z 00000001800036e0 f i PxgSimulationController.obj
 0001:000026e0       ?updateArticulationExtAccel@PxsSimulationController@physx@@UEAAXPEAVFeatherstoneArticulation@Dy@2@AEBVPxNodeIndex@2@@Z 00000001800036e0 f i PxgSimulationController.obj
 0001:000026e0       ?updatePostPartitioning@Context@Dy@physx@@UEAAXPEAVPxBaseTask@3@PEAVPxvNphaseImplementationContext@3@IIMAEBV?$PxVec3T@M@3@AEAV?$PxBitMapBase@VPxVirtualAllocator@physx@@@3@@Z 00000001800036e0 f i PxgContext.obj
 0001:000026e0       ?updateBodies@PxsSimulationController@physx@@UEAAXPEAPEAVPxsRigidBody@2@PEAIIPEAUPxsExternalAccelerationProvider@2@@Z 00000001800036e0 f i PxgSimulationController.obj
 0001:000026e0       ?getDataStreamBase@Context@Dy@physx@@UEAAXAEAPEAX00@Z 00000001800036e0 f i PxgContext.obj
 0001:000026e0       ??1BpFilter@Bp@physx@@QEAA@XZ 00000001800036e0 f i BpFiltering.obj
 0001:000026e0       ?__global_delete@@YAXPEAX_K@Z 00000001800036e0 f i PxgPhysXGpu.obj
 0001:000026e0       ?clear@PxsSimulationController@physx@@UEAAXXZ 00000001800036e0 f i PxgSimulationController.obj
 0001:000026e0       ?setGPUStateChanged@AABBManagerBase@Bp@physx@@UEAAXXZ 00000001800036e0 f i PxgAABBManager.obj
 0001:000026e0       ?removeTriRigidFilter@PxsSimulationController@physx@@UEAAXPEAVDeformableSurface@Dy@2@AEBVPxNodeIndex@2@I@Z 00000001800036e0 f i PxgSimulationController.obj
 0001:000026e0       ?setSoftBodyWakeCounter@PxsSimulationController@physx@@UEAAXPEAVDeformableVolume@Dy@2@@Z 00000001800036e0 f i PxgSimulationController.obj
 0001:000026e0       ?removeTriClothAttachment@PxsSimulationController@physx@@UEAAXPEAVDeformableSurface@Dy@2@I@Z 00000001800036e0 f i PxgSimulationController.obj
 0001:000026e0       ?visualize@PxgAABBManager@physx@@UEAAXAEAVPxRenderOutput@2@@Z 00000001800036e0 f i PxgAABBManager.obj
 0001:000026e0       ?releaseSoftBody@PxsSimulationController@physx@@UEAAXPEAVDeformableVolume@Dy@2@@Z 00000001800036e0 f i PxgSimulationController.obj
 0001:000026e0       ?activateCloth@PxsSimulationController@physx@@UEAAXPEAVDeformableSurface@Dy@2@@Z 00000001800036e0 f i PxgSimulationController.obj
 0001:000026e0       ?applyParticleBufferDataDEPRECATED@PxsSimulationController@physx@@UEAAXPEBIPEBUPxGpuParticleBufferIndexPair@2@PEBV?$PxFlags@W4Enum@PxParticleBufferFlag@physx@@I@2@IPEAUCUevent_st@@3@Z 00000001800036e0 f i PxgSimulationController.obj
 0001:000026e0       ?releaseDeferredParticleSystemIds@PxsSimulationController@physx@@UEAAXXZ 00000001800036e0 f i PxgSimulationController.obj
 0001:000026e0       ?updateShapes@PxsSimulationController@physx@@UEAAXPEAVPxBaseTask@2@@Z 00000001800036e0 f i PxgSimulationController.obj
 0001:000026e0       ?updateArticulationJoint@PxsSimulationController@physx@@UEAAXPEAVFeatherstoneArticulation@Dy@2@AEBVPxNodeIndex@2@@Z 00000001800036e0 f i PxgSimulationController.obj
 0001:000026e0       ?__empty_global_delete@@YAXPEAX_K@Z 00000001800036e0 f i PxgPhysXGpu.obj
 0001:000026e0       ?removeTetRigidFilter@PxsSimulationController@physx@@UEAAXPEAVDeformableVolume@Dy@2@AEBVPxNodeIndex@2@I@Z 00000001800036e0 f i PxgSimulationController.obj
 0001:000026e0       ?addClothFilter@PxsSimulationController@physx@@UEAAXPEAVDeformableVolume@Dy@2@PEAVDeformableSurface@42@II@Z 00000001800036e0 f i PxgSimulationController.obj
 0001:000026e0       ?addTriRigidFilter@PxsSimulationController@physx@@UEAAXPEAVDeformableSurface@Dy@2@AEBVPxNodeIndex@2@I@Z 00000001800036e0 f i PxgSimulationController.obj
 0001:000026e0       ?addParticleSystem@PxsSimulationController@physx@@UEAAXPEAVParticleSystem@Dy@2@AEBVPxNodeIndex@2@@Z 00000001800036e0 f i PxgSimulationController.obj
 0001:000026e0       ?deactivateSoftbodySelfCollision@PxsSimulationController@physx@@UEAAXPEAVDeformableVolume@Dy@2@@Z 00000001800036e0 f i PxgSimulationController.obj
 0001:000026e0       ?removeClothFilter@PxsSimulationController@physx@@UEAAXPEAVDeformableSurface@Dy@2@0II@Z 00000001800036e0 f i PxgSimulationController.obj
 0001:000026e0       ?updateArticulationAfterIntegration@PxgSimulationController@physx@@UEAAXPEAVPxsContext@2@PEAVAABBManagerBase@Bp@2@AEAV?$PxArray@PEAVBodySim@Sc@physx@@V?$PxReflectionAllocator@PEAVBodySim@Sc@physx@@@3@@2@PEAVPxBaseTask@2@AEAVIslandSim@IG@2@M@Z 00000001800036e0 f i PxgSimulationController.obj
 0001:000026e0       ?removeSoftBodyFilter@PxsSimulationController@physx@@UEAAXPEAVDeformableVolume@Dy@2@0II@Z 00000001800036e0 f i PxgSimulationController.obj
 0001:000026e0       ?removeClothFilter@PxsSimulationController@physx@@UEAAXPEAVDeformableVolume@Dy@2@PEAVDeformableSurface@42@II@Z 00000001800036e0 f i PxgSimulationController.obj
 0001:000026e0       ?addPxgShape@PxsSimulationController@physx@@UEAAXPEAVShapeSimBase@Sc@2@PEBUPxsShapeCore@2@VPxNodeIndex@2@I@Z 00000001800036e0 f i PxgSimulationController.obj
 0001:000026e0       ?setEnableOVDCollisionReadback@PxsSimulationController@physx@@UEAAX_N@Z 00000001800036e0 f i PxgSimulationController.obj
 0001:000026f0       ?create@?$PxHashBase@V?$PxPair@QEAVPxCudaContextManager@physx@@PEAVPxgCudaKernelWranglerManager@2@@physx@@PEAVPxCudaContextManager@2@U?$PxHash@PEAVPxCudaContextManager@physx@@@2@UGetKey@?$PxHashMapBase@PEAVPxCudaContextManager@physx@@PEAVPxgCudaKernelWranglerManager@2@U?$PxHash@PEAVPxCudaContextManager@physx@@@2@VPxAllocator@2@@2@VPxAllocator@2@$00@physx@@QEAAPEAV?$PxPair@QEAVPxCudaContextManager@physx@@PEAVPxgCudaKernelWranglerManager@2@@2@AEBQEAVPxCudaContextManager@2@AEA_N@Z 00000001800036f0 f i PxgPhysXGpu.obj
 0001:000026f0       ?create@?$PxHashBase@V?$PxPair@$$CB_KURefcountedRecord@PxgGpuNarrowphaseCore@physx@@@physx@@_KU?$PxHash@_K@2@UGetKey@?$PxHashMapBase@_KURefcountedRecord@PxgGpuNarrowphaseCore@physx@@U?$PxHash@_K@3@VPxAllocator@3@@2@VPxAllocator@2@$00@physx@@QEAAPEAV?$PxPair@$$CB_KURefcountedRecord@PxgGpuNarrowphaseCore@physx@@@2@AEB_KAEA_N@Z 00000001800036f0 f i PxgNarrowphaseCore.obj
 0001:00002890       ?createAnisotropyGenerator@PxgPhysicsGpu@@UEAAPEAVPxAnisotropyGenerator@physx@@PEAVPxCudaContextManager@3@IMMM@Z 0000000180003890 f   PxgPhysXGpu.obj
 0001:00002970       ?createArrayConverter@PxgPhysicsGpu@@UEAAPEAVPxArrayConverter@physx@@PEAVPxCudaContextManager@3@@Z 0000000180003970 f   PxgPhysXGpu.obj
 0001:00002a10       ?createDeformableSkinning@PxgPhysicsGpu@@UEAAPEAVPxgDeformableSkinning@physx@@PEAVPxCudaContextManager@3@@Z 0000000180003a10 f   PxgPhysXGpu.obj
 0001:00002ab0       ?createDenseGridIsosurfaceExtractor@PxgPhysicsGpu@@UEAAPEAVPxIsosurfaceExtractor@physx@@PEAVPxCudaContextManager@3@AEBVPxBounds3@3@MAEBUPxIsosurfaceParams@3@III@Z 0000000180003ab0 f   PxgPhysXGpu.obj
 0001:00002c70       ?createGpuAABBManager@PxgPhysXGpu@physx@@UEAAPEAVAABBManagerBase@Bp@2@PEAVPxsKernelWranglerManager@2@PEAVPxCudaContextManager@2@IAEBUPxGpuDynamicsMemoryConfig@2@PEAVPxsHeapMemoryAllocatorManager@2@AEAVBroadPhase@42@AEAVBoundsArray@42@AEAV?$PxArray@MVPxVirtualAllocator@physx@@@2@IIAEAVPxVirtualAllocator@2@_KW4Enum@PxPairFilteringMode@2@9@Z 0000000180003c70 f   PxgPhysXGpu.obj
 0001:00002d70       ?createGpuBounds@PxgPhysXGpu@physx@@UEAAPEAVBoundsArray@Bp@2@AEAVPxVirtualAllocator@2@@Z 0000000180003d70 f   PxgPhysXGpu.obj
 0001:00002e00       ?createGpuBroadPhase@PxgPhysXGpu@physx@@UEAAPEAVBroadPhase@Bp@2@PEAVPxsKernelWranglerManager@2@PEAVPxCudaContextManager@2@IAEBUPxGpuDynamicsMemoryConfig@2@PEAVPxsHeapMemoryAllocatorManager@2@_K@Z 0000000180003e00 f   PxgPhysXGpu.obj
 0001:00002e90       ?createGpuDynamicsContext@PxgPhysXGpu@physx@@UEAAPEAVContext@Dy@2@AEAVFlushPool@Cm@2@PEAVPxsKernelWranglerManager@2@PEAVPxCudaContextManager@2@AEBUPxGpuDynamicsMemoryConfig@2@AEAVSimpleIslandManager@IG@2@II_N5MIAEAUPxvSimStats@2@PEAVPxsHeapMemoryAllocatorManager@2@55W4Enum@PxSolverType@2@M_N_K9@Z 0000000180003e90 f   PxgPhysXGpu.obj
 0001:000030c0       ?createGpuHeapMemoryAllocatorManager@PxgPhysXGpu@physx@@UEAAPEAVPxsHeapMemoryAllocatorManager@2@IPEAVPxsMemoryManager@2@I@Z 00000001800040c0 f   PxgPhysXGpu.obj
 0001:00003160       ?createGpuMemoryManager@PxgPhysXGpu@physx@@UEAAPEAVPxsMemoryManager@2@PEAVPxCudaContextManager@2@@Z 0000000180004160 f   PxgPhysXGpu.obj
 0001:00003170       ?createGpuNphaseImplementationContext@PxgPhysXGpu@physx@@UEAAPEAVPxvNphaseImplementationContext@2@AEAVPxsContext@2@PEAVPxsKernelWranglerManager@2@PEAVPxvNphaseImplementationFallback@2@AEBUPxGpuDynamicsMemoryConfig@2@PEAX44AEAV?$PxArray@VPxBounds3@physx@@VPxVirtualAllocator@2@@2@PEAVIslandSim@IG@2@PEAVContext@Dy@2@IPEAVPxsHeapMemoryAllocatorManager@2@_N@Z 0000000180004170 f   PxgPhysXGpu.obj
 0001:00003250       ?createGpuSimulationController@PxgPhysXGpu@physx@@UEAAPEAVPxsSimulationController@2@PEAVPxsKernelWranglerManager@2@PEAVPxCudaContextManager@2@PEAVContext@Dy@2@PEAVPxvNphaseImplementationContext@2@PEAVBroadPhase@Bp@2@_NPEAVPxsSimulationControllerCallback@2@IPEAVPxsHeapMemoryAllocatorManager@2@IIII5@Z 0000000180004250 f   PxgPhysXGpu.obj
 0001:00003350       ?createParticleAndDiffuseBuffer@PxgPhysXGpu@physx@@UEAAPEAVPxsParticleAndDiffuseBuffer@2@IIIAEAVPxCudaContextManager@2@@Z 0000000180004350 f   PxgPhysXGpu.obj
 0001:00003400       ?createParticleBuffer@PxgPhysXGpu@physx@@UEAAPEAVPxsParticleBuffer@2@IIAEAVPxCudaContextManager@2@@Z 0000000180004400 f   PxgPhysXGpu.obj
 0001:000034a0       ?createParticleClothBuffer@PxgPhysXGpu@physx@@UEAAPEAVPxsParticleClothBuffer@2@IIIIIAEAVPxCudaContextManager@2@@Z 00000001800044a0 f   PxgPhysXGpu.obj
 0001:00003560       ?createParticleNeighborhoodProvider@PxgPhysicsGpu@@UEAAPEAVPxParticleNeighborhoodProvider@physx@@PEAVPxCudaContextManager@3@IMI@Z 0000000180004560 f   PxgPhysXGpu.obj
 0001:00003630       ?createParticleRigidBuffer@PxgPhysXGpu@physx@@UEAAPEAVPxsParticleRigidBuffer@2@IIIAEAVPxCudaContextManager@2@@Z 0000000180004630 f   PxgPhysXGpu.obj
 0001:000036e0       ?createSDFBuilder@PxgPhysicsGpu@@UEAAPEAVPxSDFBuilder@physx@@PEAVPxCudaContextManager@3@@Z 00000001800046e0 f   PxgPhysXGpu.obj
 0001:00003780       ?createSmoothedPositionGenerator@PxgPhysicsGpu@@UEAAPEAVPxSmoothedPositionGenerator@physx@@PEAVPxCudaContextManager@3@IM@Z 0000000180004780 f   PxgPhysXGpu.obj
 0001:00003840       ?createSparseGridIsosurfaceExtractor@PxgPhysicsGpu@@UEAAPEAVPxSparseGridIsosurfaceExtractor@physx@@PEAVPxCudaContextManager@3@AEBUPxSparseGridParams@3@AEBUPxIsosurfaceParams@3@III@Z 0000000180004840 f   PxgPhysXGpu.obj
 0001:00003960       ?getGpuKernelWranglerManager@PxgPhysXGpu@physx@@UEAAPEAVPxsKernelWranglerManager@2@PEAVPxCudaContextManager@2@@Z 0000000180004960 f   PxgPhysXGpu.obj
 0001:00003ae0       ?getIsosurfaceParams@PxgDenseGridIsosurfaceExtractor@physx@@UEBA?AUPxIsosurfaceParams@2@XZ 0000000180004ae0 f i PxgPhysXGpu.obj
 0001:00003ae0       ?getIsosurfaceParams@PxgSparseGridIsosurfaceExtractor@physx@@UEBA?AUPxIsosurfaceParams@2@XZ 0000000180004ae0 f i PxgPhysXGpu.obj
 0001:00003b00       ?getMaxParticles@PxgDenseGridIsosurfaceExtractor@physx@@UEBAIXZ 0000000180004b00 f i PxgPhysXGpu.obj
 0001:00003b10       ?getMaxParticles@PxgSparseGridIsosurfaceExtractor@physx@@UEBAIXZ 0000000180004b10 f i PxgPhysXGpu.obj
 0001:00003b20       ?getMaxTriangles@PxgDenseGridIsosurfaceExtractor@physx@@UEBAIXZ 0000000180004b20 f i PxgPhysXGpu.obj
 0001:00003b30       ?getMaxTriangles@PxgSparseGridIsosurfaceExtractor@physx@@UEBAIXZ 0000000180004b30 f i PxgPhysXGpu.obj
 0001:00003b40       ?getMaxVertices@PxgDenseGridIsosurfaceExtractor@physx@@UEBAIXZ 0000000180004b40 f i PxgPhysXGpu.obj
 0001:00003b50       ?getMaxVertices@PxgSparseGridIsosurfaceExtractor@physx@@UEBAIXZ 0000000180004b50 f i PxgPhysXGpu.obj
 0001:00003b60       ?getNumTriangles@PxgDenseGridIsosurfaceExtractor@physx@@UEBAIXZ 0000000180004b60 f i PxgPhysXGpu.obj
 0001:00003b60       ?getNumTriangles@PxgSparseGridIsosurfaceExtractor@physx@@UEBAIXZ 0000000180004b60 f i PxgPhysXGpu.obj
 0001:00003b80       ?getNumVertices@PxgDenseGridIsosurfaceExtractor@physx@@UEBAIXZ 0000000180004b80 f i PxgPhysXGpu.obj
 0001:00003b80       ?getNumVertices@PxgSparseGridIsosurfaceExtractor@physx@@UEBAIXZ 0000000180004b80 f i PxgPhysXGpu.obj
 0001:00003b90       ?getSparseGridParams@PxgSparseGridIsosurfaceExtractor@physx@@UEBA?AUPxSparseGridParams@2@XZ 0000000180004b90 f i PxgPhysXGpu.obj
 0001:00003be0       ?growAndPushBack@?$PxArray@UPxBoundTransformUpdate@physx@@VPxVirtualAllocator@2@@physx@@IEAAAEAUPxBoundTransformUpdate@2@AEBU32@@Z 0000000180004be0 f i PxgPhysXGpu.obj
 0001:00003be0       ?growAndPushBack@?$PxArray@PEAVPxsContactManager@physx@@VPxVirtualAllocator@2@@physx@@IEAAAEAPEAVPxsContactManager@2@AEBQEAV32@@Z 0000000180004be0 f i PxgNarrowphaseCore.obj
 0001:00003be0       ?growAndPushBack@?$PxArray@PEBVShapeInteraction@Sc@physx@@VPxVirtualAllocator@3@@physx@@IEAAAEAPEBVShapeInteraction@Sc@2@AEBQEBV342@@Z 0000000180004be0 f i PxgNarrowphaseCore.obj
 0001:00003cc0       ?isEnabled@PxgSparseGridIsosurfaceExtractor@physx@@UEBA_NXZ 0000000180004cc0 f i PxgPhysXGpu.obj
 0001:00003cc0       ?isEnabled@PxgDenseGridIsosurfaceExtractor@physx@@UEBA_NXZ 0000000180004cc0 f i PxgPhysXGpu.obj
 0001:00003cd0       ?release@PxgPhysXGpu@physx@@UEAAXXZ 0000000180004cd0 f   PxgPhysXGpu.obj
 0001:00003e60       ?release@PxgPhysicsGpu@@UEAAXXZ 0000000180004e60 f   PxgPhysXGpu.obj
 0001:00003e90       ?reserveInternal@?$PxHashBase@V?$PxPair@$$CB_KURefcountedRecord@PxgGpuNarrowphaseCore@physx@@@physx@@_KU?$PxHash@_K@2@UGetKey@?$PxHashMapBase@_KURefcountedRecord@PxgGpuNarrowphaseCore@physx@@U?$PxHash@_K@3@VPxAllocator@3@@2@VPxAllocator@2@$00@physx@@AEAAXI@Z 0000000180004e90 f i PxgNarrowphaseCore.obj
 0001:00003e90       ?reserveInternal@?$PxHashBase@V?$PxPair@QEAVPxCudaContextManager@physx@@PEAVPxgCudaKernelWranglerManager@2@@physx@@PEAVPxCudaContextManager@2@U?$PxHash@PEAVPxCudaContextManager@physx@@@2@UGetKey@?$PxHashMapBase@PEAVPxCudaContextManager@physx@@PEAVPxgCudaKernelWranglerManager@2@U?$PxHash@PEAVPxCudaContextManager@physx@@@2@VPxAllocator@2@@2@VPxAllocator@2@$00@physx@@AEAAXI@Z 0000000180004e90 f i PxgPhysXGpu.obj
 0001:00004080       ?setBounds@BoundsArray@Bp@physx@@UEAAXAEBVPxBounds3@3@I@Z 0000000180005080 f i PxgPhysXGpu.obj
 0001:000040c0       ?setBounds@PxgBoundsArray@physx@@UEAAXAEBVPxBounds3@2@I@Z 00000001800050c0 f i PxgPhysXGpu.obj
 0001:00004150       ?setEnabled@PxgDenseGridIsosurfaceExtractor@physx@@UEAAX_N@Z 0000000180005150 f i PxgPhysXGpu.obj
 0001:00004150       ?setEnabled@PxgSparseGridIsosurfaceExtractor@physx@@UEAAX_N@Z 0000000180005150 f i PxgPhysXGpu.obj
 0001:00004160       ?setIsosurfaceParams@PxgDenseGridIsosurfaceExtractor@physx@@UEAAXAEBUPxIsosurfaceParams@2@@Z 0000000180005160 f i PxgPhysXGpu.obj
 0001:00004180       ?setIsosurfaceParams@PxgSparseGridIsosurfaceExtractor@physx@@UEAAXAEBUPxIsosurfaceParams@2@@Z 0000000180005180 f i PxgPhysXGpu.obj
 0001:000041a0       ?setMaxParticles@PxgDenseGridIsosurfaceExtractor@physx@@UEAAXI@Z 00000001800051a0 f i PxgPhysXGpu.obj
 0001:000041b0       ?setSparseGridParams@PxgSparseGridIsosurfaceExtractor@physx@@UEAAXAEBUPxSparseGridParams@2@@Z 00000001800051b0 f i PxgPhysXGpu.obj
 0001:00004230       ?updateBounds@BoundsArray@Bp@physx@@UEAAXAEBV?$PxTransformT@M@3@AEBVPxGeometry@3@II@Z 0000000180005230 f i PxgPhysXGpu.obj
 0001:00004280       ?updateBounds@PxgBoundsArray@physx@@UEAAXAEBV?$PxTransformT@M@2@AEBVPxGeometry@2@II@Z 0000000180005280 f i PxgPhysXGpu.obj
 0001:00004340       PxCreateCudaContextManager 0000000180005340 f   PxgPhysXGpu.obj
 0001:000043a0       PxCreatePhysXGpu           00000001800053a0 f   PxgPhysXGpu.obj
 0001:000044a0       PxGetSuggestedCudaDeviceOrdinal 00000001800054a0 f   PxgPhysXGpu.obj
 0001:00004510       PxGpuCreatePhysicsGpu      0000000180005510 f   PxgPhysXGpu.obj
 0001:000045b0       PxGpuCudaRegisterFatBinary 00000001800055b0 f   PxgPhysXGpu.obj
 0001:00004650       PxGpuCudaRegisterFunction  0000000180005650 f   PxgPhysXGpu.obj
 0001:000046f0       PxGpuGetCudaFunctionTable  00000001800056f0 f   PxgPhysXGpu.obj
 0001:00004700       PxGpuGetCudaFunctionTableSize 0000000180005700 f   PxgPhysXGpu.obj
 0001:00004710       PxGpuGetCudaModuleTable    0000000180005710 f   PxgPhysXGpu.obj
 0001:00004720       PxGpuGetCudaModuleTableSize 0000000180005720 f   PxgPhysXGpu.obj
 0001:00004730       PxSetPhysXGpuFoundationInstance 0000000180005730 f   PxgPhysXGpu.obj
 0001:00004740       PxSetPhysXGpuProfilerCallback 0000000180005740 f   PxgPhysXGpu.obj
 0001:00004750       __local_stdio_printf_options 0000000180005750 f i PxgPhysXGpu.obj
 0001:00004760       fprintf                    0000000180005760 f i PxgPhysXGpu.obj
 0001:000047d0       initArticulationKernels3   00000001800057d0 f   articulationDirectGpuApi.obj
 0001:000047e0       artiUpdateKinematic        00000001800057e0 f   articulationDirectGpuApi.obj
 0001:00004990       getArtiDofStates           0000000180005990 f   articulationDirectGpuApi.obj
 0001:00004ac0       getArtiTransformStates     0000000180005ac0 f   articulationDirectGpuApi.obj
 0001:00004bf0       getArtiVelocityStates      0000000180005bf0 f   articulationDirectGpuApi.obj
 0001:00004d20       getArtiSpatialForceStates  0000000180005d20 f   articulationDirectGpuApi.obj
 0001:00004e40       setArtiDofStates           0000000180005e40 f   articulationDirectGpuApi.obj
 0001:00004f70       setArtiRootGlobalPoseState 0000000180005f70 f   articulationDirectGpuApi.obj
 0001:00005080       setArtiRootVelocityState   0000000180006080 f   articulationDirectGpuApi.obj
 0001:000051a0       setArtiLinkForceState      00000001800061a0 f   articulationDirectGpuApi.obj
 0001:000052c0       setArtiLinkTorqueState     00000001800062c0 f   articulationDirectGpuApi.obj
 0001:000053e0       setArtiTendonState         00000001800063e0 f   articulationDirectGpuApi.obj
 0001:00005510       setArtiSpatialTendonAttachmentState 0000000180006510 f   articulationDirectGpuApi.obj
 0001:00005630       setArtiFixedTendonJointState 0000000180006630 f   articulationDirectGpuApi.obj
 0001:00005770       ?__device_stub__Z19artiUpdateKinematicPKN5physx23PxgArticulationCoreDescEPKNS_11PxgShapeSimEPKNS_8PxgShapeEPNS_18PxsCachedTransformEPKNS_11PxNodeIndexEPKjjPNS_9PxBounds3ESF_jb@@YAXQEIBUPxgArticulationCoreDesc@physx@@PEIBUPxgShapeSim@2@PEIBUPxgShape@2@PEIAUPxsCachedTransform@2@PEIBVPxNodeIndex@2@PEIBIIPEIAVPxBounds3@2@5I_N@Z 0000000180006770 f   articulationDirectGpuApi.obj
 0001:000058c0       ?__device_stub__Z16getArtiDofStatesPKN5physx23PxgArticulationCoreDescEPfPKjjjNS_28PxArticulationGPUAPIReadType4EnumE@@YAXPEIBUPxgArticulationCoreDesc@physx@@PEIAMPEIBIIIW4Enum@PxArticulationGPUAPIReadType@2@@Z 00000001800068c0 f   articulationDirectGpuApi.obj
 0001:000059e0       ?__device_stub__Z22getArtiTransformStatesPKN5physx23PxgArticulationCoreDescEPNS_12PxTransformTIfEEPKjjjNS_28PxArticulationGPUAPIReadType4EnumE@@YAXPEIBUPxgArticulationCoreDesc@physx@@PEIAV?$PxTransformT@M@2@PEIBIIIW4Enum@PxArticulationGPUAPIReadType@2@@Z 00000001800069e0 f   articulationDirectGpuApi.obj
 0001:00005b00       ?__device_stub__Z21getArtiVelocityStatesPKN5physx23PxgArticulationCoreDescEPNS_7PxVec3TIfEEPKjjjNS_28PxArticulationGPUAPIReadType4EnumE@@YAXPEIBUPxgArticulationCoreDesc@physx@@PEIAV?$PxVec3T@M@2@PEIBIIIW4Enum@PxArticulationGPUAPIReadType@2@@Z 0000000180006b00 f   articulationDirectGpuApi.obj
 0001:00005c20       ?__device_stub__Z25getArtiSpatialForceStatesPKN5physx23PxgArticulationCoreDescEPfPKjjj@@YAXPEIBUPxgArticulationCoreDesc@physx@@PEIAMPEIBIII@Z 0000000180006c20 f   articulationDirectGpuApi.obj
 0001:00005d30       ?__device_stub__Z16setArtiDofStatesPKN5physx23PxgArticulationCoreDescEPKfPKjjjNS_29PxArticulationGPUAPIWriteType4EnumE@@YAXPEIBUPxgArticulationCoreDesc@physx@@PEIBMPEIBIIIW4Enum@PxArticulationGPUAPIWriteType@2@@Z 0000000180006d30 f   articulationDirectGpuApi.obj
 0001:00005e50       ?__device_stub__Z26setArtiRootGlobalPoseStatePKN5physx23PxgArticulationCoreDescEPKNS_12PxTransformTIfEEPKjj@@YAXPEIBUPxgArticulationCoreDesc@physx@@PEIBV?$PxTransformT@M@2@PEIBII@Z 0000000180006e50 f   articulationDirectGpuApi.obj
 0001:00005f60       ?__device_stub__Z24setArtiRootVelocityStatePKN5physx23PxgArticulationCoreDescEPKNS_7PxVec3TIfEEPKjjNS_29PxArticulationGPUAPIWriteType4EnumE@@YAXPEIBUPxgArticulationCoreDesc@physx@@PEIBV?$PxVec3T@M@2@PEIBIIW4Enum@PxArticulationGPUAPIWriteType@2@@Z 0000000180006f60 f   articulationDirectGpuApi.obj
 0001:00006070       ?__device_stub__Z21setArtiLinkForceStatePKN5physx23PxgArticulationCoreDescEPKNS_7PxVec3TIfEEPKjjj@@YAXPEIBUPxgArticulationCoreDesc@physx@@PEIBV?$PxVec3T@M@2@PEIBIII@Z 0000000180007070 f   articulationDirectGpuApi.obj
 0001:00006180       ?__device_stub__Z22setArtiLinkTorqueStatePKN5physx23PxgArticulationCoreDescEPKNS_7PxVec3TIfEEPKjjj@@YAXPEIBUPxgArticulationCoreDesc@physx@@PEIBV?$PxVec3T@M@2@PEIBIII@Z 0000000180007180 f   articulationDirectGpuApi.obj
 0001:00006290       ?__device_stub__Z18setArtiTendonStatePKN5physx23PxgArticulationCoreDescEPKvPKjjjNS_29PxArticulationGPUAPIWriteType4EnumE@@YAXPEIBUPxgArticulationCoreDesc@physx@@PEIBXPEIBIIIW4Enum@PxArticulationGPUAPIWriteType@2@@Z 0000000180007290 f   articulationDirectGpuApi.obj
 0001:000063b0       ?__device_stub__Z35setArtiSpatialTendonAttachmentStatePKN5physx23PxgArticulationCoreDescEPKNS_25PxGpuTendonAttachmentDataEPKjjj@@YAXPEIBUPxgArticulationCoreDesc@physx@@PEIBVPxGpuTendonAttachmentData@2@PEIBIII@Z 00000001800073b0 f   articulationDirectGpuApi.obj
 0001:000064c0       ?__device_stub__Z28setArtiFixedTendonJointStatePKN5physx23PxgArticulationCoreDescEPKNS_31PxGpuTendonJointCoefficientDataEPKjj@@YAXPEIBUPxgArticulationCoreDesc@physx@@PEIBVPxGpuTendonJointCoefficientData@2@PEIBII@Z 00000001800074c0 f   articulationDirectGpuApi.obj
 0001:000069f0       initArticulationKernels1   00000001800079f0 f   forwardDynamic2.obj
 0001:00006a00       computeUnconstrainedVelocities1TLaunch 0000000180007a00 f   forwardDynamic2.obj
 0001:00006b00       computeUnconstrainedSpatialInertiaLaunchPartial1T 0000000180007b00 f   forwardDynamic2.obj
 0001:00006bc0       computeUnconstrainedSpatialInertiaLaunch1T 0000000180007bc0 f   forwardDynamic2.obj
 0001:00006c80       computeMassMatrix1T        0000000180007c80 f   forwardDynamic2.obj
 0001:00006d40       computeUnconstrainedAccelerationsLaunch1T 0000000180007d40 f   forwardDynamic2.obj
 0001:00006e00       updateBodiesLaunch1T       0000000180007e00 f   forwardDynamic2.obj
 0001:00006f00       updateBodiesLaunch_Part2   0000000180007f00 f   forwardDynamic2.obj
 0001:00007000       updateBodiesLaunch_Part3   0000000180008000 f   forwardDynamic2.obj
 0001:00007100       artiSaveVelocity1TPGS      0000000180008100 f   forwardDynamic2.obj
 0001:000071c0       artiComputeDependencies    00000001800081c0 f   forwardDynamic2.obj
 0001:00007290       artiApplyTgsSubstepForces  0000000180008290 f   forwardDynamic2.obj
 0001:00007360       artiPropagateImpulses2PGS  0000000180008360 f   forwardDynamic2.obj
 0001:00007470       artiPropagateImpulses2TGS  0000000180008470 f   forwardDynamic2.obj
 0001:00007580       artiPropagateVelocity      0000000180008580 f   forwardDynamic2.obj
 0001:00007680       artiPropagateVelocityTGS   0000000180008680 f   forwardDynamic2.obj
 0001:00007780       dmaArticulationResidual    0000000180008780 f   forwardDynamic2.obj
 0001:00007850       dmaBackArticulationDataLaunch 0000000180008850 f   forwardDynamic2.obj
 0001:00007920       stepArticulation1TTGS      0000000180008920 f   forwardDynamic2.obj
 0001:000079f0       artiOutputVelocity         00000001800089f0 f   forwardDynamic2.obj
 0001:00007af0       artiPushImpulse            0000000180008af0 f   forwardDynamic2.obj
 0001:00007be0       ?__device_stub__Z38computeUnconstrainedVelocities1TLaunchPKN5physx23PxgArticulationCoreDescEbb@@YAXQEIBUPxgArticulationCoreDesc@physx@@_N1@Z 0000000180008be0 f   forwardDynamic2.obj
 0001:00007ce0       ?__device_stub__Z49computeUnconstrainedSpatialInertiaLaunchPartial1TPKN5physx23PxgArticulationCoreDescE@@YAXQEIBUPxgArticulationCoreDesc@physx@@@Z 0000000180008ce0 f   forwardDynamic2.obj
 0001:00007da0       ?__device_stub__Z42computeUnconstrainedSpatialInertiaLaunch1TPKN5physx23PxgArticulationCoreDescE@@YAXQEIBUPxgArticulationCoreDesc@physx@@@Z 0000000180008da0 f   forwardDynamic2.obj
 0001:00007e60       ?__device_stub__Z19computeMassMatrix1TPKN5physx23PxgArticulationCoreDescE@@YAXQEIBUPxgArticulationCoreDesc@physx@@@Z 0000000180008e60 f   forwardDynamic2.obj
 0001:00007f20       ?__device_stub__Z41computeUnconstrainedAccelerationsLaunch1TPN5physx23PxgArticulationCoreDescE@@YAXPEAUPxgArticulationCoreDesc@physx@@@Z 0000000180008f20 f   forwardDynamic2.obj
 0001:00007fe0       ?__device_stub__Z20updateBodiesLaunch1TPKN5physx23PxgArticulationCoreDescEfb@@YAXQEIBUPxgArticulationCoreDesc@physx@@M_N@Z 0000000180008fe0 f   forwardDynamic2.obj
 0001:000080f0       ?__device_stub__Z24updateBodiesLaunch_Part2PKN5physx23PxgArticulationCoreDescEfb@@YAXQEIBUPxgArticulationCoreDesc@physx@@M_N@Z 00000001800090f0 f   forwardDynamic2.obj
 0001:00008200       ?__device_stub__Z24updateBodiesLaunch_Part3PKN5physx23PxgArticulationCoreDescEfb@@YAXQEIBUPxgArticulationCoreDesc@physx@@M_N@Z 0000000180009200 f   forwardDynamic2.obj
 0001:00008310       ?__device_stub__Z21artiSaveVelocity1TPGSPN5physx23PxgArticulationCoreDescE@@YAXPEAUPxgArticulationCoreDesc@physx@@@Z 0000000180009310 f   forwardDynamic2.obj
 0001:000083d0       ?__device_stub__Z23artiComputeDependenciesPN5physx23PxgArticulationCoreDescEj@@YAXPEAUPxgArticulationCoreDesc@physx@@I@Z 00000001800093d0 f   forwardDynamic2.obj
 0001:000084a0       ?__device_stub__Z25artiApplyTgsSubstepForcesPN5physx23PxgArticulationCoreDescEf@@YAXPEAUPxgArticulationCoreDesc@physx@@M@Z 00000001800094a0 f   forwardDynamic2.obj
 0001:00008570       ?__device_stub__Z25artiPropagateImpulses2PGSPN5physx23PxgArticulationCoreDescEPKNS_17PxgSolverCoreDescEPKNS_19PxgSolverSharedDescINS_18IterativeSolveDataEEEj@@YAXPEAUPxgArticulationCoreDesc@physx@@QEIBUPxgSolverCoreDesc@2@QEIBU?$PxgSolverSharedDesc@UIterativeSolveData@physx@@@2@I@Z 0000000180009570 f   forwardDynamic2.obj
 0001:00008680       ?__device_stub__Z25artiPropagateImpulses2TGSPN5physx23PxgArticulationCoreDescEPKNS_17PxgSolverCoreDescEPKNS_19PxgSolverSharedDescINS_21IterativeSolveDataTGSEEEj@@YAXPEAUPxgArticulationCoreDesc@physx@@QEIBUPxgSolverCoreDesc@2@QEIBU?$PxgSolverSharedDesc@UIterativeSolveDataTGS@physx@@@2@I@Z 0000000180009680 f   forwardDynamic2.obj
 0001:00008790       ?__device_stub__Z21artiPropagateVelocityPN5physx23PxgArticulationCoreDescEjP6float4@@YAXPEIAUPxgArticulationCoreDesc@physx@@IPEIAUfloat4@@@Z 0000000180009790 f   forwardDynamic2.obj
 0001:00008890       ?__device_stub__Z24artiPropagateVelocityTGSPN5physx23PxgArticulationCoreDescEjP6float4@@YAXPEIAUPxgArticulationCoreDesc@physx@@IPEIAUfloat4@@@Z 0000000180009890 f   forwardDynamic2.obj
 0001:00008990       ?__device_stub__Z23dmaArticulationResidualPN5physx23PxgArticulationCoreDescEPNS_2Dy16ErrorAccumulatorE@@YAXPEAUPxgArticulationCoreDesc@physx@@PEAUErrorAccumulator@Dy@2@@Z 0000000180009990 f   forwardDynamic2.obj
 0001:00008a60       ?__device_stub__Z29dmaBackArticulationDataLaunchPN5physx23PxgArticulationCoreDescEPNS_25PxgArticulationOutputDescE@@YAXPEAUPxgArticulationCoreDesc@physx@@PEAUPxgArticulationOutputDesc@2@@Z 0000000180009a60 f   forwardDynamic2.obj
 0001:00008b30       ?__device_stub__Z21stepArticulation1TTGSPKN5physx23PxgArticulationCoreDescEf@@YAXQEIBUPxgArticulationCoreDesc@physx@@M@Z 0000000180009b30 f   forwardDynamic2.obj
 0001:00008c00       ?__device_stub__Z18artiOutputVelocityPN5physx23PxgArticulationCoreDescEPKNS_17PxgSolverCoreDescEb@@YAXPEAUPxgArticulationCoreDesc@physx@@PEBUPxgSolverCoreDesc@2@_N@Z 0000000180009c00 f   forwardDynamic2.obj
 0001:00008d10       ?__device_stub__Z15artiPushImpulsePN5physx23PxgArticulationCoreDescE@@YAXPEAUPxgArticulationCoreDesc@physx@@@Z 0000000180009d10 f   forwardDynamic2.obj
 0001:000094b0       initArticulationKernels2   000000018000a4b0 f   internalConstraints2.obj
 0001:000094c0       setupInternalConstraintLaunch1T 000000018000a4c0 f   internalConstraints2.obj
 0001:000095e0       artiSolveInternalTendonAndMimicJointConstraints1T 000000018000a5e0 f   internalConstraints2.obj
 0001:00009710       artiSolveInternalConstraints1T 000000018000a710 f   internalConstraints2.obj
 0001:000098d0       artiSolveInternalConstraintsTGS1T 000000018000a8d0 f   internalConstraints2.obj
 0001:00009a90       artiSumInternalContactAndJointBatches1Launch 000000018000aa90 f   internalConstraints2.obj
 0001:00009b90       artiSumInternalContactAndJointBatches2Launch 000000018000ab90 f   internalConstraints2.obj
 0001:00009cb0       artiSumSelfContactAndJointBatches 000000018000acb0 f   internalConstraints2.obj
 0001:00009dd0       artiPropagateRigidImpulsesAndSolveSelfConstraints1T 000000018000add0 f   internalConstraints2.obj
 0001:00009f00       artiPropagateRigidImpulsesAndSolveSelfConstraintsTGS1T 000000018000af00 f   internalConstraints2.obj
 0001:0000a060       ?__device_stub__Z31setupInternalConstraintLaunch1TPN5physx23PxgArticulationCoreDescEfffb@@YAXPEAUPxgArticulationCoreDesc@physx@@MMM_N@Z 000000018000b060 f   internalConstraints2.obj
 0001:0000a170       ?__device_stub__Z49artiSolveInternalTendonAndMimicJointConstraints1TPKN5physx23PxgArticulationCoreDescEfffbb@@YAXPEIBUPxgArticulationCoreDesc@physx@@MMM_N1@Z 000000018000b170 f   internalConstraints2.obj
 0001:0000a290       ?__device_stub__Z30artiSolveInternalConstraints1TPN5physx23PxgArticulationCoreDescEffbffPKjS3_PKNS_19PxgSolverSharedDescINS_18IterativeSolveDataEEEbbb@@YAXPEIAUPxgArticulationCoreDesc@physx@@MM_NMMQEIBI2QEIBU?$PxgSolverSharedDesc@UIterativeSolveData@physx@@@2@_N44@Z 000000018000b290 f   internalConstraints2.obj
 0001:0000a3f0       ?__device_stub__Z33artiSolveInternalConstraintsTGS1TPN5physx23PxgArticulationCoreDescEffbffPKjS3_PKNS_19PxgSolverSharedDescINS_21IterativeSolveDataTGSEEEbbb@@YAXPEIAUPxgArticulationCoreDesc@physx@@MM_NMMQEIBI2QEIBU?$PxgSolverSharedDesc@UIterativeSolveDataTGS@physx@@@2@_N44@Z 000000018000b3f0 f   internalConstraints2.obj
 0001:0000a550       ?__device_stub__Z44artiSumInternalContactAndJointBatches1LaunchPKN5physx23PxgArticulationCoreDescEPNS_14PxgPrePrepDescEj@@YAXPEIBUPxgArticulationCoreDesc@physx@@PEAUPxgPrePrepDesc@2@I@Z 000000018000b550 f   internalConstraints2.obj
 0001:0000a660       ?__device_stub__Z44artiSumInternalContactAndJointBatches2LaunchPKN5physx23PxgArticulationCoreDescEPNS_17PxgSolverCoreDescEPNS_14PxgPrePrepDescEPNS_24PxgConstraintPrepareDescEj@@YAXPEIBUPxgArticulationCoreDesc@physx@@PEIAUPxgSolverCoreDesc@2@PEIAUPxgPrePrepDesc@2@PEIAUPxgConstraintPrepareDesc@2@I@Z 000000018000b660 f   internalConstraints2.obj
 0001:0000a770       ?__device_stub__Z33artiSumSelfContactAndJointBatchesPKN5physx23PxgArticulationCoreDescEPNS_17PxgSolverCoreDescEPNS_14PxgPrePrepDescEPNS_24PxgConstraintPrepareDescEj@@YAXPEIBUPxgArticulationCoreDesc@physx@@PEIAUPxgSolverCoreDesc@2@PEIAUPxgPrePrepDesc@2@PEIAUPxgConstraintPrepareDesc@2@I@Z 000000018000b770 f   internalConstraints2.obj
 0001:0000a880       ?__device_stub__Z51artiPropagateRigidImpulsesAndSolveSelfConstraints1TPN5physx23PxgArticulationCoreDescEPKNS_17PxgSolverCoreDescEbfPKNS_19PxgSolverSharedDescINS_18IterativeSolveDataEEEb@@YAXPEIAUPxgArticulationCoreDesc@physx@@QEIBUPxgSolverCoreDesc@2@_NMQEIBU?$PxgSolverSharedDesc@UIterativeSolveData@physx@@@2@_N@Z 000000018000b880 f   internalConstraints2.obj
 0001:0000a9a0       ?__device_stub__Z54artiPropagateRigidImpulsesAndSolveSelfConstraintsTGS1TPN5physx23PxgArticulationCoreDescEPKNS_17PxgSolverCoreDescEbfPKNS_19PxgSolverSharedDescINS_21IterativeSolveDataTGSEEEb@@YAXPEIAUPxgArticulationCoreDesc@physx@@QEIBUPxgSolverCoreDesc@2@_NMQEIBU?$PxgSolverSharedDesc@UIterativeSolveDataTGS@physx@@@2@_N@Z 000000018000b9a0 f   internalConstraints2.obj
 0001:0000af00       initArticulationKernels4   000000018000bf00 f   inverseDynamic.obj
 0001:0000af10       computeArtiDenseJacobians  000000018000bf10 f   inverseDynamic.obj
 0001:0000b040       computeArtiMassMatrices    000000018000c040 f   inverseDynamic.obj
 0001:0000b170       computeArtiGravityForces   000000018000c170 f   inverseDynamic.obj
 0001:0000b2b0       computeArtiCentrifugalForces 000000018000c2b0 f   inverseDynamic.obj
 0001:0000b3e0       computeArtiCOM             000000018000c3e0 f   inverseDynamic.obj
 0001:0000b4f0       computeArtiCentroidalMomentumMatrices 000000018000c4f0 f   inverseDynamic.obj
 0001:0000b640       ?__device_stub__Z25computeArtiDenseJacobiansPfPKjjjjPKN5physx15PxgArticulationE@@YAXPEIAMPEIBIIIIPEIBVPxgArticulation@physx@@@Z 000000018000c640 f   inverseDynamic.obj
 0001:0000b760       ?__device_stub__Z23computeArtiMassMatricesjPfPKjjbPKN5physx15PxgArticulationE@@YAXIPEIAMPEIBII_NPEIBVPxgArticulation@physx@@@Z 000000018000c760 f   inverseDynamic.obj
 0001:0000b880       ?__device_stub__Z24computeArtiGravityForcesjPfPKjjbPKN5physx15PxgArticulationENS2_7PxVec3TIfEE@@YAXIPEIAMPEIBII_NPEBVPxgArticulation@physx@@AEBV?$PxVec3T@M@2@@Z 000000018000c880 f   inverseDynamic.obj
 0001:0000b9a0       ?__device_stub__Z28computeArtiCentrifugalForcesjPfPKjjbPKN5physx15PxgArticulationE@@YAXIPEIAMPEIBII_NPEBVPxgArticulation@physx@@@Z 000000018000c9a0 f   inverseDynamic.obj
 0001:0000bac0       ?__device_stub__Z14computeArtiCOMPN5physx7PxVec3TIfEEPKjbPKNS_15PxgArticulationE@@YAXPEIAV?$PxVec3T@M@physx@@PEIBI_NPEIBVPxgArticulation@2@@Z 000000018000cac0 f   inverseDynamic.obj
 0001:0000bbd0       ?__device_stub__Z37computeArtiCentroidalMomentumMatricesPfPKjjjPKN5physx15PxgArticulationE@@YAXPEIAMPEIBIIIPEIBVPxgArticulation@physx@@@Z 000000018000cbd0 f   inverseDynamic.obj
 0001:0000c050       ??0PxgArticulationCore@physx@@QEAA@PEAVPxgCudaKernelWranglerManager@1@PEAVPxCudaContextManager@1@PEAVPxgHeapMemoryAllocatorManager@1@@Z 000000018000d050 f   PxgArticulationCore.obj
 0001:0000c410       ??1PxgArticulationCore@physx@@QEAA@XZ 000000018000d410 f   PxgArticulationCore.obj
 0001:0000c5d0       ?allocDeltaVBuffer@PxgArticulationCore@physx@@QEAAXIIPEAUCUstream_st@@@Z 000000018000d5d0 f   PxgArticulationCore.obj
 0001:0000c750       ?applyTgsSubstepForces@PxgArticulationCore@physx@@QEAAXMPEAUCUstream_st@@@Z 000000018000d750 f   PxgArticulationCore.obj
 0001:0000c870       ?averageDeltaV@PxgArticulationCore@physx@@QEAAXIPEAUCUstream_st@@PEAUfloat4@@I_N_K@Z 000000018000d870 f   PxgArticulationCore.obj
 0001:0000caf0       ?computeArticulationData@PxgArticulationCore@physx@@QEAA_NPEAXPEBIW4Enum@PxArticulationGPUAPIComputeType@2@IIIPEAUCUevent_st@@3@Z 000000018000daf0 f   PxgArticulationCore.obj
 0001:0000cf80       ?computeUnconstrainedVelocities@PxgArticulationCore@physx@@QEAAIIIMAEBV?$PxVec3T@M@2@M_N_N@Z 000000018000df80 f   PxgArticulationCore.obj
 0001:0000d2f0       ?createPxgArticulation@physx@@YAXXZ 000000018000e2f0 f   PxgArticulationCore.obj
 0001:0000d310       ?createStaticContactAndConstraintsBatch@PxgArticulationCore@physx@@QEAAXI@Z 000000018000e310 f   PxgArticulationCore.obj
 0001:0000d540       ?getArticulationData@PxgArticulationCore@physx@@QEBA_NPEAXPEBIW4Enum@PxArticulationGPUAPIReadType@2@IPEAUCUevent_st@@3II@Z 000000018000e540 f   PxgArticulationCore.obj
 0001:0000d890       ?getLinkVelocityStates@PxgArticulationCore@physx@@AEBA_NPEAXPEBIIIW4Enum@PxArticulationGPUAPIReadType@2@@Z 000000018000e890 f   PxgArticulationCore.obj
 0001:0000d9e0       ?getTransformStates@PxgArticulationCore@physx@@AEBA_NPEAXPEBIIIW4Enum@PxArticulationGPUAPIReadType@2@@Z 000000018000e9e0 f   PxgArticulationCore.obj
 0001:0000db20       ?gpuMemDMAbackArticulation@PxgArticulationCore@physx@@QEAAXAEAV?$PxArray@EVPxVirtualAllocator@physx@@@2@AEAV?$PxArray@UPxgSolverBodySleepData@physx@@VPxVirtualAllocator@2@@2@AEAV?$PxArray@UErrorAccumulator@Dy@physx@@VPxVirtualAllocator@3@@2@2@Z 000000018000eb20 f   PxgArticulationCore.obj
 0001:0000dcc0       ?gpuMemDmaUpArticulationDesc@PxgArticulationCore@physx@@QEAAXIIMAEBV?$PxVec3T@M@2@M_N@Z 000000018000ecc0 f   PxgArticulationCore.obj
 0001:0000e230       ?layoutDeltaVBuffer@PxgArticulationCore@physx@@QEAAXIIPEAUCUstream_st@@@Z 000000018000f230 f   PxgArticulationCore.obj
 0001:0000e3c0       ?outputVelocity@PxgArticulationCore@physx@@QEAAX_KPEAUCUstream_st@@_N@Z 000000018000f3c0 f   PxgArticulationCore.obj
 0001:0000e4e0       ?precomputeDependencies@PxgArticulationCore@physx@@QEAAXI@Z 000000018000f4e0 f   PxgArticulationCore.obj
 0001:0000e5c0       ?propagateRigidBodyImpulsesAndSolveInternalConstraints@PxgArticulationCore@physx@@QEAAXMM_NMMPEAI1_K_N333@Z 000000018000f5c0 f   PxgArticulationCore.obj
 0001:0000e930       ?pushImpulse@PxgArticulationCore@physx@@QEAAXPEAUCUstream_st@@@Z 000000018000f930 f   PxgArticulationCore.obj
 0001:0000ea30       ?saveVelocities@PxgArticulationCore@physx@@QEAAXXZ 000000018000fa30 f   PxgArticulationCore.obj
 0001:0000eb40       ?setArticulationData@PxgArticulationCore@physx@@QEAA_NPEBXPEBIW4Enum@PxArticulationGPUAPIWriteType@2@IPEAUCUevent_st@@3IIIIII@Z 000000018000fb40 f   PxgArticulationCore.obj
 0001:0000f140       ?setDofStates@PxgArticulationCore@physx@@AEAA_NPEBXPEBIIIW4Enum@PxArticulationGPUAPIWriteType@2@@Z 0000000180010140 f   PxgArticulationCore.obj
 0001:0000f280       ?setTendonStates@PxgArticulationCore@physx@@AEAA_NPEBXPEBIIIW4Enum@PxArticulationGPUAPIWriteType@2@@Z 0000000180010280 f   PxgArticulationCore.obj
 0001:0000f3c0       ?setupInternalConstraints@PxgArticulationCore@physx@@QEAAIIMMM_N@Z 00000001800103c0 f   PxgArticulationCore.obj
 0001:0000f4e0       ?stepArticulation@PxgArticulationCore@physx@@QEAAXM@Z 00000001800104e0 f   PxgArticulationCore.obj
 0001:0000f5d0       ?syncStream@PxgArticulationCore@physx@@QEAAXXZ 00000001800105d0 f   PxgArticulationCore.obj
 0001:0000f6a0       ?syncUnconstrainedVelocities@PxgArticulationCore@physx@@QEAAXXZ 00000001800106a0 f   PxgArticulationCore.obj
 0001:0000f6f0       ?synchronizedStreams@PxgArticulationCore@physx@@QEAAXPEAUCUstream_st@@0@Z 00000001800106f0 f   PxgArticulationCore.obj
 0001:0000f7f0       ?updateArticulationsKinematic@PxgArticulationCore@physx@@QEAAX_NPEIBII@Z 00000001800107f0 f   PxgArticulationCore.obj
 0001:0000f9d0       ?updateBodies@PxgArticulationCore@physx@@QEAAXM_N0@Z 00000001800109d0 f   PxgArticulationCore.obj
 0001:0000fc50       initBroadphaseKernels0     0000000180010c50 f   broadphase.obj
 0001:0000fc60       translateAABBsLaunch       0000000180010c60 f   broadphase.obj
 0001:0000fd20       markRemovedPairsLaunch     0000000180010d20 f   broadphase.obj
 0001:0000fde0       markRemovedPairsProjectionsLaunch 0000000180010de0 f   broadphase.obj
 0001:0000fea0       markCreatedPairsLaunch     0000000180010ea0 f   broadphase.obj
 0001:0000ff60       initializeSapBox1DLaunch   0000000180010f60 f   broadphase.obj
 0001:00010060       markUpdatedPairsLaunch     0000000180011060 f   broadphase.obj
 0001:00010120       markUpdatedPairsLaunch2    0000000180011120 f   broadphase.obj
 0001:000101e0       computeEndPtsHistogram     00000001800111e0 f   broadphase.obj
 0001:000102b0       outputEndPtsHistogram      00000001800112b0 f   broadphase.obj
 0001:00010380       createRegionsKernel        0000000180011380 f   broadphase.obj
 0001:00010440       computeStartRegionsHistogram 0000000180011440 f   broadphase.obj
 0001:00010500       outputStartRegionsHistogram 0000000180011500 f   broadphase.obj
 0001:000105c0       computeRegionsHistogram    00000001800115c0 f   broadphase.obj
 0001:00010680       outputRegionsHistogram     0000000180011680 f   broadphase.obj
 0001:00010740       writeOutStartAndActiveRegionHistogram 0000000180011740 f   broadphase.obj
 0001:00010800       computeStartAndActiveRegionHistogram 0000000180011800 f   broadphase.obj
 0001:000108c0       outputOrderedActiveRegionHistogram 00000001800118c0 f   broadphase.obj
 0001:00010980       writeOutOverlapChecksForInsertedBoundsRegionsHistogram 0000000180011980 f   broadphase.obj
 0001:00010a40       computeOverlapChecksForRegionsHistogram 0000000180011a40 f   broadphase.obj
 0001:00010b00       outputOverlapChecksForRegionHistogram 0000000180011b00 f   broadphase.obj
 0001:00010bc0       performIncrementalSAP      0000000180011bc0 f   broadphase.obj
 0001:00010c80       generateFoundPairsForNewBoundsRegion 0000000180011c80 f   broadphase.obj
 0001:00010d40       clearNewFlagLaunch         0000000180011d40 f   broadphase.obj
 0001:00010e00       computeIncrementalComparisonHistograms_Stage1 0000000180011e00 f   broadphase.obj
 0001:00010ec0       computeIncrementalComparisonHistograms_Stage2 0000000180011ec0 f   broadphase.obj
 0001:00010f80       initializeRadixRanks       0000000180011f80 f   broadphase.obj
 0001:00011040       updateHandles              0000000180012040 f   broadphase.obj
 0001:00011100       accumulateReportsStage_1   0000000180012100 f   broadphase.obj
 0001:000111c0       accumulateReportsStage_2   00000001800121c0 f   broadphase.obj
 0001:00011280       copyReports                0000000180012280 f   broadphase.obj
 0001:00011340       bpSignalComplete           0000000180012340 f   broadphase.obj
 0001:00011430       ?__device_stub__Z20translateAABBsLaunchPKN5physx17PxgBroadPhaseDescE@@YAXPEBUPxgBroadPhaseDesc@physx@@@Z 0000000180012430 f   broadphase.obj
 0001:000114f0       ?__device_stub__Z22markRemovedPairsLaunchPKN5physx17PxgBroadPhaseDescE@@YAXPEBUPxgBroadPhaseDesc@physx@@@Z 00000001800124f0 f   broadphase.obj
 0001:000115b0       ?__device_stub__Z33markRemovedPairsProjectionsLaunchPKN5physx17PxgBroadPhaseDescE@@YAXPEBUPxgBroadPhaseDesc@physx@@@Z 00000001800125b0 f   broadphase.obj
 0001:00011670       ?__device_stub__Z22markCreatedPairsLaunchPKN5physx17PxgBroadPhaseDescE@@YAXPEBUPxgBroadPhaseDesc@physx@@@Z 0000000180012670 f   broadphase.obj
 0001:00011730       ?__device_stub__Z24initializeSapBox1DLaunchPKN5physx17PxgBroadPhaseDescEjb@@YAXPEBUPxgBroadPhaseDesc@physx@@I_N@Z 0000000180012730 f   broadphase.obj
 0001:00011830       ?__device_stub__Z22markUpdatedPairsLaunchPKN5physx17PxgBroadPhaseDescE@@YAXPEBUPxgBroadPhaseDesc@physx@@@Z 0000000180012830 f   broadphase.obj
 0001:000118f0       ?__device_stub__Z23markUpdatedPairsLaunch2PKN5physx17PxgBroadPhaseDescE@@YAXPEBUPxgBroadPhaseDesc@physx@@@Z 00000001800128f0 f   broadphase.obj
 0001:000119b0       ?__device_stub__Z22computeEndPtsHistogramPKN5physx17PxgBroadPhaseDescEb@@YAXPEBUPxgBroadPhaseDesc@physx@@_N@Z 00000001800129b0 f   broadphase.obj
 0001:00011a80       ?__device_stub__Z21outputEndPtsHistogramPKN5physx17PxgBroadPhaseDescEb@@YAXPEBUPxgBroadPhaseDesc@physx@@_N@Z 0000000180012a80 f   broadphase.obj
 0001:00011b50       ?__device_stub__Z19createRegionsKernelPKN5physx17PxgBroadPhaseDescE@@YAXPEBUPxgBroadPhaseDesc@physx@@@Z 0000000180012b50 f   broadphase.obj
 0001:00011c10       ?__device_stub__Z28computeStartRegionsHistogramPKN5physx17PxgBroadPhaseDescE@@YAXPEBUPxgBroadPhaseDesc@physx@@@Z 0000000180012c10 f   broadphase.obj
 0001:00011cd0       ?__device_stub__Z27outputStartRegionsHistogramPN5physx17PxgBroadPhaseDescE@@YAXPEAUPxgBroadPhaseDesc@physx@@@Z 0000000180012cd0 f   broadphase.obj
 0001:00011d90       ?__device_stub__Z23computeRegionsHistogramPKN5physx17PxgBroadPhaseDescE@@YAXPEBUPxgBroadPhaseDesc@physx@@@Z 0000000180012d90 f   broadphase.obj
 0001:00011e50       ?__device_stub__Z22outputRegionsHistogramPN5physx17PxgBroadPhaseDescE@@YAXPEAUPxgBroadPhaseDesc@physx@@@Z 0000000180012e50 f   broadphase.obj
 0001:00011f10       ?__device_stub__Z37writeOutStartAndActiveRegionHistogramPKN5physx17PxgBroadPhaseDescE@@YAXPEBUPxgBroadPhaseDesc@physx@@@Z 0000000180012f10 f   broadphase.obj
 0001:00011fd0       ?__device_stub__Z36computeStartAndActiveRegionHistogramPKN5physx17PxgBroadPhaseDescE@@YAXPEBUPxgBroadPhaseDesc@physx@@@Z 0000000180012fd0 f   broadphase.obj
 0001:00012090       ?__device_stub__Z34outputOrderedActiveRegionHistogramPKN5physx17PxgBroadPhaseDescE@@YAXPEBUPxgBroadPhaseDesc@physx@@@Z 0000000180013090 f   broadphase.obj
 0001:00012150       ?__device_stub__Z54writeOutOverlapChecksForInsertedBoundsRegionsHistogramPKN5physx17PxgBroadPhaseDescE@@YAXPEBUPxgBroadPhaseDesc@physx@@@Z 0000000180013150 f   broadphase.obj
 0001:00012210       ?__device_stub__Z39computeOverlapChecksForRegionsHistogramPKN5physx17PxgBroadPhaseDescE@@YAXPEBUPxgBroadPhaseDesc@physx@@@Z 0000000180013210 f   broadphase.obj
 0001:000122d0       ?__device_stub__Z37outputOverlapChecksForRegionHistogramPN5physx17PxgBroadPhaseDescE@@YAXPEAUPxgBroadPhaseDesc@physx@@@Z 00000001800132d0 f   broadphase.obj
 0001:00012390       ?__device_stub__Z21performIncrementalSAPPN5physx17PxgBroadPhaseDescE@@YAXPEAUPxgBroadPhaseDesc@physx@@@Z 0000000180013390 f   broadphase.obj
 0001:00012450       ?__device_stub__Z36generateFoundPairsForNewBoundsRegionPN5physx17PxgBroadPhaseDescE@@YAXPEAUPxgBroadPhaseDesc@physx@@@Z 0000000180013450 f   broadphase.obj
 0001:00012510       ?__device_stub__Z18clearNewFlagLaunchPKN5physx17PxgBroadPhaseDescE@@YAXPEBUPxgBroadPhaseDesc@physx@@@Z 0000000180013510 f   broadphase.obj
 0001:000125d0       ?__device_stub__Z45computeIncrementalComparisonHistograms_Stage1PKN5physx17PxgBroadPhaseDescE@@YAXPEBUPxgBroadPhaseDesc@physx@@@Z 00000001800135d0 f   broadphase.obj
 0001:00012690       ?__device_stub__Z45computeIncrementalComparisonHistograms_Stage2PN5physx17PxgBroadPhaseDescE@@YAXPEAUPxgBroadPhaseDesc@physx@@@Z 0000000180013690 f   broadphase.obj
 0001:00012750       ?__device_stub__Z20initializeRadixRanksPKN5physx17PxgBroadPhaseDescE@@YAXPEBUPxgBroadPhaseDesc@physx@@@Z 0000000180013750 f   broadphase.obj
 0001:00012810       ?__device_stub__Z13updateHandlesPKN5physx17PxgBroadPhaseDescE@@YAXPEBUPxgBroadPhaseDesc@physx@@@Z 0000000180013810 f   broadphase.obj
 0001:000128d0       ?__device_stub__Z24accumulateReportsStage_1PKN5physx17PxgBroadPhaseDescE@@YAXPEBUPxgBroadPhaseDesc@physx@@@Z 00000001800138d0 f   broadphase.obj
 0001:00012990       ?__device_stub__Z24accumulateReportsStage_2PN5physx17PxgBroadPhaseDescE@@YAXPEAUPxgBroadPhaseDesc@physx@@@Z 0000000180013990 f   broadphase.obj
 0001:00012a50       ?__device_stub__Z11copyReportsPN5physx17PxgBroadPhaseDescE@@YAXPEAUPxgBroadPhaseDesc@physx@@@Z 0000000180013a50 f   broadphase.obj
 0001:00012b10       ?__device_stub__Z16bpSignalCompletePj@@YAXPEAI@Z 0000000180013b10 f   broadphase.obj
 0001:00013450       initBroadphaseKernels1     0000000180014450 f   aggregate.obj
 0001:00013460       updateDirtyAggregate       0000000180014460 f   aggregate.obj
 0001:000135a0       clearDirtyAggregates       00000001800145a0 f   aggregate.obj
 0001:000136b0       markAggregateBoundsUpdatedBitmap 00000001800146b0 f   aggregate.obj
 0001:00013780       updateAggregateBounds      0000000180014780 f   aggregate.obj
 0001:00013880       sortAndUpdateAggregateProjections 0000000180014880 f   aggregate.obj
 0001:00013950       ?getIthBit@@YAIII@Z        0000000180014950 f   aggregate.obj
 0001:00013970       ?getIthBitBruteForce@@YAIII@Z 0000000180014970 f   aggregate.obj
 0001:00013990       ?getIndex@@YAIPEIBIIIII@Z  0000000180014990 f   aggregate.obj
 0001:000139b0       ?generatePairs@@YA_NIIPEIBIPEIBVPxgSapBox1D@physx@@00PEIBVPxgIntegerAABB@2@2PEBI3AEAUPxgBroadPhasePair@2@@Z 00000001800149b0 f   aggregate.obj
 0001:000139d0       ?generateAllPairs@@YAXAEAUPxgAggregate@physx@@IIPEAUPxgBroadPhasePair@2@PEAIPEIBVPxgIntegerAABB@2@3PEIBIII@Z 00000001800149d0 f   aggregate.obj
 0001:000139f0       doSelfCollision            00000001800149f0 f   aggregate.obj
 0001:00013ac0       ?countComparisons@@YAIAEBVPxgIntegerAABB@physx@@PEIBII1AEAI2I@Z 0000000180014ac0 f   aggregate.obj
 0001:00013ae0       doAggPairCollisions        0000000180014ae0 f   aggregate.obj
 0001:00013bb0       aggCopyReports             0000000180014bb0 f   aggregate.obj
 0001:00013c70       addAggPairsStage1          0000000180014c70 f   aggregate.obj
 0001:00013d40       addAggPairsStage2          0000000180014d40 f   aggregate.obj
 0001:00013e10       removeAggPairsStage1       0000000180014e10 f   aggregate.obj
 0001:00013ed0       removeAggPairsStage2       0000000180014ed0 f   aggregate.obj
 0001:00013f90       removeAggPairsStage3       0000000180014f90 f   aggregate.obj
 0001:00014050       markAddedAndDeletedAggregatedBounds 0000000180015050 f   aggregate.obj
 0001:000141b0       ?__device_stub__Z20updateDirtyAggregatePN5physx12PxgAggregateEjPjS1_jPKjS4_@@YAXPEAUPxgAggregate@physx@@IPEAI0IPEBI2@Z 00000001800151b0 f   aggregate.obj
 0001:000142d0       ?__device_stub__Z20clearDirtyAggregatesPN5physx12PxgAggregateEjPjj@@YAXPEAUPxgAggregate@physx@@IPEAII@Z 00000001800152d0 f   aggregate.obj
 0001:000143e0       ?__device_stub__Z32markAggregateBoundsUpdatedBitmapPN5physx16PxgAggregateDescEPj@@YAXPEAUPxgAggregateDesc@physx@@PEAI@Z 00000001800153e0 f   aggregate.obj
 0001:000144b0       ?__device_stub__Z21updateAggregateBoundsPN5physx16PxgAggregateDescEPNS_9PxBounds3EPf@@YAXPEAUPxgAggregateDesc@physx@@PEAVPxBounds3@2@PEAM@Z 00000001800154b0 f   aggregate.obj
 0001:000145c0       ?__device_stub__Z33sortAndUpdateAggregateProjectionsPN5physx17PxgBroadPhaseDescEPNS_16PxgAggregateDescE@@YAXPEAUPxgBroadPhaseDesc@physx@@PEAUPxgAggregateDesc@2@@Z 00000001800155c0 f   aggregate.obj
 0001:00014690       ?__device_stub__Z15doSelfCollisionPN5physx17PxgBroadPhaseDescEPNS_16PxgAggregateDescE@@YAXPEAUPxgBroadPhaseDesc@physx@@PEAUPxgAggregateDesc@2@@Z 0000000180015690 f   aggregate.obj
 0001:00014760       ?__device_stub__Z19doAggPairCollisionsPN5physx17PxgBroadPhaseDescEPNS_16PxgAggregateDescE@@YAXPEAUPxgBroadPhaseDesc@physx@@PEAUPxgAggregateDesc@2@@Z 0000000180015760 f   aggregate.obj
 0001:00014830       ?__device_stub__Z14aggCopyReportsPN5physx16PxgAggregateDescE@@YAXPEAUPxgAggregateDesc@physx@@@Z 0000000180015830 f   aggregate.obj
 0001:000148f0       ?__device_stub__Z17addAggPairsStage1PN5physx16PxgAggregateDescEPNS_17PxgBroadPhaseDescE@@YAXPEAUPxgAggregateDesc@physx@@PEAUPxgBroadPhaseDesc@2@@Z 00000001800158f0 f   aggregate.obj
 0001:000149c0       ?__device_stub__Z17addAggPairsStage2PN5physx16PxgAggregateDescEPNS_17PxgBroadPhaseDescE@@YAXPEAUPxgAggregateDesc@physx@@PEAUPxgBroadPhaseDesc@2@@Z 00000001800159c0 f   aggregate.obj
 0001:00014a90       ?__device_stub__Z20removeAggPairsStage1PN5physx16PxgAggregateDescE@@YAXPEAUPxgAggregateDesc@physx@@@Z 0000000180015a90 f   aggregate.obj
 0001:00014b50       ?__device_stub__Z20removeAggPairsStage2PN5physx16PxgAggregateDescE@@YAXPEAUPxgAggregateDesc@physx@@@Z 0000000180015b50 f   aggregate.obj
 0001:00014c10       ?__device_stub__Z20removeAggPairsStage3PN5physx16PxgAggregateDescE@@YAXPEAUPxgAggregateDesc@physx@@@Z 0000000180015c10 f   aggregate.obj
 0001:00014cd0       ?__device_stub__Z35markAddedAndDeletedAggregatedBoundsPN5physx17PxgBroadPhaseDescEPNS_16PxgAggregateDescEPjjS4_j@@YAXPEAUPxgBroadPhaseDesc@physx@@PEAUPxgAggregateDesc@2@PEAII2I@Z 0000000180015cd0 f   aggregate.obj
 0001:00015230       ??$PxSort@UPxgBroadPhasePair@physx@@UReportMore@@V?$PxReflectionAllocator@UPxgBroadPhasePair@physx@@@2@@physx@@YAXPEAUPxgBroadPhasePair@0@IAEBUReportMore@@AEBV?$PxReflectionAllocator@UPxgBroadPhasePair@physx@@@0@I@Z 0000000180016230 f i PxgCudaBroadPhaseSap.obj
 0001:00015700       ??0PxgCudaBroadPhaseSap@physx@@QEAA@PEAVPxgCudaKernelWranglerManager@1@PEAVPxCudaContextManager@1@AEBUPxGpuDynamicsMemoryConfig@1@PEAVPxgHeapMemoryAllocatorManager@1@_K@Z 0000000180016700 f   PxgCudaBroadPhaseSap.obj
 0001:00016ad0       ??1PxgCudaBroadPhaseSap@physx@@UEAA@XZ 0000000180017ad0 f   PxgCudaBroadPhaseSap.obj
 0001:00017020       ??_EPxBroadPhaseRegions@physx@@MEAAPEAXI@Z 0000000180018020 f i PxgCudaBroadPhaseSap.obj
 0001:00017020       ??_GPxBroadPhaseRegions@physx@@MEAAPEAXI@Z 0000000180018020 f i PxgCudaBroadPhaseSap.obj
 0001:00017050       ??_EPxgCudaBroadPhaseSap@physx@@UEAAPEAXI@Z 0000000180018050 f i PxgCudaBroadPhaseSap.obj
 0001:00017050       ??_GPxgCudaBroadPhaseSap@physx@@UEAAPEAXI@Z 0000000180018050 f i PxgCudaBroadPhaseSap.obj
 0001:000170c0       ?addRegion@BroadPhaseBase@Bp@physx@@UEAAIAEBUPxBroadPhaseRegion@3@_NPEBVPxBounds3@3@PEBM@Z 00000001800180c0 f i PxgCudaBroadPhaseSap.obj
 0001:000170c0       ?getArticulationRemapIndex@PxsSimulationController@physx@@UEAAII@Z 00000001800180c0 f i PxgSimulationController.obj
 0001:000170c0       ?getInternalShapeIndex@PxsSimulationController@physx@@UEAAIAEBUPxsShapeCore@2@@Z 00000001800180c0 f i PxgSimulationController.obj
 0001:000170d0       ?calculateEndPtHistogramKernel@PxgCudaBroadPhaseSap@physx@@AEAAX_N@Z 00000001800180d0 f   PxgCudaBroadPhaseSap.obj
 0001:00017270       ?computeRegionHistogramKernel@PxgCudaBroadPhaseSap@physx@@AEAAXXZ 0000000180018270 f   PxgCudaBroadPhaseSap.obj
 0001:000176b0       ?fetchBroadPhaseResults@PxgCudaBroadPhaseSap@physx@@UEAAXXZ 00000001800186b0 f   PxgCudaBroadPhaseSap.obj
 0001:00017900       ?freeBuffers@PxgCudaBroadPhaseSap@physx@@UEAAXXZ 0000000180018900 f   PxgCudaBroadPhaseSap.obj
 0001:00017910       ?generateNewPairsKernel@PxgCudaBroadPhaseSap@physx@@AEAAXXZ 0000000180018910 f   PxgCudaBroadPhaseSap.obj
 0001:00017c20       ?getCaps@BroadPhaseBase@Bp@physx@@UEBAXAEAUPxBroadPhaseCaps@3@@Z 0000000180018c20 f i PxgCudaBroadPhaseSap.obj
 0001:00017c30       ?getCreatedPairs@PxgCudaBroadPhaseSap@physx@@UEBAPEBUBroadPhasePair@Bp@2@AEAI@Z 0000000180018c30 f i PxgCudaBroadPhaseSap.obj
 0001:00017c40       ?getDeletedPairs@PxgCudaBroadPhaseSap@physx@@UEBAPEBUBroadPhasePair@Bp@2@AEAI@Z 0000000180018c40 f i PxgCudaBroadPhaseSap.obj
 0001:00017c50       ?getNbFrozenShapes@PxsSimulationController@physx@@UEAAIXZ 0000000180018c50 f i PxgSimulationController.obj
 0001:00017c50       ?getNbBodies@PxsSimulationController@physx@@UEAAIXZ 0000000180018c50 f i PxgSimulationController.obj
 0001:00017c50       ?getActiveBodies@PxsSimulationController@physx@@UEAAPEAIXZ 0000000180018c50 f i PxgSimulationController.obj
 0001:00017c50       ?addSoftBodyAttachment@PxsSimulationController@physx@@UEAAIPEAVDeformableVolume@Dy@2@0IIAEBV?$PxVec4T@M@2@1PEAUPxConeLimitedConstraint@2@M_N_N@Z 0000000180018c50 f i PxgSimulationController.obj
 0001:00017c50       cudaLaunchKernel           0000000180018c50 f i CudaKernelWrangler.obj
 0001:00017c50       __cudaPopCallConfiguration 0000000180018c50 f i CudaKernelWrangler.obj
 0001:00017c50       ?getDeactivatedDeformableSurfaces@PxsSimulationController@physx@@UEBAPEAPEAVDeformableSurface@Dy@2@XZ 0000000180018c50 f i PxgSimulationController.obj
 0001:00017c50       ?getActivatedDeformableVolumes@PxsSimulationController@physx@@UEBAPEAPEAVDeformableVolume@Dy@2@XZ 0000000180018c50 f i PxgSimulationController.obj
 0001:00017c50       ?getRegions@BroadPhaseBase@Bp@physx@@UEBAIPEAUPxBroadPhaseRegionInfo@3@II@Z 0000000180018c50 f i PxgCudaBroadPhaseSap.obj
 0001:00017c50       ?getDeactiveBodies@PxsSimulationController@physx@@UEAAPEAIXZ 0000000180018c50 f i PxgSimulationController.obj
 0001:00017c50       ?getDeformableVolumeWakeCounters@PxsSimulationController@physx@@UEBAPEBMXZ 0000000180018c50 f i PxgSimulationController.obj
 0001:00017c50       ?getNbDeactivatedDeformableSurfaces@PxsSimulationController@physx@@UEBAIXZ 0000000180018c50 f i PxgSimulationController.obj
 0001:00017c50       ?getNbActivatedDeformableVolumes@PxsSimulationController@physx@@UEBAIXZ 0000000180018c50 f i PxgSimulationController.obj
 0001:00017c50       ?getShapeSims@PxsSimulationController@physx@@UEAAPEAPEAVShapeSimBase@Sc@2@XZ 0000000180018c50 f i PxgSimulationController.obj
 0001:00017c50       ?getNbShapes@PxsSimulationController@physx@@UEAAIXZ 0000000180018c50 f i PxgSimulationController.obj
 0001:00017c50       ?getRigidBodies@PxsSimulationController@physx@@UEAAPEAPEAXXZ 0000000180018c50 f i PxgSimulationController.obj
 0001:00017c50       ?getActivatedDeformableSurfaces@PxsSimulationController@physx@@UEBAPEAPEAVDeformableSurface@Dy@2@XZ 0000000180018c50 f i PxgSimulationController.obj
 0001:00017c50       ?addTriClothAttachment@PxsSimulationController@physx@@UEAAIPEAVDeformableSurface@Dy@2@0IIAEBV?$PxVec4T@M@2@1_N@Z 0000000180018c50 f i PxgSimulationController.obj
 0001:00017c50       ?addClothAttachment@PxsSimulationController@physx@@UEAAIPEAVDeformableVolume@Dy@2@PEAVDeformableSurface@42@IAEBV?$PxVec4T@M@2@I2PEAUPxConeLimitedConstraint@2@M_N_N@Z 0000000180018c50 f i PxgSimulationController.obj
 0001:00017c50       ?addParticleAttachment@PxsSimulationController@physx@@UEAAIPEAVDeformableVolume@Dy@2@PEBVParticleSystem@42@IIIAEBV?$PxVec4T@M@2@_N@Z 0000000180018c50 f i PxgSimulationController.obj
 0001:00017c50       ?getNbActivatedDeformableSurfaces@PxsSimulationController@physx@@UEBAIXZ 0000000180018c50 f i PxgSimulationController.obj
 0001:00017c50       ?getNbDeactivatedDeformableVolumes@PxsSimulationController@physx@@UEBAIXZ 0000000180018c50 f i PxgSimulationController.obj
 0001:00017c50       ?addRigidAttachment@PxsSimulationController@physx@@UEAAIPEAVDeformableVolume@Dy@2@AEBVPxNodeIndex@2@PEAVPxsRigidBody@2@1IAEBV?$PxVec3T@M@2@PEAUPxConeLimitedConstraint@2@_N_N@Z 0000000180018c50 f i PxgSimulationController.obj
 0001:00017c50       ?getSolverType@PxgDynamicsContext@physx@@UEBA?AW4Enum@PxSolverType@2@XZ 0000000180018c50 f i PxgDynamicsContext.obj
 0001:00017c50       ?getDeactivatedDeformableVolumes@PxsSimulationController@physx@@UEBAPEAPEAVDeformableVolume@Dy@2@XZ 0000000180018c50 f i PxgSimulationController.obj
 0001:00017c50       ?getUnfrozenShapes@PxsSimulationController@physx@@UEAAPEAIXZ 0000000180018c50 f i PxgSimulationController.obj
 0001:00017c50       ?getNbRegions@BroadPhaseBase@Bp@physx@@UEBAIXZ 0000000180018c50 f i PxgCudaBroadPhaseSap.obj
 0001:00017c50       ?getNbOutOfBoundsObjects@BroadPhaseBase@Bp@physx@@UEBAIXZ 0000000180018c50 f i PxgCudaBroadPhaseSap.obj
 0001:00017c50       ?getOutOfBoundsObjects@BroadPhaseBase@Bp@physx@@UEBAPEBIXZ 0000000180018c50 f i PxgCudaBroadPhaseSap.obj
 0001:00017c50       ?addTetRigidAttachment@PxsSimulationController@physx@@UEAAIPEAVDeformableVolume@Dy@2@PEAVPxsRigidBody@2@AEBVPxNodeIndex@2@IAEBV?$PxVec4T@M@2@AEBV?$PxVec3T@M@2@PEAUPxConeLimitedConstraint@2@_N_N@Z 0000000180018c50 f i PxgSimulationController.obj
 0001:00017c50       ?addRigidAttachment@PxsSimulationController@physx@@UEAAIPEAVDeformableSurface@Dy@2@AEBVPxNodeIndex@2@PEAVPxsRigidBody@2@1IAEBV?$PxVec3T@M@2@PEAUPxConeLimitedConstraint@2@_N@Z 0000000180018c50 f i PxgSimulationController.obj
 0001:00017c50       ?getNbUnfrozenShapes@PxsSimulationController@physx@@UEAAIXZ 0000000180018c50 f i PxgSimulationController.obj
 0001:00017c50       ?getFrozenShapes@PxsSimulationController@physx@@UEAAPEAIXZ 0000000180018c50 f i PxgSimulationController.obj
 0001:00017c50       ?addTriRigidAttachment@PxsSimulationController@physx@@UEAAIPEAVDeformableSurface@Dy@2@PEAVPxsRigidBody@2@AEBVPxNodeIndex@2@IAEBV?$PxVec4T@M@2@AEBV?$PxVec3T@M@2@PEAUPxConeLimitedConstraint@2@_N@Z 0000000180018c50 f i PxgSimulationController.obj
 0001:00017c60       ?getType@PxgCudaBroadPhaseSap@physx@@UEBA?AW4Enum@PxBroadPhaseType@2@XZ 0000000180018c60 f i PxgCudaBroadPhaseSap.obj
 0001:00017c70       ?gpuDMABack@PxgCudaBroadPhaseSap@physx@@AEAAXAEBUPxgBroadPhaseDesc@2@@Z 0000000180018c70 f   PxgCudaBroadPhaseSap.obj
 0001:00017f50       ?gpuDMAUp@PxgCudaBroadPhaseSap@physx@@AEAAXAEBVBroadPhaseUpdateData@Bp@2@AEAUPxgBroadPhaseDesc@2@PEAUPxgRadixSortDesc@2@@Z 0000000180018f50 f   PxgCudaBroadPhaseSap.obj
 0001:00018660       ?initializeSapBoxKernel@PxgCudaBroadPhaseSap@physx@@AEAAXI_N@Z 0000000180019660 f   PxgCudaBroadPhaseSap.obj
 0001:00018820       ?preBroadPhase@PxgCudaBroadPhaseSap@physx@@UEAAXAEBVBroadPhaseUpdateData@Bp@2@@Z 0000000180019820 f   PxgCudaBroadPhaseSap.obj
 0001:00018a00       ?purgeDuplicateFoundPairs@PxgCudaBroadPhaseSap@physx@@QEAAXXZ 0000000180019a00 f   PxgCudaBroadPhaseSap.obj
 0001:00018a10       ?purgeDuplicateLostPairs@PxgCudaBroadPhaseSap@physx@@QEAAXXZ 0000000180019a10 f   PxgCudaBroadPhaseSap.obj
 0001:00018a20       ?purgeDuplicates@PxgCudaBroadPhaseSap@physx@@AEAAXAEAV?$PxArray@UPxgBroadPhasePair@physx@@VPxVirtualAllocator@2@@2@@Z 0000000180019a20 f   PxgCudaBroadPhaseSap.obj
 0001:00018ae0       ?recreate@?$PxArray@UPartitionIndexData@physx@@VPxVirtualAllocator@2@@physx@@IEAAXI@Z 0000000180019ae0 f i PxgConstraintPartition.obj
 0001:00018ae0       ?recreate@?$PxArray@_KVPxVirtualAllocator@physx@@@physx@@IEAAXI@Z 0000000180019ae0 f i PxgSimulationController.obj
 0001:00018ae0       ?recreate@?$PxArray@UPxgSolverBodySleepData@physx@@VPxVirtualAllocator@2@@physx@@IEAAXI@Z 0000000180019ae0 f i PxgContext.obj
 0001:00018ae0       ?recreate@?$PxArray@PEAVPxActor@physx@@VPxVirtualAllocator@2@@physx@@IEAAXI@Z 0000000180019ae0 f i PxgShapeManager.obj
 0001:00018ae0       ?recreate@?$PxArray@UPxBoundTransformUpdate@physx@@VPxVirtualAllocator@2@@physx@@IEAAXI@Z 0000000180019ae0 f i PxgSimulationCore.obj
 0001:00018ae0       ?recreate@?$PxArray@VPxNodeIndex@physx@@VPxVirtualAllocator@2@@physx@@IEAAXI@Z 0000000180019ae0 f i PxgShapeManager.obj
 0001:00018ae0       ?recreate@?$PxArray@UPxgBroadPhasePair@physx@@VPxVirtualAllocator@2@@physx@@IEAAXI@Z 0000000180019ae0 f i PxgCudaBroadPhaseSap.obj
 0001:00018ae0       ?recreate@?$PxArray@PEAVPxsContactManager@physx@@VPxVirtualAllocator@2@@physx@@IEAAXI@Z 0000000180019ae0 f i PxgNarrowphaseCore.obj
 0001:00018ae0       ?recreate@?$PxArray@PEBVShapeInteraction@Sc@physx@@VPxVirtualAllocator@3@@physx@@IEAAXI@Z 0000000180019ae0 f i PxgNarrowphaseCore.obj
 0001:00018ae0       ?recreate@?$PxArray@VArticulationJointCoreData@Dy@physx@@VPxVirtualAllocator@3@@physx@@IEAAXI@Z 0000000180019ae0 f i PxgSimulationController.obj
 0001:00018ae0       ?recreate@?$PxArray@UPxgSolverConstraintManagerConstants@physx@@VPxVirtualAllocator@2@@physx@@IEAAXI@Z 0000000180019ae0 f i PxgConstraintPartition.obj
 0001:00018b90       ?release@PxgCudaBroadPhaseSap@physx@@UEAAXXZ 0000000180019b90 f   PxgCudaBroadPhaseSap.obj
 0001:00018b90       ?destroy@PxgNphaseImplementationContext@physx@@UEAAXXZ 0000000180019b90 f   PxgNphaseImplementationContext.obj
 0001:00018bc0       ?copyContactData@PxsSimulationController@physx@@UEAA_NPEAXPEAIIPEAUCUevent_st@@2@Z 0000000180019bc0 f i PxgSimulationController.obj
 0001:00018bc0       ?getD6JointData@PxsSimulationController@physx@@UEBA_NPEAXPEBIW4Enum@PxD6JointGPUAPIReadType@2@IMPEAUCUevent_st@@3@Z 0000000180019bc0 f i PxgSimulationController.obj
 0001:00018bc0       ?setRigidDynamicData@PxsSimulationController@physx@@UEAA_NPEBXPEBIW4Enum@PxRigidDynamicGPUAPIWriteType@2@IPEAUCUevent_st@@3@Z 0000000180019bc0 f i PxgSimulationController.obj
 0001:00018bc0       ?getEnableOVDReadback@PxsSimulationController@physx@@UEBA_NXZ 0000000180019bc0 f i PxgSimulationController.obj
 0001:00018bc0       ?getEnableOVDCollisionReadback@PxsSimulationController@physx@@UEBA_NXZ 0000000180019bc0 f i PxgSimulationController.obj
 0001:00018bc0       ?hasDeformableVolumes@PxsSimulationController@physx@@UEBA_NXZ 0000000180019bc0 f i PxgSimulationController.obj
 0001:00018bc0       ?computeArticulationData@PxsSimulationController@physx@@UEAA_NPEAXPEBIW4Enum@PxArticulationGPUAPIComputeType@2@IPEAUCUevent_st@@3@Z 0000000180019bc0 f i PxgSimulationController.obj
 0001:00018bc0       ?hasDeformableSurfaces@PxsSimulationController@physx@@UEBA_NXZ 0000000180019bc0 f i PxgSimulationController.obj
 0001:00018bc0       ?getOutOfBoundsObjects@AABBManagerBase@Bp@physx@@UEAA_NAEAUOutOfBoundsData@123@@Z 0000000180019bc0 f i PxgAABBManager.obj
 0001:00018bc0       ?getArticulationData@PxsSimulationController@physx@@UEBA_NPEAXPEBIW4Enum@PxArticulationGPUAPIReadType@2@IPEAUCUevent_st@@3@Z 0000000180019bc0 f i PxgSimulationController.obj
 0001:00018bc0       ?evaluateSDFDistances@PxsSimulationController@physx@@UEAA_NPEAV?$PxVec4T@M@2@PEBIPEBV32@1IIPEAUCUevent_st@@3@Z 0000000180019bc0 f i PxgSimulationController.obj
 0001:00018bc0       ?setArticulationData@PxsSimulationController@physx@@UEAA_NPEBXPEBIW4Enum@PxArticulationGPUAPIWriteType@2@IPEAUCUevent_st@@3@Z 0000000180019bc0 f i PxgSimulationController.obj
 0001:00018bc0       ?getRigidDynamicData@PxsSimulationController@physx@@UEBA_NPEAXPEBIW4Enum@PxRigidDynamicGPUAPIReadType@2@IMPEAUCUevent_st@@3@Z 0000000180019bc0 f i PxgSimulationController.obj
 0001:00018bc0       ?removeRegion@BroadPhaseBase@Bp@physx@@UEAA_NI@Z 0000000180019bc0 f i PxgCudaBroadPhaseSap.obj
 0001:00018bc0       ?isHighPriority@PxBaseTask@physx@@UEBA_NXZ 0000000180019bc0 f i PxgAABBManager.obj
 0001:00018bd0       ?runRadixSort@PxgCudaBroadPhaseSap@physx@@AEAAXI_K@Z 0000000180019bd0 f   PxgCudaBroadPhaseSap.obj
 0001:00018dd0       ?sortBuffer@PxgCudaBroadPhaseSap@physx@@AEAAXPEAUPxgBroadPhasePair@2@I@Z 0000000180019dd0 f   PxgCudaBroadPhaseSap.obj
 0001:00018e00       ?update@PxgCudaBroadPhaseSap@physx@@UEAAXPEAVPxcScratchAllocator@2@AEBVBroadPhaseUpdateData@Bp@2@PEAVPxBaseTask@2@@Z 0000000180019e00 f   PxgCudaBroadPhaseSap.obj
 0001:00019c30       ?updateDescriptor@PxgCudaBroadPhaseSap@physx@@AEAAXAEAUPxgBroadPhaseDesc@2@@Z 000000018001ac30 f   PxgCudaBroadPhaseSap.obj
 0001:0001a270       ?updateRadixSortDesc@PxgCudaBroadPhaseSap@physx@@AEAAXPEAUPxgRadixSortDesc@2@@Z 000000018001b270 f   PxgCudaBroadPhaseSap.obj
 0001:0001a5b0       ?createPxgBroadphase@physx@@YAXXZ 000000018001b5b0 f   PxgBroadPhase.obj
 0001:0001a610       ??0PxgAABBManager@physx@@QEAA@PEAVPxgCudaKernelWranglerManager@1@PEAVPxCudaContextManager@1@PEAVPxgHeapMemoryAllocatorManager@1@AEBUPxGpuDynamicsMemoryConfig@1@AEAVBroadPhase@Bp@1@AEAVBoundsArray@71@AEAV?$PxArray@MVPxVirtualAllocator@physx@@@1@IIAEAVPxVirtualAllocator@1@_KW4Enum@PxPairFilteringMode@1@9@Z 000000018001b610 f   PxgAABBManager.obj
 0001:0001af00       ??1?$DeferredIDPoolBase@V?$PxArray@IV?$PxReflectionAllocator@I@physx@@@physx@@@Cm@physx@@QEAA@XZ 000000018001bf00 f i PxgAABBManager.obj
 0001:0001af80       ??1AABBManagerBase@Bp@physx@@UEAA@XZ 000000018001bf80 f i PxgAABBManager.obj
 0001:0001b1f0       ??1PxgAABBManager@physx@@UEAA@XZ 000000018001c1f0 f i PxgAABBManager.obj
 0001:0001b590       ??_EAABBManagerBase@Bp@physx@@UEAAPEAXI@Z 000000018001c590 f i PxgAABBManager.obj
 0001:0001b590       ??_GAABBManagerBase@Bp@physx@@UEAAPEAXI@Z 000000018001c590 f i PxgAABBManager.obj
 0001:0001b600       ??_GPxBaseTask@physx@@UEAAPEAXI@Z 000000018001c600 f i PxgAABBManager.obj
 0001:0001b600       ??_EPxBaseTask@physx@@UEAAPEAXI@Z 000000018001c600 f i PxgAABBManager.obj
 0001:0001b630       ??_EPxLightCpuTask@physx@@UEAAPEAXI@Z 000000018001c630 f i PxgAABBManager.obj
 0001:0001b630       ??_GPxLightCpuTask@physx@@UEAAPEAXI@Z 000000018001c630 f i PxgAABBManager.obj
 0001:0001b670       ??_EPxgAABBManager@physx@@UEAAPEAXI@Z 000000018001c670 f i PxgAABBManager.obj
 0001:0001b670       ??_GPxgAABBManager@physx@@UEAAPEAXI@Z 000000018001c670 f i PxgAABBManager.obj
 0001:0001b6e0       ??_EPxgGpuIntegrationTask@physx@@UEAAPEAXI@Z 000000018001c6e0 f i PxgContext.obj
 0001:0001b6e0       ??_GPxgCpuPreIntegrationTask@physx@@UEAAPEAXI@Z 000000018001c6e0 f i PxgContext.obj
 0001:0001b6e0       ??_EPxgGpuPrePrepTask@physx@@UEAAPEAXI@Z 000000018001c6e0 f i PxgContext.obj
 0001:0001b6e0       ??_EPxgPostCopyToShapeSimTask@physx@@UEAAPEAXI@Z 000000018001c6e0 f i PxgSimulationController.obj
 0001:0001b6e0       ??_EPxgPostSolveTask@physx@@UEAAPEAXI@Z 000000018001c6e0 f i PxgContext.obj
 0001:0001b6e0       ??_GPxgPostCopyToShapeSimTask@physx@@UEAAPEAXI@Z 000000018001c6e0 f i PxgSimulationController.obj
 0001:0001b6e0       ??_GPxgGpuPrePrepTask@physx@@UEAAPEAXI@Z 000000018001c6e0 f i PxgContext.obj
 0001:0001b6e0       ??_EPxgProcessLostPairTask@physx@@UEAAPEAXI@Z 000000018001c6e0 f i PxgAABBManager.obj
 0001:0001b6e0       ??_GPxgProcessLostPairTask@physx@@UEAAPEAXI@Z 000000018001c6e0 f i PxgAABBManager.obj
 0001:0001b6e0       ??_EPxgProcessFoundPairTask@physx@@UEAAPEAXI@Z 000000018001c6e0 f i PxgAABBManager.obj
 0001:0001b6e0       ??_GPxgPostSolveTask@physx@@UEAAPEAXI@Z 000000018001c6e0 f i PxgContext.obj
 0001:0001b6e0       ??_GPxgGpuIntegrationTask@physx@@UEAAPEAXI@Z 000000018001c6e0 f i PxgContext.obj
 0001:0001b6e0       ??_GPxgCpuPrepTask@physx@@UEAAPEAXI@Z 000000018001c6e0 f i PxgContext.obj
 0001:0001b6e0       ??_EPxgCpuPrepTask@physx@@UEAAPEAXI@Z 000000018001c6e0 f i PxgContext.obj
 0001:0001b6e0       ??_EPxgCpuPreIntegrationTask@physx@@UEAAPEAXI@Z 000000018001c6e0 f i PxgContext.obj
 0001:0001b6e0       ??_GPxgProcessFoundPairTask@physx@@UEAAPEAXI@Z 000000018001c6e0 f i PxgAABBManager.obj
 0001:0001b720       ?addBounds@PxgAABBManager@physx@@UEAA_NIMW4Enum@FilterGroup@Bp@2@PEAXIW43ElementType@52@I@Z 000000018001c720 f   PxgAABBManager.obj
 0001:0001ba00       ?addReference@PxLightCpuTask@physx@@UEAAXXZ 000000018001ca00 f i PxgAABBManager.obj
 0001:0001ba10       ?createAggregate@PxgAABBManager@physx@@UEAAIIW4Enum@FilterGroup@Bp@2@PEAXIII@Z 000000018001ca10 f   PxgAABBManager.obj
 0001:0001c100       ?destroy@PxgAABBManager@physx@@UEAAXXZ 000000018001d100 f   PxgAABBManager.obj
 0001:0001c2c0       ?destroyAggregate@PxgAABBManager@physx@@UEAA_NAEAIAEAW4Enum@FilterGroup@Bp@2@I@Z 000000018001d2c0 f   PxgAABBManager.obj
 0001:0001c480       ?extend@?$PxBitMapBase@VPxVirtualAllocator@physx@@@physx@@IEAAXI@Z 000000018001d480 f i PxgAABBManager.obj
 0001:0001c550       ?getName@PxgProcessFoundPairTask@physx@@UEBAPEBDXZ 000000018001d550 f i PxgAABBManager.obj
 0001:0001c560       ?getName@PxgProcessLostPairTask@physx@@UEBAPEBDXZ 000000018001d560 f i PxgAABBManager.obj
 0001:0001c570       ?getReference@PxLightCpuTask@physx@@UEBAHXZ 000000018001d570 f i PxgAABBManager.obj
 0001:0001c580       ?gpuDmaDataUp@PxgAABBManager@physx@@AEAAXXZ 000000018001d580 f   PxgAABBManager.obj
 0001:0001cc70       ?growAndPushBack@?$PxArray@IV?$PxReflectionAllocator@I@physx@@@physx@@IEAAAEAIAEBI@Z 000000018001dc70 f i PxgAABBManager.obj
 0001:0001cd90       ?growAndPushBack@?$PxArray@IVPxVirtualAllocator@physx@@@physx@@IEAAAEAIAEBI@Z 000000018001dd90 f i PxgAABBManager.obj
 0001:0001ce70       ?growAndPushBack@?$PxArray@UAABBOverlap@Bp@physx@@V?$PxReflectionAllocator@UAABBOverlap@Bp@physx@@@3@@physx@@IEAAAEAUAABBOverlap@Bp@2@AEBU342@@Z 000000018001de70 f i PxgAABBManager.obj
 0001:0001cfa0       ?growAndPushBack@?$PxArray@W4Enum@FilterGroup@Bp@physx@@V?$PxReflectionAllocator@W4Enum@FilterGroup@Bp@physx@@@4@@physx@@IEAAAEAW4Enum@FilterGroup@Bp@2@AEBW43452@@Z 000000018001dfa0 f i PxgAABBManager.obj
 0001:0001d0c0       ?growAndSet@?$PxBitMapBase@VPxAllocator@physx@@@physx@@QEAAXI@Z 000000018001e0c0 f i PxgAABBManager.obj
 0001:0001d1e0       ?growAndSet@?$PxBitMapBase@VPxVirtualAllocator@physx@@@physx@@QEAAXI@Z 000000018001e1e0 f i PxgAABBManager.obj
 0001:0001d2d0       ?postBroadPhase@PxgAABBManager@physx@@UEAAXPEAVPxBaseTask@2@AEAVFlushPool@Cm@2@@Z 000000018001e2d0 f   PxgAABBManager.obj
 0001:0001d530       ?preBpUpdate_GPU@PxgAABBManager@physx@@AEAAXXZ 000000018001e530 f   PxgAABBManager.obj
 0001:0001d880       ?processFoundPairs@PxgAABBManager@physx@@QEAAXXZ 000000018001e880 f   PxgAABBManager.obj
 0001:0001dbe0       ?processLostPairs@PxgAABBManager@physx@@QEAAXXZ 000000018001ebe0 f   PxgAABBManager.obj
 0001:0001de80       ?reallocateChangedAABBMgActorHandleMap@PxgAABBManager@physx@@UEAAXI@Z 000000018001ee80 f   PxgAABBManager.obj
 0001:0001df40       ?recreate@?$PxArray@UPxsContactManagerOutputCounts@physx@@VPxVirtualAllocator@2@@physx@@IEAAXI@Z 000000018001ef40 f i PxgNarrowphaseCore.obj
 0001:0001df40       ?recreate@?$PxArray@VPxgConstraintIdMapEntry@physx@@VPxVirtualAllocator@2@@physx@@IEAAXI@Z 000000018001ef40 f i PxgJointManager.obj
 0001:0001df40       ?recreate@?$PxArray@IVPxVirtualAllocator@physx@@@physx@@IEAAXI@Z 000000018001ef40 f i PxgAABBManager.obj
 0001:0001df40       ?recreate@?$PxArray@W4Enum@FilterGroup@Bp@physx@@VPxVirtualAllocator@4@@physx@@IEAAXI@Z 000000018001ef40 f i BpAABBManagerBase.obj
 0001:0001dfe0       ?recreate@?$PxArray@PEAVPxgAggregateBuffer@physx@@V?$PxReflectionAllocator@PEAVPxgAggregateBuffer@physx@@@2@@physx@@IEAAXI@Z 000000018001efe0 f i PxgAABBManager.obj
 0001:0001e0d0       ?recreate@?$PxArray@UAABBOverlap@Bp@physx@@V?$PxReflectionAllocator@UAABBOverlap@Bp@physx@@@3@@physx@@IEAAXI@Z 000000018001f0d0 f i PxgAABBManager.obj
 0001:0001e1e0       ?recreate@?$PxArray@UPxgAggregate@physx@@V?$PxReflectionAllocator@UPxgAggregate@physx@@@2@@physx@@IEAAXI@Z 000000018001f1e0 f i PxgAABBManager.obj
 0001:0001e330       ?recreate@?$PxArray@UPxgAggregate@physx@@VPxVirtualAllocator@2@@physx@@IEAAXI@Z 000000018001f330 f i PxgAABBManager.obj
 0001:0001e420       ?recreate@?$PxArray@UErrorAccumulator@Dy@physx@@VPxVirtualAllocator@3@@physx@@IEAAXI@Z 000000018001f420 f i PxgCudaSolverCore.obj
 0001:0001e420       ?recreate@?$PxArray@UPxgAggregatePair@physx@@VPxVirtualAllocator@2@@physx@@IEAAXI@Z 000000018001f420 f i PxgAABBManager.obj
 0001:0001e4d0       ?release@PxLightCpuTask@physx@@UEAAXXZ 000000018001f4d0 f i PxgAABBManager.obj
 0001:0001e4f0       ?releaseDeferredAggregateIds@PxgAABBManager@physx@@UEAAXXZ 000000018001f4f0 f   PxgAABBManager.obj
 0001:0001e610       ?removeBounds@PxgAABBManager@physx@@UEAA_NI@Z 000000018001f610 f   PxgAABBManager.obj
 0001:0001e9d0       ?removeReference@PxLightCpuTask@physx@@UEAAXXZ 000000018001f9d0 f i PxgAABBManager.obj
 0001:0001e9f0       ?resize@?$PxArray@IVPxVirtualAllocator@physx@@@physx@@QEAAXIAEBI@Z 000000018001f9f0 f i PxgAABBManager.obj
 0001:0001eab0       ?resize@?$PxArray@PEAVPxgAggregateBuffer@physx@@V?$PxReflectionAllocator@PEAVPxgAggregateBuffer@physx@@@2@@physx@@QEAAXIAEBQEAVPxgAggregateBuffer@2@@Z 000000018001fab0 f i PxgAABBManager.obj
 0001:0001eb70       ?resize@?$PxArray@UAABBOverlap@Bp@physx@@V?$PxReflectionAllocator@UAABBOverlap@Bp@physx@@@3@@physx@@QEAAXIAEBUAABBOverlap@Bp@2@@Z 000000018001fb70 f i PxgAABBManager.obj
 0001:0001ebf0       ?resize@?$PxArray@UPxgAggregate@physx@@V?$PxReflectionAllocator@UPxgAggregate@physx@@@2@@physx@@QEAAXIAEBUPxgAggregate@2@@Z 000000018001fbf0 f i PxgAABBManager.obj
 0001:0001ecb0       ?resize@?$PxArray@UPxgAggregatePair@physx@@VPxVirtualAllocator@2@@physx@@QEAAXIAEBUPxgAggregatePair@2@@Z 000000018001fcb0 f i PxgAABBManager.obj
 0001:0001ecb0       ?resize@?$PxArray@UErrorAccumulator@Dy@physx@@VPxVirtualAllocator@3@@physx@@QEAAXIAEBUErrorAccumulator@Dy@2@@Z 000000018001fcb0 f i PxgCudaSolverCore.obj
 0001:0001ed30       ?run@Task@Cm@physx@@UEAAXXZ 000000018001fd30 f i PxgAABBManager.obj
 0001:0001ed70       ?runInternal@PxgProcessFoundPairTask@physx@@UEAAXXZ 000000018001fd70 f   PxgAABBManager.obj
 0001:0001ed80       ?runInternal@PxgProcessLostPairTask@physx@@UEAAXXZ 000000018001fd80 f   PxgAABBManager.obj
 0001:0001ed90       ?setGPUStateChanged@PxgAABBManager@physx@@UEAAXXZ 000000018001fd90 f i PxgAABBManager.obj
 0001:0001eda0       ?setPersistentStateChanged@PxgAABBManager@physx@@UEAAXXZ 000000018001fda0 f i PxgAABBManager.obj
 0001:0001edb0       ?updateBPFirstPass@PxgAABBManager@physx@@UEAAXIAEAVFlushPool@Cm@2@_NPEAVPxBaseTask@2@@Z 000000018001fdb0 f   PxgAABBManager.obj
 0001:0001f240       ?updateBPSecondPass@PxgAABBManager@physx@@UEAAXPEAVPxcScratchAllocator@2@PEAVPxBaseTask@2@@Z 0000000180020240 f   PxgAABBManager.obj
 0001:0001fd90       ?updateDescriptor@PxgAABBManager@physx@@AEAAXPEAUCUstream_st@@@Z 0000000180020d90 f   PxgAABBManager.obj
 0001:00020000       initCommonKernels0         0000000180021000 f   MemCopyBalanced.obj
 0001:00020010       MemCopyBalanced            0000000180021010 f   MemCopyBalanced.obj
 0001:000200e0       clampMaxValue              00000001800210e0 f   MemCopyBalanced.obj
 0001:000201b0       clampMaxValues             00000001800211b0 f   MemCopyBalanced.obj
 0001:000202f0       ?__device_stub__Z15MemCopyBalancedPN5physx14PxgCopyManager8CopyDescEj@@YAXPEIAUCopyDesc@PxgCopyManager@physx@@I@Z 00000001800212f0 f   MemCopyBalanced.obj
 0001:000203c0       ?__device_stub__Z13clampMaxValuePjj@@YAXPEAII@Z 00000001800213c0 f   MemCopyBalanced.obj
 0001:00020490       ?__device_stub__Z14clampMaxValuesPjS_S_j@@YAXPEAI00I@Z 0000000180021490 f   MemCopyBalanced.obj
 0001:00020830       initCommonKernels1         0000000180021830 f   radixSortImpl.obj
 0001:00020840       radixSortMultiBlockLaunch  0000000180021840 f   radixSortImpl.obj
 0001:00020910       radixSortMultiCalculateRanksLaunch 0000000180021910 f   radixSortImpl.obj
 0001:000209e0       radixSortMultiBlockLaunchWithoutCount 00000001800219e0 f   radixSortImpl.obj
 0001:00020ab0       radixSortMultiCalculateRanksLaunchWithoutCount 0000000180021ab0 f   radixSortImpl.obj
 0001:00020b80       radixSortMultiBlockLaunchWithCount 0000000180021b80 f   radixSortImpl.obj
 0001:00020c80       radixSortMultiCalculateRanksLaunchWithCount 0000000180021c80 f   radixSortImpl.obj
 0001:00020d80       radixSortCopyHigh32Bits    0000000180021d80 f   radixSortImpl.obj
 0001:00020e90       radixSortDoubleCopyHigh32Bits 0000000180021e90 f   radixSortImpl.obj
 0001:00020fe0       radixSortCopy              0000000180021fe0 f   radixSortImpl.obj
 0001:000210f0       radixSortDoubleCopy        00000001800220f0 f   radixSortImpl.obj
 0001:00021240       radixSortCopyBits2         0000000180022240 f   radixSortImpl.obj
 0001:00021360       radixSortCopy2             0000000180022360 f   radixSortImpl.obj
 0001:000214a0       ?__device_stub__Z25radixSortMultiBlockLaunchPN5physx21PxgRadixSortBlockDescEj@@YAXPEAUPxgRadixSortBlockDesc@physx@@I@Z 00000001800224a0 f   radixSortImpl.obj
 0001:00021570       ?__device_stub__Z34radixSortMultiCalculateRanksLaunchPN5physx21PxgRadixSortBlockDescEj@@YAXPEAUPxgRadixSortBlockDesc@physx@@I@Z 0000000180022570 f   radixSortImpl.obj
 0001:00021640       ?__device_stub__Z37radixSortMultiBlockLaunchWithoutCountPN5physx16PxgRadixSortDescEj@@YAXPEAUPxgRadixSortDesc@physx@@I@Z 0000000180022640 f   radixSortImpl.obj
 0001:00021710       ?__device_stub__Z46radixSortMultiCalculateRanksLaunchWithoutCountPN5physx16PxgRadixSortDescEj@@YAXPEAUPxgRadixSortDesc@physx@@I@Z 0000000180022710 f   radixSortImpl.obj
 0001:000217e0       ?__device_stub__Z34radixSortMultiBlockLaunchWithCountPN5physx16PxgRadixSortDescEjj@@YAXPEAUPxgRadixSortDesc@physx@@II@Z 00000001800227e0 f   radixSortImpl.obj
 0001:000218e0       ?__device_stub__Z43radixSortMultiCalculateRanksLaunchWithCountPN5physx16PxgRadixSortDescEjj@@YAXPEAUPxgRadixSortDesc@physx@@II@Z 00000001800228e0 f   radixSortImpl.obj
 0001:000219e0       ?__device_stub__Z23radixSortCopyHigh32BitsPKyPjS1_PKj@@YAXPEB_KPEAI1PEBI@Z 00000001800229e0 f   radixSortImpl.obj
 0001:00021af0       ?__device_stub__Z29radixSortDoubleCopyHigh32BitsPKyPjS1_S0_S1_S1_PKj@@YAXPEB_KPEAI1011PEBI@Z 0000000180022af0 f   radixSortImpl.obj
 0001:00021c10       ?__device_stub__Z13radixSortCopyPKyPyPjPKj@@YAXPEB_KPEA_KPEAIPEBI@Z 0000000180022c10 f   radixSortImpl.obj
 0001:00021d20       ?__device_stub__Z19radixSortDoubleCopyPKyPyPjS0_S1_S2_PKj@@YAXPEB_KPEA_KPEAI012PEBI@Z 0000000180022d20 f   radixSortImpl.obj
 0001:00021e40       ?__device_stub__Z18radixSortCopyBits2PKyPjS1_jb@@YAXPEB_KPEAI1I_N@Z 0000000180022e40 f   radixSortImpl.obj
 0001:00021f50       ?__device_stub__Z14radixSortCopy2PKyPyPjj@@YAXPEB_KPEA_KPEAII@Z 0000000180022f50 f   radixSortImpl.obj
 0001:00022440       initCommonKernels2         0000000180023440 f   utility.obj
 0001:00022450       interleaveBuffers          0000000180023450 f   utility.obj
 0001:00022560       normalVectorsAreaWeighted  0000000180023560 f   utility.obj
 0001:00022620       zeroNormals                0000000180023620 f   utility.obj
 0001:000226e0       normalizeNormals           00000001800236e0 f   utility.obj
 0001:000227a0       interpolateSkinnedClothVertices 00000001800237a0 f   utility.obj
 0001:00022860       interpolateSkinnedSoftBodyVertices 0000000180023860 f   utility.obj
 0001:00022950       ?__device_stub__Z17interleaveBuffersPK6float4S1_jPN5physx7PxVec3TIfEE@@YAXPEIBUfloat4@@0IPEAV?$PxVec3T@M@physx@@@Z 0000000180023950 f   utility.obj
 0001:00022a60       ?__device_stub__Z25normalVectorsAreaWeightedPN5physx24PxTrimeshSkinningGpuDataE@@YAXPEAUPxTrimeshSkinningGpuData@physx@@@Z 0000000180023a60 f   utility.obj
 0001:00022b20       ?__device_stub__Z11zeroNormalsPN5physx24PxTrimeshSkinningGpuDataE@@YAXPEAUPxTrimeshSkinningGpuData@physx@@@Z 0000000180023b20 f   utility.obj
 0001:00022be0       ?__device_stub__Z16normalizeNormalsPN5physx24PxTrimeshSkinningGpuDataE@@YAXPEAUPxTrimeshSkinningGpuData@physx@@@Z 0000000180023be0 f   utility.obj
 0001:00022ca0       ?__device_stub__Z31interpolateSkinnedClothVerticesPN5physx24PxTrimeshSkinningGpuDataE@@YAXPEAUPxTrimeshSkinningGpuData@physx@@@Z 0000000180023ca0 f   utility.obj
 0001:00022d60       ?__device_stub__Z34interpolateSkinnedSoftBodyVerticesPN5physx24PxTetmeshSkinningGpuDataE@@YAXPEAUPxTetmeshSkinningGpuData@physx@@@Z 0000000180023d60 f   utility.obj
 0001:000231f0       ??0PxgCopyManager@physx@@QEAA@PEAVPxgHeapMemoryAllocatorManager@1@@Z 00000001800241f0 f   PxgCopyManager.obj
 0001:00023230       ?createFinishedEvent@PxgCopyManager@physx@@QEAAXPEAVPxCudaContext@2@@Z 0000000180024230 f   PxgCopyManager.obj
 0001:00023260       ?destroyFinishedEvent@PxgCopyManager@physx@@QEAAXPEAVPxCudaContext@2@@Z 0000000180024260 f   PxgCopyManager.obj
 0001:00023290       ?dispatchCopy@PxgCopyManager@physx@@QEAAXPEAUCUstream_st@@PEAVPxCudaContextManager@2@PEAVKernelWrangler@2@@Z 0000000180024290 f   PxgCopyManager.obj
 0001:00023440       ?pushDeferredHtoD@PxgCopyManager@physx@@QEAAXAEBUCopyDesc@12@@Z 0000000180024440 f   PxgCopyManager.obj
 0001:000234c0       ?recreate@?$PxArray@EVPxVirtualAllocator@physx@@@physx@@IEAAXI@Z 00000001800244c0 f i PxgCopyManager.obj
 0001:00023560       ?resize@?$PxArray@EVPxVirtualAllocator@physx@@@physx@@QEAAXIAEBE@Z 0000000180024560 f i PxgCopyManager.obj
 0001:00023620       ?waitAndReset@PxgCopyManager@physx@@QEAAXPEAVPxCudaContext@2@@Z 0000000180024620 f   PxgCopyManager.obj
 0001:00023670       printf                     0000000180024670 f i PxgCopyManager.obj
 0001:000236d0       ??1PxgCudaBuffer@physx@@QEAA@XZ 00000001800246d0 f   PxgCudaBuffer.obj
 0001:000236d0       ?deallocate@PxgCudaBuffer@physx@@QEAAXXZ 00000001800246d0 f   PxgCudaBuffer.obj
 0001:00023710       ?allocate@PxgCudaBuffer@physx@@QEAAX_KPEBDH@Z 0000000180024710 f   PxgCudaBuffer.obj
 0001:000237a0       ?allocateCopyOldDataAsync@PxgCudaBuffer@physx@@QEAAX_KPEAVPxCudaContext@2@PEAUCUstream_st@@PEBDH@Z 00000001800247a0 f   PxgCudaBuffer.obj
 0001:00023860       ??0PxgPinnedHostLinearMemoryAllocator@physx@@QEAA@PEAVPxCudaContextManager@1@_K@Z 0000000180024860 f   PxgCudaMemoryAllocator.obj
 0001:00023910       ??1PxgPinnedHostLinearMemoryAllocator@physx@@QEAA@XZ 0000000180024910 f   PxgCudaMemoryAllocator.obj
 0001:00023940       ?PxgCudaDeviceMemoryAllocate@physx@@YAPEAXAEAVPxCudaContext@1@_KPEBDH@Z 0000000180024940 f   PxgCudaMemoryAllocator.obj
 0001:00023a70       ?PxgCudaDeviceMemoryDeallocate@physx@@YAXAEAVPxCudaContext@1@PEAX@Z 0000000180024a70 f   PxgCudaMemoryAllocator.obj
 0001:00023b40       ?PxgPinnedMemoryAllocate@physx@@YAPEAXAEAVPxCudaContext@1@_KPEBDH@Z 0000000180024b40 f   PxgCudaMemoryAllocator.obj
 0001:00023bc0       ?PxgPinnedMemoryDeallocate@physx@@YAXAEAVPxCudaContext@1@PEAX@Z 0000000180024bc0 f   PxgCudaMemoryAllocator.obj
 0001:00023be0       ?allocate@PxgPinnedHostLinearMemoryAllocator@physx@@QEAAPEAX_K0@Z 0000000180024be0 f   PxgCudaMemoryAllocator.obj
 0001:00023c90       ?reserveAndGrow@PxgPinnedHostLinearMemoryAllocator@physx@@QEAAX_K@Z 0000000180024c90 f   PxgCudaMemoryAllocator.obj
 0001:00023df0       ?reset@PxgPinnedHostLinearMemoryAllocator@physx@@QEAAXXZ 0000000180024df0 f   PxgCudaMemoryAllocator.obj
 0001:00023e00       ??$PxSort@PEAXU?$PxLess@PEAX@physx@@V?$PxReflectionAllocator@VBlockHeader@physx@@@2@@physx@@YAXPEAPEAXIAEBU?$PxLess@PEAX@0@AEBV?$PxReflectionAllocator@VBlockHeader@physx@@@0@I@Z 0000000180024e00 f i PxgHeapMemoryAllocator.obj
 0001:00024250       ??0PxgHeapMemoryAllocator@physx@@QEAA@IPEAVPxVirtualAllocatorCallback@1@@Z 0000000180025250 f   PxgHeapMemoryAllocator.obj
 0001:000244d0       ??0PxgHeapMemoryAllocatorManager@physx@@QEAA@IPEAVPxsMemoryManager@1@@Z 00000001800254d0 f   PxgHeapMemoryAllocator.obj
 0001:00024610       ??1?$PxPoolBase@VBlockHeader@physx@@V?$PxReflectionAllocator@VBlockHeader@physx@@@2@@physx@@QEAA@XZ 0000000180025610 f i PxgHeapMemoryAllocator.obj
 0001:00024770       ??1PxgHeapMemoryAllocator@physx@@UEAA@XZ 0000000180025770 f   PxgHeapMemoryAllocator.obj
 0001:00024930       ??_EPxVirtualAllocatorCallback@physx@@UEAAPEAXI@Z 0000000180025930 f i PxgHeapMemoryAllocator.obj
 0001:00024930       ??_GPxVirtualAllocatorCallback@physx@@UEAAPEAXI@Z 0000000180025930 f i PxgHeapMemoryAllocator.obj
 0001:00024960       ??_GPxgHeapMemoryAllocator@physx@@UEAAPEAXI@Z 0000000180025960 f i PxgHeapMemoryAllocator.obj
 0001:00024960       ??_EPxgHeapMemoryAllocator@physx@@UEAAPEAXI@Z 0000000180025960 f i PxgHeapMemoryAllocator.obj
 0001:000249d0       ??_EPxgHeapMemoryAllocatorManager@physx@@UEAAPEAXI@Z 00000001800259d0 f i PxgHeapMemoryAllocator.obj
 0001:000249d0       ??_GPxgHeapMemoryAllocatorManager@physx@@UEAAPEAXI@Z 00000001800259d0 f i PxgHeapMemoryAllocator.obj
 0001:00024a80       ??_EPxsHeapMemoryAllocatorManager@physx@@UEAAPEAXI@Z 0000000180025a80 f i PxgHeapMemoryAllocator.obj
 0001:00024a80       ??_GPxsHeapMemoryAllocatorManager@physx@@UEAAPEAXI@Z 0000000180025a80 f i PxgHeapMemoryAllocator.obj
 0001:00024ad0       ?allocate@PxgHeapMemoryAllocator@physx@@UEAAPEAX_KHPEBDH@Z 0000000180025ad0 f   PxgHeapMemoryAllocator.obj
 0001:00024e60       ?create@?$PxHashBase@V?$PxPair@QEAXVAllocationValue@physx@@@physx@@PEAXU?$PxHash@PEAX@2@UGetKey@?$PxHashMapBase@PEAXVAllocationValue@physx@@U?$PxHash@PEAX@2@VPxAllocator@2@@2@VPxAllocator@2@$00@physx@@QEAAPEAV?$PxPair@QEAXVAllocationValue@physx@@@2@AEBQEAXAEA_N@Z 0000000180025e60 f i PxgHeapMemoryAllocator.obj
 0001:00025000       ?deallocate@PxgHeapMemoryAllocator@physx@@UEAAXPEAX@Z 0000000180026000 f   PxgHeapMemoryAllocator.obj
 0001:00025250       ?deallocateDeferred@PxgHeapMemoryAllocator@physx@@QEAAXPEAX@Z 0000000180026250 f   PxgHeapMemoryAllocator.obj
 0001:00025290       ?erase@?$PxHashBase@V?$PxPair@QEAXVAllocationValue@physx@@@physx@@PEAXU?$PxHash@PEAX@2@UGetKey@?$PxHashMapBase@PEAXVAllocationValue@physx@@U?$PxHash@PEAX@2@VPxAllocator@2@@2@VPxAllocator@2@$00@physx@@QEAA_NAEBQEAX@Z 0000000180026290 f i PxgHeapMemoryAllocator.obj
 0001:00025440       ?flushDeferredDeallocs@PxgHeapMemoryAllocatorManager@physx@@UEAAXXZ 0000000180026440 f   PxgHeapMemoryAllocator.obj
 0001:000254a0       ?getDeviceHeapStats@PxgHeapMemoryAllocatorManager@physx@@UEBA?AUPxsHeapStats@2@XZ 00000001800264a0 f   PxgHeapMemoryAllocator.obj
 0001:00025520       ?getDeviceMemorySize@PxgHeapMemoryAllocatorManager@physx@@UEBA_KXZ 0000000180026520 f   PxgHeapMemoryAllocator.obj
 0001:00025540       ?getNextFreeBlock@PxgHeapMemoryAllocator@physx@@QEAAIIIPEBDH@Z 0000000180026540 f   PxgHeapMemoryAllocator.obj
 0001:000256c0       ?growAndPushBack@?$PxArray@PEAXV?$PxReflectionAllocator@PEAX@physx@@@physx@@IEAAAEAPEAXAEBQEAX@Z 00000001800266c0 f i PxgHeapMemoryAllocator.obj
 0001:000257e0       ?growAndPushBack@?$PxArray@PEAXV?$PxReflectionAllocator@VBlockHeader@physx@@@physx@@@physx@@IEAAAEAPEAXAEBQEAX@Z 00000001800267e0 f i PxgHeapMemoryAllocator.obj
 0001:00025900       ?growAndPushBack@?$PxArray@UExceptionalAlloc@physx@@V?$PxReflectionAllocator@UExceptionalAlloc@physx@@@2@@physx@@IEAAAEAUExceptionalAlloc@2@AEBU32@@Z 0000000180026900 f i PxgHeapMemoryAllocator.obj
 0001:00025a20       ?insertBlockHeader@Block@physx@@QEAAXIIAEAV?$PxPool@VBlockHeader@physx@@V?$PxReflectionAllocator@VBlockHeader@physx@@@2@@2@@Z 0000000180026a20 f   PxgHeapMemoryAllocator.obj
 0001:00025bd0       ?recreate@?$PxArray@PEAXV?$PxReflectionAllocator@VBlockHeader@physx@@@physx@@@physx@@IEAAXI@Z 0000000180026bd0 f i PxgHeapMemoryAllocator.obj
 0001:00025cc0       ?recreate@?$PxArray@VBlock@physx@@V?$PxReflectionAllocator@VBlock@physx@@@2@@physx@@IEAAXI@Z 0000000180026cc0 f i PxgHeapMemoryAllocator.obj
 0001:00025dc0       ?removeBlockHeader@Block@physx@@QEAAXPEAVBlockHeader@2@AEAV?$PxPool@VBlockHeader@physx@@V?$PxReflectionAllocator@VBlockHeader@physx@@@2@@2@@Z 0000000180026dc0 f   PxgHeapMemoryAllocator.obj
 0001:00025e10       ?reserveInternal@?$PxHashBase@V?$PxPair@QEAXVAllocationValue@physx@@@physx@@PEAXU?$PxHash@PEAX@2@UGetKey@?$PxHashMapBase@PEAXVAllocationValue@physx@@U?$PxHash@PEAX@2@VPxAllocator@2@@2@VPxAllocator@2@$00@physx@@AEAAXI@Z 0000000180026e10 f i PxgHeapMemoryAllocator.obj
 0001:00026010       ?resize@?$PxArray@VBlock@physx@@V?$PxReflectionAllocator@VBlock@physx@@@2@@physx@@QEAAXIAEBVBlock@2@@Z 0000000180027010 f i PxgHeapMemoryAllocator.obj
 0001:00026080       ??0PxgCudaKernelWranglerManager@physx@@QEAA@AEAVPxCudaContextManager@1@AEAVPxErrorCallback@1@@Z 0000000180027080 f   PxgKernelWrangler.obj
 0001:00026140       ??1PxgCudaKernelWranglerManager@physx@@QEAA@XZ 0000000180027140 f   PxgKernelWrangler.obj
 0001:00026170       ??_EPxgCudaAllocatorCallbackBase@physx@@UEAAPEAXI@Z 0000000180027170 f i PxgMemoryManager.obj
 0001:00026170       ??_GPxgCudaAllocatorCallbackBase@physx@@UEAAPEAXI@Z 0000000180027170 f i PxgMemoryManager.obj
 0001:00026270       ??_GPxsMemoryManager@physx@@UEAAPEAXI@Z 0000000180027270 f i PxgMemoryManager.obj
 0001:00026270       ??_EPxsMemoryManager@physx@@UEAAPEAXI@Z 0000000180027270 f i PxgMemoryManager.obj
 0001:000263a0       ?createPxgMemoryManager@physx@@YAPEAVPxsMemoryManager@1@PEAVPxCudaContextManager@1@@Z 00000001800273a0 f   PxgMemoryManager.obj
 0001:00026540       ?createPxgCommon@physx@@YAXXZ 0000000180027540 f   PxgCommon.obj
 0001:00026560       ??0CudaCtxMgr@physx@@QEAA@AEBVPxCudaContextManagerDesc@1@AEAVPxErrorCallback@1@_N@Z 0000000180027560 f   CudaContextManager.obj
 0001:00026b90       ??_ECudaCtx@physx@@UEAAPEAXI@Z 0000000180027b90 f i CudaContextManager.obj
 0001:00026b90       ??_GCudaCtx@physx@@UEAAPEAXI@Z 0000000180027b90 f i CudaContextManager.obj
 0001:00026be0       ??_ECudaCtxMgr@physx@@UEAAPEAXI@Z 0000000180027be0 f i CudaContextManager.obj
 0001:00026be0       ??_GCudaCtxMgr@physx@@UEAAPEAXI@Z 0000000180027be0 f i CudaContextManager.obj
 0001:00026d70       ??_EPxCudaContext@physx@@MEAAPEAXI@Z 0000000180027d70 f i CudaContextManager.obj
 0001:00026d70       ??_GPxCudaContext@physx@@MEAAPEAXI@Z 0000000180027d70 f i CudaContextManager.obj
 0001:00026da0       ??_EPxCudaContextManager@physx@@MEAAPEAXI@Z 0000000180027da0 f i CudaContextManager.obj
 0001:00026da0       ??_GPxCudaContextManager@physx@@MEAAPEAXI@Z 0000000180027da0 f i CudaContextManager.obj
 0001:00026dd0       ??_GPxErrorCallback@physx@@UEAAPEAXI@Z 0000000180027dd0 f i CudaContextManager.obj
 0001:00026dd0       ??_EPxErrorCallback@physx@@UEAAPEAXI@Z 0000000180027dd0 f i CudaContextManager.obj
 0001:00026e00       ?acquireContext@CudaCtxMgr@physx@@UEAAXXZ 0000000180027e00 f   CudaContextManager.obj
 0001:00026e10       ?allocDeviceBufferInternal@CudaCtxMgr@physx@@MEAAPEAX_KPEBDH@Z 0000000180027e10 f   CudaContextManager.obj
 0001:00026eb0       ?allocPinnedHostBufferInternal@CudaCtxMgr@physx@@MEAAPEAX_KPEBDH@Z 0000000180027eb0 f   CudaContextManager.obj
 0001:00026f50       ?canMapHostMemory@CudaCtxMgr@physx@@UEBA_NXZ 0000000180027f50 f   CudaContextManager.obj
 0001:00026f70       ?clearDeviceBufferAsyncInternal@CudaCtxMgr@physx@@MEAAXPEAXIPEAUCUstream_st@@H@Z 0000000180027f70 f   CudaContextManager.obj
 0001:00027030       ?contextIsValid@CudaCtxMgr@physx@@UEBA_NXZ 0000000180028030 f   CudaContextManager.obj
 0001:00027030       ?supportsArchSM10@CudaCtxMgr@physx@@UEBA_NXZ 0000000180028030 f   CudaContextManager.obj
 0001:00027040       ?copyDToDAsyncInternal@CudaCtxMgr@physx@@MEAAXPEAXPEBXIPEAUCUstream_st@@@Z 0000000180028040 f   CudaContextManager.obj
 0001:00027100       ?copyDToHAsyncInternal@CudaCtxMgr@physx@@MEAAXPEAXPEBXIPEAUCUstream_st@@@Z 0000000180028100 f   CudaContextManager.obj
 0001:000271c0       ?copyDToHInternal@CudaCtxMgr@physx@@MEAAXPEAXPEBXI@Z 00000001800281c0 f   CudaContextManager.obj
 0001:00027280       ?copyHToDAsyncInternal@CudaCtxMgr@physx@@MEAAXPEAXPEBXIPEAUCUstream_st@@@Z 0000000180028280 f   CudaContextManager.obj
 0001:00027340       ?copyHToDInternal@CudaCtxMgr@physx@@MEAAXPEAXPEBXI@Z 0000000180028340 f   CudaContextManager.obj
 0001:00027400       ?createCudaContextManager@physx@@YAPEAVPxCudaContextManager@1@AEBVPxCudaContextManagerDesc@1@AEAVPxErrorCallback@1@_N@Z 0000000180028400 f   CudaContextManager.obj
 0001:000274a0       ?eventCreate@CudaCtx@physx@@UEAA?AU?$PxCUenum@W4cudaError_enum@@@2@PEAPEAUCUevent_st@@I@Z 00000001800284a0 f   CudaContextManager.obj
 0001:000274f0       ?eventDestroy@CudaCtx@physx@@UEAA?AU?$PxCUenum@W4cudaError_enum@@@2@PEAUCUevent_st@@@Z 00000001800284f0 f   CudaContextManager.obj
 0001:00027520       ?eventQuery@CudaCtx@physx@@UEAA?AU?$PxCUenum@W4cudaError_enum@@@2@PEAUCUevent_st@@@Z 0000000180028520 f   CudaContextManager.obj
 0001:00027570       ?eventRecord@CudaCtx@physx@@UEAA?AU?$PxCUenum@W4cudaError_enum@@@2@PEAUCUevent_st@@PEAUCUstream_st@@@Z 0000000180028570 f   CudaContextManager.obj
 0001:000275c0       ?eventSynchronize@CudaCtx@physx@@UEAA?AU?$PxCUenum@W4cudaError_enum@@@2@PEAUCUevent_st@@@Z 00000001800285c0 f   CudaContextManager.obj
 0001:00027610       ?freeDeviceBufferInternal@CudaCtxMgr@physx@@MEAAXPEAX@Z 0000000180028610 f   CudaContextManager.obj
 0001:000276a0       ?freePinnedHostBufferInternal@CudaCtxMgr@physx@@MEAAXPEAX@Z 00000001800286a0 f   CudaContextManager.obj
 0001:00027730       ?getClockRate@CudaCtxMgr@physx@@UEBAIXZ 0000000180028730 f   CudaContextManager.obj
 0001:00027740       ?getVelocitiesD@?$PxgParticleBufferBase@VPxsParticleRigidBuffer@physx@@@physx@@UEBAPEAV?$PxVec4T@M@2@XZ 0000000180028740 f i PxgParticleSystemCore.obj
 0001:00027740       ?getVelocitiesD@?$PxgParticleBufferBase@VPxsParticleBuffer@physx@@@physx@@UEBAPEAV?$PxVec4T@M@2@XZ 0000000180028740 f i PxgParticleSystemCore.obj
 0001:00027740       ?getVelocitiesD@?$PxgParticleBufferBase@VPxsParticleAndDiffuseBuffer@physx@@@physx@@UEBAPEAV?$PxVec4T@M@2@XZ 0000000180028740 f i PxgParticleSystemCore.obj
 0001:00027740       ?getVelocitiesD@?$PxgParticleBufferBase@VPxsParticleClothBuffer@physx@@@physx@@UEBAPEAV?$PxVec4T@M@2@XZ 0000000180028740 f i PxgParticleSystemCore.obj
 0001:00027740       ?getAnisotropy2DevicePointer@PxgAnisotropyGenerator@physx@@UEBAPEAV?$PxVec4T@M@2@XZ 0000000180028740 f i PxgAnisotropy.obj
 0001:00027740       ?getContext@CudaCtxMgr@physx@@UEAAPEAUCUctx_st@@XZ 0000000180028740 f i CudaContextManager.obj
 0001:00027750       ?getCuModules@CudaCtxMgr@physx@@UEAAPEAPEAUCUmod_st@@XZ 0000000180028750 f i CudaContextManager.obj
 0001:00027760       ?getCudaContext@CudaCtxMgr@physx@@UEAAPEAVPxCudaContext@2@XZ 0000000180028760 f i CudaContextManager.obj
 0001:00027760       ?getPhasesD@?$PxgParticleBufferBase@VPxsParticleBuffer@physx@@@physx@@UEBAPEAIXZ 0000000180028760 f i PxgParticleSystemCore.obj
 0001:00027760       ?getPhasesD@?$PxgParticleBufferBase@VPxsParticleRigidBuffer@physx@@@physx@@UEBAPEAIXZ 0000000180028760 f i PxgParticleSystemCore.obj
 0001:00027760       ?getPhasesD@?$PxgParticleBufferBase@VPxsParticleClothBuffer@physx@@@physx@@UEBAPEAIXZ 0000000180028760 f i PxgParticleSystemCore.obj
 0001:00027760       ?getAnisotropy3DevicePointer@PxgAnisotropyGenerator@physx@@UEBAPEAV?$PxVec4T@M@2@XZ 0000000180028760 f i PxgAnisotropy.obj
 0001:00027760       ?getPhasesD@?$PxgParticleBufferBase@VPxsParticleAndDiffuseBuffer@physx@@@physx@@UEBAPEAIXZ 0000000180028760 f i PxgParticleSystemCore.obj
 0001:00027770       ?getDevice@CudaCtxMgr@physx@@UEBAHXZ 0000000180028770 f   CudaContextManager.obj
 0001:00027780       ?getDeviceMemoryInfo@CudaCtxMgr@physx@@UEBAXAEA_K0@Z 0000000180028780 f   CudaContextManager.obj
 0001:00027790       ?getDeviceName@CudaCtxMgr@physx@@UEBAPEBDXZ 0000000180028790 f   CudaContextManager.obj
 0001:000277b0       ?getPhasesH@?$PxgParticleBufferBase@VPxsParticleClothBuffer@physx@@@physx@@UEBAPEAIXZ 00000001800287b0 f   PxgParticleSystemCore.obj
 0001:000277b0       ?getPhasesH@?$PxgParticleBufferBase@VPxsParticleRigidBuffer@physx@@@physx@@UEBAPEAIXZ 00000001800287b0 f   PxgParticleSystemCore.obj
 0001:000277b0       ?getPhasesH@?$PxgParticleBufferBase@VPxsParticleBuffer@physx@@@physx@@UEBAPEAIXZ 00000001800287b0 f   PxgParticleSystemCore.obj
 0001:000277b0       ?getDeviceTotalMemBytes@CudaCtxMgr@physx@@UEBA_KXZ 00000001800287b0 f   CudaContextManager.obj
 0001:000277b0       ?getPhasesH@?$PxgParticleBufferBase@VPxsParticleAndDiffuseBuffer@physx@@@physx@@UEBAPEAIXZ 00000001800287b0 f   PxgParticleSystemCore.obj
 0001:000277c0       ?getDriverVersion@CudaCtxMgr@physx@@UEBAHXZ 00000001800287c0 f   CudaContextManager.obj
 0001:000277d0       ?getLastError@CudaCtx@physx@@UEAA?AU?$PxCUenum@W4cudaError_enum@@@2@XZ 00000001800287d0 f i CudaContextManager.obj
 0001:000277f0       ?getMappedDevicePtr@CudaCtxMgr@physx@@UEAA_KPEAX@Z 00000001800287f0 f   CudaContextManager.obj
 0001:00027870       ?getMaxThreadsPerBlock@CudaCtxMgr@physx@@UEBAIXZ 0000000180028870 f   CudaContextManager.obj
 0001:00027880       ?getMultiprocessorCount@CudaCtxMgr@physx@@UEBAHXZ 0000000180028880 f   CudaContextManager.obj
 0001:00027890       ?getSharedMemPerBlock@CudaCtxMgr@physx@@UEBAHXZ 0000000180028890 f   CudaContextManager.obj
 0001:000278a0       ?getSharedMemPerMultiprocessor@CudaCtxMgr@physx@@UEBAHXZ 00000001800288a0 f   CudaContextManager.obj
 0001:000278b0       ?getUsingConcurrentStreams@CudaCtxMgr@physx@@UEBA_NXZ 00000001800288b0 f   CudaContextManager.obj
 0001:000278c0       ?isInAbortMode@CudaCtx@physx@@UEAA_NXZ 00000001800288c0 f i CudaContextManager.obj
 0001:000278d0       ?isIntegrated@CudaCtxMgr@physx@@UEBA_NXZ 00000001800288d0 f   CudaContextManager.obj
 0001:000278f0       ?launchKernel@CudaCtx@physx@@UEAA?AU?$PxCUenum@W4cudaError_enum@@@2@PEAUCUfunc_st@@IIIIIIIPEAUCUstream_st@@PEAPEAX2PEBDH@Z 00000001800288f0 f   CudaContextManager.obj
 0001:00027a10       ?launchKernel@CudaCtx@physx@@UEAA?AU?$PxCUenum@W4cudaError_enum@@@2@PEAUCUfunc_st@@IIIIIIIPEAUCUstream_st@@PEAUPxCudaKernelParam@2@_KPEAPEAXPEBDH@Z 0000000180028a10 f   CudaContextManager.obj
 0001:00027bc0       ?memAlloc@CudaCtx@physx@@UEAA?AU?$PxCUenum@W4cudaError_enum@@@2@PEA_K_K@Z 0000000180028bc0 f   CudaContextManager.obj
 0001:00027c10       ?memFree@CudaCtx@physx@@UEAA?AU?$PxCUenum@W4cudaError_enum@@@2@_K@Z 0000000180028c10 f   CudaContextManager.obj
 0001:00027c40       ?memFreeHost@CudaCtx@physx@@UEAA?AU?$PxCUenum@W4cudaError_enum@@@2@PEAX@Z 0000000180028c40 f   CudaContextManager.obj
 0001:00027c60       ?memHostAlloc@CudaCtx@physx@@UEAA?AU?$PxCUenum@W4cudaError_enum@@@2@PEAPEAX_KI@Z 0000000180028c60 f   CudaContextManager.obj
 0001:00027c90       ?memHostGetDevicePointer@CudaCtx@physx@@UEAA?AU?$PxCUenum@W4cudaError_enum@@@2@PEA_KPEAXI@Z 0000000180028c90 f   CudaContextManager.obj
 0001:00027cd0       ?memcpyDtoD@CudaCtx@physx@@UEAA?AU?$PxCUenum@W4cudaError_enum@@@2@_K00@Z 0000000180028cd0 f   CudaContextManager.obj
 0001:00027d70       ?memcpyDtoDAsync@CudaCtx@physx@@UEAA?AU?$PxCUenum@W4cudaError_enum@@@2@_K00PEAUCUstream_st@@@Z 0000000180028d70 f   CudaContextManager.obj
 0001:00027e60       ?memcpyDtoH@CudaCtx@physx@@UEAA?AU?$PxCUenum@W4cudaError_enum@@@2@PEAX_K1@Z 0000000180028e60 f   CudaContextManager.obj
 0001:00027f00       ?memcpyDtoHAsync@CudaCtx@physx@@UEAA?AU?$PxCUenum@W4cudaError_enum@@@2@PEAX_K1PEAUCUstream_st@@@Z 0000000180028f00 f   CudaContextManager.obj
 0001:00027ff0       ?memcpyHtoD@CudaCtx@physx@@UEAA?AU?$PxCUenum@W4cudaError_enum@@@2@_KPEBX0@Z 0000000180028ff0 f   CudaContextManager.obj
 0001:00028080       ?memcpyHtoDAsync@CudaCtx@physx@@UEAA?AU?$PxCUenum@W4cudaError_enum@@@2@_KPEBX0PEAUCUstream_st@@@Z 0000000180029080 f   CudaContextManager.obj
 0001:00028170       ?memcpyPeerAsync@CudaCtx@physx@@UEAA?AU?$PxCUenum@W4cudaError_enum@@@2@_KPEAUCUctx_st@@010PEAUCUstream_st@@@Z 0000000180029170 f   CudaContextManager.obj
 0001:000281d0       ?memsetD16@CudaCtx@physx@@UEAA?AU?$PxCUenum@W4cudaError_enum@@@2@_KG0@Z 00000001800291d0 f   CudaContextManager.obj
 0001:00028270       ?memsetD32@CudaCtx@physx@@UEAA?AU?$PxCUenum@W4cudaError_enum@@@2@_KI0@Z 0000000180029270 f   CudaContextManager.obj
 0001:00028320       ?memsetD32Async@CudaCtx@physx@@UEAA?AU?$PxCUenum@W4cudaError_enum@@@2@_KI0PEAUCUstream_st@@@Z 0000000180029320 f   CudaContextManager.obj
 0001:00028410       ?memsetD32AsyncInternal@CudaCtxMgr@physx@@MEAAXPEAXAEBIIPEAUCUstream_st@@@Z 0000000180029410 f   CudaContextManager.obj
 0001:000284d0       ?memsetD8@CudaCtx@physx@@UEAA?AU?$PxCUenum@W4cudaError_enum@@@2@_KE0@Z 00000001800294d0 f   CudaContextManager.obj
 0001:00028570       ?memsetD8Async@CudaCtx@physx@@UEAA?AU?$PxCUenum@W4cudaError_enum@@@2@_KE0PEAUCUstream_st@@@Z 0000000180029570 f   CudaContextManager.obj
 0001:00028660       ?memsetD8AsyncInternal@CudaCtxMgr@physx@@MEAAXPEAXAEBEIPEAUCUstream_st@@@Z 0000000180029660 f   CudaContextManager.obj
 0001:00028720       ?moduleGetFunction@CudaCtx@physx@@UEAA?AU?$PxCUenum@W4cudaError_enum@@@2@PEAPEAUCUfunc_st@@PEAUCUmod_st@@PEBD@Z 0000000180029720 f   CudaContextManager.obj
 0001:00028750       ?moduleLoadDataEx@CudaCtx@physx@@UEAA?AU?$PxCUenum@W4cudaError_enum@@@2@PEAPEAUCUmod_st@@PEBXIPEAU?$PxCUenum@W4CUjit_option_enum@@@2@PEAPEAX@Z 0000000180029750 f   CudaContextManager.obj
 0001:00028790       ?moduleUnload@CudaCtx@physx@@UEAA?AU?$PxCUenum@W4cudaError_enum@@@2@PEAUCUmod_st@@@Z 0000000180029790 f   CudaContextManager.obj
 0001:000287b0       ?recreate@?$PxArray@PEAUCUmod_st@@V?$PxReflectionAllocator@PEAUCUmod_st@@@physx@@@physx@@IEAAXI@Z 00000001800297b0 f i CudaContextManager.obj
 0001:000288a0       ?release@CudaCtx@physx@@UEAAXXZ 00000001800298a0 f   CudaContextManager.obj
 0001:000288c0       ?release@CudaCtxMgr@physx@@UEAAXXZ 00000001800298c0 f   CudaContextManager.obj
 0001:000288e0       ?releaseContext@CudaCtxMgr@physx@@UEAAXXZ 00000001800298e0 f   CudaContextManager.obj
 0001:00028940       ?resize@?$PxArray@PEAUCUmod_st@@V?$PxReflectionAllocator@PEAUCUmod_st@@@physx@@@physx@@QEAAXIAEBQEAUCUmod_st@@@Z 0000000180029940 f i CudaContextManager.obj
 0001:00028a00       ?setAbortMode@CudaCtx@physx@@UEAAX_N@Z 0000000180029a00 f   CudaContextManager.obj
 0001:00028a20       ?setUsingConcurrentStreams@CudaCtxMgr@physx@@UEAAX_N@Z 0000000180029a20 f   CudaContextManager.obj
 0001:00028a30       ?streamCreate@CudaCtx@physx@@UEAA?AU?$PxCUenum@W4cudaError_enum@@@2@PEAPEAUCUstream_st@@I@Z 0000000180029a30 f   CudaContextManager.obj
 0001:00028a80       ?streamCreateWithPriority@CudaCtx@physx@@UEAA?AU?$PxCUenum@W4cudaError_enum@@@2@PEAPEAUCUstream_st@@IH@Z 0000000180029a80 f   CudaContextManager.obj
 0001:00028ae0       ?streamDestroy@CudaCtx@physx@@UEAA?AU?$PxCUenum@W4cudaError_enum@@@2@PEAUCUstream_st@@@Z 0000000180029ae0 f   CudaContextManager.obj
 0001:00028b10       ?streamFlush@CudaCtx@physx@@UEAA?AU?$PxCUenum@W4cudaError_enum@@@2@PEAUCUstream_st@@@Z 0000000180029b10 f   CudaContextManager.obj
 0001:00028b40       ?streamSynchronize@CudaCtx@physx@@UEAA?AU?$PxCUenum@W4cudaError_enum@@@2@PEAUCUstream_st@@@Z 0000000180029b40 f   CudaContextManager.obj
 0001:00028b90       ?streamWaitEvent@CudaCtx@physx@@UEAA?AU?$PxCUenum@W4cudaError_enum@@@2@PEAUCUstream_st@@PEAUCUevent_st@@@Z 0000000180029b90 f   CudaContextManager.obj
 0001:00028bd0       ?streamWaitEvent@CudaCtx@physx@@UEAA?AU?$PxCUenum@W4cudaError_enum@@@2@PEAUCUstream_st@@PEAUCUevent_st@@I@Z 0000000180029bd0 f   CudaContextManager.obj
 0001:00028c20       ?supportsArchSM11@CudaCtxMgr@physx@@UEBA_NXZ 0000000180029c20 f   CudaContextManager.obj
 0001:00028c40       ?supportsArchSM12@CudaCtxMgr@physx@@UEBA_NXZ 0000000180029c40 f   CudaContextManager.obj
 0001:00028c60       ?supportsArchSM13@CudaCtxMgr@physx@@UEBA_NXZ 0000000180029c60 f   CudaContextManager.obj
 0001:00028c80       ?supportsArchSM20@CudaCtxMgr@physx@@UEBA_NXZ 0000000180029c80 f   CudaContextManager.obj
 0001:00028ca0       ?supportsArchSM30@CudaCtxMgr@physx@@UEBA_NXZ 0000000180029ca0 f   CudaContextManager.obj
 0001:00028cc0       ?supportsArchSM35@CudaCtxMgr@physx@@UEBA_NXZ 0000000180029cc0 f   CudaContextManager.obj
 0001:00028ce0       ?supportsArchSM50@CudaCtxMgr@physx@@UEBA_NXZ 0000000180029ce0 f   CudaContextManager.obj
 0001:00028d00       ?supportsArchSM52@CudaCtxMgr@physx@@UEBA_NXZ 0000000180029d00 f   CudaContextManager.obj
 0001:00028d20       ?supportsArchSM60@CudaCtxMgr@physx@@UEBA_NXZ 0000000180029d20 f   CudaContextManager.obj
 0001:00028d40       ?tryAcquireContext@CudaCtxMgr@physx@@UEAA_NXZ 0000000180029d40 f   CudaContextManager.obj
 0001:00028da0       ??0KernelWrangler@physx@@QEAA@AEAVPxCudaContextManager@1@AEAVPxErrorCallback@1@PEAPEBDG@Z 0000000180029da0 f   CudaKernelWrangler.obj
 0001:00028fb0       ??_EKernelWrangler@physx@@UEAAPEAXI@Z 0000000180029fb0 f i CudaKernelWrangler.obj
 0001:00028fb0       ??_GKernelWrangler@physx@@UEAAPEAXI@Z 0000000180029fb0 f i CudaKernelWrangler.obj
 0001:00029050       ?getCuFunctionName@KernelWrangler@physx@@QEBAPEBDG@Z 000000018002a050 f   CudaKernelWrangler.obj
 0001:00029060       ?recreate@?$PxArray@PEAUCUfunc_st@@V?$PxReflectionAllocator@PEAUCUfunc_st@@@physx@@@physx@@IEAAXI@Z 000000018002a060 f i CudaKernelWrangler.obj
 0001:00029150       ?resize@?$PxArray@PEAUCUfunc_st@@V?$PxReflectionAllocator@PEAUCUfunc_st@@@physx@@@physx@@QEAAXIAEBQEAUCUfunc_st@@@Z 000000018002a150 f i CudaKernelWrangler.obj
 0001:00029210       __cudaRegisterFatBinary    000000018002a210 f   CudaKernelWrangler.obj
 0001:00029220       __cudaRegisterFunction     000000018002a220 f   CudaKernelWrangler.obj
 0001:00029230       __cudaUnregisterFatBinary  000000018002a230 f   CudaKernelWrangler.obj
 0001:00029270       initNarrowphaseKernels0    000000018002a270 f   convexHFMidphase.obj
 0001:00029280       convexHeightFieldMidphase  000000018002a280 f   convexHFMidphase.obj
 0001:000294b0       ?__device_stub__Z25convexHeightFieldMidphasejfPKN5physx22PxgContactManagerInputEPKNS_18PxsCachedTransformEPKNS_9PxBounds3EPKfPKNS_8PxgShapeEPNS_14ConvexMeshPairEPNS_33PxgPersistentContactMultiManifoldEPNS_23PxsContactManagerOutputEPhPjSL_SL_j@@YAXIMPEIBUPxgContactManagerInput@physx@@PEIBUPxsCachedTransform@2@PEIBVPxBounds3@2@PEIBMPEIBUPxgShape@2@PEIAUConvexMeshPair@2@PEIAUPxgPersistentContactMultiManifold@2@PEIAUPxsContactManagerOutput@2@PEIAEPEIAI99I@Z 000000018002a4b0 f   convexHFMidphase.obj
 0001:00029b80       initNarrowphaseKernels1    000000018002ab80 f   convexHeightfield.obj
 0001:00029b90       ?buildTriangleInformations@@YAXIAEAUPxgShape@physx@@PEAUConvexMeshScratch@2@AEAV?$PxTransformT@M@2@@Z 000000018002ab90 f   convexHeightfield.obj
 0001:00029bb0       ?convexHeightfieldNarrowphaseCore@@YAXIPEIBUPxgContactManagerInput@physx@@PEIBUPxsCachedTransform@2@PEIBMPEIBUPxgShape@2@PEIAUConvexMeshPair@2@PEIAPEAUConvexTriNormalAndIndex@2@PEIAPEAUConvexTriContacts@2@PEIAPEAMPEIAPEAUConvexTriIntermediateData@2@PEIAPEAI9PEIBUuint4@@PEIAIPEIAIPEAUConvexTriContact@2@IPEAI@Z 000000018002abb0 f   convexHeightfield.obj
 0001:00029bd0       convexHeightfieldNarrowphase 000000018002abd0 f   convexHeightfield.obj
 0001:00029e60       ?sphereHeightfieldNarrowphaseCore@@YAIIPEIBUPxgContactManagerInput@physx@@PEIBUPxsCachedTransform@2@PEIBMPEIBUPxgShape@2@PEIAUConvexMeshPair@2@PEIAPEAUConvexTriNormalAndIndex@2@PEIAPEAUConvexTriContacts@2@PEIAPEAMPEIAPEAUConvexTriIntermediateData@2@PEIAPEAI9AEBUuint4@@AEBU12@AEAU42@PEIAIPEIAIAEAV?$PxVec3T@M@2@AEAMAEAI@Z 000000018002ae60 f   convexHeightfield.obj
 0001:00029e80       ?computeTriangleFlags@@YAEAEBUPxgTriangle@@AEBV?$PxVec3T@M@physx@@PEBIGAEBVPxMeshScale@3@IIPEBUPxHeightFieldSample@3@@Z 000000018002ae80 f   convexHeightfield.obj
 0001:00029ea0       ?capsuleHeightfieldNarrowphaseCore@@YAIIPEIBUPxgContactManagerInput@physx@@PEIBUPxsCachedTransform@2@PEIBMPEIBUPxgShape@2@PEIAUConvexMeshPair@2@PEIAPEAUConvexTriNormalAndIndex@2@PEIAPEAUConvexTriContacts@2@PEIAPEAMPEIAPEAUConvexTriIntermediateData@2@PEIAPEAI9AEBUuint4@@AEBU12@AEAU42@PEAV?$PxVec3T@M@2@PEAM@Z 000000018002aea0 f   convexHeightfield.obj
 0001:00029ec0       sphereHeightfieldNarrowphase 000000018002aec0 f   convexHeightfield.obj
 0001:0002a180       ?__device_stub__Z28convexHeightfieldNarrowphasePKN5physx22PxgContactManagerInputEPKNS_18PxsCachedTransformEPKfPKNS_8PxgShapeEPNS_14ConvexMeshPairEPPNS_23ConvexTriNormalAndIndexEPPNS_17ConvexTriContactsEPPfPPNS_25ConvexTriIntermediateDataEPPjSP_PhSO_SO_SO_jPNS_16ConvexTriContactESO_SO_SO_j@@YAXPEIBUPxgContactManagerInput@physx@@PEIBUPxsCachedTransform@2@PEIBMPEIBUPxgShape@2@PEIAUConvexMeshPair@2@PEIAPEAUConvexTriNormalAndIndex@2@PEIAPEAUConvexTriContacts@2@PEIAPEAMPEIAPEAUConvexTriIntermediateData@2@PEIAPEAI9PEIAEPEIAIPEIAIPEIAIIPEAUConvexTriContact@2@PEAIPEAIPEAII@Z 000000018002b180 f   convexHeightfield.obj
 0001:0002a360       ?__device_stub__Z28sphereHeightfieldNarrowphasePKN5physx22PxgContactManagerInputEPKNS_18PxsCachedTransformEPKfPKNS_8PxgShapeEPNS_14ConvexMeshPairEPPNS_23ConvexTriNormalAndIndexEPPNS_17ConvexTriContactsEPPfPPNS_25ConvexTriIntermediateDataEPPjSP_PhSO_SO_SO_jPNS_16ConvexTriContactESO_SO_SO_j@@YAXPEIBUPxgContactManagerInput@physx@@PEIBUPxsCachedTransform@2@PEIBMPEIBUPxgShape@2@PEIAUConvexMeshPair@2@PEIAPEAUConvexTriNormalAndIndex@2@PEIAPEAUConvexTriContacts@2@PEIAPEAMPEIAPEAUConvexTriIntermediateData@2@PEIAPEAI9PEIAEPEIAIPEIAIPEIAIIPEAUConvexTriContact@2@PEAIPEAIPEAII@Z 000000018002b360 f   convexHeightfield.obj
 0001:0002a8a0       initNarrowphaseKernels2    000000018002b8a0 f   convexMesh.obj
 0001:0002a8b0       ?getShapeSpaceVerts@@YAXAEAV?$PxVec3T@M@physx@@00AEBVMeshScaling@@IPEIBUuint4@@PEIBUfloat4@@@Z 000000018002b8b0 f   convexMesh.obj
 0001:0002a8d0       ?convexTrimeshNarrowphaseCore@@YAXIAEAUPxgShape@physx@@0IIUuint4@@PEIBUPxsCachedTransform@2@PEIBMPEIBU12@PEIAUConvexMeshPair@2@PEIAPEAUConvexTriNormalAndIndex@2@PEIAPEAUConvexTriContacts@2@PEIAPEAMPEIAPEAUConvexTriIntermediateData@2@PEIAPEAIPEIAPEAIPEIBU3@PEAIPEAIPECIPEAUConvexTriContact@2@IPEAI@Z 000000018002b8d0 f   convexMesh.obj
 0001:0002a8f0       ?sphereTrimeshNarrowphaseCore@@YAIIAEBUPxgContactManagerInput@physx@@AEBUPxgShape@2@1Uuint4@@PEIBUPxsCachedTransform@2@PEIBMPEIAUConvexMeshPair@2@PEIAPEAUConvexTriNormalAndIndex@2@PEIAPEAUConvexTriContacts@2@PEIAPEAMPEIAPEAUConvexTriIntermediateData@2@PEIAPEAIPEIAPEAIPEAIPEAIAEAV?$PxVec3T@M@2@AEAMAEAI@Z 000000018002b8f0 f   convexMesh.obj
 0001:0002a910       ?capsuleTrimeshNarrowphaseCore@@YAIIAEBUPxgContactManagerInput@physx@@AEBUPxgShape@2@1Uuint4@@PEIBUPxsCachedTransform@2@PEIBMPEIAUConvexMeshPair@2@PEIAPEAUConvexTriNormalAndIndex@2@PEIAPEAUConvexTriContacts@2@PEIAPEAMPEIAPEAUConvexTriIntermediateData@2@PEIAPEAIPEIAPEAIPEAIPEAV?$PxVec3T@M@2@PEAMAEAI@Z 000000018002b910 f   convexMesh.obj
 0001:0002a930       convexTrimeshNarrowphase   000000018002b930 f   convexMesh.obj
 0001:0002abc0       sphereTrimeshNarrowphase   000000018002bbc0 f   convexMesh.obj
 0001:0002ae80       ?__device_stub__Z24convexTrimeshNarrowphasePKN5physx22PxgContactManagerInputEPKNS_18PxsCachedTransformEPKfPKNS_8PxgShapeEPNS_14ConvexMeshPairEPPNS_23ConvexTriNormalAndIndexEPPNS_17ConvexTriContactsEPPfPPNS_25ConvexTriIntermediateDataEPPjSP_PhSO_SO_SO_jPNS_16ConvexTriContactESO_SO_SO_j@@YAXPEIBUPxgContactManagerInput@physx@@PEIBUPxsCachedTransform@2@PEIBMPEIBUPxgShape@2@PEIAUConvexMeshPair@2@PEIAPEAUConvexTriNormalAndIndex@2@PEIAPEAUConvexTriContacts@2@PEIAPEAMPEIAPEAUConvexTriIntermediateData@2@PEIAPEAI9PEIAEPEIAIPEIAIPEIAIIPEAUConvexTriContact@2@PEAIPEAIPEAII@Z 000000018002be80 f   convexMesh.obj
 0001:0002b060       ?__device_stub__Z24sphereTrimeshNarrowphasePKN5physx22PxgContactManagerInputEPKNS_18PxsCachedTransformEPKfPKNS_8PxgShapeEPNS_14ConvexMeshPairEPPNS_23ConvexTriNormalAndIndexEPPNS_17ConvexTriContactsEPPfPPNS_25ConvexTriIntermediateDataEPPjSP_PhSO_SO_SO_jPNS_16ConvexTriContactESO_SO_SO_j@@YAXPEIBUPxgContactManagerInput@physx@@PEIBUPxsCachedTransform@2@PEIBMPEIBUPxgShape@2@PEIAUConvexMeshPair@2@PEIAPEAUConvexTriNormalAndIndex@2@PEIAPEAUConvexTriContacts@2@PEIAPEAMPEIAPEAUConvexTriIntermediateData@2@PEIAPEAI9PEIAEPEIAIPEIAIPEIAIIPEAUConvexTriContact@2@PEAIPEAIPEAII@Z 000000018002c060 f   convexMesh.obj
 0001:0002b5a0       initNarrowphaseKernels3    000000018002c5a0 f   convexMeshCorrelate.obj
 0001:0002b5b0       ?correlate@@YAXPEIBUConvexMeshPair@physx@@PEIAPEAUConvexTriNormalAndIndex@2@PEIAPEBUConvexTriContacts@2@PEIAPEAMPEIAIPEIAUScratch@@PEIAUPxgPersistentContactMultiManifold@2@PEIAUPxsContactManagerOutput@2@IMPEIAUConvexTriContact@2@4@Z 000000018002c5b0 f   convexMeshCorrelate.obj
 0001:0002b5d0       convexTrimeshCorrelate     000000018002c5d0 f   convexMeshCorrelate.obj
 0001:0002b7b0       ?__device_stub__Z22convexTrimeshCorrelatePKN5physx14ConvexMeshPairEPPfPPNS_23ConvexTriNormalAndIndexEPPKNS_17ConvexTriContactsEPNS_33PxgPersistentContactMultiManifoldEPNS_23PxsContactManagerOutputEPjjfPNS_16ConvexTriContactESG_@@YAXPEIBUConvexMeshPair@physx@@PEIAPEAMPEIAPEAUConvexTriNormalAndIndex@2@PEIAPEBUConvexTriContacts@2@PEIAUPxgPersistentContactMultiManifold@2@PEIAUPxsContactManagerOutput@2@PEIAIIMPEIAUConvexTriContact@2@PEAI@Z 000000018002c7b0 f   convexMeshCorrelate.obj
 0001:0002be50       initNarrowphaseKernels4    000000018002ce50 f   convexMeshMidphase.obj
 0001:0002be60       midphaseGeneratePairs      000000018002ce60 f   convexMeshMidphase.obj
 0001:0002c060       ?reduceContactsSingleWarp@@YAX_NIIAEBV?$PxVec3T@M@physx@@MPEBV?$PxVec4T@M@2@PEAUPatch@@@Z 000000018002d060 f   convexMeshMidphase.obj
 0001:0002c080       ?doTriangleTriangleCollision@@YAXAEBUPxsCachedTransform@physx@@0AEBUPxgTriangleMesh@2@1AEBUPxgShape@2@2M_NIPEIAUPxsContactManagerOutput@2@PEIBUPxsMaterialData@2@PEIAE6PEIAUPxgPatchAndContactCounters@2@PEAI8PEAE99IIIM3@Z 000000018002d080 f   convexMeshMidphase.obj
 0001:0002c0a0       evaluatePointDistancesSDFBatch 000000018002d0a0 f   convexMeshMidphase.obj
 0001:0002c1d0       triangleTriangleCollision  000000018002d1d0 f   convexMeshMidphase.obj
 0001:0002c440       triangleTriangleOverlaps   000000018002d440 f   convexMeshMidphase.obj
 0001:0002c5c0       ?__device_stub__Z21midphaseGeneratePairsjfPKN5physx22PxgContactManagerInputEPKNS_18PxsCachedTransformEPKNS_9PxBounds3EPKfPKNS_8PxgShapeEPNS_14ConvexMeshPairEPNS_33PxgPersistentContactMultiManifoldEPNS_23PxsContactManagerOutputEPhPjSL_SL_j@@YAXIMPEIBUPxgContactManagerInput@physx@@PEIBUPxsCachedTransform@2@PEIBVPxBounds3@2@PEIBMPEIBUPxgShape@2@PEIAUConvexMeshPair@2@PEIAUPxgPersistentContactMultiManifold@2@PEIAUPxsContactManagerOutput@2@PEIAEPEIAI99I@Z 000000018002d5c0 f   convexMeshMidphase.obj
 0001:0002c740       ?__device_stub__Z30evaluatePointDistancesSDFBatchPKN5physx8PxgShapeEPKjPKNS_7PxVec4TIfEES4_jPS6_@@YAXPEIBUPxgShape@physx@@PEBIPEBV?$PxVec4T@M@2@1IPEAV32@@Z 000000018002d740 f   convexMeshMidphase.obj
 0001:0002c860       ?__device_stub__Z25triangleTriangleCollisionjPKN5physx22PxgContactManagerInputEPKNS_18PxsCachedTransformEPKfPKNS_8PxgShapeEPNS_23PxsContactManagerOutputEPhPKNS_15PxsMaterialDataESD_SD_PNS_26PxgPatchAndContactCountersEPjSJ_SD_SD_SD_jjjf@@YAXIPEIBUPxgContactManagerInput@physx@@PEIBUPxsCachedTransform@2@PEIBMPEIBUPxgShape@2@PEIAUPxsContactManagerOutput@2@PEAEPEIBUPxsMaterialData@2@PEIAE7PEIAUPxgPatchAndContactCounters@2@PEAI9555IIIM@Z 000000018002d860 f   convexMeshMidphase.obj
 0001:0002ca30       ?__device_stub__Z24triangleTriangleOverlapsjPKN5physx22PxgContactManagerInputEPKNS_18PxsCachedTransformEPKfPKNS_8PxgShapeEPNS_23PxsContactManagerOutputEPh@@YAXIPEIBUPxgContactManagerInput@physx@@PEIBUPxsCachedTransform@2@PEIBMPEIBUPxgShape@2@PEIAUPxsContactManagerOutput@2@PEAE@Z 000000018002da30 f   convexMeshMidphase.obj
 0001:0002cf30       initNarrowphaseKernels8    000000018002df30 f   convexMeshPostProcess.obj
 0001:0002cf40       ?findTriangle@@YA_NPEIBIII@Z 000000018002df40 f   convexMeshPostProcess.obj
 0001:0002cf60       ?findFaceContactTriangle@@YA_NPEIBIII@Z 000000018002df60 f   convexMeshPostProcess.obj
 0001:0002cf80       ?findEdgeContactTriangle@@YA_NPEIBIII@Z 000000018002df80 f   convexMeshPostProcess.obj
 0001:0002cfa0       ?convexTrimeshPostProcessCore@@YAXPEIAUConvexMeshPair@physx@@PEIAPEAUConvexTriNormalAndIndex@2@PEIAPEAUConvexTriIntermediateData@2@PEIAPEBIPEIAPEAIPEIAUPxgShape@2@PEIBUuint4@@PEIAII@Z 000000018002dfa0 f   convexMeshPostProcess.obj
 0001:0002cfc0       convexTrimeshPostProcess   000000018002dfc0 f   convexMeshPostProcess.obj
 0001:0002d130       ?convexHeightfieldPostProcessCore@@YAXPEIAUConvexMeshPair@physx@@PEIAPEAUConvexTriNormalAndIndex@2@PEIAPEAUConvexTriIntermediateData@2@PEIAPEBIPEIAPEAIPEIAUPxgShape@2@PEIBUuint4@@PEIAII@Z 000000018002e130 f   convexMeshPostProcess.obj
 0001:0002d150       convexHeightfieldPostProcess 000000018002e150 f   convexMeshPostProcess.obj
 0001:0002d2c0       sortTriangleIndices        000000018002e2c0 f   convexMeshPostProcess.obj
 0001:0002d3f0       ?__device_stub__Z24convexTrimeshPostProcessPN5physx14ConvexMeshPairEPPNS_23ConvexTriNormalAndIndexEPPNS_25ConvexTriIntermediateDataEPPKjPPjPhSB_PNS_8PxgShapeE@@YAXPEIAUConvexMeshPair@physx@@PEIAPEAUConvexTriNormalAndIndex@2@PEIAPEAUConvexTriIntermediateData@2@PEIAPEBIPEIAPEAIPEIAEPEIAIPEIAUPxgShape@2@@Z 000000018002e3f0 f   convexMeshPostProcess.obj
 0001:0002d520       ?__device_stub__Z28convexHeightfieldPostProcessPN5physx14ConvexMeshPairEPPNS_23ConvexTriNormalAndIndexEPPNS_25ConvexTriIntermediateDataEPPKjPPjPhSB_PNS_8PxgShapeE@@YAXPEIAUConvexMeshPair@physx@@PEIAPEAUConvexTriNormalAndIndex@2@PEIAPEAUConvexTriIntermediateData@2@PEIAPEBIPEIAPEAIPEIAEPEIAIPEIAUPxgShape@2@@Z 000000018002e520 f   convexMeshPostProcess.obj
 0001:0002d650       ?__device_stub__Z19sortTriangleIndicesPN5physx14ConvexMeshPairEPPjj@@YAXPEIAUConvexMeshPair@physx@@PEIAPEAII@Z 000000018002e650 f   convexMeshPostProcess.obj
 0001:0002db00       initNarrowphaseKernels5    000000018002eb00 f   convexMeshOutput.obj
 0001:0002db10       ?writeCompressedContact@@YAXPEIAUPxContactPatch@physx@@IIIV?$PxVec3T@M@2@IIPEIBUPxsMaterialData@2@@Z 000000018002eb10 f   convexMeshOutput.obj
 0001:0002db30       convexTrimeshFinishContacts 000000018002eb30 f   convexMeshOutput.obj
 0001:0002ddf0       ?__device_stub__Z27convexTrimeshFinishContactsPKN5physx14ConvexMeshPairEPKNS_18PxsCachedTransformEPKNS_8PxgShapeEPKNS_22PxgContactManagerInputEPNS_23PxsContactManagerOutputEPKNS_33PxgPersistentContactMultiManifoldEjPKNS_15PxsMaterialDataEPhSK_SK_bPNS_26PxgPatchAndContactCountersEPjSN_SK_SK_SK_jjj@@YAXPEBUConvexMeshPair@physx@@PEBUPxsCachedTransform@2@PEIBUPxgShape@2@PEBUPxgContactManagerInput@2@PEAUPxsContactManagerOutput@2@PEBUPxgPersistentContactMultiManifold@2@IPEIBUPxsMaterialData@2@PEIAE77_NPEIAUPxgPatchAndContactCounters@2@PEAIPEAIPEAEPEAEPEAEIII@Z 000000018002edf0 f   convexMeshOutput.obj
 0001:0002e520       initNarrowphaseKernels6    000000018002f520 f   cudaGJKEPA.obj
 0001:0002e530       ?intersectRayPolyhedron@@YA_NAEBV?$PxVec3T@M@physx@@0IAEAUCollideScratch@@AEAM2@Z 000000018002f530 f   cudaGJKEPA.obj
 0001:0002e550       ?generatedContactsEEContacts@@YAIAEAUCollideScratch@@II@Z 000000018002f550 f   cudaGJKEPA.obj
 0001:0002e570       prepareLostFoundPairs_Stage1 000000018002f570 f   cudaGJKEPA.obj
 0001:0002e680       prepareLostFoundPairs_Stage2 000000018002f680 f   cudaGJKEPA.obj
 0001:0002e800       finishContactsKernel       000000018002f800 f   cudaGJKEPA.obj
 0001:0002ea70       convexConvexNphase_stage1Kernel 000000018002fa70 f   cudaGJKEPA.obj
 0001:0002ebc0       ?convexConvexNphase_stage2Kernel_core@@YAXIPEIBUPxgContactManagerInput@physx@@PEIAUPxgPersistentContactManifold@2@PEIAUPxgShape@2@PEIBUPxsCachedTransform@2@PEIBMM@Z 000000018002fbc0 f   cudaGJKEPA.obj
 0001:0002ebe0       convexConvexNphase_stage2Kernel 000000018002fbe0 f   cudaGJKEPA.obj
 0001:0002ed50       ?convexPlaneNphase_kernel_core@@YAXIPEIBUPxgContactManagerInput@physx@@PEIAUPxsContactManagerOutput@2@PEIAUPxgShape@2@PEIBUPxsCachedTransform@2@PEIBMPEIBUPxsMaterialData@2@PEIAE6PEIAUPxgPersistentContactManifold@2@PEIAUPxgPatchAndContactCounters@2@PEIAI9666IIIM@Z 000000018002fd50 f   cudaGJKEPA.obj
 0001:0002ed70       convexPlaneNphase_Kernel   000000018002fd70 f   cudaGJKEPA.obj
 0001:0002f010       ?__device_stub__Z28prepareLostFoundPairs_Stage1PKjPjS1_j@@YAXPEIBIPEIAI1I@Z 0000000180030010 f   cudaGJKEPA.obj
 0001:0002f120       ?__device_stub__Z28prepareLostFoundPairs_Stage2PKjS0_PKN5physx23PxsContactManagerOutputEPNS1_29PxsContactManagerOutputCountsEPPNS1_17PxsContactManagerEP5uint2PjjS9_@@YAXPEIBI0PEIBUPxsContactManagerOutput@physx@@PEIAUPxsContactManagerOutputCounts@2@PEIAPEAVPxsContactManager@2@PEIAUuint2@@PEIAII3@Z 0000000180030120 f   cudaGJKEPA.obj
 0001:0002f260       ?__device_stub__Z20finishContactsKerneljPKN5physx22PxgContactManagerInputEPNS_23PxsContactManagerOutputEPNS_28PxgPersistentContactManifoldEPNS_8PxgShapeEPKNS_18PxsCachedTransformEPKfPKNS_15PxsMaterialDataEPhSH_bPNS_26PxgPatchAndContactCountersEPjSK_SH_SH_SH_jjj@@YAXIPEIBUPxgContactManagerInput@physx@@PEIAUPxsContactManagerOutput@2@PEIAUPxgPersistentContactManifold@2@PEIAUPxgShape@2@PEIBUPxsCachedTransform@2@PEIBMPEIBUPxsMaterialData@2@PEIAE7_NPEIAUPxgPatchAndContactCounters@2@PEIAIPEIAI777III@Z 0000000180030260 f   cudaGJKEPA.obj
 0001:0002f430       ?__device_stub__Z31convexConvexNphase_stage1KerneljfPKN5physx22PxgContactManagerInputEPKNS_18PxsCachedTransformEPNS_8PxgShapeEPNS_28PxgPersistentContactManifoldEPj@@YAXIMPEIBUPxgContactManagerInput@physx@@PEIBUPxsCachedTransform@2@PEIAUPxgShape@2@PEIAUPxgPersistentContactManifold@2@PEIAI@Z 0000000180030430 f   cudaGJKEPA.obj
 0001:0002f550       ?__device_stub__Z31convexConvexNphase_stage2KerneljfPKjPKN5physx22PxgContactManagerInputEPNS1_28PxgPersistentContactManifoldEPNS1_8PxgShapeEPKNS1_18PxsCachedTransformEPKf@@YAXIMPEIBIPEIBUPxgContactManagerInput@physx@@PEIAUPxgPersistentContactManifold@2@PEIAUPxgShape@2@PEIBUPxsCachedTransform@2@PEBM@Z 0000000180030550 f   cudaGJKEPA.obj
 0001:0002f680       ?__device_stub__Z24convexPlaneNphase_KerneljPKN5physx22PxgContactManagerInputEPNS_23PxsContactManagerOutputEPNS_8PxgShapeEPKNS_18PxsCachedTransformEPKfPKNS_15PxsMaterialDataEPhSF_PNS_28PxgPersistentContactManifoldEPNS_26PxgPatchAndContactCountersEPjSK_SF_SF_SF_jjjf@@YAXIPEIBUPxgContactManagerInput@physx@@PEIAUPxsContactManagerOutput@2@PEIAUPxgShape@2@PEIBUPxsCachedTransform@2@PEBMPEIBUPxsMaterialData@2@PEIAE6PEIAUPxgPersistentContactManifold@2@PEIAUPxgPatchAndContactCounters@2@PEIAI9666IIIM@Z 0000000180030680 f   cudaGJKEPA.obj
 0001:0002fd10       initNarrowphaseKernels24   0000000180030d10 f   convexCoreCollision.obj
 0001:0002fd20       ?makeConvexShape@Gu@physx@@YA_NAEBUPxgShape@2@AEBV?$PxTransformT@M@2@AEAUConvexShape@12@@Z 0000000180030d20 f   convexCoreCollision.obj
 0001:0002fd40       convexCorePlaneNphase_Kernel 0000000180030d40 f   convexCoreCollision.obj
 0001:0002ff80       convexCoreConvexNphase_Kernel 0000000180030f80 f   convexCoreCollision.obj
 0001:000301c0       convexCoreTrimeshNphase_Kernel32 00000001800311c0 f   convexCoreCollision.obj
 0001:00030400       convexCoreTetmeshNphase_Kernel32 0000000180031400 f   convexCoreCollision.obj
 0001:00030570       convexCoreClothmeshNphase_Kernel32 0000000180031570 f   convexCoreCollision.obj
 0001:00030780       ?__device_stub__Z28convexCorePlaneNphase_KerneljPKN5physx22PxgContactManagerInputEPNS_23PxsContactManagerOutputEPKNS_8PxgShapeEPKNS_18PxsCachedTransformEPKfPKNS_15PxsMaterialDataEPhSG_PNS_26PxgPatchAndContactCountersEPjSJ_SG_SG_SG_jjj@@YAXIPEIBUPxgContactManagerInput@physx@@PEIAUPxsContactManagerOutput@2@PEIBUPxgShape@2@PEIBUPxsCachedTransform@2@PEBMPEIBUPxsMaterialData@2@PEIAE6PEIAUPxgPatchAndContactCounters@2@PEIAI8666III@Z 0000000180031780 f   convexCoreCollision.obj
 0001:00030930       ?__device_stub__Z29convexCoreConvexNphase_KerneljPKN5physx22PxgContactManagerInputEPNS_23PxsContactManagerOutputEPKNS_8PxgShapeEPKNS_18PxsCachedTransformEPKfPKNS_15PxsMaterialDataEPhSG_PNS_26PxgPatchAndContactCountersEPjSJ_SG_SG_SG_jjj@@YAXIPEIBUPxgContactManagerInput@physx@@PEIAUPxsContactManagerOutput@2@PEIBUPxgShape@2@PEIBUPxsCachedTransform@2@PEBMPEIBUPxsMaterialData@2@PEIAE6PEIAUPxgPatchAndContactCounters@2@PEIAI8666III@Z 0000000180031930 f   convexCoreCollision.obj
 0001:00030ae0       ?__device_stub__Z32convexCoreTrimeshNphase_Kernel32jPKN5physx22PxgContactManagerInputEPNS_23PxsContactManagerOutputEPKNS_8PxgShapeEPKNS_18PxsCachedTransformEPKfPKNS_15PxsMaterialDataEPhSG_PNS_26PxgPatchAndContactCountersEPjSJ_SG_SG_SG_jjj@@YAXIPEIBUPxgContactManagerInput@physx@@PEIAUPxsContactManagerOutput@2@PEIBUPxgShape@2@PEIBUPxsCachedTransform@2@PEIBMPEIBUPxsMaterialData@2@PEIAE6PEIAUPxgPatchAndContactCounters@2@PEIAI8666III@Z 0000000180031ae0 f   convexCoreCollision.obj
 0001:00030c90       ?__device_stub__Z32convexCoreTetmeshNphase_Kernel32jPKN5physx22PxgContactManagerInputEPKNS_8PxgShapeEPKNS_11PxgSoftBodyEPKNS_11PxNodeIndexEPKNS_18PxsCachedTransformEPKfSG_NS_19PxgFEMContactWriterE@@YAXIPEIBUPxgContactManagerInput@physx@@PEIBUPxgShape@2@PEIBVPxgSoftBody@2@PEIBVPxNodeIndex@2@PEIBUPxsCachedTransform@2@PEIBM5AEAUPxgFEMContactWriter@2@@Z 0000000180031c90 f   convexCoreCollision.obj
 0001:00030dd0       ?__device_stub__Z34convexCoreClothmeshNphase_Kernel32PKhPKjPKN5physx22PxgContactManagerInputEPKNS3_8PxgShapeEPKNS3_11PxgFEMClothEPKNS3_11PxNodeIndexEPKNS3_18PxsCachedTransformEPKfSK_PKNS3_18PxgRigidFilterPairEjjPjNS3_19PxgFEMContactWriterE@@YAXPEIBEPEIBIPEIBUPxgContactManagerInput@physx@@PEIBUPxgShape@2@PEIBVPxgFEMCloth@2@PEIBVPxNodeIndex@2@PEIBUPxsCachedTransform@2@PEIBM7PEIBVPxgRigidFilterPair@2@IIPEIAIAEAUPxgFEMContactWriter@2@@Z 0000000180031dd0 f   convexCoreCollision.obj
 0001:00031290       initNarrowphaseKernels9    0000000180032290 f   cudaSphere.obj
 0001:000312a0       sphereNphase_Kernel        00000001800322a0 f   cudaSphere.obj
 0001:00031530       ?__device_stub__Z19sphereNphase_KerneljfPKN5physx22PxgContactManagerInputEPNS_23PxsContactManagerOutputEPNS_8PxgShapeEPKNS_18PxsCachedTransformEPKfPKNS_15PxsMaterialDataEPhSF_PNS_26PxgPatchAndContactCountersEPjSI_SF_SF_SF_jjj@@YAXIMPEIBUPxgContactManagerInput@physx@@PEIAUPxsContactManagerOutput@2@PEIAUPxgShape@2@PEIBUPxsCachedTransform@2@PEBMPEIBUPxsMaterialData@2@PEIAE6PEIAUPxgPatchAndContactCounters@2@PEIAI8666III@Z 0000000180032530 f   cudaSphere.obj
 0001:00031aa0       initNarrowphaseKernels23   0000000180032aa0 f   cudaBox.obj
 0001:00031ab0       ?getIncidentPolygon4@@YA?AV?$PxVec3T@M@physx@@AEAV12@AEBV12@AEBV?$PxMat34T@M@2@1III@Z 0000000180032ab0 f   cudaBox.obj
 0001:00031ad0       boxBoxNphase_Kernel        0000000180032ad0 f   cudaBox.obj
 0001:00031d60       ?__device_stub__Z19boxBoxNphase_KerneljPKN5physx22PxgContactManagerInputEPNS_23PxsContactManagerOutputEPNS_8PxgShapeEPKNS_18PxsCachedTransformEPKfPKNS_15PxsMaterialDataEPhSF_PNS_26PxgPatchAndContactCountersEPjSI_SF_SF_SF_jjjf@@YAXIPEIBUPxgContactManagerInput@physx@@PEIAUPxsContactManagerOutput@2@PEIAUPxgShape@2@PEIBUPxsCachedTransform@2@PEBMPEIBUPxsMaterialData@2@PEIAE6PEIAUPxgPatchAndContactCounters@2@PEIAI8666IIIM@Z 0000000180032d60 f   cudaBox.obj
 0001:000322d0       initNarrowphaseKernels17   00000001800332d0 f   compressOutputContacts.obj
 0001:000322e0       compressContactStage1      00000001800332e0 f   compressOutputContacts.obj
 0001:000323e0       compressContactStage2      00000001800333e0 f   compressOutputContacts.obj
 0001:000325f0       updateFrictionPatches      00000001800335f0 f   compressOutputContacts.obj
 0001:00032730       ?__device_stub__Z21compressContactStage1PN5physx23PxsContactManagerOutputEjPj@@YAXPEAUPxsContactManagerOutput@physx@@IPEAI@Z 0000000180033730 f   compressOutputContacts.obj
 0001:00032830       ?__device_stub__Z21compressContactStage2PKN5physx22PxgContactManagerInputEPKNS_23PxsContactManagerOutputEjPNS_11PxNodeIndexEPPNS_7PxActorEPjPhSC_PfSC_SC_SD_SC_SB_PNS_16PxGpuContactPairEj@@YAXPEBUPxgContactManagerInput@physx@@PEBUPxsContactManagerOutput@2@IPEAVPxNodeIndex@2@PEAPEAVPxActor@2@PEAIPEAE5PEAM55654PEAUPxGpuContactPair@2@I@Z 0000000180033830 f   compressOutputContacts.obj
 0001:000329c0       ?__device_stub__Z21updateFrictionPatchesjPKhPhPN5physx23PxsContactManagerOutputE@@YAXIPEIBEPEIAEPEIAUPxsContactManagerOutput@physx@@@Z 00000001800339c0 f   compressOutputContacts.obj
 0001:00032d60       initNarrowphaseKernels7    0000000180033d60 f   pairManagement.obj
 0001:00032d70       removeContactManagers_Stage1 0000000180033d70 f   pairManagement.obj
 0001:00032e30       removeContactManagers_Stage2 0000000180033e30 f   pairManagement.obj
 0001:00032ef0       removeContactManagers_Stage3 0000000180033ef0 f   pairManagement.obj
 0001:00032fb0       removeContactManagers_Stage4 0000000180033fb0 f   pairManagement.obj
 0001:00033070       removeContactManagers_Stage5 0000000180034070 f   pairManagement.obj
 0001:00033140       removeContactManagers_Stage5_CvxTri 0000000180034140 f   pairManagement.obj
 0001:00033210       initializeManifolds        0000000180034210 f   pairManagement.obj
 0001:00033350       ?__device_stub__Z28removeContactManagers_Stage1PKN5physx21PxgPairManagementDataE@@YAXPEIBUPxgPairManagementData@physx@@@Z 0000000180034350 f   pairManagement.obj
 0001:00033410       ?__device_stub__Z28removeContactManagers_Stage2PKN5physx21PxgPairManagementDataE@@YAXPEIBUPxgPairManagementData@physx@@@Z 0000000180034410 f   pairManagement.obj
 0001:000334d0       ?__device_stub__Z28removeContactManagers_Stage3PKN5physx21PxgPairManagementDataE@@YAXPEIBUPxgPairManagementData@physx@@@Z 00000001800344d0 f   pairManagement.obj
 0001:00033590       ?__device_stub__Z28removeContactManagers_Stage4PKN5physx21PxgPairManagementDataE@@YAXPEIBUPxgPairManagementData@physx@@@Z 0000000180034590 f   pairManagement.obj
 0001:00033650       ?__device_stub__Z28removeContactManagers_Stage5PKN5physx21PxgPairManagementDataEb@@YAXPEIBUPxgPairManagementData@physx@@_N@Z 0000000180034650 f   pairManagement.obj
 0001:00033720       ?__device_stub__Z35removeContactManagers_Stage5_CvxTriPKN5physx21PxgPairManagementDataEb@@YAXPEIBUPxgPairManagementData@physx@@_N@Z 0000000180034720 f   pairManagement.obj
 0001:000337f0       ?__device_stub__Z19initializeManifoldsP6float4PKS_jj@@YAXPEAUfloat4@@PEBU1@II@Z 00000001800347f0 f   pairManagement.obj
 0001:00033cc0       initNarrowphaseKernels10   0000000180034cc0 f   cudaParticleSystem.obj
 0001:00033cd0       ps_primitivesBoundFirstPassLaunch 0000000180034cd0 f   cudaParticleSystem.obj
 0001:00033e50       ps_primitivesBoundSecondPassLaunch 0000000180034e50 f   cudaParticleSystem.obj
 0001:00033f60       ?particlePrimitiveCollision@@YA_NAEBV?$PxVec3T@M@physx@@0MAEBV?$PxTransformT@M@2@W4Enum@PxGeometryType@2@0AEBUPxgShape@2@_NAEAV12@AEAM@Z 0000000180034f60 f   cudaParticleSystem.obj
 0001:00033f80       ?psPrimitivesCollision@@YAX_NIAEAUPxgShape@physx@@1IIPEIBUPxsCachedTransform@2@AEAVPxgParticleSystem@2@IMMPEIBUPxsMaterialData@2@IIPEBVPxNodeIndex@2@AEAUPxgParticleContactWriter@2@@Z 0000000180034f80 f   cudaParticleSystem.obj
 0001:00033fa0       ?psDiffusePrimitivesCollision@@YAX_NIAEAUPxgShape@physx@@1IIPEIBUPxsCachedTransform@2@AEAVPxgParticleSystem@2@IMMPEIBUPxsMaterialData@2@IIPEBVPxNodeIndex@2@@Z 0000000180034fa0 f   cudaParticleSystem.obj
 0001:00033fc0       ?psConvexCollision@@YAX_NIAEAUPxgShape@physx@@1IIPEIBUPxsCachedTransform@2@IMMPEIBUPxsMaterialData@2@IPEBVPxNodeIndex@2@PEAUPxgParticlePrimitiveContact@2@PEAHPEA_KPEAI8788AEAUParticleConvexCollideScratch@@AEAUEpaScratch@squawk@@AEAVPxgParticleSystem@2@I@Z 0000000180034fc0 f   cudaParticleSystem.obj
 0001:00033fe0       ?psConvexDiffuseCollision@@YAX_NIAEAUPxgShape@physx@@1IIPEIBUPxsCachedTransform@2@IMMPEIBUPxsMaterialData@2@IPEBVPxNodeIndex@2@AEAUParticleConvexCollideScratch@@AEAUEpaScratch@squawk@@AEAVPxgParticleSystem@2@@Z 0000000180034fe0 f   cudaParticleSystem.obj
 0001:00034000       ps_primitivesCollisionLaunch 0000000180035000 f   cudaParticleSystem.obj
 0001:000341f0       ps_primitivesDiffuseCollisionLaunch 00000001800351f0 f   cudaParticleSystem.obj
 0001:000343d0       ps_convexCollisionLaunch   00000001800353d0 f   cudaParticleSystem.obj
 0001:00034690       ps_convexDiffuseCollisionLaunch 0000000180035690 f   cudaParticleSystem.obj
 0001:00034870       ps_reorderPrimitiveContactsLaunch 0000000180035870 f   cudaParticleSystem.obj
 0001:000349d0       ?__device_stub__Z33ps_primitivesBoundFirstPassLaunchjPKN5physx22PxgContactManagerInputEPKNS_8PxgShapeEPKNS_18PxsCachedTransformEPKNS_9PxBounds3EPKfPKNS_17PxgParticleSystemEPjSH_@@YAXIPEIBUPxgContactManagerInput@physx@@PEIBUPxgShape@2@PEIBUPxsCachedTransform@2@PEIBVPxBounds3@2@PEBMPEBVPxgParticleSystem@2@PEAI6@Z 00000001800359d0 f   cudaParticleSystem.obj
 0001:00034b10       ?__device_stub__Z34ps_primitivesBoundSecondPassLaunchjPKjPjS1_@@YAXIPEBIPEAI1@Z 0000000180035b10 f   cudaParticleSystem.obj
 0001:00034c20       ?__device_stub__Z28ps_primitivesCollisionLaunchbjfPKN5physx22PxgContactManagerInputEPNS_8PxgShapeEPKNS_18PxsCachedTransformEPKNS_9PxBounds3EPKfSC_PKNS_15PxsMaterialDataEPKjSH_PNS_17PxgParticleSystemEPKNS_11PxNodeIndexENS_24PxgParticleContactWriterE@@YAX_NIMPEIBUPxgContactManagerInput@physx@@PEIAUPxgShape@2@PEIBUPxsCachedTransform@2@PEIBVPxBounds3@2@PEIBM5PEIBUPxsMaterialData@2@PEIBIPEBIPEIAVPxgParticleSystem@2@PEBVPxNodeIndex@2@AEAUPxgParticleContactWriter@2@@Z 0000000180035c20 f   cudaParticleSystem.obj
 0001:00034da0       ?__device_stub__Z35ps_primitivesDiffuseCollisionLaunchbjfPKN5physx22PxgContactManagerInputEPNS_8PxgShapeEPKNS_18PxsCachedTransformEPKNS_9PxBounds3EPKfSC_PKNS_15PxsMaterialDataEPKjSH_PNS_17PxgParticleSystemEPKNS_11PxNodeIndexE@@YAX_NIMPEIBUPxgContactManagerInput@physx@@PEIAUPxgShape@2@PEIBUPxsCachedTransform@2@PEIBVPxBounds3@2@PEIBM5PEIBUPxsMaterialData@2@PEIBIPEBIPEIAVPxgParticleSystem@2@PEIBVPxNodeIndex@2@@Z 0000000180035da0 f   cudaParticleSystem.obj
 0001:00034f10       ?__device_stub__Z24ps_convexCollisionLaunchbjfPKN5physx22PxgContactManagerInputEPNS_8PxgShapeEPKNS_18PxsCachedTransformEPKNS_9PxBounds3EPKfSC_PKNS_15PxsMaterialDataEPKjSH_PNS_17PxgParticleSystemEPKNS_11PxNodeIndexEPNS_27PxgParticlePrimitiveContactEPiPyPjSR_SQ_SR_SR_j@@YAX_NIMPEIBUPxgContactManagerInput@physx@@PEIAUPxgShape@2@PEIBUPxsCachedTransform@2@PEIBVPxBounds3@2@PEIBM5PEIBUPxsMaterialData@2@PEIBIPEBIPEIAVPxgParticleSystem@2@PEBVPxNodeIndex@2@PEIAUPxgParticlePrimitiveContact@2@PEAHPEA_KPEAIPEAIPEA_KPEAIPEAII@Z 0000000180035f10 f   cudaParticleSystem.obj
 0001:00035100       ?__device_stub__Z31ps_convexDiffuseCollisionLaunchbjfPKN5physx22PxgContactManagerInputEPNS_8PxgShapeEPKNS_18PxsCachedTransformEPKNS_9PxBounds3EPKfSC_PKNS_15PxsMaterialDataEPKjSH_PNS_17PxgParticleSystemEPKNS_11PxNodeIndexE@@YAX_NIMPEIBUPxgContactManagerInput@physx@@PEIAUPxgShape@2@PEIBUPxsCachedTransform@2@PEIBVPxBounds3@2@PEIBM5PEIBUPxsMaterialData@2@PEIBIPEBIPEIAVPxgParticleSystem@2@PEBVPxNodeIndex@2@@Z 0000000180036100 f   cudaParticleSystem.obj
 0001:00035270       ?__device_stub__Z33ps_reorderPrimitiveContactsLaunchPKN5physx27PxgParticlePrimitiveContactEPKiPKjS6_PS0_S7_@@YAXPEIBUPxgParticlePrimitiveContact@physx@@PEBHPEBI2PEIAU12@3@Z 0000000180036270 f   cudaParticleSystem.obj
 0001:00035830       initNarrowphaseKernels11   0000000180036830 f   particleSystemMeshMidphase.obj
 0001:00035840       ps_sdfMeshCollisonLaunch   0000000180036840 f   particleSystemMeshMidphase.obj
 0001:000359b0       ps_meshCollisonLaunch      00000001800369b0 f   particleSystemMeshMidphase.obj
 0001:00035b60       ?__device_stub__Z24ps_sdfMeshCollisonLaunchfPKN5physx22PxgContactManagerInputEPKNS_18PxsCachedTransformEPKfS7_PKNS_8PxgShapeEPNS_17PxgParticleSystemEPNS_11PxNodeIndexENS_24PxgParticleContactWriterE@@YAXMPEIBUPxgContactManagerInput@physx@@PEIBUPxsCachedTransform@2@PEIBM2PEIBUPxgShape@2@PEIAVPxgParticleSystem@2@PEIAVPxNodeIndex@2@AEAUPxgParticleContactWriter@2@@Z 0000000180036b60 f   particleSystemMeshMidphase.obj
 0001:00035ca0       ?__device_stub__Z21ps_meshCollisonLaunchbfPKN5physx22PxgContactManagerInputEPKNS_18PxsCachedTransformEPKfS7_PKNS_8PxgShapeEPNS_17PxgParticleSystemEPNS_11PxNodeIndexENS_24PxgParticleContactWriterE@@YAX_NMPEIBUPxgContactManagerInput@physx@@PEIBUPxsCachedTransform@2@PEIBM3PEIBUPxgShape@2@PEIAVPxgParticleSystem@2@PEIAVPxNodeIndex@2@AEAUPxgParticleContactWriter@2@@Z 0000000180036ca0 f   particleSystemMeshMidphase.obj
 0001:00036150       initNarrowphaseKernels12   0000000180037150 f   particleSystemHFMidPhaseCG.obj
 0001:00036160       ps_heightfieldCollisonLaunch 0000000180037160 f   particleSystemHFMidPhaseCG.obj
 0001:00036310       ?__device_stub__Z28ps_heightfieldCollisonLaunchbfPKN5physx22PxgContactManagerInputEPKNS_18PxsCachedTransformEPKfS7_PKNS_8PxgShapeEPNS_17PxgParticleSystemEPNS_11PxNodeIndexENS_24PxgParticleContactWriterE@@YAX_NMPEIBUPxgContactManagerInput@physx@@PEIBUPxsCachedTransform@2@PEIBM3PEIBUPxgShape@2@PEIAVPxgParticleSystem@2@PEIAVPxNodeIndex@2@AEAUPxgParticleContactWriter@2@@Z 0000000180037310 f   particleSystemHFMidPhaseCG.obj
 0001:000369b0       initNarrowphaseKernels13   00000001800379b0 f   softbodyMidPhase.obj
 0001:000369c0       sb_midphaseGeneratePairsLaunch 00000001800379c0 f   softbodyMidPhase.obj
 0001:00036b70       sb_psMidphaseGeneratePairsLaunch 0000000180037b70 f   softbodyMidPhase.obj
 0001:00036d30       sb_clothVertMidphaseGeneratePairsLaunch 0000000180037d30 f   softbodyMidPhase.obj
 0001:00036f20       ?__device_stub__Z30sb_midphaseGeneratePairsLaunchjfPKN5physx22PxgContactManagerInputEPKNS_18PxsCachedTransformEPKNS_9PxBounds3EPKfPKNS_8PxgShapeEPKNS_11PxgSoftBodyEjPhPj@@YAXIMPEIBUPxgContactManagerInput@physx@@PEIBUPxsCachedTransform@2@PEIBVPxBounds3@2@PEIBMPEIBUPxgShape@2@PEIBVPxgSoftBody@2@IPEIAEPEIAI@Z 0000000180037f20 f   softbodyMidPhase.obj
 0001:00037070       ?__device_stub__Z32sb_psMidphaseGeneratePairsLaunchjfPKN5physx22PxgContactManagerInputEPKNS_8PxgShapeEPKNS_18PxsCachedTransformEPKNS_9PxBounds3EPKfPKNS_11PxgSoftBodyEPNS_17PxgParticleSystemEjPhPj@@YAXIMPEIBUPxgContactManagerInput@physx@@PEIBUPxgShape@2@PEIBUPxsCachedTransform@2@PEIBVPxBounds3@2@PEIBMPEIBVPxgSoftBody@2@PEIAVPxgParticleSystem@2@IPEIAEPEIAI@Z 0000000180038070 f   softbodyMidPhase.obj
 0001:000371d0       ?__device_stub__Z39sb_clothVertMidphaseGeneratePairsLaunchfPKN5physx22PxgContactManagerInputEPKNS_18PxsCachedTransformEPKNS_9PxBounds3EPKfPKNS_8PxgShapeEPKNS_11PxgSoftBodyEPKNS_11PxgFEMClothEjfPhPj@@YAXMPEIBUPxgContactManagerInput@physx@@PEIBUPxsCachedTransform@2@PEIBVPxBounds3@2@PEIBMPEIBUPxgShape@2@PEIBVPxgSoftBody@2@PEIBVPxgFEMCloth@2@IMPEIAEPEIAI@Z 00000001800381d0 f   softbodyMidPhase.obj
 0001:000376d0       initNarrowphaseKernels14   00000001800386d0 f   softbodyPrimitives.obj
 0001:000376e0       ?isTetrahedronValid@@YA_NPEAV?$PxVec3T@M@physx@@@Z 00000001800386e0 f   softbodyPrimitives.obj
 0001:00037700       ?computeSurfaceNormal@@YA?AV?$PxVec3T@M@physx@@AEBV12@0000E@Z 0000000180038700 f   softbodyPrimitives.obj
 0001:00037720       sb_primitiveContactGenLaunch 0000000180038720 f   softbodyPrimitives.obj
 0001:00037910       sb_meshContactGenLaunch    0000000180038910 f   softbodyPrimitives.obj
 0001:00037b00       sb_heightfieldContactGenLaunch 0000000180038b00 f   softbodyPrimitives.obj
 0001:00037cd0       sb_clothContactGenLaunch   0000000180038cd0 f   softbodyPrimitives.obj
 0001:00037eb0       fem_reorderRigidContactsLaunch 0000000180038eb0 f   softbodyPrimitives.obj
 0001:00038060       sb_reorderPSContactsLaunch 0000000180039060 f   softbodyPrimitives.obj
 0001:000381f0       ?getClosestPtPointTetrahedron@@YA?AV?$PxVec3T@M@physx@@AEBV12@0000AEBUfloat4@@@Z 00000001800391f0 f   softbodyPrimitives.obj
 0001:00038210       ?checkNormals@@YA_NAEBV?$PxVec3T@M@physx@@0000E@Z 0000000180039210 f   softbodyPrimitives.obj
 0001:00038230       sb_psContactGenLaunch      0000000180039230 f   softbodyPrimitives.obj
 0001:00038420       sb_rcs_contact_remap_to_simLaunch 0000000180039420 f   softbodyPrimitives.obj
 0001:00038590       sb_ss_contact_remap_to_simLaunch 0000000180039590 f   softbodyPrimitives.obj
 0001:000386d0       sb_clothVertContactGenLaunch 00000001800396d0 f   softbodyPrimitives.obj
 0001:000388e0       ?__device_stub__Z28sb_primitiveContactGenLaunchfPKN5physx22PxgContactManagerInputEPKNS_18PxsCachedTransformEPKfS7_PKNS_8PxgShapeEPKNS_11PxgSoftBodyEPKNS_11PxNodeIndexEPhPjjPNS_18PxgRigidFilterPairEjSI_NS_19PxgFEMContactWriterE@@YAXMPEIBUPxgContactManagerInput@physx@@PEIBUPxsCachedTransform@2@PEIBM2PEIBUPxgShape@2@PEIBVPxgSoftBody@2@PEIBVPxNodeIndex@2@PEIAEPEIAIIPEAVPxgRigidFilterPair@2@I7AEAUPxgFEMContactWriter@2@@Z 00000001800398e0 f   softbodyPrimitives.obj
 0001:00038a70       ?__device_stub__Z23sb_meshContactGenLaunchfPKN5physx22PxgContactManagerInputEPKNS_18PxsCachedTransformEPKfS7_PKNS_8PxgShapeEPKNS_11PxgSoftBodyEPKNS_11PxNodeIndexEPhPjjPNS_18PxgRigidFilterPairEjSI_NS_19PxgFEMContactWriterE@@YAXMPEIBUPxgContactManagerInput@physx@@PEIBUPxsCachedTransform@2@PEIBM2PEIBUPxgShape@2@PEIBVPxgSoftBody@2@PEIBVPxNodeIndex@2@PEIAEPEIAIIPEIAVPxgRigidFilterPair@2@I7AEAUPxgFEMContactWriter@2@@Z 0000000180039a70 f   softbodyPrimitives.obj
 0001:00038c00       ?__device_stub__Z30sb_heightfieldContactGenLaunchfPKN5physx22PxgContactManagerInputEPKNS_18PxsCachedTransformEPKfS7_PKNS_8PxgShapeEPKNS_11PxgSoftBodyEPKNS_11PxNodeIndexEPhPjjSI_NS_19PxgFEMContactWriterE@@YAXMPEIBUPxgContactManagerInput@physx@@PEIBUPxsCachedTransform@2@PEIBM2PEIBUPxgShape@2@PEIBVPxgSoftBody@2@PEIBVPxNodeIndex@2@PEIAEPEIAII7AEAUPxgFEMContactWriter@2@@Z 0000000180039c00 f   softbodyPrimitives.obj
 0001:00038d70       ?__device_stub__Z24sb_clothContactGenLaunchfPKN5physx22PxgContactManagerInputEPKNS_18PxsCachedTransformEPKfPKNS_8PxgShapeEPKNS_11PxgSoftBodyEPKNS_11PxgFEMClothEPhPjjPNS_21PxgNonRigidFilterPairEjSI_NS_24PxgSoftBodyContactWriterE@@YAXMPEIBUPxgContactManagerInput@physx@@PEIBUPxsCachedTransform@2@PEIBMPEIBUPxgShape@2@PEIBVPxgSoftBody@2@PEIBVPxgFEMCloth@2@PEIAEPEIAIIPEAVPxgNonRigidFilterPair@2@I7AEAUPxgSoftBodyContactWriter@2@@Z 0000000180039d70 f   softbodyPrimitives.obj
 0001:00038ee0       ?__device_stub__Z30fem_reorderRigidContactsLaunchPK6float4S1_S1_PKN5physx17PxgFemContactInfoEPKjS7_PS_S8_S8_PS3_Py@@YAXPEBUfloat4@@00PEBUPxgFemContactInfo@physx@@PEBI2PEAU1@33PEAU23@PEA_K@Z 0000000180039ee0 f   softbodyPrimitives.obj
 0001:00039030       ?__device_stub__Z26sb_reorderPSContactsLaunchPK6float4S1_S1_PKN5physx17PxgFemContactInfoEPKjS7_PS_S8_S8_PS3_@@YAXPEBUfloat4@@00PEBUPxgFemContactInfo@physx@@PEBI2PEAU1@33PEAU23@@Z 000000018003a030 f   softbodyPrimitives.obj
 0001:00039170       ?__device_stub__Z21sb_psContactGenLaunchfPKN5physx22PxgContactManagerInputEPKNS_18PxsCachedTransformEPKfS7_PKNS_8PxgShapeEPKNS_17PxgParticleSystemEPKNS_11PxgSoftBodyEPKNS_21PxgNonRigidFilterPairEjjPhPjSL_NS_19PxgFEMContactWriterE@@YAXMPEIBUPxgContactManagerInput@physx@@PEIBUPxsCachedTransform@2@PEIBM2PEIBUPxgShape@2@PEIBVPxgParticleSystem@2@PEIBVPxgSoftBody@2@PEIBVPxgNonRigidFilterPair@2@IIPEIAEPEIAI8AEAUPxgFEMContactWriter@2@@Z 000000018003a170 f   softbodyPrimitives.obj
 0001:00039300       ?__device_stub__Z33sb_rcs_contact_remap_to_simLaunchPKN5physx11PxgSoftBodyEjPK6float4PS3_PNS_24PxgFemVsRigidContactInfoES6_PjPKj@@YAXPEIBVPxgSoftBody@physx@@IPEBUfloat4@@PEAU3@PEAUPxgFemVsRigidContactInfo@2@PEIAU3@PEAIPEBI@Z 000000018003a300 f   softbodyPrimitives.obj
 0001:00039430       ?__device_stub__Z32sb_ss_contact_remap_to_simLaunchPKN5physx11PxgSoftBodyEP6float4S4_PNS_17PxgFemContactInfoEPjS7_j@@YAXPEIBVPxgSoftBody@physx@@PEAUfloat4@@1PEAUPxgFemContactInfo@2@PEAI3I@Z 000000018003a430 f   softbodyPrimitives.obj
 0001:00039550       ?__device_stub__Z28sb_clothVertContactGenLaunchfPKN5physx22PxgContactManagerInputEPKNS_18PxsCachedTransformEPKfPKNS_8PxgShapeEPKNS_11PxgSoftBodyEPKNS_11PxgFEMClothEjPhPjPNS_21PxgNonRigidFilterPairEjSI_NS_24PxgSoftBodyContactWriterE@@YAXMPEIBUPxgContactManagerInput@physx@@PEIBUPxsCachedTransform@2@PEIBMPEIBUPxgShape@2@PEIBVPxgSoftBody@2@PEIBVPxgFEMCloth@2@IPEIAEPEIAIPEIAVPxgNonRigidFilterPair@2@I7AEAUPxgSoftBodyContactWriter@2@@Z 000000018003a550 f   softbodyPrimitives.obj
 0001:00039ca0       initNarrowphaseKernels15   000000018003aca0 f   softbodySoftbodyMidPhase.obj
 0001:00039cb0       ?minProject@@YAMAEBVPxPlane@physx@@AEBV?$PxVec3T@M@2@11@Z 000000018003acb0 f   softbodySoftbodyMidPhase.obj
 0001:00039cd0       ?computeTetBoundWithTetrahedron@@YA_NAEBV?$PxVec3T@M@physx@@000AEAVPxBounds3@2@AEAUTetrahedron@Gu@2@@Z 000000018003acd0 f   softbodySoftbodyMidPhase.obj
 0001:00039cf0       ?computeTetBoundWithTetrahedron@@YA_NQEIBUuint4@@IQEIBUfloat4@@AEAVPxBounds3@physx@@AEAUTetrahedron@Gu@4@@Z 000000018003acf0 f   softbodySoftbodyMidPhase.obj
 0001:00039d10       sb_sbMidphaseGeneratePairsLaunch 000000018003ad10 f   softbodySoftbodyMidPhase.obj
 0001:00039e70       sb_selfCollisionMidphaseGeneratePairsLaunch 000000018003ae70 f   softbodySoftbodyMidPhase.obj
 0001:00039f80       sb_sdfMeshMidphaseGeneratePairsLaunch 000000018003af80 f   softbodySoftbodyMidPhase.obj
 0001:0003a140       sb_meshMidphaseGeneratePairsLaunch 000000018003b140 f   softbodySoftbodyMidPhase.obj
 0001:0003a2d0       sb_clothMidphaseGeneratePairsLaunch 000000018003b2d0 f   softbodySoftbodyMidPhase.obj
 0001:0003a4b0       ?__device_stub__Z32sb_sbMidphaseGeneratePairsLaunchfPKN5physx22PxgContactManagerInputEPKNS_18PxsCachedTransformEPKNS_9PxBounds3EPKfPKNS_8PxgShapeEPKNS_11PxgSoftBodyENS_24PxgSoftBodyContactWriterE@@YAXMPEIBUPxgContactManagerInput@physx@@PEIBUPxsCachedTransform@2@PEIBVPxBounds3@2@PEIBMPEIBUPxgShape@2@PEIBVPxgSoftBody@2@AEAUPxgSoftBodyContactWriter@2@@Z 000000018003b4b0 f   softbodySoftbodyMidPhase.obj
 0001:0003a5e0       ?__device_stub__Z43sb_selfCollisionMidphaseGeneratePairsLaunchPKjPKfPKN5physx11PxgSoftBodyENS3_24PxgSoftBodyContactWriterE@@YAXPEBIPEIBMPEIBVPxgSoftBody@physx@@AEAUPxgSoftBodyContactWriter@2@@Z 000000018003b5e0 f   softbodySoftbodyMidPhase.obj
 0001:0003a6f0       ?__device_stub__Z37sb_sdfMeshMidphaseGeneratePairsLaunchfPKN5physx22PxgContactManagerInputEPKNS_18PxsCachedTransformEPKNS_9PxBounds3EPKfSA_PKNS_8PxgShapeEPKNS_11PxgSoftBodyEPKNS_11PxNodeIndexEPNS_18PxgRigidFilterPairEjNS_19PxgFEMContactWriterE@@YAXMPEIBUPxgContactManagerInput@physx@@PEIBUPxsCachedTransform@2@PEIBVPxBounds3@2@PEIBM3PEIBUPxgShape@2@PEIBVPxgSoftBody@2@PEIBVPxNodeIndex@2@PEAVPxgRigidFilterPair@2@IAEAUPxgFEMContactWriter@2@@Z 000000018003b6f0 f   softbodySoftbodyMidPhase.obj
 0001:0003a850       ?__device_stub__Z34sb_meshMidphaseGeneratePairsLaunchfPKN5physx22PxgContactManagerInputEPKNS_18PxsCachedTransformEPKNS_9PxBounds3EPKfPKNS_8PxgShapeEPKNS_11PxgSoftBodyEjPhPj@@YAXMPEIBUPxgContactManagerInput@physx@@PEIBUPxsCachedTransform@2@PEIBVPxBounds3@2@PEIBMPEIBUPxgShape@2@PEIBVPxgSoftBody@2@IPEIAEPEIAI@Z 000000018003b850 f   softbodySoftbodyMidPhase.obj
 0001:0003a990       ?__device_stub__Z35sb_clothMidphaseGeneratePairsLaunchfPKN5physx22PxgContactManagerInputEPKNS_18PxsCachedTransformEPKNS_9PxBounds3EPKfPKNS_8PxgShapeEPKNS_11PxgSoftBodyEPKNS_11PxgFEMClothEjPhPj@@YAXMPEIBUPxgContactManagerInput@physx@@PEIBUPxsCachedTransform@2@PEIBVPxBounds3@2@PEIBMPEIBUPxgShape@2@PEIBVPxgSoftBody@2@PEIBVPxgFEMCloth@2@IPEIAEPEIAI@Z 000000018003b990 f   softbodySoftbodyMidPhase.obj
 0001:0003af20       initNarrowphaseKernels16   000000018003bf20 f   softbodyHFMidPhase.obj
 0001:0003af30       sb_heightfieldMidphaseGeneratePairsLaunch 000000018003bf30 f   softbodyHFMidPhase.obj
 0001:0003b0f0       ?__device_stub__Z41sb_heightfieldMidphaseGeneratePairsLaunchjfPKN5physx22PxgContactManagerInputEPKNS_18PxsCachedTransformEPKfPKNS_8PxgShapeEPNS_11PxgSoftBodyEjPhPj@@YAXIMPEIBUPxgContactManagerInput@physx@@PEIBUPxsCachedTransform@2@PEIBMPEIBUPxgShape@2@PEIAVPxgSoftBody@2@IPEAEPEAI@Z 000000018003c0f0 f   softbodyHFMidPhase.obj
 0001:0003b780       initNarrowphaseKernels18   000000018003c780 f   femClothMidPhase.obj
 0001:0003b790       cloth_midphaseGeneratePairsLaunch 000000018003c790 f   femClothMidPhase.obj
 0001:0003b940       cloth_midphaseGenerateVertexPairsLaunch 000000018003c940 f   femClothMidPhase.obj
 0001:0003bad0       cloth_psMidphaseGeneratePairsLaunch 000000018003cad0 f   femClothMidPhase.obj
 0001:0003bc90       cloth_midphaseVertexMeshLaunch 000000018003cc90 f   femClothMidPhase.obj
 0001:0003be70       ?__device_stub__Z33cloth_midphaseGeneratePairsLaunchjfPKN5physx22PxgContactManagerInputEPKNS_18PxsCachedTransformEPKNS_9PxBounds3EPKfPKNS_8PxgShapeEPKNS_11PxgFEMClothEPhPjj@@YAXIMPEIBUPxgContactManagerInput@physx@@PEIBUPxsCachedTransform@2@PEIBVPxBounds3@2@PEIBMPEIBUPxgShape@2@PEIBVPxgFEMCloth@2@PEIAEPEIAII@Z 000000018003ce70 f   femClothMidPhase.obj
 0001:0003bfc0       ?__device_stub__Z39cloth_midphaseGenerateVertexPairsLaunchjfPKN5physx22PxgContactManagerInputEPKNS_18PxsCachedTransformEPKNS_9PxBounds3EPKfPKNS_8PxgShapeEPKNS_11PxgFEMClothEP5uint4Pj@@YAXIMPEIBUPxgContactManagerInput@physx@@PEIBUPxsCachedTransform@2@PEIBVPxBounds3@2@PEIBMPEIBUPxgShape@2@PEIBVPxgFEMCloth@2@PEIAUuint4@@PEIAI@Z 000000018003cfc0 f   femClothMidPhase.obj
 0001:0003c100       ?__device_stub__Z35cloth_psMidphaseGeneratePairsLaunchjfPKN5physx22PxgContactManagerInputEPKNS_8PxgShapeEPKNS_18PxsCachedTransformEPKNS_9PxBounds3EPKfPKNS_11PxgFEMClothEPNS_17PxgParticleSystemEjPhPj@@YAXIMPEIBUPxgContactManagerInput@physx@@PEIBUPxgShape@2@PEIBUPxsCachedTransform@2@PEIBVPxBounds3@2@PEIBMPEIBVPxgFEMCloth@2@PEIAVPxgParticleSystem@2@IPEIAEPEIAI@Z 000000018003d100 f   femClothMidPhase.obj
 0001:0003c260       ?__device_stub__Z30cloth_midphaseVertexMeshLaunchjfPKN5physx22PxgContactManagerInputEPKNS_18PxsCachedTransformEPKNS_9PxBounds3EPKfPKNS_8PxgShapeEPKNS_11PxgFEMClothEjPhPj@@YAXIMPEIBUPxgContactManagerInput@physx@@PEIBUPxsCachedTransform@2@PEIBVPxBounds3@2@PEIBMPEIBUPxgShape@2@PEIBVPxgFEMCloth@2@IPEIAEPEIAI@Z 000000018003d260 f   femClothMidPhase.obj
 0001:0003c790       initNarrowphaseKernels19   000000018003d790 f   femClothPrimitives.obj
 0001:0003c7a0       ?closestPtPointSegment@@YA?AV?$PxVec3T@M@physx@@AEBV12@0M0@Z 000000018003d7a0 f   femClothPrimitives.obj
 0001:0003c7c0       cloth_SphereContactGenLaunch 000000018003d7c0 f   femClothPrimitives.obj
 0001:0003c9b0       cloth_SphereVertexContactGenLaunch 000000018003d9b0 f   femClothPrimitives.obj
 0001:0003cb50       cloth_planeVertContactGenLaunch 000000018003db50 f   femClothPrimitives.obj
 0001:0003ccf0       ?findRotationMatrixFromZ@@YA?AV?$PxMat33T@M@physx@@AEBV?$PxVec3T@M@2@@Z 000000018003dcf0 f   femClothPrimitives.obj
 0001:0003cd10       ?contain@@YA_NV?$PxVec3T@M@physx@@00@Z 000000018003dd10 f   femClothPrimitives.obj
 0001:0003cd30       ?contains@@YA_NPEAV?$PxVec3T@M@physx@@IAEBV12@@Z 000000018003dd30 f   femClothPrimitives.obj
 0001:0003cd50       ?containsParallel@@YA_NAEBV?$PxVec3T@M@physx@@I0@Z 000000018003dd50 f   femClothPrimitives.obj
 0001:0003cd70       ?signed2DTriArea@@YAMAEBV?$PxVec3T@M@physx@@00@Z 000000018003dd70 f   femClothPrimitives.obj
 0001:0003cd90       ?segmentIntersect@@YA_NAEBV?$PxVec3T@M@physx@@00000AEAV12@1@Z 000000018003dd90 f   femClothPrimitives.obj
 0001:0003cdb0       ?addContacts@@YAXIAEBV?$PxVec3T@M@physx@@0MPECMAEAI@Z 000000018003ddb0 f   femClothPrimitives.obj
 0001:0003cdd0       ?addContacts@@YAXIAEBUfloat4@@AEBV?$PxVec3T@M@physx@@MPECMAEAI@Z 000000018003ddd0 f   femClothPrimitives.obj
 0001:0003cdf0       ?addContacts@@YAXIAEBUfloat4@@0AEBV?$PxVec3T@M@physx@@MPECMAEAI@Z 000000018003ddf0 f   femClothPrimitives.obj
 0001:0003ce10       cloth_convexContactGenLaunch 000000018003de10 f   femClothPrimitives.obj
 0001:0003d000       cloth_convexVertexContactGenLaunch 000000018003e000 f   femClothPrimitives.obj
 0001:0003d1f0       cloth_sdfMeshContactGenLaunch 000000018003e1f0 f   femClothPrimitives.obj
 0001:0003d390       cloth_heightfieldVertexContactGenLaunch 000000018003e390 f   femClothPrimitives.obj
 0001:0003d560       cloth_psContactGenLaunch   000000018003e560 f   femClothPrimitives.obj
 0001:0003d730       cloth_meshVertexContactGenLaunch 000000018003e730 f   femClothPrimitives.obj
 0001:0003d900       cloth_boxVertexContactGenLaunch 000000018003e900 f   femClothPrimitives.obj
 0001:0003daa0       cloth_boxTriangleContactGenLaunch 000000018003eaa0 f   femClothPrimitives.obj
 0001:0003dc90       cloth_heightfieldContactGenLaunch 000000018003ec90 f   femClothPrimitives.obj
 0001:0003de60       cloth_meshContactGenLaunch 000000018003ee60 f   femClothPrimitives.obj
 0001:0003e080       ?__device_stub__Z28cloth_SphereContactGenLaunchfPKN5physx22PxgContactManagerInputEPKNS_18PxsCachedTransformEPKfS7_PKNS_8PxgShapeEPKNS_11PxgFEMClothEPKNS_11PxNodeIndexEPhPjPNS_18PxgRigidFilterPairEjjSI_NS_19PxgFEMContactWriterE@@YAXMPEIBUPxgContactManagerInput@physx@@PEIBUPxsCachedTransform@2@PEIBM2PEIBUPxgShape@2@PEIBVPxgFEMCloth@2@PEIBVPxNodeIndex@2@PEIAEPEIAIPEAVPxgRigidFilterPair@2@II7AEAUPxgFEMContactWriter@2@@Z 000000018003f080 f   femClothPrimitives.obj
 0001:0003e210       ?__device_stub__Z34cloth_SphereVertexContactGenLaunchjPKN5physx22PxgContactManagerInputEPKNS_18PxsCachedTransformEPKfS7_PKNS_8PxgShapeEPNS_11PxgFEMClothEPKNS_11PxNodeIndexEPNS_18PxgRigidFilterPairEjNS_19PxgFEMContactWriterE@@YAXIPEIBUPxgContactManagerInput@physx@@PEIBUPxsCachedTransform@2@PEIBM2PEIBUPxgShape@2@PEIAVPxgFEMCloth@2@PEIBVPxNodeIndex@2@PEAVPxgRigidFilterPair@2@IAEAUPxgFEMContactWriter@2@@Z 000000018003f210 f   femClothPrimitives.obj
 0001:0003e360       ?__device_stub__Z31cloth_planeVertContactGenLaunchjPKN5physx22PxgContactManagerInputEPKNS_18PxsCachedTransformEPKfS7_PKNS_8PxgShapeEPKNS_11PxgFEMClothEPKNS_11PxNodeIndexEPNS_18PxgRigidFilterPairEjNS_19PxgFEMContactWriterE@@YAXIPEIBUPxgContactManagerInput@physx@@PEIBUPxsCachedTransform@2@PEIBM2PEIBUPxgShape@2@PEIBVPxgFEMCloth@2@PEIBVPxNodeIndex@2@PEAVPxgRigidFilterPair@2@IAEAUPxgFEMContactWriter@2@@Z 000000018003f360 f   femClothPrimitives.obj
 0001:0003e4b0       ?__device_stub__Z28cloth_convexContactGenLaunchfPKN5physx22PxgContactManagerInputEPKNS_18PxsCachedTransformEPKfS7_PKNS_8PxgShapeEPKNS_11PxgFEMClothEPKNS_11PxNodeIndexEPhPjPNS_18PxgRigidFilterPairEjjSI_NS_19PxgFEMContactWriterE@@YAXMPEIBUPxgContactManagerInput@physx@@PEIBUPxsCachedTransform@2@PEIBM2PEIBUPxgShape@2@PEIBVPxgFEMCloth@2@PEIBVPxNodeIndex@2@PEIAEPEIAIPEAVPxgRigidFilterPair@2@II7AEAUPxgFEMContactWriter@2@@Z 000000018003f4b0 f   femClothPrimitives.obj
 0001:0003e640       ?__device_stub__Z34cloth_convexVertexContactGenLaunchfPKN5physx22PxgContactManagerInputEPKNS_18PxsCachedTransformEPKfS7_PKNS_8PxgShapeEPNS_11PxgFEMClothEPKNS_11PxNodeIndexEPhPjPNS_18PxgRigidFilterPairEjjSH_NS_19PxgFEMContactWriterE@@YAXMPEIBUPxgContactManagerInput@physx@@PEIBUPxsCachedTransform@2@PEIBM2PEIBUPxgShape@2@PEIAVPxgFEMCloth@2@PEIBVPxNodeIndex@2@PEIAEPEIAIPEAVPxgRigidFilterPair@2@II7AEAUPxgFEMContactWriter@2@@Z 000000018003f640 f   femClothPrimitives.obj
 0001:0003e7d0       ?__device_stub__Z29cloth_sdfMeshContactGenLaunchjPKN5physx22PxgContactManagerInputEPKNS_18PxsCachedTransformEPKfS7_PKNS_8PxgShapeEPKNS_11PxgFEMClothEPKNS_11PxNodeIndexEPNS_18PxgRigidFilterPairEjNS_19PxgFEMContactWriterE@@YAXIPEIBUPxgContactManagerInput@physx@@PEIBUPxsCachedTransform@2@PEIBM2PEIBUPxgShape@2@PEIBVPxgFEMCloth@2@PEIBVPxNodeIndex@2@PEAVPxgRigidFilterPair@2@IAEAUPxgFEMContactWriter@2@@Z 000000018003f7d0 f   femClothPrimitives.obj
 0001:0003e920       ?__device_stub__Z39cloth_heightfieldVertexContactGenLaunchfPKN5physx22PxgContactManagerInputEPKNS_18PxsCachedTransformEPKfS7_PKNS_8PxgShapeEPNS_11PxgFEMClothEPKNS_11PxNodeIndexEPhPjNS_19PxgFEMContactWriterEjSH_@@YAXMPEIBUPxgContactManagerInput@physx@@PEIBUPxsCachedTransform@2@PEIBM2PEIBUPxgShape@2@PEIAVPxgFEMCloth@2@PEIBVPxNodeIndex@2@PEIAEPEIAIAEAUPxgFEMContactWriter@2@I7@Z 000000018003f920 f   femClothPrimitives.obj
 0001:0003ea90       ?__device_stub__Z24cloth_psContactGenLaunchfPKN5physx22PxgContactManagerInputEPKNS_18PxsCachedTransformEPKfS7_PKNS_8PxgShapeEPKNS_17PxgParticleSystemEPKNS_11PxgFEMClothEjPhPjSI_NS_19PxgFEMContactWriterE@@YAXMPEIBUPxgContactManagerInput@physx@@PEIBUPxsCachedTransform@2@PEIBM2PEIBUPxgShape@2@PEIBVPxgParticleSystem@2@PEIBVPxgFEMCloth@2@IPEIAEPEIAI7AEAUPxgFEMContactWriter@2@@Z 000000018003fa90 f   femClothPrimitives.obj
 0001:0003ec00       ?__device_stub__Z32cloth_meshVertexContactGenLaunchfPKN5physx22PxgContactManagerInputEPKNS_18PxsCachedTransformEPKfS7_PKNS_8PxgShapeEPNS_11PxgFEMClothEPKNS_11PxNodeIndexEjPhPjSH_NS_19PxgFEMContactWriterE@@YAXMPEIBUPxgContactManagerInput@physx@@PEIBUPxsCachedTransform@2@PEIBM2PEIBUPxgShape@2@PEIAVPxgFEMCloth@2@PEIBVPxNodeIndex@2@IPEIAEPEIAI7AEAUPxgFEMContactWriter@2@@Z 000000018003fc00 f   femClothPrimitives.obj
 0001:0003ed70       ?__device_stub__Z31cloth_boxVertexContactGenLaunchjPKN5physx22PxgContactManagerInputEPKNS_18PxsCachedTransformEPKfS7_PKNS_8PxgShapeEPKNS_11PxgFEMClothEPKNS_11PxNodeIndexEPNS_18PxgRigidFilterPairEjNS_19PxgFEMContactWriterE@@YAXIPEIBUPxgContactManagerInput@physx@@PEIBUPxsCachedTransform@2@PEIBM2PEIBUPxgShape@2@PEIBVPxgFEMCloth@2@PEIBVPxNodeIndex@2@PEAVPxgRigidFilterPair@2@IAEAUPxgFEMContactWriter@2@@Z 000000018003fd70 f   femClothPrimitives.obj
 0001:0003eec0       ?__device_stub__Z33cloth_boxTriangleContactGenLaunchfPKN5physx22PxgContactManagerInputEPKNS_18PxsCachedTransformEPKfS7_PKNS_8PxgShapeEPKNS_11PxgFEMClothEPKNS_11PxNodeIndexEPhPjPNS_18PxgRigidFilterPairEjjSI_NS_19PxgFEMContactWriterE@@YAXMPEIBUPxgContactManagerInput@physx@@PEIBUPxsCachedTransform@2@PEIBM2PEIBUPxgShape@2@PEIBVPxgFEMCloth@2@PEIBVPxNodeIndex@2@PEIAEPEIAIPEAVPxgRigidFilterPair@2@II7AEAUPxgFEMContactWriter@2@@Z 000000018003fec0 f   femClothPrimitives.obj
 0001:0003f050       ?__device_stub__Z33cloth_heightfieldContactGenLaunchfPKN5physx22PxgContactManagerInputEPKNS_18PxsCachedTransformEPKfS7_PKNS_8PxgShapeEPKNS_11PxgFEMClothEPKNS_11PxNodeIndexEPhPjjSI_NS_19PxgFEMContactWriterE@@YAXMPEIBUPxgContactManagerInput@physx@@PEIBUPxsCachedTransform@2@PEIBM2PEIBUPxgShape@2@PEIBVPxgFEMCloth@2@PEIBVPxNodeIndex@2@PEIAEPEIAII7AEAUPxgFEMContactWriter@2@@Z 0000000180040050 f   femClothPrimitives.obj
 0001:0003f1c0       ?__device_stub__Z26cloth_meshContactGenLaunchfPKN5physx22PxgContactManagerInputEPKNS_18PxsCachedTransformEPKfS7_PKNS_8PxgShapeEPKNS_11PxgFEMClothEPKNS_11PxNodeIndexEjPhPjPNS_18PxgRigidFilterPairEjSI_NS_19PxgFEMContactWriterE@@YAXMPEIBUPxgContactManagerInput@physx@@PEIBUPxsCachedTransform@2@PEIBM2PEIBUPxgShape@2@PEIBVPxgFEMCloth@2@PEIBVPxNodeIndex@2@IPEIAEPEIAIPEAVPxgRigidFilterPair@2@I7AEAUPxgFEMContactWriter@2@@Z 00000001800401c0 f   femClothPrimitives.obj
 0001:0003f970       initNarrowphaseKernels20   0000000180040970 f   femClothHFMidPhase.obj
 0001:0003f980       cloth_heightfieldMidphaseGeneratePairsLaunch 0000000180040980 f   femClothHFMidPhase.obj
 0001:0003fb10       cloth_midphaseVertexHeightfieldLaunch 0000000180040b10 f   femClothHFMidPhase.obj
 0001:0003fcd0       ?__device_stub__Z44cloth_heightfieldMidphaseGeneratePairsLaunchjfPKN5physx22PxgContactManagerInputEPKNS_18PxsCachedTransformEPKfPKNS_8PxgShapeEPNS_11PxgFEMClothEPhPjj@@YAXIMPEIBUPxgContactManagerInput@physx@@PEIBUPxsCachedTransform@2@PEIBMPEIBUPxgShape@2@PEIAVPxgFEMCloth@2@PEAEPEAII@Z 0000000180040cd0 f   femClothHFMidPhase.obj
 0001:0003fe10       ?__device_stub__Z37cloth_midphaseVertexHeightfieldLaunchjfPKN5physx22PxgContactManagerInputEPKNS_18PxsCachedTransformEPKfPKNS_8PxgShapeEPNS_11PxgFEMClothEPhPjj@@YAXIMPEIBUPxgContactManagerInput@physx@@PEIBUPxsCachedTransform@2@PEIBMPEIBUPxgShape@2@PEIAVPxgFEMCloth@2@PEAEPEAII@Z 0000000180040e10 f   femClothHFMidPhase.obj
 0001:000402b0       ?minProject@@YAMAEBVPxPlane@physx@@AEBUTriangle@@@Z 00000001800412b0 f   femClothClothMidPhase.obj
 0001:000402d0       initNarrowphaseKernels21   00000001800412d0 f   femClothClothMidPhase.obj
 0001:000402e0       ?computeTriangleBound2@@YAXQEIBUuint4@@IQEIBUfloat4@@AEAVPxBounds3@physx@@@Z 00000001800412e0 f   femClothClothMidPhase.obj
 0001:00040300       cloth_meshMidphaseGeneratePairsLaunch 0000000180041300 f   femClothClothMidPhase.obj
 0001:00040490       cloth_clothMidphaseGeneratePairsLaunch 0000000180041490 f   femClothClothMidPhase.obj
 0001:00040650       cloth_selfCollisionMidphaseGeneratePairsLaunch 0000000180041650 f   femClothClothMidPhase.obj
 0001:00040780       ?distInRestPose@@YAMPEBUfloat4@@0IUuint4@@@Z 0000000180041780 f   femClothClothMidPhase.obj
 0001:000407a0       cloth_selfCollisionVertexMidphaseGeneratePairsLaunch 00000001800417a0 f   femClothClothMidPhase.obj
 0001:00040970       cloth_clothVertexCollisionLaunch 0000000180041970 f   femClothClothMidPhase.obj
 0001:00040bb0       ?__device_stub__Z37cloth_meshMidphaseGeneratePairsLaunchfPKN5physx22PxgContactManagerInputEPKNS_18PxsCachedTransformEPKNS_9PxBounds3EPKfPKNS_8PxgShapeEPKNS_11PxgFEMClothEjPhPj@@YAXMPEIBUPxgContactManagerInput@physx@@PEIBUPxsCachedTransform@2@PEIBVPxBounds3@2@PEIBMPEIBUPxgShape@2@PEIBVPxgFEMCloth@2@IPEIAEPEIAI@Z 0000000180041bb0 f   femClothClothMidPhase.obj
 0001:00040cf0       ?__device_stub__Z38cloth_clothMidphaseGeneratePairsLaunchfPKN5physx22PxgContactManagerInputEPKNS_18PxsCachedTransformEPKNS_9PxBounds3EPKfPKNS_8PxgShapeEPKNS_11PxgFEMClothEPKNS_21PxgNonRigidFilterPairEjjPhPj@@YAXMPEIBUPxgContactManagerInput@physx@@PEIBUPxsCachedTransform@2@PEIBVPxBounds3@2@PEIBMPEIBUPxgShape@2@PEIBVPxgFEMCloth@2@PEIBVPxgNonRigidFilterPair@2@IIPEIAEPEIAI@Z 0000000180041cf0 f   femClothClothMidPhase.obj
 0001:00040e50       ?__device_stub__Z46cloth_selfCollisionMidphaseGeneratePairsLaunchPKjPKfPKN5physx11PxgFEMClothEjPhPj@@YAXPEBIPEIBMPEIBVPxgFEMCloth@physx@@IPEIAEPEIAI@Z 0000000180041e50 f   femClothClothMidPhase.obj
 0001:00040f70       ?__device_stub__Z52cloth_selfCollisionVertexMidphaseGeneratePairsLaunchjPKjPKfPKN5physx11PxgFEMClothEPNS3_21PxgNonRigidFilterPairEjPKhP6float4SC_SC_SC_PNS3_17PxgFemContactInfoEPj@@YAXIPEBIPEIBMPEIBVPxgFEMCloth@physx@@PEAVPxgNonRigidFilterPair@2@IPEBEPEAUfloat4@@555PEAUPxgFemContactInfo@2@PEAI@Z 0000000180041f70 f   femClothClothMidPhase.obj
 0001:000410e0       ?__device_stub__Z32cloth_clothVertexCollisionLaunchjfPKN5physx22PxgContactManagerInputEPKNS_18PxsCachedTransformEPKfPKNS_8PxgShapeEPKNS_11PxgFEMClothEPNS_21PxgNonRigidFilterPairEjPKhP6float4SJ_SJ_SJ_PNS_17PxgFemContactInfoEPj@@YAXIMPEIBUPxgContactManagerInput@physx@@PEIBUPxsCachedTransform@2@PEIBMPEIBUPxgShape@2@PEIBVPxgFEMCloth@2@PEAVPxgNonRigidFilterPair@2@IPEBEPEAUfloat4@@777PEAUPxgFemContactInfo@2@PEAI@Z 00000001800420e0 f   femClothClothMidPhase.obj
 0001:00041690       initNarrowphaseKernels22   0000000180042690 f   trimeshCollision.obj
 0001:000416a0       trimeshPlaneNarrowphase    00000001800426a0 f   trimeshCollision.obj
 0001:00041910       trimeshHeightfieldNarrowphase 0000000180042910 f   trimeshCollision.obj
 0001:00041ba0       ?__device_stub__Z23trimeshPlaneNarrowphasefPKN5physx22PxgContactManagerInputEPNS_23PxsContactManagerOutputEPNS_8PxgShapeEPKNS_18PxsCachedTransformEPKfPKNS_15PxsMaterialDataEPNS_33PxgPersistentContactMultiManifoldEPhSH_PNS_26PxgPatchAndContactCountersEPjSK_SH_SH_SH_jjjf@@YAXMPEIBUPxgContactManagerInput@physx@@PEIAUPxsContactManagerOutput@2@PEIAUPxgShape@2@PEIBUPxsCachedTransform@2@PEBMPEIBUPxsMaterialData@2@PEIAUPxgPersistentContactMultiManifold@2@PEIAE7PEIAUPxgPatchAndContactCounters@2@PEIAI9777IIIM@Z 0000000180042ba0 f   trimeshCollision.obj
 0001:00041d70       ?__device_stub__Z29trimeshHeightfieldNarrowphasefPKN5physx22PxgContactManagerInputEPNS_23PxsContactManagerOutputEPNS_8PxgShapeEPKNS_18PxsCachedTransformEPKfPKNS_15PxsMaterialDataEPhSF_PNS_26PxgPatchAndContactCountersEPjSI_SF_SF_SF_jjjf@@YAXMPEIBUPxgContactManagerInput@physx@@PEIAUPxsContactManagerOutput@2@PEIAUPxgShape@2@PEIBUPxsCachedTransform@2@PEBMPEIBUPxsMaterialData@2@PEIAE6PEIAUPxgPatchAndContactCounters@2@PEIAI8666IIIM@Z 0000000180042d70 f   trimeshCollision.obj
 0001:00042410       ??0PxgGeometryManager@physx@@QEAA@PEAVPxgHeapMemoryAllocatorManager@1@@Z 0000000180043410 f   PxgGeometryManager.obj
 0001:000424b0       ??1?$PxgFreeIndicesProvider@V?$PxArray@UHullOrMeshData@physx@@V?$PxReflectionAllocator@UHullOrMeshData@physx@@@2@@physx@@@physx@@QEAA@XZ 00000001800434b0 f i PxgGeometryManager.obj
 0001:000424b0       ??1PxgStaticConstraints@physx@@QEAA@XZ 00000001800434b0 f i PxgBodySimManager.obj
 0001:000424b0       ??1PxgArticulationSelfConstraints@physx@@QEAA@XZ 00000001800434b0 f i PxgBodySimManager.obj
 0001:00042530       ??1PxgGeometryManager@physx@@UEAA@XZ 0000000180043530 f   PxgGeometryManager.obj
 0001:00042610       ??_GPxgGeometryManager@physx@@UEAAPEAXI@Z 0000000180043610 f i PxgGeometryManager.obj
 0001:00042610       ??_EPxgGeometryManager@physx@@UEAAPEAXI@Z 0000000180043610 f i PxgGeometryManager.obj
 0001:00042710       ?addBoxHull@PxgGeometryManager@physx@@QEAAXXZ 0000000180043710 f   PxgGeometryManager.obj
 0001:00042750       ?addGeometryInternal@PxgGeometryManager@physx@@AEAAI_KPEBXW4Enum@UploadGeometryType@ScheduledCopyData@2@I@Z 0000000180043750 f   PxgGeometryManager.obj
 0001:000428c0       ?addHeightfield@PxgGeometryManager@physx@@QEAAIAEBUHeightFieldData@Gu@2@@Z 00000001800438c0 f   PxgGeometryManager.obj
 0001:00042900       ?addHull@PxgGeometryManager@physx@@QEAAIAEBUConvexHullData@Gu@2@@Z 0000000180043900 f   PxgGeometryManager.obj
 0001:000429f0       ?addTriMesh@PxgGeometryManager@physx@@QEAAIAEBVTriangleMesh@Gu@2@@Z 00000001800439f0 f   PxgGeometryManager.obj
 0001:00042a80       ?create@?$PxHashBase@V?$PxPair@QEAXUPxgMeshTextureData@physx@@@physx@@PEAXU?$PxHash@PEAX@2@UGetKey@?$PxHashMapBase@PEAXUPxgMeshTextureData@physx@@U?$PxHash@PEAX@2@VPxAllocator@2@@2@VPxAllocator@2@$00@physx@@QEAAPEAV?$PxPair@QEAXUPxgMeshTextureData@physx@@@2@AEBQEAXAEA_N@Z 0000000180043a80 f i PxgGeometryManager.obj
 0001:00042c30       ?erase@?$PxHashBase@V?$PxPair@QEAXUPxgMeshTextureData@physx@@@physx@@PEAXU?$PxHash@PEAX@2@UGetKey@?$PxHashMapBase@PEAXUPxgMeshTextureData@physx@@U?$PxHash@PEAX@2@VPxAllocator@2@@2@VPxAllocator@2@$00@physx@@QEAA_NAEBQEAX@Z 0000000180043c30 f i PxgGeometryManager.obj
 0001:00042de0       ?getBoxHullDevPtr@PxgGeometryManager@physx@@QEBA_KXZ 0000000180043de0 f   PxgGeometryManager.obj
 0001:00042df0       ?getGeometryDevPtrByIndex@PxgGeometryManager@physx@@QEBA_KI@Z 0000000180043df0 f   PxgGeometryManager.obj
 0001:00042e00       ?growAndPushBack@?$PxArray@UScheduledCopyData@physx@@V?$PxReflectionAllocator@UScheduledCopyData@physx@@@2@@physx@@IEAAAEAUScheduledCopyData@2@AEBU32@@Z 0000000180043e00 f i PxgGeometryManager.obj
 0001:00043e40       ?recreate@?$PxArray@UHullOrMeshData@physx@@V?$PxReflectionAllocator@UHullOrMeshData@physx@@@2@@physx@@IEAAXI@Z 0000000180044e40 f i PxgGeometryManager.obj
 0001:00043f30       ?removeGeometry@PxgGeometryManager@physx@@QEAAXI@Z 0000000180044f30 f   PxgGeometryManager.obj
 0001:00044120       ?reserveInternal@?$PxHashBase@V?$PxPair@QEAXUPxgMeshTextureData@physx@@@physx@@PEAXU?$PxHash@PEAX@2@UGetKey@?$PxHashMapBase@PEAXUPxgMeshTextureData@physx@@U?$PxHash@PEAX@2@VPxAllocator@2@@2@VPxAllocator@2@$00@physx@@AEAAXI@Z 0000000180045120 f i PxgGeometryManager.obj
 0001:00044320       ?resetAfterMemcpyCompleted@PxgGeometryManager@physx@@QEAAXXZ 0000000180045320 f   PxgGeometryManager.obj
 0001:000443c0       ?resize@?$PxArray@UHullOrMeshData@physx@@V?$PxReflectionAllocator@UHullOrMeshData@physx@@@2@@physx@@QEAAXIAEBUHullOrMeshData@2@@Z 00000001800453c0 f i PxgGeometryManager.obj
 0001:00044440       ?scheduleCopyHtoD@PxgGeometryManager@physx@@QEAAXAEAVPxgCopyManager@2@AEAVPxCudaContext@2@PEAUCUstream_st@@@Z 0000000180045440 f   PxgGeometryManager.obj
 0001:00044680       ??$PxSort@IU?$PxLess@I@physx@@V?$PxReflectionAllocator@I@2@@physx@@YAXPEAIIAEBU?$PxLess@I@0@AEBV?$PxReflectionAllocator@I@0@I@Z 0000000180045680 f i PxgNarrowphaseCore.obj
 0001:00044ad0       ??$prepareTempContactManagers@UPxgPersistentContactManifold@physx@@@PxgGpuNarrowphaseCore@physx@@AEAAXAEAUPxgGpuContactManagers@1@AEAUPxgNewContactManagers@1@PEAUPxgPersistentContactManifold@1@@Z 0000000180045ad0 f i PxgNarrowphaseCore.obj
 0001:00044f70       ??$prepareTempContactManagers@UPxgPersistentContactMultiManifold@physx@@@PxgGpuNarrowphaseCore@physx@@AEAAXAEAUPxgGpuContactManagers@1@AEAUPxgNewContactManagers@1@PEAUPxgPersistentContactMultiManifold@1@@Z 0000000180045f70 f i PxgNarrowphaseCore.obj
 0001:00045410       ??$registerMaterialInternal@V?$MaterialCoreT@UPxsDeformableSurfaceMaterialData@physx@@VPxDeformableSurfaceMaterial@2@@physx@@UPxsDeformableSurfaceMaterialData@2@@PxgGpuNarrowphaseCore@physx@@AEAAIAEBV?$MaterialCoreT@UPxsDeformableSurfaceMaterialData@physx@@VPxDeformableSurfaceMaterial@2@@1@PEAV?$PxHashMap@_KURefcountedRecord@PxgGpuNarrowphaseCore@physx@@U?$PxHash@_K@3@VPxAllocator@3@@1@AEAVPxgMaterialManager@1@@Z 0000000180046410 f i PxgNarrowphaseCore.obj
 0001:00045410       ??$registerMaterialInternal@V?$MaterialCoreT@UPxsDeformableVolumeMaterialData@physx@@VPxDeformableVolumeMaterial@2@@physx@@UPxsDeformableVolumeMaterialData@2@@PxgGpuNarrowphaseCore@physx@@AEAAIAEBV?$MaterialCoreT@UPxsDeformableVolumeMaterialData@physx@@VPxDeformableVolumeMaterial@2@@1@PEAV?$PxHashMap@_KURefcountedRecord@PxgGpuNarrowphaseCore@physx@@U?$PxHash@_K@3@VPxAllocator@3@@1@AEAVPxgMaterialManager@1@@Z 0000000180046410 f i PxgNarrowphaseCore.obj
 0001:000455a0       ??$registerMaterialInternal@V?$MaterialCoreT@UPxsMaterialData@physx@@VPxMaterial@2@@physx@@UPxsMaterialData@2@@PxgGpuNarrowphaseCore@physx@@AEAAIAEBV?$MaterialCoreT@UPxsMaterialData@physx@@VPxMaterial@2@@1@PEAV?$PxHashMap@_KURefcountedRecord@PxgGpuNarrowphaseCore@physx@@U?$PxHash@_K@3@VPxAllocator@3@@1@AEAVPxgMaterialManager@1@@Z 00000001800465a0 f i PxgNarrowphaseCore.obj
 0001:00045730       ??$registerMaterialInternal@V?$MaterialCoreT@UPxsPBDMaterialData@physx@@VPxPBDMaterial@2@@physx@@UPxsPBDMaterialData@2@@PxgGpuNarrowphaseCore@physx@@AEAAIAEBV?$MaterialCoreT@UPxsPBDMaterialData@physx@@VPxPBDMaterial@2@@1@PEAV?$PxHashMap@_KURefcountedRecord@PxgGpuNarrowphaseCore@physx@@U?$PxHash@_K@3@VPxAllocator@3@@1@AEAVPxgMaterialManager@1@@Z 0000000180046730 f i PxgNarrowphaseCore.obj
 0001:000458c0       ??$removeLostPairsGpuInternal@UPxgPairManagementData@physx@@UPxgPersistentContactManifold@2@@PxgGpuNarrowphaseCore@physx@@QEAAXAEAUPxgPairManagementData@1@_KAEAUPxgContactManagers@1@AEAUPxgGpuContactManagers@1@AEAV?$PxArray@IVPxVirtualAllocator@physx@@@1@AEAUPxgGpuPairManagementBuffers@1@G_N@Z 00000001800468c0 f i PxgNarrowphaseCore.obj
 0001:00045d60       ??0PxgFEMContactWriter@physx@@QEAA@PEAVPxgFEMCore@1@_N@Z 0000000180046d60 f i PxgNarrowphaseCore.obj
 0001:00045ed0       ??0PxgGpuContactManagers@physx@@QEAA@IPEAVPxgHeapMemoryAllocatorManager@1@@Z 0000000180046ed0 f i PxgNarrowphaseCore.obj
 0001:00046060       ??0PxgGpuNarrowphaseCore@physx@@QEAA@PEAVPxgCudaKernelWranglerManager@1@PEAVPxCudaContextManager@1@AEBUPxGpuDynamicsMemoryConfig@1@PEAX33PEAVIslandSim@IG@1@PEAUCUstream_st@@PEAVPxgHeapMemoryAllocatorManager@1@PEAVPxgNphaseImplementationContext@1@@Z 0000000180047060 f   PxgNarrowphaseCore.obj
 0001:00046e50       ??1?$PxgCudaPagedLinearAllocator@VPxgHeapMemoryAllocator@physx@@@physx@@UEAA@XZ 0000000180047e50 f i PxgNarrowphaseCore.obj
 0001:00046f60       ??1PxgContactManagers@physx@@QEAA@XZ 0000000180047f60 f i PxgNarrowphaseCore.obj
 0001:00047030       ??1PxgGpuContactManagers@physx@@QEAA@XZ 0000000180048030 f i PxgNarrowphaseCore.obj
 0001:000470d0       ??1PxgGpuNarrowphaseCore@physx@@UEAA@XZ 00000001800480d0 f   PxgNarrowphaseCore.obj
 0001:00047790       ??1PxgMaterialManager@physx@@UEAA@XZ 0000000180048790 f i PxgNarrowphaseCore.obj
 0001:00047820       ??1PxgShapeManager@physx@@QEAA@XZ 0000000180048820 f i PxgNarrowphaseCore.obj
 0001:000479a0       ??_G?$PxgCudaPagedLinearAllocator@VPxgHeapMemoryAllocator@physx@@@physx@@UEAAPEAXI@Z 00000001800489a0 f i PxgNarrowphaseCore.obj
 0001:000479a0       ??_E?$PxgCudaPagedLinearAllocator@VPxgHeapMemoryAllocator@physx@@@physx@@UEAAPEAXI@Z 00000001800489a0 f i PxgNarrowphaseCore.obj
 0001:000479e0       ??_EPxgCMGpuDiscreteUpdateTask@physx@@UEAAPEAXI@Z 00000001800489e0 f i PxgNphaseImplementationContext.obj
 0001:000479e0       ??_GPxgCMGpuDiscreteUpdateTask@physx@@UEAAPEAXI@Z 00000001800489e0 f i PxgNphaseImplementationContext.obj
 0001:000479e0       ??_GPrepareInputTask@@UEAAPEAXI@Z 00000001800489e0 f i PxgNarrowphaseCore.obj
 0001:000479e0       ??_EPrepareInputTask@@UEAAPEAXI@Z 00000001800489e0 f i PxgNarrowphaseCore.obj
 0001:00047a20       ??_GPxgPBDMaterialManager@physx@@UEAAPEAXI@Z 0000000180048a20 f i PxgNarrowphaseCore.obj
 0001:00047a20       ??_GPxgFEMClothMaterialManager@physx@@UEAAPEAXI@Z 0000000180048a20 f i PxgNarrowphaseCore.obj
 0001:00047a20       ??_EPxgFEMSoftBodyMaterialManager@physx@@UEAAPEAXI@Z 0000000180048a20 f i PxgShapeManager.obj
 0001:00047a20       ??_EPxgFEMClothMaterialManager@physx@@UEAAPEAXI@Z 0000000180048a20 f i PxgNarrowphaseCore.obj
 0001:00047a20       ??_EPxgPBDMaterialManager@physx@@UEAAPEAXI@Z 0000000180048a20 f i PxgNarrowphaseCore.obj
 0001:00047a20       ??_GPxgFEMSoftBodyMaterialManager@physx@@UEAAPEAXI@Z 0000000180048a20 f i PxgShapeManager.obj
 0001:00047a20       ??_EPxgMaterialManager@physx@@UEAAPEAXI@Z 0000000180048a20 f i PxgNarrowphaseCore.obj
 0001:00047a20       ??_GPxgMaterialManager@physx@@UEAAPEAXI@Z 0000000180048a20 f i PxgNarrowphaseCore.obj
 0001:00047a60       ??_GPxgGpuNarrowphaseCore@physx@@UEAAPEAXI@Z 0000000180048a60 f i PxgNarrowphaseCore.obj
 0001:00047a60       ??_EPxgGpuNarrowphaseCore@physx@@UEAAPEAXI@Z 0000000180048a60 f i PxgNarrowphaseCore.obj
 0001:00047ad0       ?acquireContext@PxgGpuNarrowphaseCore@physx@@QEAAXXZ 0000000180048ad0 f   PxgNarrowphaseCore.obj
 0001:00047ae0       ?adjustNpIndices@PxgGpuNarrowphaseCore@physx@@AEAAXAEAUPxgNewContactManagers@2@AEAV?$PxArray@UPxgContactManagerInput@physx@@VPxVirtualAllocator@2@@2@AEAV?$PxArray@PEAVPxsContactManager@physx@@VPxVirtualAllocator@2@@2@AEAV?$PxArray@PEBVShapeInteraction@Sc@physx@@VPxVirtualAllocator@3@@2@AEAV?$PxArray@MVPxVirtualAllocator@physx@@@2@AEAV?$PxArray@UPxsTorsionalFrictionData@physx@@VPxVirtualAllocator@2@@2@12345@Z 0000000180048ae0 f   PxgNarrowphaseCore.obj
 0001:00047d30       ?allocate@?$PxgCudaPagedLinearAllocator@VPxgHeapMemoryAllocator@physx@@@physx@@QEAAPEAX_K@Z 0000000180048d30 f i PxgNarrowphaseCore.obj
 0001:00047eb0       ?appendContactManagers@PxgGpuNarrowphaseCore@physx@@QEAAXPEAUPxsContactManagerOutput@2@I@Z 0000000180048eb0 f   PxgNarrowphaseCore.obj
 0001:00048090       ?appendContactManagersGpu@PxgGpuNarrowphaseCore@physx@@QEAAXIIAEAUPxgGpuContactManagers@2@0I@Z 0000000180049090 f   PxgNarrowphaseCore.obj
 0001:000486a0       ?compactLostFoundPairs@PxgGpuNarrowphaseCore@physx@@AEAAXAEAUPxgGpuContactManagers@2@IPEAIPEAUPxsContactManagerOutput@2@@Z 00000001800496a0 f   PxgNarrowphaseCore.obj
 0001:000489c0       ?computeRigidsToShapes@PxgGpuNarrowphaseCore@physx@@QEAAXXZ 00000001800499c0 f   PxgNarrowphaseCore.obj
 0001:00049350       ?copyContactData@PxgGpuNarrowphaseCore@physx@@QEAA_NPEAXPEAIIPEAUCUevent_st@@2PEAE33@Z 000000018004a350 f   PxgNarrowphaseCore.obj
 0001:00049890       ?erase@?$PxHashBase@V?$PxPair@$$CB_KURefcountedRecord@PxgGpuNarrowphaseCore@physx@@@physx@@_KU?$PxHash@_K@2@UGetKey@?$PxHashMapBase@_KURefcountedRecord@PxgGpuNarrowphaseCore@physx@@U?$PxHash@_K@3@VPxAllocator@3@@2@VPxAllocator@2@$00@physx@@QEAA_NAEB_K@Z 000000018004a890 f i PxgNarrowphaseCore.obj
 0001:00049a30       ?evaluateSDFDistances@PxgGpuNarrowphaseCore@physx@@QEAA_NPEAV?$PxVec4T@M@2@PEBIPEBV32@1IIPEAUCUevent_st@@3@Z 000000018004aa30 f   PxgNarrowphaseCore.obj
 0001:00049de0       ?fetchNarrowPhaseResults@PxgGpuNarrowphaseCore@physx@@QEAAXPEAUPxcDataStreamPool@2@00PEAUPxsContactManagerOutput@2@PEBQEBVShapeInteraction@Sc@2@PEBMPEBUPxsTorsionalFrictionData@2@IPEBUPxsContactManagerOutputCounts@2@PEBQEBVPxsContactManager@2@I@Z 000000018004ade0 f   PxgNarrowphaseCore.obj
 0001:0004ac90       ?find@?$PxHashMapBase@_KURefcountedRecord@PxgGpuNarrowphaseCore@physx@@U?$PxHash@_K@3@VPxAllocator@3@@physx@@QEBAPEBV?$PxPair@$$CB_KURefcountedRecord@PxgGpuNarrowphaseCore@physx@@@2@AEB_K@Z 000000018004bc90 f i PxgNarrowphaseCore.obj
 0001:0004ad30       ?getName@PrepareInputTask@@UEBAPEBDXZ 000000018004bd30 f i PxgNarrowphaseCore.obj
 0001:0004ad40       ?getShapeIndex@PxgGpuNarrowphaseCore@physx@@QEAAIAEBUPxsShapeCore@2@@Z 000000018004bd40 f   PxgNarrowphaseCore.obj
 0001:0004adf0       ?getStream@PxgGpuNarrowphaseCore@physx@@QEAAPEAUCUstream_st@@XZ 000000018004bdf0 f   PxgNarrowphaseCore.obj
 0001:0004ae00       ?growAndPushBack@?$PxArray@MVPxVirtualAllocator@physx@@@physx@@IEAAAEAMAEBM@Z 000000018004be00 f i PxgNarrowphaseCore.obj
 0001:0004af10       ?growAndPushBack@?$PxArray@PEAEV?$PxReflectionAllocator@PEAE@physx@@@physx@@IEAAAEAPEAEAEBQEAE@Z 000000018004bf10 f i PxgNarrowphaseCore.obj
 0001:0004b030       ?growAndPushBack@?$PxArray@UPxgContactManagerInput@physx@@VPxVirtualAllocator@2@@physx@@IEAAAEAUPxgContactManagerInput@2@AEBU32@@Z 000000018004c030 f i PxgNarrowphaseCore.obj
 0001:0004b030       ?growAndPushBack@?$PxArray@VPxgNonRigidFilterPair@physx@@VPxVirtualAllocator@2@@physx@@IEAAAEAVPxgNonRigidFilterPair@2@AEBV32@@Z 000000018004c030 f i PxgSimulationController.obj
 0001:0004b120       ?growAndPushBack@?$PxArray@UPxsContactManagerOutput@physx@@VPxVirtualAllocator@2@@physx@@IEAAAEAUPxsContactManagerOutput@2@AEBU32@@Z 000000018004c120 f i PxgNarrowphaseCore.obj
 0001:0004b240       ?growAndPushBack@?$PxArray@UPxsTorsionalFrictionData@physx@@VPxVirtualAllocator@2@@physx@@IEAAAEAUPxsTorsionalFrictionData@2@AEBU32@@Z 000000018004c240 f i PxgNarrowphaseCore.obj
 0001:0004b330       ?growAndPushBack@?$PxArray@_KV?$PxReflectionAllocator@_K@physx@@@physx@@IEAAAEA_KAEB_K@Z 000000018004c330 f i PxgNarrowphaseCore.obj
 0001:0004b450       ?insert@?$PxHashMapBase@_KURefcountedRecord@PxgGpuNarrowphaseCore@physx@@U?$PxHash@_K@3@VPxAllocator@3@@physx@@QEAA_N_KURefcountedRecord@PxgGpuNarrowphaseCore@2@@Z 000000018004c450 f i PxgNarrowphaseCore.obj
 0001:0004b4a0       ?isClothMeshGPUCompatible@PxgGpuNarrowphaseCore@physx@@QEAA_NAEBUPxTriangleMeshGeometryLL@2@@Z 000000018004c4a0 f   PxgNarrowphaseCore.obj
 0001:0004b4c0       ?isMeshGPUCompatible@PxgGpuNarrowphaseCore@physx@@QEAA_NAEBUPxTriangleMeshGeometryLL@2@@Z 000000018004c4c0 f   PxgNarrowphaseCore.obj
 0001:0004b4f0       ?mapMaterialIndexInternal@PxgGpuNarrowphaseCore@physx@@AEAAGGPEAV?$PxHashMap@_KURefcountedRecord@PxgGpuNarrowphaseCore@physx@@U?$PxHash@_K@3@VPxAllocator@3@@2@AEAVPxgMaterialManager@2@I@Z 000000018004c4f0 f   PxgNarrowphaseCore.obj
 0001:0004b650       ?preallocateNewBuffers@PxgGpuNarrowphaseCore@physx@@QEAAXI@Z 000000018004c650 f   PxgNarrowphaseCore.obj
 0001:0004b730       ?prepareGpuNarrowphase@PxgGpuNarrowphaseCore@physx@@QEAAXAEAVPxsTransformCache@2@PEBM_N@Z 000000018004c730 f   PxgNarrowphaseCore.obj
 0001:0004b930       ?prepareTempContactManagers@PxgGpuNarrowphaseCore@physx@@AEAAXAEAUPxgGpuContactManagers@2@AEAUPxgNewContactManagers@2@@Z 000000018004c930 f   PxgNarrowphaseCore.obj
 0001:0004bcc0       ?prepareTempContactManagers@PxgGpuNarrowphaseCore@physx@@QEAAXXZ 000000018004ccc0 f   PxgNarrowphaseCore.obj
 0001:0004bdd0       ?prepareTempContactManagersTasks@PxgGpuNarrowphaseCore@physx@@QEAAXAEAVFlushPool@Cm@2@PEAVPxBaseTask@2@@Z 000000018004cdd0 f   PxgNarrowphaseCore.obj
 0001:0004c010       ?processDeferredIds@?$DeferredIDPoolBase@V?$PxArray@IV?$PxReflectionAllocator@I@physx@@@physx@@@Cm@physx@@QEAAXXZ 000000018004d010 f i PxgNarrowphaseCore.obj
 0001:0004c0a0       ?pushBuffer@PxgGpuNarrowphaseCore@physx@@QEAAXXZ 000000018004d0a0 f   PxgNarrowphaseCore.obj
 0001:0004c0f0       ?recreate@?$PxArray@MVPxVirtualAllocator@physx@@@physx@@IEAAXI@Z 000000018004d0f0 f i PxgNarrowphaseCore.obj
 0001:0004c1c0       ?recreate@?$PxArray@PEAEV?$PxReflectionAllocator@PEAE@physx@@@physx@@IEAAXI@Z 000000018004d1c0 f i PxgNarrowphaseCore.obj
 0001:0004c2b0       ?recreate@?$PxArray@UPxgContactManagerInput@physx@@VPxVirtualAllocator@2@@physx@@IEAAXI@Z 000000018004d2b0 f i PxgNarrowphaseCore.obj
 0001:0004c2b0       ?recreate@?$PxArray@VPxGpuSpatialTendonData@physx@@VPxVirtualAllocator@2@@physx@@IEAAXI@Z 000000018004d2b0 f i PxgSimulationController.obj
 0001:0004c2b0       ?recreate@?$PxArray@VPxGpuTendonJointCoefficientData@physx@@VPxVirtualAllocator@2@@physx@@IEAAXI@Z 000000018004d2b0 f i PxgSimulationController.obj
 0001:0004c2b0       ?recreate@?$PxArray@VPxgNonRigidFilterPair@physx@@VPxVirtualAllocator@2@@physx@@IEAAXI@Z 000000018004d2b0 f i PxgSimulationController.obj
 0001:0004c360       ?recreate@?$PxArray@UPxgRadixSortDesc@physx@@VPxVirtualAllocator@2@@physx@@IEAAXI@Z 000000018004d360 f i PxgNarrowphaseCore.obj
 0001:0004c420       ?recreate@?$PxArray@UPxgArticulationSimUpdate@physx@@VPxVirtualAllocator@2@@physx@@IEAAXI@Z 000000018004d420 f i PxgSimulationController.obj
 0001:0004c420       ?recreate@?$PxArray@UPxsContactManagerOutput@physx@@VPxVirtualAllocator@2@@physx@@IEAAXI@Z 000000018004d420 f i PxgNarrowphaseCore.obj
 0001:0004c4e0       ?recreate@?$PxArray@UPxsTorsionalFrictionData@physx@@VPxVirtualAllocator@2@@physx@@IEAAXI@Z 000000018004d4e0 f i PxgNarrowphaseCore.obj
 0001:0004c590       ?refreshContactManager@PxgGpuNarrowphaseCore@physx@@QEAAXPEAVPxsContactManager@2@PEAUPxsContactManagerOutput@2@AEAUPxgContactManagerInput@2@I@Z 000000018004d590 f   PxgNarrowphaseCore.obj
 0001:0004c5d0       ?refreshContactManagerInternal@PxgGpuNarrowphaseCore@physx@@AEAAXPEAVPxsContactManager@2@PEAUPxsContactManagerOutput@2@PEAPEBVShapeInteraction@Sc@2@AEAUPxgContactManagerInput@2@AEAUPxgNewContactManagers@2@AEAV?$PxArray@IVPxVirtualAllocator@physx@@@2@@Z 000000018004d5d0 f   PxgNarrowphaseCore.obj
 0001:0004c7f0       ?registerAggregate@PxgGpuNarrowphaseCore@physx@@QEAAXI@Z 000000018004d7f0 f   PxgNarrowphaseCore.obj
 0001:0004c830       ?registerContactManager@PxgGpuNarrowphaseCore@physx@@QEAAXPEAVPxsContactManager@2@PEBVShapeInteraction@Sc@2@AEAUPxsContactManagerOutput@2@I@Z 000000018004d830 f   PxgNarrowphaseCore.obj
 0001:0004c860       ?registerContactManagerInternal@PxgGpuNarrowphaseCore@physx@@AEAAXPEAVPxsContactManager@2@PEBVShapeInteraction@Sc@2@PEAUPxgContactManagerInput@2@AEAUPxsContactManagerOutput@2@AEAUPxgNewContactManagers@2@@Z 000000018004d860 f   PxgNarrowphaseCore.obj
 0001:0004ca90       ?registerFEMMaterial@PxgGpuNarrowphaseCore@physx@@QEAAXAEBV?$MaterialCoreT@UPxsDeformableSurfaceMaterialData@physx@@VPxDeformableSurfaceMaterial@2@@2@@Z 000000018004da90 f   PxgNarrowphaseCore.obj
 0001:0004cab0       ?registerFEMMaterial@PxgGpuNarrowphaseCore@physx@@QEAAXAEBV?$MaterialCoreT@UPxsDeformableVolumeMaterialData@physx@@VPxDeformableVolumeMaterial@2@@2@@Z 000000018004dab0 f   PxgNarrowphaseCore.obj
 0001:0004cad0       ?registerMaterial@PxgGpuNarrowphaseCore@physx@@QEAAXAEBV?$MaterialCoreT@UPxsMaterialData@physx@@VPxMaterial@2@@2@@Z 000000018004dad0 f   PxgNarrowphaseCore.obj
 0001:0004caf0       ?registerParticleMaterial@PxgGpuNarrowphaseCore@physx@@QEAAXAEBV?$MaterialCoreT@UPxsPBDMaterialData@physx@@VPxPBDMaterial@2@@2@@Z 000000018004daf0 f   PxgNarrowphaseCore.obj
 0001:0004cb10       ?registerShape@PxgGpuNarrowphaseCore@physx@@QEAAXAEBVPxNodeIndex@2@AEBUPxsShapeCore@2@I_NPEAVPxActor@2@@Z 000000018004db10 f   PxgNarrowphaseCore.obj
 0001:0004d320       ?releaseContext@PxgGpuNarrowphaseCore@physx@@QEAAXXZ 000000018004e320 f   PxgNarrowphaseCore.obj
 0001:0004d330       ?removeGeometry@PxgGpuNarrowphaseCore@physx@@QEAAXI@Z 000000018004e330 f   PxgNarrowphaseCore.obj
 0001:0004d380       ?removeLostPairs@PxgGpuNarrowphaseCore@physx@@QEAAXXZ 000000018004e380 f   PxgNarrowphaseCore.obj
 0001:0004d930       ?removeLostPairsInternal@PxgGpuNarrowphaseCore@physx@@AEAAXAEAV?$PxArray@IVPxVirtualAllocator@physx@@@2@AEAUPxgContactManagers@2@@Z 000000018004e930 f   PxgNarrowphaseCore.obj
 0001:0004dea0       ?resize@?$PxArray@PEAEV?$PxReflectionAllocator@PEAE@physx@@@physx@@QEAAXIAEBQEAE@Z 000000018004eea0 f i PxgNarrowphaseCore.obj
 0001:0004df60       ?resize@?$PxArray@UPxgRadixSortDesc@physx@@VPxVirtualAllocator@2@@physx@@QEAAXIAEBUPxgRadixSortDesc@2@@Z 000000018004ef60 f i PxgNarrowphaseCore.obj
 0001:0004dff0       ?runInternal@PrepareInputTask@@UEAAXXZ 000000018004eff0 f i PxgNarrowphaseCore.obj
 0001:0004e120       ?softbodyRigidContactApplyCollisionToSimMeshMapping@PxgGpuNarrowphaseCore@physx@@AEAAXU?$PxgDevicePointer@Ufloat4@@@2@0U?$PxgDevicePointer@UPxgFemContactInfo@physx@@@2@U?$PxgDevicePointer@M@2@U?$PxgDevicePointer@I@2@3@Z 000000018004f120 f   PxgNarrowphaseCore.obj
 0001:0004e2d0       ?syncNotRigidWithNp@PxgGpuNarrowphaseCore@physx@@QEAAXXZ 000000018004f2d0 f   PxgNarrowphaseCore.obj
 0001:0004e5c0       ?synchronizeStreams@physx@@YAXPEAVPxCudaContext@1@AEBQEAUCUstream_st@@1@Z 000000018004f5c0 f i PxgNarrowphaseCore.obj
 0001:0004e6c0       ?synchronizedStreams@PxgGpuNarrowphaseCore@physx@@QEAAXPEAUCUstream_st@@@Z 000000018004f6c0 f   PxgNarrowphaseCore.obj
 0001:0004e780       ?testSDKBoxBoxGpu@PxgGpuNarrowphaseCore@physx@@QEAAXAEAUPxgGpuContactManagers@2@IPEAE11IIIPEAVPxRenderOutput@2@@Z 000000018004f780 f   PxgNarrowphaseCore.obj
 0001:0004eaf0       ?testSDKConvexConvexGjkEpaGpu@PxgGpuNarrowphaseCore@physx@@QEAAXAEAUPxgGpuContactManagers@2@_NIPEAE22IIIPEAVPxRenderOutput@2@@Z 000000018004faf0 f   PxgNarrowphaseCore.obj
 0001:0004f160       ?testSDKConvexCoreClothmeshGjkEpaGpu@PxgGpuNarrowphaseCore@physx@@QEAAXAEAUPxgGpuContactManagers@2@IPEAVPxRenderOutput@2@@Z 0000000180050160 f   PxgNarrowphaseCore.obj
 0001:0004f780       ?testSDKConvexCoreConvexGjkEpaGpu@PxgGpuNarrowphaseCore@physx@@QEAAXAEAUPxgGpuContactManagers@2@_NIPEAE22IIIPEAVPxRenderOutput@2@@Z 0000000180050780 f   PxgNarrowphaseCore.obj
 0001:0004fac0       ?testSDKConvexCorePlaneGjkEpaGpu@PxgGpuNarrowphaseCore@physx@@QEAAXAEAUPxgGpuContactManagers@2@_NIPEAE22IIIPEAVPxRenderOutput@2@@Z 0000000180050ac0 f   PxgNarrowphaseCore.obj
 0001:0004fe00       ?testSDKConvexCoreTetmeshGjkEpaGpu@PxgGpuNarrowphaseCore@physx@@QEAAXAEAUPxgGpuContactManagers@2@IPEAVPxRenderOutput@2@@Z 0000000180050e00 f   PxgNarrowphaseCore.obj
 0001:000501b0       ?testSDKConvexCoreTrimeshGjkEpaGpu@PxgGpuNarrowphaseCore@physx@@QEAAXAEAUPxgGpuContactManagers@2@_NIPEAE22IIIPEAVPxRenderOutput@2@@Z 00000001800511b0 f   PxgNarrowphaseCore.obj
 0001:000504f0       ?testSDKConvexHeightfieldGpu@PxgGpuNarrowphaseCore@physx@@QEAAXAEAUPxgGpuContactManagers@2@_NIPEAE22III@Z 00000001800514f0 f   PxgNarrowphaseCore.obj
 0001:00051440       ?testSDKConvexParticle@PxgGpuNarrowphaseCore@physx@@QEAAXAEAUPxgGpuContactManagers@2@I@Z 0000000180052440 f   PxgNarrowphaseCore.obj
 0001:00051d40       ?testSDKConvexPlaneGjkEpaGpu@PxgGpuNarrowphaseCore@physx@@QEAAXAEAUPxgGpuContactManagers@2@_NIPEAE22IIIPEAVPxRenderOutput@2@@Z 0000000180052d40 f   PxgNarrowphaseCore.obj
 0001:000520d0       ?testSDKConvexTriMeshSATGpu@PxgGpuNarrowphaseCore@physx@@QEAAXAEAUPxgGpuContactManagers@2@_NIPEAE22III@Z 00000001800530d0 f   PxgNarrowphaseCore.obj
 0001:00053040       ?testSDKFemClothBox@PxgGpuNarrowphaseCore@physx@@QEAAXAEAUPxgGpuContactManagers@2@IPEAVPxRenderOutput@2@@Z 0000000180054040 f   PxgNarrowphaseCore.obj
 0001:00053970       ?testSDKFemClothConvexes@PxgGpuNarrowphaseCore@physx@@QEAAXAEAUPxgGpuContactManagers@2@IPEAVPxRenderOutput@2@@Z 0000000180054970 f   PxgNarrowphaseCore.obj
 0001:000544d0       ?testSDKFemClothHeightfield@PxgGpuNarrowphaseCore@physx@@QEAAXAEAUPxgGpuContactManagers@2@IPEAVPxRenderOutput@2@@Z 00000001800554d0 f   PxgNarrowphaseCore.obj
 0001:00054f40       ?testSDKFemClothPlane@PxgGpuNarrowphaseCore@physx@@QEAAXAEAUPxgGpuContactManagers@2@IPEAVPxRenderOutput@2@@Z 0000000180055f40 f   PxgNarrowphaseCore.obj
 0001:000552e0       ?testSDKFemClothSdfTrimesh@PxgGpuNarrowphaseCore@physx@@QEAAXAEAUPxgGpuContactManagers@2@IPEAVPxRenderOutput@2@@Z 00000001800562e0 f   PxgNarrowphaseCore.obj
 0001:00055690       ?testSDKFemClothSphere@PxgGpuNarrowphaseCore@physx@@QEAAXAEAUPxgGpuContactManagers@2@IPEAVPxRenderOutput@2@@Z 0000000180056690 f   PxgNarrowphaseCore.obj
 0001:00055d10       ?testSDKFemClothTrimesh@PxgGpuNarrowphaseCore@physx@@QEAAXAEAUPxgGpuContactManagers@2@IPEAVPxRenderOutput@2@@Z 0000000180056d10 f   PxgNarrowphaseCore.obj
 0001:00056760       ?testSDKParticleFemCloth@PxgGpuNarrowphaseCore@physx@@QEAAXAEAUPxgGpuContactManagers@2@IPEAVPxRenderOutput@2@@Z 0000000180057760 f   PxgNarrowphaseCore.obj
 0001:00056dc0       ?testSDKParticleHeightfield@PxgGpuNarrowphaseCore@physx@@QEAAXAEAUPxgGpuContactManagers@2@I@Z 0000000180057dc0 f   PxgNarrowphaseCore.obj
 0001:000570f0       ?testSDKParticleSdfTriMesh@PxgGpuNarrowphaseCore@physx@@QEAAXAEAUPxgGpuContactManagers@2@I@Z 00000001800580f0 f   PxgNarrowphaseCore.obj
 0001:000573f0       ?testSDKParticleSoftbody@PxgGpuNarrowphaseCore@physx@@QEAAXAEAUPxgGpuContactManagers@2@IPEAVPxRenderOutput@2@@Z 00000001800583f0 f   PxgNarrowphaseCore.obj
 0001:00057b40       ?testSDKParticleSystemGpu@PxgGpuNarrowphaseCore@physx@@QEAAXAEAUPxgGpuContactManagers@2@I@Z 0000000180058b40 f   PxgNarrowphaseCore.obj
 0001:00058380       ?testSDKParticleTriMesh@PxgGpuNarrowphaseCore@physx@@QEAAXAEAUPxgGpuContactManagers@2@I@Z 0000000180059380 f   PxgNarrowphaseCore.obj
 0001:000586b0       ?testSDKSoftbodies@PxgGpuNarrowphaseCore@physx@@QEAAXAEAUPxgGpuContactManagers@2@IPEAVPxRenderOutput@2@@Z 00000001800596b0 f   PxgNarrowphaseCore.obj
 0001:00058b40       ?testSDKSoftbody@PxgGpuNarrowphaseCore@physx@@QEAAXAEAUPxgGpuContactManagers@2@IPEAVPxRenderOutput@2@@Z 0000000180059b40 f   PxgNarrowphaseCore.obj
 0001:00059220       ?testSDKSoftbodyCloth@PxgGpuNarrowphaseCore@physx@@QEAAXAEAUPxgGpuContactManagers@2@IPEAVPxRenderOutput@2@@Z 000000018005a220 f   PxgNarrowphaseCore.obj
 0001:00059960       ?testSDKSoftbodyHeightfield@PxgGpuNarrowphaseCore@physx@@QEAAXAEAUPxgGpuContactManagers@2@IPEAVPxRenderOutput@2@@Z 000000018005a960 f   PxgNarrowphaseCore.obj
 0001:00059ff0       ?testSDKSoftbodySdfTrimesh@PxgGpuNarrowphaseCore@physx@@QEAAXAEAUPxgGpuContactManagers@2@IPEAVPxRenderOutput@2@@Z 000000018005aff0 f   PxgNarrowphaseCore.obj
 0001:0005a440       ?testSDKSoftbodyTrimesh@PxgGpuNarrowphaseCore@physx@@QEAAXAEAUPxgGpuContactManagers@2@IPEAVPxRenderOutput@2@@Z 000000018005b440 f   PxgNarrowphaseCore.obj
 0001:0005ab20       ?testSDKSphereGpu@PxgGpuNarrowphaseCore@physx@@QEAAXAEAUPxgGpuContactManagers@2@IPEAE11IIIPEAVPxRenderOutput@2@@Z 000000018005bb20 f   PxgNarrowphaseCore.obj
 0001:0005ae90       ?testSDKSphereHeightfieldGpu@PxgGpuNarrowphaseCore@physx@@QEAAXAEAUPxgGpuContactManagers@2@_NIPEAE22III@Z 000000018005be90 f   PxgNarrowphaseCore.obj
 0001:0005bde0       ?testSDKSphereTriMeshSATGpu@PxgGpuNarrowphaseCore@physx@@QEAAXAEAUPxgGpuContactManagers@2@_NIPEAE22III@Z 000000018005cde0 f   PxgNarrowphaseCore.obj
 0001:0005cd70       ?testSDKTriMeshHeightfieldGpu@PxgGpuNarrowphaseCore@physx@@QEAAXAEAUPxgGpuContactManagers@2@IPEAE11III@Z 000000018005dd70 f   PxgNarrowphaseCore.obj
 0001:0005d0e0       ?testSDKTriMeshPlaneGpu@PxgGpuNarrowphaseCore@physx@@QEAAXAEAUPxgGpuContactManagers@2@IPEAE11III@Z 000000018005e0e0 f   PxgNarrowphaseCore.obj
 0001:0005d480       ?testSDKTriMeshTriMeshGpu@PxgGpuNarrowphaseCore@physx@@QEAAXAEAUPxgGpuContactManagers@2@IPEAE11III@Z 000000018005e480 f   PxgNarrowphaseCore.obj
 0001:0005d9d0       ?unregisterContactManager@PxgGpuNarrowphaseCore@physx@@QEAAXPEAVPxsContactManager@2@I@Z 000000018005e9d0 f   PxgNarrowphaseCore.obj
 0001:0005d9f0       ?unregisterContactManagerInternal@PxgGpuNarrowphaseCore@physx@@AEAAXPEAVPxsContactManager@2@AEAV?$PxArray@IVPxVirtualAllocator@physx@@@2@AEAUPxgNewContactManagers@2@@Z 000000018005e9f0 f   PxgNarrowphaseCore.obj
 0001:0005dbb0       ?unregisterFEMMaterial@PxgGpuNarrowphaseCore@physx@@QEAAXAEBV?$MaterialCoreT@UPxsDeformableSurfaceMaterialData@physx@@VPxDeformableSurfaceMaterial@2@@2@@Z 000000018005ebb0 f   PxgNarrowphaseCore.obj
 0001:0005dc30       ?unregisterFEMMaterial@PxgGpuNarrowphaseCore@physx@@QEAAXAEBV?$MaterialCoreT@UPxsDeformableVolumeMaterialData@physx@@VPxDeformableVolumeMaterial@2@@2@@Z 000000018005ec30 f   PxgNarrowphaseCore.obj
 0001:0005dcb0       ?unregisterMaterial@PxgGpuNarrowphaseCore@physx@@QEAAXAEBV?$MaterialCoreT@UPxsMaterialData@physx@@VPxMaterial@2@@2@@Z 000000018005ecb0 f   PxgNarrowphaseCore.obj
 0001:0005dd30       ?unregisterParticleMaterial@PxgGpuNarrowphaseCore@physx@@QEAAXAEBV?$MaterialCoreT@UPxsPBDMaterialData@physx@@VPxPBDMaterial@2@@2@@Z 000000018005ed30 f   PxgNarrowphaseCore.obj
 0001:0005ddb0       ?unregisterShape@PxgGpuNarrowphaseCore@physx@@QEAAXAEBUPxsShapeCore@2@I_N@Z 000000018005edb0 f   PxgNarrowphaseCore.obj
 0001:0005dfe0       ?updateFEMMaterial@PxgGpuNarrowphaseCore@physx@@QEAAXAEBV?$MaterialCoreT@UPxsDeformableSurfaceMaterialData@physx@@VPxDeformableSurfaceMaterial@2@@2@@Z 000000018005efe0 f   PxgNarrowphaseCore.obj
 0001:0005e060       ?updateFEMMaterial@PxgGpuNarrowphaseCore@physx@@QEAAXAEBV?$MaterialCoreT@UPxsDeformableVolumeMaterialData@physx@@VPxDeformableVolumeMaterial@2@@2@@Z 000000018005f060 f   PxgNarrowphaseCore.obj
 0001:0005e0e0       ?updateFrictionPatches@PxgGpuNarrowphaseCore@physx@@QEAAXAEAUPxgGpuContactManagers@2@IPEAE1@Z 000000018005f0e0 f   PxgNarrowphaseCore.obj
 0001:0005e290       ?updateMaterial@PxgGpuNarrowphaseCore@physx@@QEAAXAEBV?$MaterialCoreT@UPxsMaterialData@physx@@VPxMaterial@2@@2@@Z 000000018005f290 f   PxgNarrowphaseCore.obj
 0001:0005e310       ?updateParticleMaterial@PxgGpuNarrowphaseCore@physx@@QEAAXAEBV?$MaterialCoreT@UPxsPBDMaterialData@physx@@VPxPBDMaterial@2@@2@@Z 000000018005f310 f   PxgNarrowphaseCore.obj
 0001:0005e390       ?updateShapeMaterial@PxgGpuNarrowphaseCore@physx@@QEAAXAEBUPxsShapeCore@2@@Z 000000018005f390 f   PxgNarrowphaseCore.obj
 0001:0005e450       ?uploadDataChunksToGpuBp@PxgGpuNarrowphaseCore@physx@@QEAAXXZ 000000018005f450 f   PxgNarrowphaseCore.obj
 0001:0005e4e0       ?createPxgNarrowphase@physx@@YAXXZ 000000018005f4e0 f   PxgNarrowphase.obj
 0001:0005e670       DllMain                    000000018005f670 f   LIBCMT:dll_dllmain_stub.obj
 0001:0005e670       _get_startup_argv_mode     000000018005f670 f   LIBCMT:argv_mode.obj
 0001:0005e670       ?length@charNode@@UEBAHXZ  000000018005f670 f   libvcruntime:undname.obj
 0001:0005e670       ?raw_length@charNode@@UEBAHXZ 000000018005f670 f   libvcruntime:undname.obj
 0001:0005e670       ?getSolverType@PxgTGSDynamicsContext@physx@@UEBA?AW4Enum@PxSolverType@2@XZ 000000018005f670 f   PxgTGSDynamicsContext.obj
 0001:0005ec30       ??0PxgNphaseImplementationContext@physx@@QEAA@AEAVPxsContext@1@PEAVPxsKernelWranglerManager@1@PEAVPxvNphaseImplementationFallback@1@AEBUPxGpuDynamicsMemoryConfig@1@PEAX44AEAV?$PxArray@VPxBounds3@physx@@VPxVirtualAllocator@2@@1@PEAVIslandSim@IG@1@PEAVContext@Dy@1@PEAVPxgHeapMemoryAllocatorManager@1@_N@Z 000000018005fc30 f   PxgNphaseImplementationContext.obj
 0001:0005f1d0       ??_EPxgCopyToFEMClothSimTask@physx@@UEAAPEAXI@Z 00000001800601d0 f i PxgSimulationController.obj
 0001:0005f1d0       ??_EPxgCopyToSoftBodySimTask@physx@@UEAAPEAXI@Z 00000001800601d0 f i PxgSimulationController.obj
 0001:0005f1d0       ??_EPxgCMGpuDiscreteSecondPassUpdateTask@physx@@UEAAPEAXI@Z 00000001800601d0 f i PxgNphaseImplementationContext.obj
 0001:0005f1d0       ??_EPxgCMGpuDiscreteUpdateFallbackTask@physx@@UEAAPEAXI@Z 00000001800601d0 f i PxgNphaseImplementationContext.obj
 0001:0005f1d0       ??_GPxgCMGpuDiscreteSecondPassUpdateTask@physx@@UEAAPEAXI@Z 00000001800601d0 f i PxgNphaseImplementationContext.obj
 0001:0005f1d0       ??_GPxgPostCopyToBodySimTask@physx@@UEAAPEAXI@Z 00000001800601d0 f i PxgSimulationController.obj
 0001:0005f1d0       ??_GPxgCMGpuDiscreteUpdateFallbackTask@physx@@UEAAPEAXI@Z 00000001800601d0 f i PxgNphaseImplementationContext.obj
 0001:0005f1d0       ??_GPxgCopyToSoftBodySimTask@physx@@UEAAPEAXI@Z 00000001800601d0 f i PxgSimulationController.obj
 0001:0005f1d0       ??_GPxgCopyToFEMClothSimTask@physx@@UEAAPEAXI@Z 00000001800601d0 f i PxgSimulationController.obj
 0001:0005f1d0       ??_EPxgPostCopyToBodySimTask@physx@@UEAAPEAXI@Z 00000001800601d0 f i PxgSimulationController.obj
 0001:0005f210       ??_GPxgNphaseImplementationContext@physx@@UEAAPEAXI@Z 0000000180060210 f i PxgNphaseImplementationContext.obj
 0001:0005f210       ??_EPxgNphaseImplementationContext@physx@@UEAAPEAXI@Z 0000000180060210 f i PxgNphaseImplementationContext.obj
 0001:0005f340       ??_EPxvNphaseImplementationContext@physx@@UEAAPEAXI@Z 0000000180060340 f i PxgNphaseImplementationContext.obj
 0001:0005f340       ??_GPxvNphaseImplementationContext@physx@@UEAAPEAXI@Z 0000000180060340 f i PxgNphaseImplementationContext.obj
 0001:0005f370       ?acquireContext@PxgNphaseImplementationContext@physx@@UEAAXXZ 0000000180060370 f   PxgNphaseImplementationContext.obj
 0001:0005f380       ?allocate@?$PxArray@PEAVPxBaseTask@physx@@V?$PxInlineAllocator@$0CA@V?$PxReflectionAllocator@PEAVPxBaseTask@physx@@@physx@@@2@@physx@@IEAAPEAPEAVPxBaseTask@2@IPEAI@Z 0000000180060380 f i PxgNphaseImplementationContext.obj
 0001:0005f430       ?extend@?$PxBitMapBase@VPxAllocator@physx@@@physx@@IEAAXI@Z 0000000180060430 f i PxgNphaseImplementationContext.obj
 0001:0005f520       ?fetchUpdateContactManager@PxgNphaseImplementationContext@physx@@UEAAXXZ 0000000180060520 f   PxgNphaseImplementationContext.obj
 0001:0005f530       ?get@?$PxcThreadCoherentCache@VPxcNpThreadContext@physx@@UPxcNpContext@2@@physx@@QEAAPEAVPxcNpThreadContext@2@XZ 0000000180060530 f i PxgNphaseImplementationContext.obj
 0001:0005f5e0       ?getContactManagerOutputs@PxgNphaseImplementationContext@physx@@UEAA?AVPxsContactManagerOutputIterator@2@XZ 00000001800605e0 f   PxgNphaseImplementationContext.obj
 0001:0005f9b0       ?getGPUContactManagerOutputBase@PxgNphaseImplementationContext@physx@@UEAAPEAUPxsContactManagerOutput@2@XZ 00000001800609b0 f   PxgNphaseImplementationContext.obj
 0001:0005f9d0       ?getGPURestDistances@PxgNphaseImplementationContext@physx@@UEAAPEAMXZ 00000001800609d0 f   PxgNphaseImplementationContext.obj
 0001:0005f9f0       ?getGPUShapeInteractions@PxgNphaseImplementationContext@physx@@UEAAPEAPEAVShapeInteraction@Sc@2@XZ 00000001800609f0 f   PxgNphaseImplementationContext.obj
 0001:0005fa10       ?getGPUTorsionalData@PxgNphaseImplementationContext@physx@@UEAAPEAUPxsTorsionalFrictionData@2@XZ 0000000180060a10 f   PxgNphaseImplementationContext.obj
 0001:0005fa30       ?getLostFoundPatchManagers@PxgNphaseImplementationContext@physx@@UEAAPEAPEAVPxsContactManager@2@XZ 0000000180060a30 f   PxgNphaseImplementationContext.obj
 0001:0005fa50       ?getLostFoundPatchOutputCounts@PxgNphaseImplementationContext@physx@@UEAAPEAUPxsContactManagerOutputCounts@2@XZ 0000000180060a50 f   PxgNphaseImplementationContext.obj
 0001:0005fa70       ?getName@PxgCMGpuDiscreteSecondPassUpdateTask@physx@@UEBAPEBDXZ 0000000180060a70 f i PxgNphaseImplementationContext.obj
 0001:0005fa80       ?getName@PxgCMGpuDiscreteUpdateFallbackTask@physx@@UEBAPEBDXZ 0000000180060a80 f i PxgNphaseImplementationContext.obj
 0001:0005fa90       ?getName@PxgCMGpuDiscreteUpdateTask@physx@@UEBAPEBDXZ 0000000180060a90 f i PxgNphaseImplementationContext.obj
 0001:0005faa0       ?getNbLostFoundPatchManagers@PxgNphaseImplementationContext@physx@@UEAAIXZ 0000000180060aa0 f   PxgNphaseImplementationContext.obj
 0001:0005fab0       ?getNewContactManagerOutput@PxgNphaseImplementationContext@physx@@UEAAAEAUPxsContactManagerOutput@2@I@Z 0000000180060ab0 f   PxgNphaseImplementationContext.obj
 0001:0005fb20       ?getToleranceLength@PxgNphaseImplementationContext@physx@@QEAAMXZ 0000000180060b20 f   PxgNphaseImplementationContext.obj
 0001:0005fb30       ?growAndPushBack@?$PxArray@PEAVPxBaseTask@physx@@V?$PxInlineAllocator@$0CA@V?$PxReflectionAllocator@PEAVPxBaseTask@physx@@@physx@@@2@@physx@@IEAAAEAPEAVPxBaseTask@2@AEBQEAV32@@Z 0000000180060b30 f i PxgNphaseImplementationContext.obj
 0001:0005fc00       ?lock@PxgNphaseImplementationContext@physx@@UEAAXXZ 0000000180060c00 f i PxgNphaseImplementationContext.obj
 0001:0005fc10       ?mergeContactManagers@PxgNphaseImplementationContext@physx@@QEAAXPEAVPxBaseTask@2@@Z 0000000180060c10 f   PxgNphaseImplementationContext.obj
 0001:0005ff60       ?postBroadPhaseUpdateContactManager@PxgNphaseImplementationContext@physx@@UEAAXPEAVPxBaseTask@2@@Z 0000000180060f60 f   PxgNphaseImplementationContext.obj
 0001:0005ffa0       ?preallocateNewBuffers@PxgNphaseImplementationContext@physx@@UEAAXII@Z 0000000180060fa0 f   PxgNphaseImplementationContext.obj
 0001:00060020       ?processContactManagers@PxgCMGpuDiscreteUpdateBase@physx@@QEAAXAEAUPxgContactManagers@2@AEAUPxgGpuContactManagers@2@W4Enum@GPU_BUCKET_ID@2@@Z 0000000180061020 f   PxgNphaseImplementationContext.obj
 0001:00060a90       ?processResults@PxgNphaseImplementationContext@physx@@QEAAXXZ 0000000180061a90 f   PxgNphaseImplementationContext.obj
 0001:00060d60       ?refreshContactManager@PxgNphaseImplementationContext@physx@@UEAAXPEAVPxsContactManager@2@@Z 0000000180061d60 f   PxgNphaseImplementationContext.obj
 0001:00060e70       ?registerAggregate@PxgNphaseImplementationContext@physx@@UEAAXI@Z 0000000180061e70 f   PxgNphaseImplementationContext.obj
 0001:00060e80       ?registerContactManager@PxgNphaseImplementationContext@physx@@UEAAXPEAVPxsContactManager@2@PEBVShapeInteraction@Sc@2@HI@Z 0000000180061e80 f   PxgNphaseImplementationContext.obj
 0001:00061100       ?registerMaterial@PxgNphaseImplementationContext@physx@@UEAAXAEBV?$MaterialCoreT@UPxsDeformableSurfaceMaterialData@physx@@VPxDeformableSurfaceMaterial@2@@2@@Z 0000000180062100 f   PxgNphaseImplementationContext.obj
 0001:00061110       ?registerMaterial@PxgNphaseImplementationContext@physx@@UEAAXAEBV?$MaterialCoreT@UPxsDeformableVolumeMaterialData@physx@@VPxDeformableVolumeMaterial@2@@2@@Z 0000000180062110 f   PxgNphaseImplementationContext.obj
 0001:00061120       ?registerMaterial@PxgNphaseImplementationContext@physx@@UEAAXAEBV?$MaterialCoreT@UPxsMaterialData@physx@@VPxMaterial@2@@2@@Z 0000000180062120 f   PxgNphaseImplementationContext.obj
 0001:00061130       ?registerMaterial@PxgNphaseImplementationContext@physx@@UEAAXAEBV?$MaterialCoreT@UPxsPBDMaterialData@physx@@VPxPBDMaterial@2@@2@@Z 0000000180062130 f   PxgNphaseImplementationContext.obj
 0001:00061140       ?registerShape@PxgNphaseImplementationContext@physx@@UEAAXAEBVPxNodeIndex@2@AEBUPxsShapeCore@2@IPEAVPxActor@2@_N@Z 0000000180062140 f   PxgNphaseImplementationContext.obj
 0001:00061170       ?release@PxgCMGpuDiscreteUpdateTask@physx@@UEAAXXZ 0000000180062170 f i PxgNphaseImplementationContext.obj
 0001:000611b0       ?releaseContext@PxgNphaseImplementationContext@physx@@UEAAXXZ 00000001800621b0 f   PxgNphaseImplementationContext.obj
 0001:000611c0       ?runInternal@PxgCMGpuDiscreteSecondPassUpdateTask@physx@@UEAAXXZ 00000001800621c0 f   PxgNphaseImplementationContext.obj
 0001:00061270       ?runInternal@PxgCMGpuDiscreteUpdateFallbackTask@physx@@UEAAXXZ 0000000180062270 f   PxgNphaseImplementationContext.obj
 0001:000612d0       ?runInternal@PxgCMGpuDiscreteUpdateTask@physx@@UEAAXXZ 00000001800622d0 f   PxgNphaseImplementationContext.obj
 0001:00061360       ?secondPassUpdateContactManager@PxgNphaseImplementationContext@physx@@UEAAXMPEAVPxBaseTask@2@@Z 0000000180062360 f   PxgNphaseImplementationContext.obj
 0001:00061400       ?setContactModifyCallback@PxgNphaseImplementationContext@physx@@UEAAXPEAVPxContactModifyCallback@2@@Z 0000000180062400 f i PxgNphaseImplementationContext.obj
 0001:00061410       ?setPostBroadPhaseTask@PxgCMGpuDiscreteUpdateTask@physx@@UEAAXPEAVPxBaseTask@2@@Z 0000000180062410 f i PxgNphaseImplementationContext.obj
 0001:00061420       ?startNarrowPhaseTasks@PxgNphaseImplementationContext@physx@@UEAAXXZ 0000000180062420 f   PxgNphaseImplementationContext.obj
 0001:00061590       ?unlock@PxgNphaseImplementationContext@physx@@UEAAXXZ 0000000180062590 f i PxgNphaseImplementationContext.obj
 0001:000615a0       ?unregisterContactManager@PxgNphaseImplementationContext@physx@@UEAAXPEAVPxsContactManager@2@@Z 00000001800625a0 f   PxgNphaseImplementationContext.obj
 0001:000616b0       ?unregisterMaterial@PxgNphaseImplementationContext@physx@@UEAAXAEBV?$MaterialCoreT@UPxsDeformableSurfaceMaterialData@physx@@VPxDeformableSurfaceMaterial@2@@2@@Z 00000001800626b0 f   PxgNphaseImplementationContext.obj
 0001:000616c0       ?unregisterMaterial@PxgNphaseImplementationContext@physx@@UEAAXAEBV?$MaterialCoreT@UPxsDeformableVolumeMaterialData@physx@@VPxDeformableVolumeMaterial@2@@2@@Z 00000001800626c0 f   PxgNphaseImplementationContext.obj
 0001:000616d0       ?unregisterMaterial@PxgNphaseImplementationContext@physx@@UEAAXAEBV?$MaterialCoreT@UPxsMaterialData@physx@@VPxMaterial@2@@2@@Z 00000001800626d0 f   PxgNphaseImplementationContext.obj
 0001:000616e0       ?unregisterMaterial@PxgNphaseImplementationContext@physx@@UEAAXAEBV?$MaterialCoreT@UPxsPBDMaterialData@physx@@VPxPBDMaterial@2@@2@@Z 00000001800626e0 f   PxgNphaseImplementationContext.obj
 0001:000616f0       ?unregisterShape@PxgNphaseImplementationContext@physx@@UEAAXAEBUPxsShapeCore@2@I_N@Z 00000001800626f0 f   PxgNphaseImplementationContext.obj
 0001:00061700       ?updateContactManager@PxgNphaseImplementationContext@physx@@UEAAXM_NPEAVPxBaseTask@2@1PEAVFanoutTask@Cm@2@@Z 0000000180062700 f   PxgNphaseImplementationContext.obj
 0001:00061890       ?updateMaterial@PxgNphaseImplementationContext@physx@@UEAAXAEBV?$MaterialCoreT@UPxsDeformableSurfaceMaterialData@physx@@VPxDeformableSurfaceMaterial@2@@2@@Z 0000000180062890 f   PxgNphaseImplementationContext.obj
 0001:000618a0       ?updateMaterial@PxgNphaseImplementationContext@physx@@UEAAXAEBV?$MaterialCoreT@UPxsDeformableVolumeMaterialData@physx@@VPxDeformableVolumeMaterial@2@@2@@Z 00000001800628a0 f   PxgNphaseImplementationContext.obj
 0001:000618b0       ?updateMaterial@PxgNphaseImplementationContext@physx@@UEAAXAEBV?$MaterialCoreT@UPxsMaterialData@physx@@VPxMaterial@2@@2@@Z 00000001800628b0 f   PxgNphaseImplementationContext.obj
 0001:000618c0       ?updateMaterial@PxgNphaseImplementationContext@physx@@UEAAXAEBV?$MaterialCoreT@UPxsPBDMaterialData@physx@@VPxPBDMaterial@2@@2@@Z 00000001800628c0 f   PxgNphaseImplementationContext.obj
 0001:000618d0       ?updateNarrowPhaseShape@PxgNphaseImplementationContext@physx@@QEAAXXZ 00000001800628d0 f   PxgNphaseImplementationContext.obj
 0001:00061900       ?updateShapeMaterial@PxgNphaseImplementationContext@physx@@UEAAXAEBUPxsShapeCore@2@@Z 0000000180062900 f   PxgNphaseImplementationContext.obj
 0001:00061910       ??0PxgFEMSoftBodyMaterialManager@physx@@QEAA@PEAVPxgHeapMemoryAllocatorManager@1@@Z 0000000180062910 f   PxgShapeManager.obj
 0001:000619f0       ??0PxgMaterialManager@physx@@QEAA@PEAVPxgHeapMemoryAllocatorManager@1@I@Z 00000001800629f0 f   PxgShapeManager.obj
 0001:00061ac0       ??0PxgShapeManager@physx@@QEAA@PEAVPxgHeapMemoryAllocatorManager@1@@Z 0000000180062ac0 f   PxgShapeManager.obj
 0001:00061eb0       ?initialize@PxgShapeManager@physx@@QEAAXPEAVPxCudaContext@2@PEAUCUstream_st@@@Z 0000000180062eb0 f   PxgShapeManager.obj
 0001:00061fd0       ?recreate@?$PxArray@UPxgShape@physx@@VPxVirtualAllocator@2@@physx@@IEAAXI@Z 0000000180062fd0 f i PxgShapeManager.obj
 0001:00062230       ?registerMaterial@PxgMaterialManager@physx@@QEAAIPEBEI@Z 0000000180063230 f   PxgShapeManager.obj
 0001:00062310       ?registerShape@PxgShapeManager@physx@@QEAAIAEAUPxgShape@2@@Z 0000000180063310 f   PxgShapeManager.obj
 0001:00062480       ?registerShapeInstance@PxgShapeManager@physx@@QEAAXAEBVPxNodeIndex@2@IPEAVPxActor@2@_N@Z 0000000180063480 f   PxgShapeManager.obj
 0001:000625b0       ?resize@?$PxArray@VPxNodeIndex@physx@@VPxVirtualAllocator@2@@physx@@QEAAXIAEBVPxNodeIndex@2@@Z 00000001800635b0 f i PxgShapeManager.obj
 0001:000625b0       ?resize@?$PxArray@UPxgSolverConstraintManagerConstants@physx@@VPxVirtualAllocator@2@@physx@@QEAAXIAEBUPxgSolverConstraintManagerConstants@2@@Z 00000001800635b0 f i PxgConstraintPartition.obj
 0001:000625b0       ?resize@?$PxArray@PEAVPxActor@physx@@VPxVirtualAllocator@2@@physx@@QEAAXIAEBQEAVPxActor@2@@Z 00000001800635b0 f i PxgShapeManager.obj
 0001:000625b0       ?resize@?$PxArray@UPxBoundTransformUpdate@physx@@VPxVirtualAllocator@2@@physx@@QEAAXIAEBUPxBoundTransformUpdate@2@@Z 00000001800635b0 f i PxgSimulationCore.obj
 0001:00062670       ?resize@?$PxArray@UPxgShape@physx@@VPxVirtualAllocator@2@@physx@@QEAAXIAEBUPxgShape@2@@Z 0000000180063670 f i PxgShapeManager.obj
 0001:00062870       ?scheduleCopyHtoD@PxgFEMMaterialManager@physx@@UEAAXAEAVPxgCopyManager@2@PEAVPxCudaContext@2@PEAUCUstream_st@@I@Z 0000000180063870 f   PxgShapeManager.obj
 0001:00062af0       ?scheduleCopyHtoD@PxgMaterialManager@physx@@UEAAXAEAVPxgCopyManager@2@PEAVPxCudaContext@2@PEAUCUstream_st@@I@Z 0000000180063af0 f   PxgShapeManager.obj
 0001:00062d70       ?scheduleCopyHtoD@PxgShapeManager@physx@@QEAAXAEAVPxgCopyManager@2@PEAVPxCudaContext@2@PEAUCUstream_st@@@Z 0000000180063d70 f   PxgShapeManager.obj
 0001:000636b0       ?unregisterMaterial@PxgMaterialManager@physx@@QEAAXI@Z 00000001800646b0 f   PxgShapeManager.obj
 0001:00063720       ?unregisterShape@PxgShapeManager@physx@@QEAAXI@Z 0000000180064720 f   PxgShapeManager.obj
 0001:000637a0       ?unregisterShapeInstance@PxgShapeManager@physx@@QEAAXI@Z 00000001800647a0 f   PxgShapeManager.obj
 0001:00063810       ?updateMaterial@PxgMaterialManager@physx@@QEAAXPEBEII@Z 0000000180064810 f   PxgShapeManager.obj
 0001:00063870       ?updateShapeMaterial@PxgShapeManager@physx@@QEAAXII@Z 0000000180064870 f   PxgShapeManager.obj
 0001:00063910       initSimulationControllerKernels1 0000000180064910 f   updateTransformAndBoundArray.obj
 0001:00063920       mergeTransformCacheAndBoundArrayChanges 0000000180064920 f   updateTransformAndBoundArray.obj
 0001:00063a50       updateTransformCacheAndBoundArrayLaunch 0000000180064a50 f   updateTransformAndBoundArray.obj
 0001:00063b10       updateChangedAABBMgrHandlesLaunch 0000000180064b10 f   updateTransformAndBoundArray.obj
 0001:00063bd0       mergeChangedAABBMgrHandlesLaunch 0000000180064bd0 f   updateTransformAndBoundArray.obj
 0001:00063c90       computeFrozenAndUnfrozenHistogramLaunch 0000000180064c90 f   updateTransformAndBoundArray.obj
 0001:00063d50       outputFrozenAndUnfrozenHistogram 0000000180064d50 f   updateTransformAndBoundArray.obj
 0001:00063e10       createFrozenAndUnfrozenArray 0000000180064e10 f   updateTransformAndBoundArray.obj
 0001:00063f00       ?__device_stub__Z39mergeTransformCacheAndBoundArrayChangesPN5physx9PxBounds3EPNS_18PxsCachedTransformEPKS0_PKS2_PKNS_22PxBoundTransformUpdateEj@@YAXPEIAVPxBounds3@physx@@PEIAUPxsCachedTransform@2@PEIBV12@PEIBU32@PEIBUPxBoundTransformUpdate@2@I@Z 0000000180064f00 f   updateTransformAndBoundArray.obj
 0001:00064020       ?__device_stub__Z39updateTransformCacheAndBoundArrayLaunchPKN5physx21PxgSimulationCoreDescE@@YAXPEBUPxgSimulationCoreDesc@physx@@@Z 0000000180065020 f   updateTransformAndBoundArray.obj
 0001:000640e0       ?__device_stub__Z33updateChangedAABBMgrHandlesLaunchPKN5physx21PxgSimulationCoreDescE@@YAXPEBUPxgSimulationCoreDesc@physx@@@Z 00000001800650e0 f   updateTransformAndBoundArray.obj
 0001:000641a0       ?__device_stub__Z32mergeChangedAABBMgrHandlesLaunchPKN5physx22PxgUpdateActorDataDescE@@YAXPEBUPxgUpdateActorDataDesc@physx@@@Z 00000001800651a0 f   updateTransformAndBoundArray.obj
 0001:00064260       ?__device_stub__Z39computeFrozenAndUnfrozenHistogramLaunchPKN5physx21PxgSimulationCoreDescE@@YAXPEBUPxgSimulationCoreDesc@physx@@@Z 0000000180065260 f   updateTransformAndBoundArray.obj
 0001:00064320       ?__device_stub__Z32outputFrozenAndUnfrozenHistogramPN5physx21PxgSimulationCoreDescE@@YAXPEAUPxgSimulationCoreDesc@physx@@@Z 0000000180065320 f   updateTransformAndBoundArray.obj
 0001:000643e0       ?__device_stub__Z28createFrozenAndUnfrozenArrayPKN5physx21PxgSimulationCoreDescE@@YAXPEBUPxgSimulationCoreDesc@physx@@@Z 00000001800653e0 f   updateTransformAndBoundArray.obj
 0001:00064910       initSimulationControllerKernels0 0000000180065910 f   updateBodiesAndShapes.obj
 0001:00064920       updateBodiesLaunch         0000000180065920 f   updateBodiesAndShapes.obj
 0001:000649e0       updateBodiesLaunchDirectAPI 00000001800659e0 f   updateBodiesAndShapes.obj
 0001:00064aa0       updateShapesLaunch         0000000180065aa0 f   updateBodiesAndShapes.obj
 0001:00064ba0       newArticulationsLaunch     0000000180065ba0 f   updateBodiesAndShapes.obj
 0001:00064c70       updateArticulationsLaunch  0000000180065c70 f   updateBodiesAndShapes.obj
 0001:00064d90       updateBodyExternalVelocitiesLaunch 0000000180065d90 f   updateBodiesAndShapes.obj
 0001:00064e50       updateJointsLaunch         0000000180065e50 f   updateBodiesAndShapes.obj
 0001:00064f10       getRigidDynamicGlobalPose  0000000180065f10 f   updateBodiesAndShapes.obj
 0001:00065020       getRigidDynamicLinearVelocity 0000000180066020 f   updateBodiesAndShapes.obj
 0001:00065130       getRigidDynamicAngularVelocity 0000000180066130 f   updateBodiesAndShapes.obj
 0001:00065240       getRigidDynamicLinearAcceleration 0000000180066240 f   updateBodiesAndShapes.obj
 0001:00065370       getRigidDynamicAngularAcceleration 0000000180066370 f   updateBodiesAndShapes.obj
 0001:000654a0       setRigidDynamicGlobalPose  00000001800664a0 f   updateBodiesAndShapes.obj
 0001:000655c0       setRigidDynamicLinearVelocity 00000001800665c0 f   updateBodiesAndShapes.obj
 0001:000656e0       setRigidDynamicAngularVelocity 00000001800666e0 f   updateBodiesAndShapes.obj
 0001:00065800       setRigidDynamicForce       0000000180066800 f   updateBodiesAndShapes.obj
 0001:00065910       setRigidDynamicTorque      0000000180066910 f   updateBodiesAndShapes.obj
 0001:00065a20       copyUserData               0000000180066a20 f   updateBodiesAndShapes.obj
 0001:00065af0       getD6JointForces           0000000180066af0 f   updateBodiesAndShapes.obj
 0001:00065c30       getD6JointTorques          0000000180066c30 f   updateBodiesAndShapes.obj
 0001:00065da0       ?__device_stub__Z18updateBodiesLaunchPKN5physx16PxgNewBodiesDescE@@YAXPEBUPxgNewBodiesDesc@physx@@@Z 0000000180066da0 f   updateBodiesAndShapes.obj
 0001:00065e60       ?__device_stub__Z27updateBodiesLaunchDirectAPIPKN5physx16PxgNewBodiesDescE@@YAXPEBUPxgNewBodiesDesc@physx@@@Z 0000000180066e60 f   updateBodiesAndShapes.obj
 0001:00065f20       ?__device_stub__Z18updateShapesLaunchPKN5physx14PxgNewShapeSimEPNS_11PxgShapeSimEj@@YAXPEIBUPxgNewShapeSim@physx@@PEIAUPxgShapeSim@2@I@Z 0000000180066f20 f   updateBodiesAndShapes.obj
 0001:00066030       ?__device_stub__Z22newArticulationsLaunchPKN5physx25PxgUpdateArticulationDescEPKf@@YAXPEBUPxgUpdateArticulationDesc@physx@@PEBM@Z 0000000180067030 f   updateBodiesAndShapes.obj
 0001:00066100       ?__device_stub__Z25updateArticulationsLaunchPKN5physx25PxgUpdateArticulationDescEPKNS_24PxgArticulationSimUpdateEjPKfb@@YAXPEBUPxgUpdateArticulationDesc@physx@@PEBUPxgArticulationSimUpdate@2@IPEBM_N@Z 0000000180067100 f   updateBodiesAndShapes.obj
 0001:00066210       ?__device_stub__Z34updateBodyExternalVelocitiesLaunchPKN5physx20PxgUpdatedBodiesDescE@@YAXPEBUPxgUpdatedBodiesDesc@physx@@@Z 0000000180067210 f   updateBodiesAndShapes.obj
 0001:000662d0       ?__device_stub__Z18updateJointsLaunchPKN5physx20PxgUpdatedJointsDescE@@YAXPEBUPxgUpdatedJointsDesc@physx@@@Z 00000001800672d0 f   updateBodiesAndShapes.obj
 0001:00066390       ?__device_stub__Z25getRigidDynamicGlobalPosePN5physx12PxTransformTIfEEPKjPKNS_10PxgBodySimEj@@YAXPEIAV?$PxTransformT@M@physx@@PEIBIPEIBUPxgBodySim@2@I@Z 0000000180067390 f   updateBodiesAndShapes.obj
 0001:000664a0       ?__device_stub__Z29getRigidDynamicLinearVelocityPN5physx7PxVec3TIfEEPKjPKNS_10PxgBodySimEj@@YAXPEIAV?$PxVec3T@M@physx@@PEIBIPEIBUPxgBodySim@2@I@Z 00000001800674a0 f   updateBodiesAndShapes.obj
 0001:000665b0       ?__device_stub__Z30getRigidDynamicAngularVelocityPN5physx7PxVec3TIfEEPKjPKNS_10PxgBodySimEj@@YAXPEIAV?$PxVec3T@M@physx@@PEIBIPEIBUPxgBodySim@2@I@Z 00000001800675b0 f   updateBodiesAndShapes.obj
 0001:000666c0       ?__device_stub__Z33getRigidDynamicLinearAccelerationPN5physx7PxVec3TIfEEPKjPKNS_10PxgBodySimEPKNS_20PxgBodySimVelocitiesEjf@@YAXPEIAV?$PxVec3T@M@physx@@PEIBIPEIBUPxgBodySim@2@PEIBUPxgBodySimVelocities@2@IM@Z 00000001800676c0 f   updateBodiesAndShapes.obj
 0001:000667e0       ?__device_stub__Z34getRigidDynamicAngularAccelerationPN5physx7PxVec3TIfEEPKjPKNS_10PxgBodySimEPKNS_20PxgBodySimVelocitiesEjf@@YAXPEIAV?$PxVec3T@M@physx@@PEIBIPEIBUPxgBodySim@2@PEIBUPxgBodySimVelocities@2@IM@Z 00000001800677e0 f   updateBodiesAndShapes.obj
 0001:00066900       ?__device_stub__Z25setRigidDynamicGlobalPosePKN5physx12PxTransformTIfEEPKjPKNS_22PxgUpdateActorDataDescEjj@@YAXPEIBV?$PxTransformT@M@physx@@PEIBIPEIBUPxgUpdateActorDataDesc@2@II@Z 0000000180067900 f   updateBodiesAndShapes.obj
 0001:00066a10       ?__device_stub__Z29setRigidDynamicLinearVelocityPKN5physx7PxVec3TIfEEPKjPKNS_22PxgUpdateActorDataDescEPNS_20PxgBodySimVelocitiesEj@@YAXPEIBV?$PxVec3T@M@physx@@PEIBIPEIBUPxgUpdateActorDataDesc@2@PEIAUPxgBodySimVelocities@2@I@Z 0000000180067a10 f   updateBodiesAndShapes.obj
 0001:00066b20       ?__device_stub__Z30setRigidDynamicAngularVelocityPKN5physx7PxVec3TIfEEPKjPKNS_22PxgUpdateActorDataDescEPNS_20PxgBodySimVelocitiesEj@@YAXPEIBV?$PxVec3T@M@physx@@PEIBIPEIBUPxgUpdateActorDataDesc@2@PEIAUPxgBodySimVelocities@2@I@Z 0000000180067b20 f   updateBodiesAndShapes.obj
 0001:00066c30       ?__device_stub__Z20setRigidDynamicForcePKN5physx7PxVec3TIfEEPKjPKNS_22PxgUpdateActorDataDescEj@@YAXPEIBV?$PxVec3T@M@physx@@PEIBIPEIBUPxgUpdateActorDataDesc@2@I@Z 0000000180067c30 f   updateBodiesAndShapes.obj
 0001:00066d40       ?__device_stub__Z21setRigidDynamicTorquePKN5physx7PxVec3TIfEEPKjPKNS_22PxgUpdateActorDataDescEj@@YAXPEIBV?$PxVec3T@M@physx@@PEIBIPEIBUPxgUpdateActorDataDesc@2@I@Z 0000000180067d40 f   updateBodiesAndShapes.obj
 0001:00066e50       ?__device_stub__Z12copyUserDataPN5physx10PxgPtrPairEj@@YAXPEAUPxgPtrPair@physx@@I@Z 0000000180067e50 f   updateBodiesAndShapes.obj
 0001:00066f20       ?__device_stub__Z16getD6JointForcesPN5physx7PxVec3TIfEEPKjjPKNS_22PxgConstraintWritebackEfPKNS_23PxgConstraintIdMapEntryEj@@YAXPEIAV?$PxVec3T@M@physx@@PEIBIIPEIBUPxgConstraintWriteback@2@MPEIBVPxgConstraintIdMapEntry@2@I@Z 0000000180067f20 f   updateBodiesAndShapes.obj
 0001:00067040       ?__device_stub__Z17getD6JointTorquesPN5physx7PxVec3TIfEEPKjjPKNS_22PxgConstraintWritebackEfPKNS_23PxgConstraintIdMapEntryEj@@YAXPEIAV?$PxVec3T@M@physx@@PEIBIIPEIBUPxgConstraintWriteback@2@MPEIBVPxgConstraintIdMapEntry@2@I@Z 0000000180068040 f   updateBodiesAndShapes.obj
 0001:00067730       initParticleSystemKernels0 0000000180068730 f   particlesystem.obj
 0001:00067740       ps_stepParticlesLaunch     0000000180068740 f   particlesystem.obj
 0001:000678a0       ps_updateUnsortedArrayLaunch 00000001800688a0 f   particlesystem.obj
 0001:00067970       ps_updateUserBufferLaunch  0000000180068970 f   particlesystem.obj
 0001:00067a40       ps_preIntegrateLaunch      0000000180068a40 f   particlesystem.obj
 0001:00067b70       ps_preDiffuseIntegrateLaunch 0000000180068b70 f   particlesystem.obj
 0001:00067c80       ps_updateBoundFirstPassLaunch 0000000180068c80 f   particlesystem.obj
 0001:00067d90       ps_updateBoundSecondPassLaunch 0000000180068d90 f   particlesystem.obj
 0001:00067ed0       ps_update_volume_bound     0000000180068ed0 f   particlesystem.obj
 0001:00067fa0       ps_updateSprings           0000000180068fa0 f   particlesystem.obj
 0001:000680c0       ps_calculateHashLaunch     00000001800690c0 f   particlesystem.obj
 0001:00068190       ps_calculateHashForDiffuseParticlesLaunch 0000000180069190 f   particlesystem.obj
 0001:00068260       ps_reorderDataAndFindCellStartLaunch 0000000180069260 f   particlesystem.obj
 0001:00068330       ?collideCell@@YAIIIIIMMAEBV?$PxVec3T@M@physx@@QEIBUfloat4@@1AEBVPxgParticleSystem@2@IIPEIAIIQEIBI0_N4PEIAUfloat2@@AEAUSelfCollideCache@@@Z 0000000180069330 f   particlesystem.obj
 0001:00068350       ps_selfCollisionLaunch     0000000180069350 f   particlesystem.obj
 0001:00068420       ps_contactPrepareLaunch    0000000180069420 f   particlesystem.obj
 0001:000685d0       ps_solvePCOutputParticleDeltaVLaunch 00000001800695d0 f   particlesystem.obj
 0001:000687a0       ps_solvePCOutputParticleDeltaVTGSLaunch 00000001800697a0 f   particlesystem.obj
 0001:00068970       ps_solveOneWayContactDeltaVLaunch 0000000180069970 f   particlesystem.obj
 0001:00068aa0       ps_solvePCOutputRigidDeltaVLaunch 0000000180069aa0 f   particlesystem.obj
 0001:00068c70       ps_solvePCOutputRigidDeltaVTGSLaunch 0000000180069c70 f   particlesystem.obj
 0001:00068e40       ps_findStartEndParticleFirstLaunch 0000000180069e40 f   particlesystem.obj
 0001:00068f60       ps_findStartEndParticleSecondLaunch 0000000180069f60 f   particlesystem.obj
 0001:000690b0       ps_findStartEndFEMFirstLaunch 000000018006a0b0 f   particlesystem.obj
 0001:000691d0       ps_findStartEndFEMSecondLaunch 000000018006a1d0 f   particlesystem.obj
 0001:00069320       ps_accumulateFEMParticleDeltaVLaunch 000000018006a320 f   particlesystem.obj
 0001:00069450       ps_accumulateDeltaVParticleLaunch 000000018006a450 f   particlesystem.obj
 0001:00069580       ps_accumulateStaticDensity 000000018006a580 f   particlesystem.obj
 0001:00069650       ps_accumulateRigidDensity  000000018006a650 f   particlesystem.obj
 0001:00069770       ps_updateParticleLaunch    000000018006a770 f   particlesystem.obj
 0001:00069880       ps_integrateLaunch         000000018006a880 f   particlesystem.obj
 0001:00069990       ps_calculateDensityAndPotentialLaunch 000000018006a990 f   particlesystem.obj
 0001:00069a90       ps_solveDensityLaunch      000000018006aa90 f   particlesystem.obj
 0001:00069ba0       ps_applyDeltaLaunch        000000018006aba0 f   particlesystem.obj
 0001:00069ca0       ps_vorticityConfinementLaunch 000000018006aca0 f   particlesystem.obj
 0001:00069d70       ps_solveVelocityLaunch     000000018006ad70 f   particlesystem.obj
 0001:00069e70       ps_updateRemapVertsLaunch  000000018006ae70 f   particlesystem.obj
 0001:00069f40       ps_initializeSpringsLaunch 000000018006af40 f   particlesystem.obj
 0001:0006a010       ps_solveSpringsLaunch      000000018006b010 f   particlesystem.obj
 0001:0006a130       ps_averageVertsLaunch      000000018006b130 f   particlesystem.obj
 0001:0006a230       ps_solveAerodynamics1Launch 000000018006b230 f   particlesystem.obj
 0001:0006a330       ps_solveAerodynamics2Launch 000000018006b330 f   particlesystem.obj
 0001:0006a430       ps_calculateInflatableVolume 000000018006b430 f   particlesystem.obj
 0001:0006a500       ps_solveInflatableVolume   000000018006b500 f   particlesystem.obj
 0001:0006a610       ps_solveShapes             000000018006b610 f   particlesystem.obj
 0001:0006a720       ps_rigidAttachmentPrepareLaunch 000000018006b720 f   particlesystem.obj
 0001:0006a890       ps_solveRigidAttachmentsLaunch 000000018006b890 f   particlesystem.obj
 0001:0006aa00       ps_solveRigidAttachmentsTGSLaunch 000000018006ba00 f   particlesystem.obj
 0001:0006ab90       ps_finalizeParticlesLaunch 000000018006bb90 f   particlesystem.obj
 0001:0006aca0       ps_updateMaterials         000000018006bca0 f   particlesystem.obj
 0001:0006adb0       applyParticleBufferDataDEPRECATED 000000018006bdb0 f   particlesystem.obj
 0001:0006aef0       ?__device_stub__Z22ps_stepParticlesLaunchPKN5physx17PxgParticleSystemEPKjffbbbNS_7PxVec3TIfEE@@YAXPEIBVPxgParticleSystem@physx@@PEIBIMM_N_N3AEBV?$PxVec3T@M@2@@Z 000000018006bef0 f   particlesystem.obj
 0001:0006b020       ?__device_stub__Z28ps_updateUnsortedArrayLaunchPKN5physx17PxgParticleSystemEPKj@@YAXPEIBVPxgParticleSystem@physx@@PEIBI@Z 000000018006c020 f   particlesystem.obj
 0001:0006b0f0       ?__device_stub__Z25ps_updateUserBufferLaunchPKN5physx17PxgParticleSystemEPKj@@YAXPEIBVPxgParticleSystem@physx@@PEIBI@Z 000000018006c0f0 f   particlesystem.obj
 0001:0006b1c0       ?__device_stub__Z21ps_preIntegrateLaunchPKN5physx17PxgParticleSystemEPKjNS_7PxVec3TIfEEfbb@@YAXPEIBVPxgParticleSystem@physx@@PEIBIAEBV?$PxVec3T@M@2@M_N3@Z 000000018006c1c0 f   particlesystem.obj
 0001:0006b2e0       ?__device_stub__Z28ps_preDiffuseIntegrateLaunchPKN5physx17PxgParticleSystemEPKjNS_7PxVec3TIfEEf@@YAXPEIBVPxgParticleSystem@physx@@PEIBIAEBV?$PxVec3T@M@2@M@Z 000000018006c2e0 f   particlesystem.obj
 0001:0006b3f0       ?__device_stub__Z29ps_updateBoundFirstPassLaunchPKN5physx17PxgParticleSystemEjbPNS_9PxBounds3E@@YAXPEIBVPxgParticleSystem@physx@@I_NPEIAVPxBounds3@2@@Z 000000018006c3f0 f   particlesystem.obj
 0001:0006b500       ?__device_stub__Z30ps_updateBoundSecondPassLaunchPN5physx17PxgParticleSystemEjPKNS_9PxBounds3EjPS2_PKfj@@YAXPEIAVPxgParticleSystem@physx@@IPEIBVPxBounds3@2@IPEIAV32@PEIBMI@Z 000000018006c500 f   particlesystem.obj
 0001:0006b620       ?__device_stub__Z22ps_update_volume_boundPKN5physx17PxgParticleSystemEPKj@@YAXPEIBVPxgParticleSystem@physx@@PEIBI@Z 000000018006c620 f   particlesystem.obj
 0001:0006b6f0       ?__device_stub__Z16ps_updateSpringsPN5physx16PxParticleSpringEPKjPKS0_S3_j@@YAXPEIAUPxParticleSpring@physx@@PEIBIPEIBU12@1I@Z 000000018006c6f0 f   particlesystem.obj
 0001:0006b800       ?__device_stub__Z22ps_calculateHashLaunchPKN5physx17PxgParticleSystemEPKj@@YAXPEIBVPxgParticleSystem@physx@@PEIBI@Z 000000018006c800 f   particlesystem.obj
 0001:0006b8d0       ?__device_stub__Z41ps_calculateHashForDiffuseParticlesLaunchPKN5physx17PxgParticleSystemEPKj@@YAXPEIBVPxgParticleSystem@physx@@PEIBI@Z 000000018006c8d0 f   particlesystem.obj
 0001:0006b9a0       ?__device_stub__Z36ps_reorderDataAndFindCellStartLaunchPKN5physx17PxgParticleSystemEj@@YAXPEIBVPxgParticleSystem@physx@@I@Z 000000018006c9a0 f   particlesystem.obj
 0001:0006ba70       ?__device_stub__Z22ps_selfCollisionLaunchPKN5physx17PxgParticleSystemEj@@YAXQEIBVPxgParticleSystem@physx@@I@Z 000000018006ca70 f   particlesystem.obj
 0001:0006bb40       ?__device_stub__Z23ps_contactPrepareLaunchPN5physx17PxgParticleSystemEPNS_27PxgParticlePrimitiveContactEPjPNS_35PxgParticlePrimitiveConstraintBlockEPNS_14PxgPrePrepDescEPNS_24PxgConstraintPrepareDescEP6float2fbP6float4PNS_23PxgSolverSharedDescBaseE@@YAXPEAVPxgParticleSystem@physx@@PEAUPxgParticlePrimitiveContact@2@PEAIPEAUPxgParticlePrimitiveConstraintBlock@2@PEAUPxgPrePrepDesc@2@PEAUPxgConstraintPrepareDesc@2@PEAUfloat2@@M_NPEAUfloat4@@PEAUPxgSolverSharedDescBase@2@@Z 000000018006cb40 f   particlesystem.obj
 0001:0006bc90       ?__device_stub__Z36ps_solvePCOutputParticleDeltaVLaunchPN5physx17PxgParticleSystemEPNS_27PxgParticlePrimitiveContactEPNS_35PxgParticlePrimitiveConstraintBlockEPjPNS_14PxgPrePrepDescEPNS_17PxgSolverCoreDescEPNS_19PxgSolverSharedDescINS_18IterativeSolveDataEEEP6float4P6float2ffbPNS_23PxgArticulationCoreDescE@@YAXPEAVPxgParticleSystem@physx@@PEAUPxgParticlePrimitiveContact@2@PEAUPxgParticlePrimitiveConstraintBlock@2@PEAIPEAUPxgPrePrepDesc@2@PEAUPxgSolverCoreDesc@2@PEAU?$PxgSolverSharedDesc@UIterativeSolveData@physx@@@2@PEAUfloat4@@PEAUfloat2@@MM_NPEAUPxgArticulationCoreDesc@2@@Z 000000018006cc90 f   particlesystem.obj
 0001:0006be00       ?__device_stub__Z39ps_solvePCOutputParticleDeltaVTGSLaunchPN5physx17PxgParticleSystemEPNS_27PxgParticlePrimitiveContactEPNS_35PxgParticlePrimitiveConstraintBlockEPjPNS_14PxgPrePrepDescEPNS_17PxgSolverCoreDescEPNS_19PxgSolverSharedDescINS_18IterativeSolveDataEEEP6float4P6float2ffbPNS_23PxgArticulationCoreDescE@@YAXPEAVPxgParticleSystem@physx@@PEAUPxgParticlePrimitiveContact@2@PEAUPxgParticlePrimitiveConstraintBlock@2@PEAIPEAUPxgPrePrepDesc@2@PEAUPxgSolverCoreDesc@2@PEAU?$PxgSolverSharedDesc@UIterativeSolveData@physx@@@2@PEAUfloat4@@PEAUfloat2@@MM_NPEAUPxgArticulationCoreDesc@2@@Z 000000018006ce00 f   particlesystem.obj
 0001:0006bf70       ?__device_stub__Z33ps_solveOneWayContactDeltaVLaunchPN5physx17PxgParticleSystemEPKjfffb@@YAXPEAVPxgParticleSystem@physx@@PEBIMMM_N@Z 000000018006cf70 f   particlesystem.obj
 0001:0006c090       ?__device_stub__Z33ps_solvePCOutputRigidDeltaVLaunchPN5physx17PxgParticleSystemEPNS_27PxgParticlePrimitiveContactEPNS_35PxgParticlePrimitiveConstraintBlockEPjPNS_14PxgPrePrepDescEPNS_17PxgSolverCoreDescEPNS_19PxgSolverSharedDescINS_18IterativeSolveDataEEEP6float4P6float2ffbPNS_23PxgArticulationCoreDescE@@YAXPEAVPxgParticleSystem@physx@@PEAUPxgParticlePrimitiveContact@2@PEAUPxgParticlePrimitiveConstraintBlock@2@PEAIPEAUPxgPrePrepDesc@2@PEAUPxgSolverCoreDesc@2@PEAU?$PxgSolverSharedDesc@UIterativeSolveData@physx@@@2@PEAUfloat4@@PEAUfloat2@@MM_NPEAUPxgArticulationCoreDesc@2@@Z 000000018006d090 f   particlesystem.obj
 0001:0006c200       ?__device_stub__Z36ps_solvePCOutputRigidDeltaVTGSLaunchPN5physx17PxgParticleSystemEPNS_27PxgParticlePrimitiveContactEPNS_35PxgParticlePrimitiveConstraintBlockEPjPNS_14PxgPrePrepDescEPNS_17PxgSolverCoreDescEPNS_19PxgSolverSharedDescINS_18IterativeSolveDataEEEP6float4P6float2ffbPNS_23PxgArticulationCoreDescE@@YAXPEAVPxgParticleSystem@physx@@PEAUPxgParticlePrimitiveContact@2@PEAUPxgParticlePrimitiveConstraintBlock@2@PEAIPEAUPxgPrePrepDesc@2@PEAUPxgSolverCoreDesc@2@PEAU?$PxgSolverSharedDesc@UIterativeSolveData@physx@@@2@PEAUfloat4@@PEAUfloat2@@MM_NPEAUPxgArticulationCoreDesc@2@@Z 000000018006d200 f   particlesystem.obj
 0001:0006c370       ?__device_stub__Z34ps_findStartEndParticleFirstLaunchPN5physx17PxgParticleSystemEPNS_27PxgParticlePrimitiveContactEPjS4_S4_@@YAXPEAVPxgParticleSystem@physx@@PEAUPxgParticlePrimitiveContact@2@PEAI22@Z 000000018006d370 f   particlesystem.obj
 0001:0006c480       ?__device_stub__Z35ps_findStartEndParticleSecondLaunchPN5physx27PxgParticlePrimitiveContactEPjS2_S2_S2_S2_S2_@@YAXPEAUPxgParticlePrimitiveContact@physx@@PEAI11111@Z 000000018006d480 f   particlesystem.obj
 0001:0006c5a0       ?__device_stub__Z29ps_findStartEndFEMFirstLaunchPN5physx17PxgParticleSystemEPNS_17PxgFemContactInfoEPjS4_S4_@@YAXPEAVPxgParticleSystem@physx@@PEAUPxgFemContactInfo@2@PEAI22@Z 000000018006d5a0 f   particlesystem.obj
 0001:0006c6b0       ?__device_stub__Z30ps_findStartEndFEMSecondLaunchPN5physx17PxgFemContactInfoEPjS2_S2_S2_S2_S2_@@YAXPEAUPxgFemContactInfo@physx@@PEAI11111@Z 000000018006d6b0 f   particlesystem.obj
 0001:0006c7d0       ?__device_stub__Z36ps_accumulateFEMParticleDeltaVLaunchPN5physx17PxgParticleSystemEPNS_17PxgFemContactInfoEPjS4_S4_P6float4@@YAXPEAVPxgParticleSystem@physx@@PEAUPxgFemContactInfo@2@PEAI22PEAUfloat4@@@Z 000000018006d7d0 f   particlesystem.obj
 0001:0006c8f0       ?__device_stub__Z33ps_accumulateDeltaVParticleLaunchPN5physx17PxgParticleSystemEPNS_27PxgParticlePrimitiveContactEPjS4_S4_P6float4@@YAXPEAVPxgParticleSystem@physx@@PEAUPxgParticlePrimitiveContact@2@PEAI22PEAUfloat4@@@Z 000000018006d8f0 f   particlesystem.obj
 0001:0006ca10       ?__device_stub__Z26ps_accumulateStaticDensityPN5physx17PxgParticleSystemEPKj@@YAXPEAVPxgParticleSystem@physx@@PEBI@Z 000000018006da10 f   particlesystem.obj
 0001:0006cae0       ?__device_stub__Z25ps_accumulateRigidDensityPN5physx17PxgParticleSystemEPNS_27PxgParticlePrimitiveContactEPjS4_S4_@@YAXPEAVPxgParticleSystem@physx@@PEAUPxgParticlePrimitiveContact@2@PEAI22@Z 000000018006dae0 f   particlesystem.obj
 0001:0006cbf0       ?__device_stub__Z23ps_updateParticleLaunchPKN5physx17PxgParticleSystemEPKjfb@@YAXQEIBVPxgParticleSystem@physx@@PEBIM_N@Z 000000018006dbf0 f   particlesystem.obj
 0001:0006cd00       ?__device_stub__Z18ps_integrateLaunchPN5physx17PxgParticleSystemEPKjff@@YAXPEAVPxgParticleSystem@physx@@PEBIMM@Z 000000018006dd00 f   particlesystem.obj
 0001:0006ce10       ?__device_stub__Z37ps_calculateDensityAndPotentialLaunchPN5physx17PxgParticleSystemEPKjb@@YAXPEAVPxgParticleSystem@physx@@PEBI_N@Z 000000018006de10 f   particlesystem.obj
 0001:0006cf20       ?__device_stub__Z21ps_solveDensityLaunchPN5physx17PxgParticleSystemEPKjff@@YAXPEAVPxgParticleSystem@physx@@PEBIMM@Z 000000018006df20 f   particlesystem.obj
 0001:0006d030       ?__device_stub__Z19ps_applyDeltaLaunchPN5physx17PxgParticleSystemEPKjf@@YAXPEAVPxgParticleSystem@physx@@PEBIM@Z 000000018006e030 f   particlesystem.obj
 0001:0006d140       ?__device_stub__Z29ps_vorticityConfinementLaunchPN5physx17PxgParticleSystemEPKj@@YAXPEAVPxgParticleSystem@physx@@PEBI@Z 000000018006e140 f   particlesystem.obj
 0001:0006d210       ?__device_stub__Z22ps_solveVelocityLaunchPN5physx17PxgParticleSystemEPKjf@@YAXPEAVPxgParticleSystem@physx@@PEBIM@Z 000000018006e210 f   particlesystem.obj
 0001:0006d320       ?__device_stub__Z25ps_updateRemapVertsLaunchPKN5physx17PxgParticleSystemEPKj@@YAXPEIBVPxgParticleSystem@physx@@PEIBI@Z 000000018006e320 f   particlesystem.obj
 0001:0006d3f0       ?__device_stub__Z26ps_initializeSpringsLaunchPKN5physx17PxgParticleSystemEPKj@@YAXPEIBVPxgParticleSystem@physx@@PEIBI@Z 000000018006e3f0 f   particlesystem.obj
 0001:0006d4c0       ?__device_stub__Z21ps_solveSpringsLaunchPKN5physx17PxgParticleSystemEPKjfjb@@YAXPEIBVPxgParticleSystem@physx@@PEIBIMI_N@Z 000000018006e4c0 f   particlesystem.obj
 0001:0006d5d0       ?__device_stub__Z21ps_averageVertsLaunchPN5physx17PxgParticleSystemEPKjf@@YAXPEAVPxgParticleSystem@physx@@PEBIM@Z 000000018006e5d0 f   particlesystem.obj
 0001:0006d6e0       ?__device_stub__Z27ps_solveAerodynamics1LaunchPKN5physx17PxgParticleSystemEPKjf@@YAXPEIBVPxgParticleSystem@physx@@PEIBIM@Z 000000018006e6e0 f   particlesystem.obj
 0001:0006d7f0       ?__device_stub__Z27ps_solveAerodynamics2LaunchPKN5physx17PxgParticleSystemEPKjf@@YAXPEIBVPxgParticleSystem@physx@@PEIBIM@Z 000000018006e7f0 f   particlesystem.obj
 0001:0006d900       ?__device_stub__Z28ps_calculateInflatableVolumePN5physx17PxgParticleSystemEPKj@@YAXPEAVPxgParticleSystem@physx@@PEBI@Z 000000018006e900 f   particlesystem.obj
 0001:0006d9d0       ?__device_stub__Z24ps_solveInflatableVolumePN5physx17PxgParticleSystemEPKjff@@YAXPEAVPxgParticleSystem@physx@@PEBIMM@Z 000000018006e9d0 f   particlesystem.obj
 0001:0006dae0       ?__device_stub__Z14ps_solveShapesPN5physx17PxgParticleSystemEPKjff@@YAXPEAVPxgParticleSystem@physx@@PEBIMM@Z 000000018006eae0 f   particlesystem.obj
 0001:0006dbf0       ?__device_stub__Z31ps_rigidAttachmentPrepareLaunchPN5physx17PxgParticleSystemEPyPNS_26PxgParticleRigidConstraintEPNS_14PxgPrePrepDescEPNS_24PxgConstraintPrepareDescEfbPj@@YAXPEAVPxgParticleSystem@physx@@PEA_KPEAUPxgParticleRigidConstraint@2@PEAUPxgPrePrepDesc@2@PEAUPxgConstraintPrepareDesc@2@M_NPEAI@Z 000000018006ebf0 f   particlesystem.obj
 0001:0006dd20       ?__device_stub__Z30ps_solveRigidAttachmentsLaunchPN5physx17PxgParticleSystemEPNS_26PxgParticleRigidConstraintEjPNS_14PxgPrePrepDescEPNS_17PxgSolverCoreDescEPNS_19PxgSolverSharedDescINS_18IterativeSolveDataEEEP6float4f@@YAXPEAVPxgParticleSystem@physx@@PEAUPxgParticleRigidConstraint@2@IPEAUPxgPrePrepDesc@2@PEAUPxgSolverCoreDesc@2@PEAU?$PxgSolverSharedDesc@UIterativeSolveData@physx@@@2@PEAUfloat4@@M@Z 000000018006ed20 f   particlesystem.obj
 0001:0006de50       ?__device_stub__Z33ps_solveRigidAttachmentsTGSLaunchPN5physx17PxgParticleSystemEPNS_26PxgParticleRigidConstraintEjPNS_14PxgPrePrepDescEPNS_17PxgSolverCoreDescEPNS_19PxgSolverSharedDescINS_18IterativeSolveDataEEEP6float4ffb@@YAXPEAVPxgParticleSystem@physx@@PEAUPxgParticleRigidConstraint@2@IPEAUPxgPrePrepDesc@2@PEAUPxgSolverCoreDesc@2@PEAU?$PxgSolverSharedDesc@UIterativeSolveData@physx@@@2@PEAUfloat4@@MM_N@Z 000000018006ee50 f   particlesystem.obj
 0001:0006df90       ?__device_stub__Z26ps_finalizeParticlesLaunchPKN5physx17PxgParticleSystemEjff@@YAXPEIBVPxgParticleSystem@physx@@IMM@Z 000000018006ef90 f   particlesystem.obj
 0001:0006e0a0       ?__device_stub__Z18ps_updateMaterialsPKN5physx17PxgParticleSystemEPKjPKNS_18PxsPBDMaterialDataEf@@YAXQEIBVPxgParticleSystem@physx@@QEIBIQEIBUPxsPBDMaterialData@2@M@Z 000000018006f0a0 f   particlesystem.obj
 0001:0006e1b0       ?__device_stub__Z33applyParticleBufferDataDEPRECATEDPKN5physx17PxgParticleSystemEPKjPKNS_28PxGpuParticleBufferIndexPairEPKNS_20PxParticleBufferFlagE@@YAXPEIBVPxgParticleSystem@physx@@PEBIPEBUPxGpuParticleBufferIndexPair@2@PEBUPxParticleBufferFlag@2@@Z 000000018006f1b0 f   particlesystem.obj
 0001:0006f190       initSoftBodyKernels0       0000000180070190 f   softBody.obj
 0001:0006f1a0       sb_refitBoundLaunch        00000001800701a0 f   softBody.obj
 0001:0006f310       ?computeBarycentric@@YAXAEBV?$PxVec3T@M@physx@@0000AEAM11@Z 0000000180070310 f   softBody.obj
 0001:0006f330       ?computeInvMass@@YAMUuint4@@PEBUfloat4@@AEBV?$PxVec3T@M@physx@@AEAU2@@Z 0000000180070330 f   softBody.obj
 0001:0006f350       ?computeInvMass@@YAMUuint4@@PEBUfloat4@@U2@@Z 0000000180070350 f   softBody.obj
 0001:0006f370       ?computeTriInvMass@@YAMUuint4@@PEBUfloat4@@U2@@Z 0000000180070370 f   softBody.obj
 0001:0006f390       ?barycentricProjectTri@@YA?AUfloat4@@Uuint4@@PEBU1@U1@@Z 0000000180070390 f   softBody.obj
 0001:0006f3c0       ?barycentricProject@@YA?AUfloat4@@Uuint4@@PEBU1@U1@@Z 00000001800703c0 f   softBody.obj
 0001:0006f3f0       sb_rigidContactPrepareLaunch 00000001800703f0 f   softBody.obj
 0001:0006f5e0       sb_particleContactPrepareLaunch 00000001800705e0 f   softBody.obj
 0001:0006f770       sb_softbodyContactPrepareLaunch 0000000180070770 f   softBody.obj
 0001:0006f900       sb_clothContactPrepareLaunch 0000000180070900 f   softBody.obj
 0001:0006fac0       sb_solveOutputSPDeltaVLaunch 0000000180070ac0 f   softBody.obj
 0001:0006fc30       sb_solveOutputParticleDeltaVLaunch 0000000180070c30 f   softBody.obj
 0001:0006fdb0       sb_solveOutputSSDeltaVLaunch 0000000180070db0 f   softBody.obj
 0001:0006ff20       sb_solveOutputSCDeltaVLaunch 0000000180070f20 f   softBody.obj
 0001:00070050       sb_solveOutputSSDeltaVLaunchTGS 0000000180071050 f   softBody.obj
 0001:000701c0       sb_queryRigidSoftContactReferenceCountLaunch 00000001800711c0 f   softBody.obj
 0001:00070370       sb_solveOutputSRDeltaVLaunch 0000000180071370 f   softBody.obj
 0001:00070560       sb_solveOutputRigidDeltaVLaunch 0000000180071560 f   softBody.obj
 0001:00070750       sb_queryRigidSoftContactReferenceCountLaunchTGS 0000000180071750 f   softBody.obj
 0001:00070900       sb_solveOutputSRDeltaVLaunchTGS 0000000180071900 f   softBody.obj
 0001:00070af0       sb_solveOutputRigidDeltaVLaunchTGS 0000000180071af0 f   softBody.obj
 0001:00070d10       ?__device_stub__Z19sb_refitBoundLaunchPN5physx11PxgSoftBodyEPKjjPfS4_S4_PNS_9PxBounds3ES3_@@YAXPEAVPxgSoftBody@physx@@PEBIIPEAM22PEAVPxBounds3@2@1@Z 0000000180071d10 f   softBody.obj
 0001:00070e40       ?__device_stub__Z28sb_rigidContactPrepareLaunchPN5physx11PxgSoftBodyEP6float4S3_S3_PNS_24PxgFemVsRigidContactInfoEPjPNS_26PxgFemRigidConstraintBlockEPNS_14PxgPrePrepDescEPNS_24PxgConstraintPrepareDescES3_S3_fPNS_23PxgSolverSharedDescBaseEb@@YAXPEAVPxgSoftBody@physx@@PEAUfloat4@@11PEAUPxgFemVsRigidContactInfo@2@PEAIPEAUPxgFemRigidConstraintBlock@2@PEAUPxgPrePrepDesc@2@PEAUPxgConstraintPrepareDesc@2@11MPEAUPxgSolverSharedDescBase@2@_N@Z 0000000180071e40 f   softBody.obj
 0001:00070fb0       ?__device_stub__Z31sb_particleContactPrepareLaunchPN5physx11PxgSoftBodyEPNS_17PxgParticleSystemEP6float4S5_S5_PNS_17PxgFemContactInfoEPjPNS_29PxgFEMParticleConstraintBlockEP6float2SC_@@YAXPEAVPxgSoftBody@physx@@PEAVPxgParticleSystem@2@PEAUfloat4@@22PEAUPxgFemContactInfo@2@PEAIPEAUPxgFEMParticleConstraintBlock@2@PEAUfloat2@@6@Z 0000000180071fb0 f   softBody.obj
 0001:000710f0       ?__device_stub__Z31sb_softbodyContactPrepareLaunchPN5physx11PxgSoftBodyEP6float4S3_S3_S3_PNS_17PxgFemContactInfoEPjPNS_34PxgSoftBodySoftBodyConstraintBlockEP6float2j@@YAXPEAVPxgSoftBody@physx@@PEAUfloat4@@111PEAUPxgFemContactInfo@2@PEAIPEAUPxgSoftBodySoftBodyConstraintBlock@2@PEAUfloat2@@I@Z 00000001800720f0 f   softBody.obj
 0001:00071230       ?__device_stub__Z28sb_clothContactPrepareLaunchPN5physx11PxgSoftBodyEPNS_11PxgFEMClothEP6float4S5_S5_PNS_17PxgFemContactInfoEPjPNS_34PxgSoftBodySoftBodyConstraintBlockEPfjPNS_31PxsDeformableVolumeMaterialDataEPNS_32PxsDeformableSurfaceMaterialDataE@@YAXPEAVPxgSoftBody@physx@@PEAVPxgFEMCloth@2@PEAUfloat4@@22PEAUPxgFemContactInfo@2@PEAIPEAUPxgSoftBodySoftBodyConstraintBlock@2@PEAMIPEAUPxsDeformableVolumeMaterialData@2@PEAUPxsDeformableSurfaceMaterialData@2@@Z 0000000180072230 f   softBody.obj
 0001:00071390       ?__device_stub__Z28sb_solveOutputSPDeltaVLaunchPN5physx11PxgSoftBodyEPNS_17PxgParticleSystemEPNS_17PxgFemContactInfoEPNS_29PxgFEMParticleConstraintBlockEPjP6float2fPNS_31PxsDeformableVolumeMaterialDataE@@YAXPEAVPxgSoftBody@physx@@PEAVPxgParticleSystem@2@PEAUPxgFemContactInfo@2@PEAUPxgFEMParticleConstraintBlock@2@PEAIPEAUfloat2@@MPEAUPxsDeformableVolumeMaterialData@2@@Z 0000000180072390 f   softBody.obj
 0001:000714c0       ?__device_stub__Z34sb_solveOutputParticleDeltaVLaunchPN5physx11PxgSoftBodyEPNS_17PxgParticleSystemEPNS_17PxgFemContactInfoEPNS_29PxgFEMParticleConstraintBlockEPjP6float4P6float2fPNS_31PxsDeformableVolumeMaterialDataE@@YAXPEAVPxgSoftBody@physx@@PEAVPxgParticleSystem@2@PEAUPxgFemContactInfo@2@PEAUPxgFEMParticleConstraintBlock@2@PEAIPEAUfloat4@@PEAUfloat2@@MPEAUPxsDeformableVolumeMaterialData@2@@Z 00000001800724c0 f   softBody.obj
 0001:00071600       ?__device_stub__Z28sb_solveOutputSSDeltaVLaunchPN5physx11PxgSoftBodyEPNS_17PxgFemContactInfoEPNS_34PxgSoftBodySoftBodyConstraintBlockEPjffP6float2PNS_31PxsDeformableVolumeMaterialDataE@@YAXPEAVPxgSoftBody@physx@@PEAUPxgFemContactInfo@2@PEAUPxgSoftBodySoftBodyConstraintBlock@2@PEAIMMPEAUfloat2@@PEAUPxsDeformableVolumeMaterialData@2@@Z 0000000180072600 f   softBody.obj
 0001:00071730       ?__device_stub__Z28sb_solveOutputSCDeltaVLaunchPN5physx11PxgSoftBodyEPNS_11PxgFEMClothEPNS_17PxgFemContactInfoEPNS_34PxgSoftBodySoftBodyConstraintBlockEPjPf@@YAXPEAVPxgSoftBody@physx@@PEAVPxgFEMCloth@2@PEAUPxgFemContactInfo@2@PEAUPxgSoftBodySoftBodyConstraintBlock@2@PEAIPEAM@Z 0000000180072730 f   softBody.obj
 0001:00071850       ?__device_stub__Z31sb_solveOutputSSDeltaVLaunchTGSPN5physx11PxgSoftBodyEPNS_17PxgFemContactInfoEPNS_34PxgSoftBodySoftBodyConstraintBlockEPjffP6float2PNS_31PxsDeformableVolumeMaterialDataE@@YAXPEAVPxgSoftBody@physx@@PEAUPxgFemContactInfo@2@PEAUPxgSoftBodySoftBodyConstraintBlock@2@PEAIMMPEAUfloat2@@PEAUPxsDeformableVolumeMaterialData@2@@Z 0000000180072850 f   softBody.obj
 0001:00071980       ?__device_stub__Z44sb_queryRigidSoftContactReferenceCountLaunchPN5physx11PxgSoftBodyEPNS_24PxgFemVsRigidContactInfoEPNS_26PxgFemRigidConstraintBlockEPjPNS_14PxgPrePrepDescEPNS_17PxgSolverCoreDescEPNS_23PxgArticulationCoreDescEPNS_19PxgSolverSharedDescINS_18IterativeSolveDataEEEfP6float4S6_@@YAXPEAVPxgSoftBody@physx@@PEAUPxgFemVsRigidContactInfo@2@PEAUPxgFemRigidConstraintBlock@2@PEAIPEAUPxgPrePrepDesc@2@PEAUPxgSolverCoreDesc@2@PEAUPxgArticulationCoreDesc@2@PEAU?$PxgSolverSharedDesc@UIterativeSolveData@physx@@@2@MPEAUfloat4@@3@Z 0000000180072980 f   softBody.obj
 0001:00071ad0       ?__device_stub__Z28sb_solveOutputSRDeltaVLaunchPN5physx11PxgSoftBodyEPNS_24PxgFemVsRigidContactInfoEPNS_26PxgFemRigidConstraintBlockEPjPNS_14PxgPrePrepDescEPNS_17PxgSolverCoreDescEPNS_23PxgArticulationCoreDescEPNS_19PxgSolverSharedDescINS_18IterativeSolveDataEEEP6float4SI_S6_fPNS_31PxsDeformableVolumeMaterialDataEPKNS_15PxsMaterialDataE@@YAXPEAVPxgSoftBody@physx@@PEAUPxgFemVsRigidContactInfo@2@PEAUPxgFemRigidConstraintBlock@2@PEAIPEAUPxgPrePrepDesc@2@PEAUPxgSolverCoreDesc@2@PEAUPxgArticulationCoreDesc@2@PEAU?$PxgSolverSharedDesc@UIterativeSolveData@physx@@@2@PEAUfloat4@@83MPEAUPxsDeformableVolumeMaterialData@2@PEIBUPxsMaterialData@2@@Z 0000000180072ad0 f   softBody.obj
 0001:00071c40       ?__device_stub__Z31sb_solveOutputRigidDeltaVLaunchPN5physx11PxgSoftBodyEPNS_24PxgFemVsRigidContactInfoEPNS_26PxgFemRigidConstraintBlockEPjPNS_14PxgPrePrepDescEPNS_17PxgSolverCoreDescEPNS_23PxgArticulationCoreDescEPNS_19PxgSolverSharedDescINS_18IterativeSolveDataEEEP6float4SI_S6_fPNS_31PxsDeformableVolumeMaterialDataEPKNS_15PxsMaterialDataE@@YAXPEAVPxgSoftBody@physx@@PEAUPxgFemVsRigidContactInfo@2@PEAUPxgFemRigidConstraintBlock@2@PEAIPEAUPxgPrePrepDesc@2@PEAUPxgSolverCoreDesc@2@PEAUPxgArticulationCoreDesc@2@PEAU?$PxgSolverSharedDesc@UIterativeSolveData@physx@@@2@PEAUfloat4@@83MPEAUPxsDeformableVolumeMaterialData@2@PEIBUPxsMaterialData@2@@Z 0000000180072c40 f   softBody.obj
 0001:00071db0       ?__device_stub__Z47sb_queryRigidSoftContactReferenceCountLaunchTGSPN5physx11PxgSoftBodyEPNS_24PxgFemVsRigidContactInfoEPNS_26PxgFemRigidConstraintBlockEPjPNS_14PxgPrePrepDescEPNS_17PxgSolverCoreDescEPNS_23PxgArticulationCoreDescEPNS_19PxgSolverSharedDescINS_21IterativeSolveDataTGSEEEfP6float4S6_@@YAXPEAVPxgSoftBody@physx@@PEAUPxgFemVsRigidContactInfo@2@PEAUPxgFemRigidConstraintBlock@2@PEAIPEAUPxgPrePrepDesc@2@PEAUPxgSolverCoreDesc@2@PEAUPxgArticulationCoreDesc@2@PEAU?$PxgSolverSharedDesc@UIterativeSolveDataTGS@physx@@@2@MPEAUfloat4@@3@Z 0000000180072db0 f   softBody.obj
 0001:00071f00       ?__device_stub__Z31sb_solveOutputSRDeltaVLaunchTGSPN5physx11PxgSoftBodyEPNS_24PxgFemVsRigidContactInfoEPNS_26PxgFemRigidConstraintBlockEPjPNS_14PxgPrePrepDescEPNS_17PxgSolverCoreDescEPNS_23PxgArticulationCoreDescEPNS_19PxgSolverSharedDescINS_21IterativeSolveDataTGSEEEP6float4SI_S6_fPNS_31PxsDeformableVolumeMaterialDataEPKNS_15PxsMaterialDataE@@YAXPEAVPxgSoftBody@physx@@PEAUPxgFemVsRigidContactInfo@2@PEAUPxgFemRigidConstraintBlock@2@PEAIPEAUPxgPrePrepDesc@2@PEAUPxgSolverCoreDesc@2@PEAUPxgArticulationCoreDesc@2@PEAU?$PxgSolverSharedDesc@UIterativeSolveDataTGS@physx@@@2@PEAUfloat4@@83MPEAUPxsDeformableVolumeMaterialData@2@PEIBUPxsMaterialData@2@@Z 0000000180072f00 f   softBody.obj
 0001:00072070       ?__device_stub__Z34sb_solveOutputRigidDeltaVLaunchTGSPN5physx11PxgSoftBodyEPNS_24PxgFemVsRigidContactInfoEPNS_26PxgFemRigidConstraintBlockEPjPNS_14PxgPrePrepDescEPNS_17PxgSolverCoreDescEPNS_23PxgArticulationCoreDescEPNS_19PxgSolverSharedDescINS_18IterativeSolveDataEEEP6float4SI_S6_fPNS_31PxsDeformableVolumeMaterialDataEPKNS_15PxsMaterialDataE@@YAXPEAVPxgSoftBody@physx@@PEAUPxgFemVsRigidContactInfo@2@PEAUPxgFemRigidConstraintBlock@2@PEAIPEAUPxgPrePrepDesc@2@PEAUPxgSolverCoreDesc@2@PEAUPxgArticulationCoreDesc@2@PEAU?$PxgSolverSharedDesc@UIterativeSolveData@physx@@@2@PEAUfloat4@@83MPEAUPxsDeformableVolumeMaterialData@2@PEIBUPxsMaterialData@2@@Z 0000000180073070 f   softBody.obj
 0001:000728a0       initSoftBodyKernels1       00000001800738a0 f   softBodyGM.obj
 0001:000728b0       sb_gm_preIntegrateLaunch   00000001800738b0 f   softBodyGM.obj
 0001:000729f0       sb_gm_stepSoftbodyLaunch   00000001800739f0 f   softBodyGM.obj
 0001:00072b10       ?computeGMTetrahedronRotations@@YAXAEBV?$PxVec3T@M@physx@@00AEBV?$PxMat33T@M@2@AEAV?$PxQuatT@M@2@_N@Z 0000000180073b10 f   softBodyGM.obj
 0001:00072b30       ?computeSimTetrahedronRotations@@YAXPEBUuint4@@IPEBUfloat4@@PEBUPxgMat33Block@physx@@PEAU2@V?$PxQuatT@M@4@@Z 0000000180073b30 f   softBodyGM.obj
 0001:00072b50       ?computeTetrahedronRotations@@YAXPEBUuint4@@IPEBUfloat4@@PEBV?$PxMat33T@M@physx@@PEAU2@V?$PxQuatT@M@4@@Z 0000000180073b50 f   softBodyGM.obj
 0001:00072b70       sb_gm_updateTetrahedraRotationsLaunch 0000000180073b70 f   softBodyGM.obj
 0001:00072c40       sb_updateTetrahedraRotationsLaunch 0000000180073c40 f   softBodyGM.obj
 0001:00072d10       ?tetrahedronsSolveGM@@YAXAEAV?$PxMat33T@M@physx@@AEBV?$PxVec3T@M@2@11AEBUfloat4@@222AEAVPxgSoftBody@2@MMIAEBV12@AEBV?$PxQuatT@M@2@_NAEAUPxsDeformableVolumeMaterialData@2@@Z 0000000180073d10 f   softBodyGM.obj
 0001:00072d30       sb_gm_cp_solveTetrahedronsPartitionLaunch 0000000180073d30 f   softBodyGM.obj
 0001:00072e90       sb_gm_cp_solveTetrahedronsJacobiPartitionLaunch 0000000180073e90 f   softBodyGM.obj
 0001:00072fc0       sb_gm_cp_averageVertsLaunch 0000000180073fc0 f   softBodyGM.obj
 0001:000730c0       sb_gm_updateTetModelVertsLaunch 00000001800740c0 f   softBodyGM.obj
 0001:00073190       sb_gm_zeroTetMultipliers   0000000180074190 f   softBodyGM.obj
 0001:00073260       sb_rigidAttachmentPrepareLaunch 0000000180074260 f   softBodyGM.obj
 0001:000733f0       femAttachmentPrepareLaunch 00000001800743f0 f   softBodyGM.obj
 0001:00073500       sb_solveOutputAttachmentRigidDeltaVLaunch 0000000180074500 f   softBodyGM.obj
 0001:00073680       sb_solveOutputAttachmentSoftDeltaVLaunch 0000000180074680 f   softBodyGM.obj
 0001:000737f0       sb_solveOutputAttachmentRigidDeltaVLaunchTGS 00000001800747f0 f   softBodyGM.obj
 0001:000739a0       sb_solveOutputAttachmentSoftDeltaVLaunchTGS 00000001800749a0 f   softBodyGM.obj
 0001:00073b30       sb_solveOutputSoftBodyAttachmentDeltaVLaunch 0000000180074b30 f   softBodyGM.obj
 0001:00073c30       sb_solveOutputClothAttachmentDeltaVLaunch 0000000180074c30 f   softBodyGM.obj
 0001:00073d40       sb_solveOutputParticleAttachmentDeltaVLaunch 0000000180074d40 f   softBodyGM.obj
 0001:00073e50       sb_gm_applyExternalDeltasLaunch 0000000180074e50 f   softBodyGM.obj
 0001:00073f50       sb_gm_applyDeformationDeltasLaunch 0000000180074f50 f   softBodyGM.obj
 0001:00074050       sb_calculateStressLaunch   0000000180075050 f   softBodyGM.obj
 0001:00074150       sb_plasticDeformLaunch     0000000180075150 f   softBodyGM.obj
 0001:00074250       sb_plasticDeformLaunch2    0000000180075250 f   softBodyGM.obj
 0001:00074320       sb_initPlasticDeformLaunch 0000000180075320 f   softBodyGM.obj
 0001:000743f0       sb_copyOrApplySoftBodyDataDEPRECATED 00000001800753f0 f   softBodyGM.obj
 0001:00074550       sb_gm_finalizeVelocitiesLaunch 0000000180075550 f   softBodyGM.obj
 0001:00074680       sb_sleeping                0000000180075680 f   softBodyGM.obj
 0001:00074800       ?__device_stub__Z24sb_gm_preIntegrateLaunchPN5physx11PxgSoftBodyEPKjNS_7PxVec3TIfEEfbPfb@@YAXPEIAVPxgSoftBody@physx@@PEBIAEBV?$PxVec3T@M@2@M_NPEAM3@Z 0000000180075800 f   softBodyGM.obj
 0001:00074920       ?__device_stub__Z24sb_gm_stepSoftbodyLaunchPKN5physx11PxgSoftBodyEPKjfNS_7PxVec3TIfEEb@@YAXPEIBVPxgSoftBody@physx@@PEBIMAEBV?$PxVec3T@M@2@_N@Z 0000000180075920 f   softBodyGM.obj
 0001:00074a30       ?__device_stub__Z37sb_gm_updateTetrahedraRotationsLaunchPN5physx11PxgSoftBodyEPKj@@YAXPEAVPxgSoftBody@physx@@PEBI@Z 0000000180075a30 f   softBodyGM.obj
 0001:00074b00       ?__device_stub__Z34sb_updateTetrahedraRotationsLaunchPN5physx11PxgSoftBodyEPKj@@YAXPEAVPxgSoftBody@physx@@PEBI@Z 0000000180075b00 f   softBodyGM.obj
 0001:00074bd0       ?__device_stub__Z41sb_gm_cp_solveTetrahedronsPartitionLaunchPN5physx11PxgSoftBodyEPKjjfjbbPNS_31PxsDeformableVolumeMaterialDataE@@YAXPEAVPxgSoftBody@physx@@PEBIIMI_N2PEAUPxsDeformableVolumeMaterialData@2@@Z 0000000180075bd0 f   softBodyGM.obj
 0001:00074d00       ?__device_stub__Z47sb_gm_cp_solveTetrahedronsJacobiPartitionLaunchPN5physx11PxgSoftBodyEPKjjfbPNS_31PxsDeformableVolumeMaterialDataE@@YAXPEAVPxgSoftBody@physx@@PEBIIM_NPEAUPxsDeformableVolumeMaterialData@2@@Z 0000000180075d00 f   softBodyGM.obj
 0001:00074e20       ?__device_stub__Z27sb_gm_cp_averageVertsLaunchPN5physx11PxgSoftBodyEPKjf@@YAXPEAVPxgSoftBody@physx@@PEBIM@Z 0000000180075e20 f   softBodyGM.obj
 0001:00074f30       ?__device_stub__Z31sb_gm_updateTetModelVertsLaunchPN5physx11PxgSoftBodyEPKj@@YAXPEAVPxgSoftBody@physx@@PEBI@Z 0000000180075f30 f   softBodyGM.obj
 0001:00075000       ?__device_stub__Z24sb_gm_zeroTetMultipliersPN5physx11PxgSoftBodyEPKj@@YAXPEAVPxgSoftBody@physx@@PEBI@Z 0000000180076000 f   softBodyGM.obj
 0001:000750d0       ?__device_stub__Z31sb_rigidAttachmentPrepareLaunchPN5physx11PxgSoftBodyEPNS_21PxgFEMRigidAttachmentEPjPNS_11PxNodeIndexEjPNS_31PxgFEMRigidAttachmentConstraintEPNS_14PxgPrePrepDescEPNS_24PxgConstraintPrepareDescEPNS_23PxgSolverSharedDescBaseEP6float4@@YAXPEAVPxgSoftBody@physx@@PEAVPxgFEMRigidAttachment@2@PEAIPEAVPxNodeIndex@2@IPEAUPxgFEMRigidAttachmentConstraint@2@PEAUPxgPrePrepDesc@2@PEAUPxgConstraintPrepareDesc@2@PEAUPxgSolverSharedDescBase@2@PEAUfloat4@@@Z 00000001800760d0 f   softBodyGM.obj
 0001:00075210       ?__device_stub__Z26femAttachmentPrepareLaunchPN5physx19PxgFEMFEMAttachmentEPjjPNS_29PxgFEMFEMAttachmentConstraintE@@YAXPEAVPxgFEMFEMAttachment@physx@@PEAIIPEAUPxgFEMFEMAttachmentConstraint@2@@Z 0000000180076210 f   softBodyGM.obj
 0001:00075320       ?__device_stub__Z41sb_solveOutputAttachmentRigidDeltaVLaunchPN5physx11PxgSoftBodyEPNS_31PxgFEMRigidAttachmentConstraintEjPNS_14PxgPrePrepDescEPNS_17PxgSolverCoreDescEPNS_23PxgArticulationCoreDescEPNS_19PxgSolverSharedDescINS_18IterativeSolveDataEEEfP6float4@@YAXPEAVPxgSoftBody@physx@@PEAUPxgFEMRigidAttachmentConstraint@2@IPEAUPxgPrePrepDesc@2@PEAUPxgSolverCoreDesc@2@PEAUPxgArticulationCoreDesc@2@PEAU?$PxgSolverSharedDesc@UIterativeSolveData@physx@@@2@MPEAUfloat4@@@Z 0000000180076320 f   softBodyGM.obj
 0001:00075460       ?__device_stub__Z40sb_solveOutputAttachmentSoftDeltaVLaunchPN5physx11PxgSoftBodyEPNS_31PxgFEMRigidAttachmentConstraintEjPNS_14PxgPrePrepDescEPNS_17PxgSolverCoreDescEPNS_23PxgArticulationCoreDescEPNS_19PxgSolverSharedDescINS_18IterativeSolveDataEEEf@@YAXPEAVPxgSoftBody@physx@@PEAUPxgFEMRigidAttachmentConstraint@2@IPEAUPxgPrePrepDesc@2@PEAUPxgSolverCoreDesc@2@PEAUPxgArticulationCoreDesc@2@PEAU?$PxgSolverSharedDesc@UIterativeSolveData@physx@@@2@M@Z 0000000180076460 f   softBodyGM.obj
 0001:00075590       ?__device_stub__Z44sb_solveOutputAttachmentRigidDeltaVLaunchTGSPN5physx11PxgSoftBodyEPNS_31PxgFEMRigidAttachmentConstraintEjPNS_14PxgPrePrepDescEPNS_17PxgSolverCoreDescEPNS_23PxgArticulationCoreDescEPNS_19PxgSolverSharedDescINS_18IterativeSolveDataEEEffP6float4b@@YAXPEAVPxgSoftBody@physx@@PEAUPxgFEMRigidAttachmentConstraint@2@IPEAUPxgPrePrepDesc@2@PEAUPxgSolverCoreDesc@2@PEAUPxgArticulationCoreDesc@2@PEAU?$PxgSolverSharedDesc@UIterativeSolveData@physx@@@2@MMPEAUfloat4@@_N@Z 0000000180076590 f   softBodyGM.obj
 0001:000756e0       ?__device_stub__Z43sb_solveOutputAttachmentSoftDeltaVLaunchTGSPN5physx11PxgSoftBodyEPNS_31PxgFEMRigidAttachmentConstraintEjPNS_14PxgPrePrepDescEPNS_17PxgSolverCoreDescEPNS_23PxgArticulationCoreDescEPNS_19PxgSolverSharedDescINS_18IterativeSolveDataEEEffb@@YAXPEAVPxgSoftBody@physx@@PEAUPxgFEMRigidAttachmentConstraint@2@IPEAUPxgPrePrepDesc@2@PEAUPxgSolverCoreDesc@2@PEAUPxgArticulationCoreDesc@2@PEAU?$PxgSolverSharedDesc@UIterativeSolveData@physx@@@2@MM_N@Z 00000001800766e0 f   softBodyGM.obj
 0001:00075820       ?__device_stub__Z44sb_solveOutputSoftBodyAttachmentDeltaVLaunchPN5physx11PxgSoftBodyEPNS_29PxgFEMFEMAttachmentConstraintEj@@YAXPEAVPxgSoftBody@physx@@PEAUPxgFEMFEMAttachmentConstraint@2@I@Z 0000000180076820 f   softBodyGM.obj
 0001:00075930       ?__device_stub__Z41sb_solveOutputClothAttachmentDeltaVLaunchPN5physx11PxgSoftBodyEPNS_11PxgFEMClothEPNS_29PxgFEMFEMAttachmentConstraintEj@@YAXPEAVPxgSoftBody@physx@@PEAVPxgFEMCloth@2@PEAUPxgFEMFEMAttachmentConstraint@2@I@Z 0000000180076930 f   softBodyGM.obj
 0001:00075a40       ?__device_stub__Z44sb_solveOutputParticleAttachmentDeltaVLaunchPN5physx11PxgSoftBodyEPNS_17PxgParticleSystemEPNS_29PxgFEMFEMAttachmentConstraintEj@@YAXPEAVPxgSoftBody@physx@@PEAVPxgParticleSystem@2@PEAUPxgFEMFEMAttachmentConstraint@2@I@Z 0000000180076a40 f   softBodyGM.obj
 0001:00075b50       ?__device_stub__Z31sb_gm_applyExternalDeltasLaunchPN5physx11PxgSoftBodyEPKjf@@YAXPEAVPxgSoftBody@physx@@PEBIM@Z 0000000180076b50 f   softBodyGM.obj
 0001:00075c60       ?__device_stub__Z34sb_gm_applyDeformationDeltasLaunchPN5physx11PxgSoftBodyEPKjf@@YAXPEAVPxgSoftBody@physx@@PEBIM@Z 0000000180076c60 f   softBodyGM.obj
 0001:00075d70       ?__device_stub__Z24sb_calculateStressLaunchPN5physx11PxgSoftBodyEPKjPNS_31PxsDeformableVolumeMaterialDataE@@YAXPEAVPxgSoftBody@physx@@PEBIPEAUPxsDeformableVolumeMaterialData@2@@Z 0000000180076d70 f   softBodyGM.obj
 0001:00075e80       ?__device_stub__Z22sb_plasticDeformLaunchPN5physx11PxgSoftBodyEPKjPNS_31PxsDeformableVolumeMaterialDataE@@YAXPEAVPxgSoftBody@physx@@PEBIPEAUPxsDeformableVolumeMaterialData@2@@Z 0000000180076e80 f   softBodyGM.obj
 0001:00075f90       ?__device_stub__Z23sb_plasticDeformLaunch2PN5physx11PxgSoftBodyEPKj@@YAXPEAVPxgSoftBody@physx@@PEBI@Z 0000000180076f90 f   softBodyGM.obj
 0001:00076060       ?__device_stub__Z26sb_initPlasticDeformLaunchPN5physx13PxgMat33BlockEj@@YAXPEAUPxgMat33Block@physx@@I@Z 0000000180077060 f   softBodyGM.obj
 0001:00076130       ?__device_stub__Z36sb_copyOrApplySoftBodyDataDEPRECATEDPN5physx11PxgSoftBodyEjPKjjPPjS3_jj@@YAXPEIAVPxgSoftBody@physx@@IPEBIIPEAPEAI1II@Z 0000000180077130 f   softBodyGM.obj
 0001:00076260       ?__device_stub__Z30sb_gm_finalizeVelocitiesLaunchPN5physx11PxgSoftBodyEPKjfffb@@YAXPEAVPxgSoftBody@physx@@PEBIMMM_N@Z 0000000180077260 f   softBodyGM.obj
 0001:00076380       ?__device_stub__Z11sb_sleepingPN5physx11PxgSoftBodyEjPKjffPfPj@@YAXPEIAVPxgSoftBody@physx@@IPEBIMMPEAMPEAI@Z 0000000180077380 f   softBodyGM.obj
 0001:00076e90       initFEMClothKernels0       0000000180077e90 f   FEMClothConstraintPrep.obj
 0001:00076ea0       cloth_rigidContactPrepareLaunch 0000000180077ea0 f   FEMClothConstraintPrep.obj
 0001:00077090       cloth_clothContactPrepareLaunch 0000000180078090 f   FEMClothConstraintPrep.obj
 0001:00077240       cloth_particleContactPrepareLaunch 0000000180078240 f   FEMClothConstraintPrep.obj
 0001:000773d0       cloth_rigidAttachmentPrepareLaunch 00000001800783d0 f   FEMClothConstraintPrep.obj
 0001:00077590       ?__device_stub__Z31cloth_rigidContactPrepareLaunchPN5physx11PxgFEMClothEP6float4S3_S3_PNS_17PxgFemContactInfoEPjPNS_26PxgFemRigidConstraintBlockEPNS_14PxgPrePrepDescEPNS_24PxgConstraintPrepareDescES3_S3_fPNS_23PxgSolverSharedDescBaseEb@@YAXPEAVPxgFEMCloth@physx@@PEAUfloat4@@11PEAUPxgFemContactInfo@2@PEAIPEAUPxgFemRigidConstraintBlock@2@PEAUPxgPrePrepDesc@2@PEAUPxgConstraintPrepareDesc@2@11MPEAUPxgSolverSharedDescBase@2@_N@Z 0000000180078590 f   FEMClothConstraintPrep.obj
 0001:00077700       ?__device_stub__Z31cloth_clothContactPrepareLaunchPN5physx11PxgFEMClothEP6float4S3_S3_S3_PNS_17PxgFemContactInfoEPjjPNS_23PxgClothConstraintBlockEPNS_32PxsDeformableSurfaceMaterialDataEPKh@@YAXPEAVPxgFEMCloth@physx@@PEAUfloat4@@111PEAUPxgFemContactInfo@2@PEAIIPEAUPxgClothConstraintBlock@2@PEAUPxsDeformableSurfaceMaterialData@2@PEBE@Z 0000000180078700 f   FEMClothConstraintPrep.obj
 0001:00077850       ?__device_stub__Z34cloth_particleContactPrepareLaunchPN5physx11PxgFEMClothEPNS_17PxgParticleSystemEP6float4S5_S5_PNS_17PxgFemContactInfoEPjPNS_29PxgFEMParticleConstraintBlockEP6float2SC_@@YAXPEAVPxgFEMCloth@physx@@PEAVPxgParticleSystem@2@PEAUfloat4@@22PEAUPxgFemContactInfo@2@PEAIPEAUPxgFEMParticleConstraintBlock@2@PEAUfloat2@@6@Z 0000000180078850 f   FEMClothConstraintPrep.obj
 0001:00077990       ?__device_stub__Z34cloth_rigidAttachmentPrepareLaunchPN5physx11PxgFEMClothEPNS_21PxgFEMRigidAttachmentEPjPNS_11PxNodeIndexEjPNS_31PxgFEMRigidAttachmentConstraintEPKNS_14PxgPrePrepDescEPKNS_24PxgConstraintPrepareDescEPKNS_23PxgSolverSharedDescBaseEP6float4@@YAXPEAVPxgFEMCloth@physx@@PEAVPxgFEMRigidAttachment@2@PEAIPEAVPxNodeIndex@2@IPEAUPxgFEMRigidAttachmentConstraint@2@PEBUPxgPrePrepDesc@2@PEBUPxgConstraintPrepareDesc@2@PEBUPxgSolverSharedDescBase@2@PEAUfloat4@@@Z 0000000180078990 f   FEMClothConstraintPrep.obj
 0001:00077eb0       initFEMClothKernels1       0000000180078eb0 f   FEMCloth.obj
 0001:00077ec0       cloth_preIntegrateLaunch   0000000180078ec0 f   FEMCloth.obj
 0001:00078040       cloth_stepLaunch           0000000180079040 f   FEMCloth.obj
 0001:00078180       cloth_rewindLaunch         0000000180079180 f   FEMCloth.obj
 0001:00078250       cloth_subStepLaunch        0000000180079250 f   FEMCloth.obj
 0001:00078360       cloth_refitBoundLaunch     0000000180079360 f   FEMCloth.obj
 0001:000784e0       cloth_averageTrianglePairVertsLaunch 00000001800794e0 f   FEMCloth.obj
 0001:000785f0       cloth_solveNonSharedTriangleEnergyLaunch 00000001800795f0 f   FEMCloth.obj
 0001:00078720       cloth_solveNonSharedTriangleEnergyClusterLaunch 0000000180079720 f   FEMCloth.obj
 0001:00078850       cloth_solveTrianglePairEnergyLaunch 0000000180079850 f   FEMCloth.obj
 0001:00078990       cloth_applyAccumulatedDeltaVelocity 0000000180079990 f   FEMCloth.obj
 0001:00078a60       cloth_accumulateInPlaneDampingDeltaVelocity 0000000180079a60 f   FEMCloth.obj
 0001:00078b70       cloth_accumulateBendingDampingDeltaVelocity 0000000180079b70 f   FEMCloth.obj
 0001:00078c70       cloth_solveTrianglePairEnergyClusterLaunch 0000000180079c70 f   FEMCloth.obj
 0001:00078db0       cloth_finalizeVelocitiesLaunch 0000000180079db0 f   FEMCloth.obj
 0001:00078ed0       cloth_sleeping             0000000180079ed0 f   FEMCloth.obj
 0001:00079050       ?__device_stub__Z24cloth_preIntegrateLaunchPN5physx11PxgFEMClothEPKjNS_7PxVec3TIfEEfbPfbbPhPj@@YAXPEIAVPxgFEMCloth@physx@@PEBIAEAV?$PxVec3T@M@2@M_NPEAM33PEAEPEAI@Z 000000018007a050 f   FEMCloth.obj
 0001:00079190       ?__device_stub__Z16cloth_stepLaunchPN5physx11PxgFEMClothEPjfNS_7PxVec3TIfEEbbPh@@YAXPEIAVPxgFEMCloth@physx@@PEAIMAEAV?$PxVec3T@M@2@_N3PEAE@Z 000000018007a190 f   FEMCloth.obj
 0001:000792b0       ?__device_stub__Z18cloth_rewindLaunchPKN5physx11PxgFEMClothEPKj@@YAXPEIBVPxgFEMCloth@physx@@PEBI@Z 000000018007a2b0 f   FEMCloth.obj
 0001:00079380       ?__device_stub__Z19cloth_subStepLaunchPKN5physx11PxgFEMClothEPKjff@@YAXPEIBVPxgFEMCloth@physx@@PEBIMM@Z 000000018007a380 f   FEMCloth.obj
 0001:00079490       ?__device_stub__Z22cloth_refitBoundLaunchPN5physx11PxgFEMClothEPKjjPfS4_PNS_9PxBounds3ES3_fPKh@@YAXPEAVPxgFEMCloth@physx@@PEBIIPEAM2PEAVPxBounds3@2@1MPEBE@Z 000000018007a490 f   FEMCloth.obj
 0001:000795d0       ?__device_stub__Z36cloth_averageTrianglePairVertsLaunchPN5physx11PxgFEMClothEPKjfb@@YAXPEAVPxgFEMCloth@physx@@PEBIM_N@Z 000000018007a5d0 f   FEMCloth.obj
 0001:000796e0       ?__device_stub__Z40cloth_solveNonSharedTriangleEnergyLaunchPN5physx11PxgFEMClothEPKjPKNS_32PxsDeformableSurfaceMaterialDataEfjb@@YAXPEIAVPxgFEMCloth@physx@@PEIBIPEIBUPxsDeformableSurfaceMaterialData@2@MI_N@Z 000000018007a6e0 f   FEMCloth.obj
 0001:00079800       ?__device_stub__Z47cloth_solveNonSharedTriangleEnergyClusterLaunchPN5physx11PxgFEMClothEPKjPKNS_32PxsDeformableSurfaceMaterialDataEfjb@@YAXPEIAVPxgFEMCloth@physx@@PEIBIPEIBUPxsDeformableSurfaceMaterialData@2@MI_N@Z 000000018007a800 f   FEMCloth.obj
 0001:00079920       ?__device_stub__Z35cloth_solveTrianglePairEnergyLaunchPN5physx11PxgFEMClothEPKjPKNS_32PxsDeformableSurfaceMaterialDataEfjbb@@YAXPEIAVPxgFEMCloth@physx@@PEIBIPEIBUPxsDeformableSurfaceMaterialData@2@MI_N3@Z 000000018007a920 f   FEMCloth.obj
 0001:00079a40       ?__device_stub__Z35cloth_applyAccumulatedDeltaVelocityPN5physx11PxgFEMClothEPKj@@YAXPEIAVPxgFEMCloth@physx@@PEBI@Z 000000018007aa40 f   FEMCloth.obj
 0001:00079b10       ?__device_stub__Z43cloth_accumulateInPlaneDampingDeltaVelocityPN5physx11PxgFEMClothEPKjPKNS_32PxsDeformableSurfaceMaterialDataEf@@YAXPEIAVPxgFEMCloth@physx@@PEBIPEIBUPxsDeformableSurfaceMaterialData@2@M@Z 000000018007ab10 f   FEMCloth.obj
 0001:00079c20       ?__device_stub__Z43cloth_accumulateBendingDampingDeltaVelocityPN5physx11PxgFEMClothEPKjf@@YAXPEIAVPxgFEMCloth@physx@@PEBIM@Z 000000018007ac20 f   FEMCloth.obj
 0001:00079d30       ?__device_stub__Z42cloth_solveTrianglePairEnergyClusterLaunchPN5physx11PxgFEMClothEPKjPKNS_32PxsDeformableSurfaceMaterialDataEfjbb@@YAXPEIAVPxgFEMCloth@physx@@PEIBIPEIBUPxsDeformableSurfaceMaterialData@2@MI_N3@Z 000000018007ad30 f   FEMCloth.obj
 0001:00079e50       ?__device_stub__Z30cloth_finalizeVelocitiesLaunchPN5physx11PxgFEMClothEPKjffb@@YAXPEIAVPxgFEMCloth@physx@@PEBIMM_N@Z 000000018007ae50 f   FEMCloth.obj
 0001:00079f60       ?__device_stub__Z14cloth_sleepingPN5physx11PxgFEMClothEjPKjffPfPj@@YAXPEIAVPxgFEMCloth@physx@@IPEBIMMPEAMPEAI@Z 000000018007af60 f   FEMCloth.obj
 0001:0007a710       initFEMClothKernels2       000000018007b710 f   FEMClothExternalSolve.obj
 0001:0007a720       ?updateTrianglePosDelta@@YAXAEBUfloat4@@0AEBUuint4@@AEBV?$PxVec3T@M@physx@@PEAU1@I@Z 000000018007b720 f   FEMClothExternalSolve.obj
 0001:0007a740       ?updateTrianglePosDelta@@YAXAEBV?$PxVec3T@M@physx@@0AEBUuint4@@0PEAUfloat4@@I@Z 000000018007b740 f   FEMClothExternalSolve.obj
 0001:0007a760       ?updateTrianglePosDelta2@@YAXAEBV?$PxVec3T@M@physx@@AEBUuint4@@0PEAUfloat4@@@Z 000000018007b760 f   FEMClothExternalSolve.obj
 0001:0007a780       ?updateVertexPosDelta@@YAXAEBV?$PxVec3T@M@physx@@00MAEAUfloat4@@@Z 000000018007b780 f   FEMClothExternalSolve.obj
 0001:0007a7a0       ?updateTrianglePosDelta2@@YAXAEBUuint4@@AEBV?$PxVec3T@M@physx@@1111PEAUfloat4@@I@Z 000000018007b7a0 f   FEMClothExternalSolve.obj
 0001:0007a7c0       ?computeTriangleContact@@YA?AUfloat4@@PEBU1@AEBUuint4@@AEBUfloat2@@AEAU1@@Z 000000018007b7c0 f   FEMClothExternalSolve.obj
 0001:0007a7f0       ?computeTriangleContact@@YA?AUfloat4@@PEBU1@AEBUuint4@@AEBUfloat2@@@Z 000000018007b7f0 f   FEMClothExternalSolve.obj
 0001:0007a820       ?loadBarycentric@@YA?AV?$PxVec3T@M@physx@@Ufloat2@@@Z 000000018007b820 f   FEMClothExternalSolve.obj
 0001:0007a840       ?toPxVec3@@YA?AV?$PxVec3T@M@physx@@Ufloat4@@@Z 000000018007b840 f   FEMClothExternalSolve.obj
 0001:0007a860       ?loadBarycentric@@YA?AV?$PxVec3T@M@physx@@Ufloat4@@@Z 000000018007b860 f   FEMClothExternalSolve.obj
 0001:0007a880       ?computeMassInertiaOffsets@@YA?AV?$PxVec3T@M@physx@@PEBUfloat4@@AEBUuint4@@AEBV12@MAEAV12@3333AEAM@Z 000000018007b880 f   FEMClothExternalSolve.obj
 0001:0007a8a0       ?triangleVertexCollisionConstraint@@YA_NAEAV?$PxVec3T@M@physx@@000AEBV12@111AEBV?$PxVec4T@M@2@MMAEBUfloat4@@1@Z 000000018007b8a0 f   FEMClothExternalSolve.obj
 0001:0007a8c0       cloth_queryRigidClothContactReferenceCountLaunch 000000018007b8c0 f   FEMClothExternalSolve.obj
 0001:0007aa70       cloth_solveOutputClothDeltaVLaunch 000000018007ba70 f   FEMClothExternalSolve.obj
 0001:0007ac60       cloth_solveOutputRigidDeltaVLaunch 000000018007bc60 f   FEMClothExternalSolve.obj
 0001:0007ae50       cloth_queryRigidClothContactReferenceCountTGSLaunch 000000018007be50 f   FEMClothExternalSolve.obj
 0001:0007b000       cloth_solveOutputClothDeltaVTGSLaunch 000000018007c000 f   FEMClothExternalSolve.obj
 0001:0007b1f0       cloth_solveOutputRigidDeltaVTGSLaunch 000000018007c1f0 f   FEMClothExternalSolve.obj
 0001:0007b3e0       cloth_solveClothTriClothVertDeltaVLaunch 000000018007c3e0 f   FEMClothExternalSolve.obj
 0001:0007b500       cloth_applyExternalDeltasLaunch 000000018007c500 f   FEMClothExternalSolve.obj
 0001:0007b600       cloth_applyExternalDeltasAndCheckClothCollisionValidityLaunch 000000018007c600 f   FEMClothExternalSolve.obj
 0001:0007b710       cloth_applyExternalDeltasWithVelocityClampingLaunch 000000018007c710 f   FEMClothExternalSolve.obj
 0001:0007b810       cloth_updateClothContactValidityLaunch 000000018007c810 f   FEMClothExternalSolve.obj
 0001:0007b920       cloth_solveCPOutputClothDeltaVLaunch 000000018007c920 f   FEMClothExternalSolve.obj
 0001:0007ba70       cloth_solveCPOutputParticleDeltaVLaunch 000000018007ca70 f   FEMClothExternalSolve.obj
 0001:0007bbe0       cloth_solveOutputAttachmentRigidDeltaVLaunch 000000018007cbe0 f   FEMClothExternalSolve.obj
 0001:0007bd60       cloth_solveOutputAttachmentClothDeltaVLaunch 000000018007cd60 f   FEMClothExternalSolve.obj
 0001:0007bed0       cloth_solveOutputAttachmentClothClothDeltaVLaunch 000000018007ced0 f   FEMClothExternalSolve.obj
 0001:0007bfd0       cloth_solveOutputAttachmentRigidDeltaVTGSLaunch 000000018007cfd0 f   FEMClothExternalSolve.obj
 0001:0007c150       cloth_solveOutputAttachmentClothDeltaVTGSLaunch 000000018007d150 f   FEMClothExternalSolve.obj
 0001:0007c2f0       ?__device_stub__Z48cloth_queryRigidClothContactReferenceCountLaunchPN5physx11PxgFEMClothEPNS_24PxgFemVsRigidContactInfoEPNS_26PxgFemRigidConstraintBlockEPjPNS_14PxgPrePrepDescEPNS_17PxgSolverCoreDescEPNS_23PxgArticulationCoreDescEPNS_19PxgSolverSharedDescINS_18IterativeSolveDataEEEfP6float4S6_@@YAXPEAVPxgFEMCloth@physx@@PEAUPxgFemVsRigidContactInfo@2@PEAUPxgFemRigidConstraintBlock@2@PEAIPEAUPxgPrePrepDesc@2@PEAUPxgSolverCoreDesc@2@PEAUPxgArticulationCoreDesc@2@PEAU?$PxgSolverSharedDesc@UIterativeSolveData@physx@@@2@MPEAUfloat4@@3@Z 000000018007d2f0 f   FEMClothExternalSolve.obj
 0001:0007c440       ?__device_stub__Z34cloth_solveOutputClothDeltaVLaunchPN5physx11PxgFEMClothEPNS_24PxgFemVsRigidContactInfoEPNS_26PxgFemRigidConstraintBlockEPjPNS_14PxgPrePrepDescEPNS_17PxgSolverCoreDescEPNS_23PxgArticulationCoreDescEPNS_19PxgSolverSharedDescINS_18IterativeSolveDataEEEfP6float4SI_S6_PNS_32PxsDeformableSurfaceMaterialDataEPKNS_15PxsMaterialDataE@@YAXPEAVPxgFEMCloth@physx@@PEAUPxgFemVsRigidContactInfo@2@PEAUPxgFemRigidConstraintBlock@2@PEAIPEAUPxgPrePrepDesc@2@PEAUPxgSolverCoreDesc@2@PEAUPxgArticulationCoreDesc@2@PEAU?$PxgSolverSharedDesc@UIterativeSolveData@physx@@@2@MPEAUfloat4@@83PEAUPxsDeformableSurfaceMaterialData@2@PEIBUPxsMaterialData@2@@Z 000000018007d440 f   FEMClothExternalSolve.obj
 0001:0007c5b0       ?__device_stub__Z34cloth_solveOutputRigidDeltaVLaunchPN5physx11PxgFEMClothEPNS_24PxgFemVsRigidContactInfoEPNS_26PxgFemRigidConstraintBlockEPjPNS_14PxgPrePrepDescEPNS_17PxgSolverCoreDescEPNS_23PxgArticulationCoreDescEPNS_19PxgSolverSharedDescINS_18IterativeSolveDataEEEP6float4SI_S6_fPNS_32PxsDeformableSurfaceMaterialDataEPKNS_15PxsMaterialDataE@@YAXPEAVPxgFEMCloth@physx@@PEAUPxgFemVsRigidContactInfo@2@PEAUPxgFemRigidConstraintBlock@2@PEAIPEAUPxgPrePrepDesc@2@PEAUPxgSolverCoreDesc@2@PEAUPxgArticulationCoreDesc@2@PEAU?$PxgSolverSharedDesc@UIterativeSolveData@physx@@@2@PEAUfloat4@@83MPEAUPxsDeformableSurfaceMaterialData@2@PEIBUPxsMaterialData@2@@Z 000000018007d5b0 f   FEMClothExternalSolve.obj
 0001:0007c720       ?__device_stub__Z51cloth_queryRigidClothContactReferenceCountTGSLaunchPN5physx11PxgFEMClothEPNS_24PxgFemVsRigidContactInfoEPNS_26PxgFemRigidConstraintBlockEPjPNS_14PxgPrePrepDescEPNS_17PxgSolverCoreDescEPNS_23PxgArticulationCoreDescEPNS_19PxgSolverSharedDescINS_21IterativeSolveDataTGSEEEfP6float4S6_@@YAXPEAVPxgFEMCloth@physx@@PEAUPxgFemVsRigidContactInfo@2@PEAUPxgFemRigidConstraintBlock@2@PEAIPEAUPxgPrePrepDesc@2@PEAUPxgSolverCoreDesc@2@PEAUPxgArticulationCoreDesc@2@PEAU?$PxgSolverSharedDesc@UIterativeSolveDataTGS@physx@@@2@MPEAUfloat4@@3@Z 000000018007d720 f   FEMClothExternalSolve.obj
 0001:0007c870       ?__device_stub__Z37cloth_solveOutputClothDeltaVTGSLaunchPN5physx11PxgFEMClothEPNS_24PxgFemVsRigidContactInfoEPNS_26PxgFemRigidConstraintBlockEPjPNS_14PxgPrePrepDescEPNS_17PxgSolverCoreDescEPNS_23PxgArticulationCoreDescEPNS_19PxgSolverSharedDescINS_21IterativeSolveDataTGSEEEfP6float4SI_S6_PNS_32PxsDeformableSurfaceMaterialDataEPKNS_15PxsMaterialDataE@@YAXPEAVPxgFEMCloth@physx@@PEAUPxgFemVsRigidContactInfo@2@PEAUPxgFemRigidConstraintBlock@2@PEAIPEAUPxgPrePrepDesc@2@PEAUPxgSolverCoreDesc@2@PEAUPxgArticulationCoreDesc@2@PEAU?$PxgSolverSharedDesc@UIterativeSolveDataTGS@physx@@@2@MPEAUfloat4@@83PEAUPxsDeformableSurfaceMaterialData@2@PEIBUPxsMaterialData@2@@Z 000000018007d870 f   FEMClothExternalSolve.obj
 0001:0007c9e0       ?__device_stub__Z37cloth_solveOutputRigidDeltaVTGSLaunchPN5physx11PxgFEMClothEPNS_24PxgFemVsRigidContactInfoEPNS_26PxgFemRigidConstraintBlockEPjPNS_14PxgPrePrepDescEPNS_17PxgSolverCoreDescEPNS_23PxgArticulationCoreDescEPNS_19PxgSolverSharedDescINS_21IterativeSolveDataTGSEEEP6float4SI_S6_fPNS_32PxsDeformableSurfaceMaterialDataEPKNS_15PxsMaterialDataE@@YAXPEAVPxgFEMCloth@physx@@PEAUPxgFemVsRigidContactInfo@2@PEAUPxgFemRigidConstraintBlock@2@PEAIPEAUPxgPrePrepDesc@2@PEAUPxgSolverCoreDesc@2@PEAUPxgArticulationCoreDesc@2@PEAU?$PxgSolverSharedDesc@UIterativeSolveDataTGS@physx@@@2@PEAUfloat4@@83MPEAUPxsDeformableSurfaceMaterialData@2@PEIBUPxsMaterialData@2@@Z 000000018007d9e0 f   FEMClothExternalSolve.obj
 0001:0007cb50       ?__device_stub__Z40cloth_solveClothTriClothVertDeltaVLaunchPN5physx11PxgFEMClothEPNS_17PxgFemContactInfoEPNS_23PxgClothConstraintBlockEPjf@@YAXPEAVPxgFEMCloth@physx@@PEAUPxgFemContactInfo@2@PEAUPxgClothConstraintBlock@2@PEAIM@Z 000000018007db50 f   FEMClothExternalSolve.obj
 0001:0007cc60       ?__device_stub__Z31cloth_applyExternalDeltasLaunchPN5physx11PxgFEMClothEPKjf@@YAXPEAVPxgFEMCloth@physx@@PEBIM@Z 000000018007dc60 f   FEMClothExternalSolve.obj
 0001:0007cd70       ?__device_stub__Z61cloth_applyExternalDeltasAndCheckClothCollisionValidityLaunchPN5physx11PxgFEMClothEPKjfPh@@YAXPEAVPxgFEMCloth@physx@@PEBIMPEAE@Z 000000018007dd70 f   FEMClothExternalSolve.obj
 0001:0007ce80       ?__device_stub__Z51cloth_applyExternalDeltasWithVelocityClampingLaunchPN5physx11PxgFEMClothEPKjf@@YAXPEAVPxgFEMCloth@physx@@PEBIM@Z 000000018007de80 f   FEMClothExternalSolve.obj
 0001:0007cf90       ?__device_stub__Z38cloth_updateClothContactValidityLaunchPN5physx11PxgFEMClothEPKjPKhPj@@YAXPEIAVPxgFEMCloth@physx@@PEBIPEBEPEAI@Z 000000018007df90 f   FEMClothExternalSolve.obj
 0001:0007d0a0       ?__device_stub__Z36cloth_solveCPOutputClothDeltaVLaunchPN5physx11PxgFEMClothEPNS_17PxgParticleSystemEPNS_17PxgFemContactInfoEPNS_29PxgFEMParticleConstraintBlockEPjP6float2PNS_32PxsDeformableSurfaceMaterialDataE@@YAXPEAVPxgFEMCloth@physx@@PEAVPxgParticleSystem@2@PEAUPxgFemContactInfo@2@PEAUPxgFEMParticleConstraintBlock@2@PEAIPEAUfloat2@@PEAUPxsDeformableSurfaceMaterialData@2@@Z 000000018007e0a0 f   FEMClothExternalSolve.obj
 0001:0007d1c0       ?__device_stub__Z39cloth_solveCPOutputParticleDeltaVLaunchPN5physx11PxgFEMClothEPNS_17PxgParticleSystemEPNS_17PxgFemContactInfoEPNS_29PxgFEMParticleConstraintBlockEPjP6float4P6float2PNS_32PxsDeformableSurfaceMaterialDataE@@YAXPEAVPxgFEMCloth@physx@@PEAVPxgParticleSystem@2@PEAUPxgFemContactInfo@2@PEAUPxgFEMParticleConstraintBlock@2@PEAIPEAUfloat4@@PEAUfloat2@@PEAUPxsDeformableSurfaceMaterialData@2@@Z 000000018007e1c0 f   FEMClothExternalSolve.obj
 0001:0007d2f0       ?__device_stub__Z44cloth_solveOutputAttachmentRigidDeltaVLaunchPN5physx11PxgFEMClothEPNS_31PxgFEMRigidAttachmentConstraintEjPNS_14PxgPrePrepDescEPNS_17PxgSolverCoreDescEPNS_23PxgArticulationCoreDescEPNS_19PxgSolverSharedDescINS_18IterativeSolveDataEEEfP6float4@@YAXPEAVPxgFEMCloth@physx@@PEAUPxgFEMRigidAttachmentConstraint@2@IPEAUPxgPrePrepDesc@2@PEAUPxgSolverCoreDesc@2@PEAUPxgArticulationCoreDesc@2@PEAU?$PxgSolverSharedDesc@UIterativeSolveData@physx@@@2@MPEAUfloat4@@@Z 000000018007e2f0 f   FEMClothExternalSolve.obj
 0001:0007d430       ?__device_stub__Z44cloth_solveOutputAttachmentClothDeltaVLaunchPN5physx11PxgFEMClothEPNS_31PxgFEMRigidAttachmentConstraintEjPNS_14PxgPrePrepDescEPNS_17PxgSolverCoreDescEPNS_23PxgArticulationCoreDescEPNS_19PxgSolverSharedDescINS_18IterativeSolveDataEEEf@@YAXPEAVPxgFEMCloth@physx@@PEAUPxgFEMRigidAttachmentConstraint@2@IPEAUPxgPrePrepDesc@2@PEAUPxgSolverCoreDesc@2@PEAUPxgArticulationCoreDesc@2@PEAU?$PxgSolverSharedDesc@UIterativeSolveData@physx@@@2@M@Z 000000018007e430 f   FEMClothExternalSolve.obj
 0001:0007d560       ?__device_stub__Z49cloth_solveOutputAttachmentClothClothDeltaVLaunchPN5physx11PxgFEMClothEPNS_29PxgFEMFEMAttachmentConstraintEj@@YAXPEAVPxgFEMCloth@physx@@PEAUPxgFEMFEMAttachmentConstraint@2@I@Z 000000018007e560 f   FEMClothExternalSolve.obj
 0001:0007d670       ?__device_stub__Z47cloth_solveOutputAttachmentRigidDeltaVTGSLaunchPN5physx11PxgFEMClothEPNS_31PxgFEMRigidAttachmentConstraintEjPNS_14PxgPrePrepDescEPNS_17PxgSolverCoreDescEPNS_23PxgArticulationCoreDescEPNS_19PxgSolverSharedDescINS_18IterativeSolveDataEEEfP6float4@@YAXPEAVPxgFEMCloth@physx@@PEAUPxgFEMRigidAttachmentConstraint@2@IPEAUPxgPrePrepDesc@2@PEAUPxgSolverCoreDesc@2@PEAUPxgArticulationCoreDesc@2@PEAU?$PxgSolverSharedDesc@UIterativeSolveData@physx@@@2@MPEAUfloat4@@@Z 000000018007e670 f   FEMClothExternalSolve.obj
 0001:0007d7b0       ?__device_stub__Z47cloth_solveOutputAttachmentClothDeltaVTGSLaunchPN5physx11PxgFEMClothEPNS_31PxgFEMRigidAttachmentConstraintEjPNS_14PxgPrePrepDescEPNS_17PxgSolverCoreDescEPNS_23PxgArticulationCoreDescEPNS_19PxgSolverSharedDescINS_18IterativeSolveDataEEEf@@YAXPEAVPxgFEMCloth@physx@@PEAUPxgFEMRigidAttachmentConstraint@2@IPEAUPxgPrePrepDesc@2@PEAUPxgSolverCoreDesc@2@PEAUPxgArticulationCoreDesc@2@PEAU?$PxgSolverSharedDesc@UIterativeSolveData@physx@@@2@M@Z 000000018007e7b0 f   FEMClothExternalSolve.obj
 0001:0007e020       initSimulationControllerKernels2 000000018007f020 f   rigidDeltaAccum.obj
 0001:0007e030       accumulateDeltaVRigidFirstLaunch 000000018007f030 f   rigidDeltaAccum.obj
 0001:0007e150       accumulateDeltaVRigidSecondLaunch 000000018007f150 f   rigidDeltaAccum.obj
 0001:0007e2e0       clearDeltaVRigidSecondLaunchMulti 000000018007f2e0 f   rigidDeltaAccum.obj
 0001:0007e410       accumulateDeltaVRigidSecondLaunchMultiStage1 000000018007f410 f   rigidDeltaAccum.obj
 0001:0007e5e0       accumulateDeltaVRigidSecondLaunchMultiStage2 000000018007f5e0 f   rigidDeltaAccum.obj
 0001:0007e7e0       ?__device_stub__Z32accumulateDeltaVRigidFirstLaunchPKyPKjP6float4S4_Py@@YAXPEB_KPEBIPEAUfloat4@@2PEA_K@Z 000000018007f7e0 f   rigidDeltaAccum.obj
 0001:0007e8f0       ?__device_stub__Z33accumulateDeltaVRigidSecondLaunchPKyPKjPK6float4S5_S0_PN5physx14PxgPrePrepDescEPNS6_17PxgSolverCoreDescEPNS6_23PxgArticulationCoreDescEPNS6_19PxgSolverSharedDescINS6_18IterativeSolveDataEEEb@@YAXPEB_KPEBIPEBUfloat4@@20PEAUPxgPrePrepDesc@physx@@PEAUPxgSolverCoreDesc@3@PEAUPxgArticulationCoreDesc@3@PEAU?$PxgSolverSharedDesc@UIterativeSolveData@physx@@@3@_N@Z 000000018007f8f0 f   rigidDeltaAccum.obj
 0001:0007ea30       ?__device_stub__Z33clearDeltaVRigidSecondLaunchMultiPyPjPN5physx14PxgPrePrepDescEPNS1_17PxgSolverCoreDescEPNS1_23PxgArticulationCoreDescEPf@@YAXPEA_KPEAIPEAUPxgPrePrepDesc@physx@@PEAUPxgSolverCoreDesc@2@PEAUPxgArticulationCoreDesc@2@PEAM@Z 000000018007fa30 f   rigidDeltaAccum.obj
 0001:0007eb50       ?__device_stub__Z44accumulateDeltaVRigidSecondLaunchMultiStage1PyPjP6float4S2_S_PN5physx14PxgPrePrepDescEPNS3_17PxgSolverCoreDescEPNS3_23PxgArticulationCoreDescEPNS3_19PxgSolverSharedDescINS3_18IterativeSolveDataEEEPfbfb@@YAXPEA_KPEAIPEAUfloat4@@20PEAUPxgPrePrepDesc@physx@@PEAUPxgSolverCoreDesc@3@PEAUPxgArticulationCoreDesc@3@PEAU?$PxgSolverSharedDesc@UIterativeSolveData@physx@@@3@PEAM_NM_N@Z 000000018007fb50 f   rigidDeltaAccum.obj
 0001:0007ecc0       ?__device_stub__Z44accumulateDeltaVRigidSecondLaunchMultiStage2PyPjP6float4S2_S_PN5physx14PxgPrePrepDescEPNS3_17PxgSolverCoreDescEPNS3_23PxgArticulationCoreDescEPNS3_19PxgSolverSharedDescINS3_18IterativeSolveDataEEEPfbfb@@YAXPEA_KPEAIPEAUfloat4@@20PEAUPxgPrePrepDesc@physx@@PEAUPxgSolverCoreDesc@3@PEAUPxgArticulationCoreDesc@3@PEAU?$PxgSolverSharedDesc@UIterativeSolveData@physx@@@3@PEAM_NM_N@Z 000000018007fcc0 f   rigidDeltaAccum.obj
 0001:0007f170       initDiffuseParticlesKernels0 0000000180080170 f   diffuseParticles.obj
 0001:0007f180       ps_updateUnsortedDiffuseArrayLaunch 0000000180080180 f   diffuseParticles.obj
 0001:0007f250       ps_diffuseParticleOneWayCollision 0000000180080250 f   diffuseParticles.obj
 0001:0007f350       ps_diffuseParticleUpdatePBF 0000000180080350 f   diffuseParticles.obj
 0001:0007f460       ps_diffuseParticleCompact  0000000180080460 f   diffuseParticles.obj
 0001:0007f570       ps_diffuseParticleCreate   0000000180080570 f   diffuseParticles.obj
 0001:0007f690       ps_diffuseParticleCopy     0000000180080690 f   diffuseParticles.obj
 0001:0007f790       ps_diffuseParticleSum      0000000180080790 f   diffuseParticles.obj
 0001:0007f8c0       ?__device_stub__Z35ps_updateUnsortedDiffuseArrayLaunchPKN5physx17PxgParticleSystemEPKj@@YAXPEIBVPxgParticleSystem@physx@@PEIBI@Z 00000001800808c0 f   diffuseParticles.obj
 0001:0007f990       ?__device_stub__Z33ps_diffuseParticleOneWayCollisionPN5physx17PxgParticleSystemEPKjj@@YAXPEIAVPxgParticleSystem@physx@@PEIBII@Z 0000000180080990 f   diffuseParticles.obj
 0001:0007faa0       ?__device_stub__Z27ps_diffuseParticleUpdatePBFPN5physx17PxgParticleSystemEPKjNS_7PxVec3TIfEEf@@YAXPEIAVPxgParticleSystem@physx@@PEBIAEBV?$PxVec3T@M@2@M@Z 0000000180080aa0 f   diffuseParticles.obj
 0001:0007fbb0       ?__device_stub__Z25ps_diffuseParticleCompactPN5physx17PxgParticleSystemEPKjNS_7PxVec3TIfEEf@@YAXPEIAVPxgParticleSystem@physx@@PEBIAEBV?$PxVec3T@M@2@M@Z 0000000180080bb0 f   diffuseParticles.obj
 0001:0007fcc0       ?__device_stub__Z24ps_diffuseParticleCreatePN5physx17PxgParticleSystemEPKjPKfjf@@YAXPEIAVPxgParticleSystem@physx@@QEIBIQEIBMIM@Z 0000000180080cc0 f   diffuseParticles.obj
 0001:0007fdd0       ?__device_stub__Z22ps_diffuseParticleCopyPN5physx17PxgParticleSystemEPKjj@@YAXPEIAVPxgParticleSystem@physx@@QEIBII@Z 0000000180080dd0 f   diffuseParticles.obj
 0001:0007fee0       ?__device_stub__Z21ps_diffuseParticleSumPN5physx17PxgParticleSystemEPKjj@@YAXPEIAVPxgParticleSystem@physx@@QEIBII@Z 0000000180080ee0 f   diffuseParticles.obj
 0001:000803c0       initIsosurfaceExtractionKernels0 00000001800813c0 f   isosurfaceExtraction.obj
 0001:000803d0       iso_ComputeParticleDensityUsingSDF 00000001800813d0 f   isosurfaceExtraction.obj
 0001:00080560       iso_ComputeParticleDensityUsingSDFSparse 0000000180081560 f   isosurfaceExtraction.obj
 0001:000806f0       iso_ComputeParticleDensity 00000001800816f0 f   isosurfaceExtraction.obj
 0001:00080810       iso_ComputeParticleDensitySparse 0000000180081810 f   isosurfaceExtraction.obj
 0001:00080930       iso_CountCellVerts         0000000180081930 f   isosurfaceExtraction.obj
 0001:000809f0       iso_CountCellVertsSparse   00000001800819f0 f   isosurfaceExtraction.obj
 0001:00080ab0       iso_CountCellVertsDC       0000000180081ab0 f   isosurfaceExtraction.obj
 0001:00080b70       iso_CountCellVertsDCSparse 0000000180081b70 f   isosurfaceExtraction.obj
 0001:00080c30       iso_CreateVerts            0000000180081c30 f   isosurfaceExtraction.obj
 0001:00080cf0       iso_CreateVertsSparse      0000000180081cf0 f   isosurfaceExtraction.obj
 0001:00080db0       iso_CreateVertsDC          0000000180081db0 f   isosurfaceExtraction.obj
 0001:00080e70       iso_CreateVertsDCSparse    0000000180081e70 f   isosurfaceExtraction.obj
 0001:00080f30       ?getDecodedId@@YAIII@Z     0000000180081f30 f   isosurfaceExtraction.obj
 0001:00080f50       iso_CountTriIds            0000000180081f50 f   isosurfaceExtraction.obj
 0001:00081010       iso_CountTriIdsSparse      0000000180082010 f   isosurfaceExtraction.obj
 0001:000810d0       iso_CountTriIdsDC          00000001800820d0 f   isosurfaceExtraction.obj
 0001:00081190       iso_CountTriIdsDCSparse    0000000180082190 f   isosurfaceExtraction.obj
 0001:00081250       iso_CreateTriIds           0000000180082250 f   isosurfaceExtraction.obj
 0001:00081320       iso_CreateTriIdsSparse     0000000180082320 f   isosurfaceExtraction.obj
 0001:000813f0       ?directionSign@@YAMHAEBV?$PxVec3T@M@physx@@00@Z 00000001800823f0 f   isosurfaceExtraction.obj
 0001:00081410       ?indexOfConcaveCorner@@YAHHAEBV?$PxVec3T@M@physx@@000@Z 0000000180082410 f   isosurfaceExtraction.obj
 0001:00081430       iso_CreateTriIdsDC         0000000180082430 f   isosurfaceExtraction.obj
 0001:00081500       iso_CreateTriIdsDCSparse   0000000180082500 f   isosurfaceExtraction.obj
 0001:000815d0       ?smoothVerts@@YAXPEBV?$PxVec4T@M@physx@@PEAV12@PEBII@Z 00000001800825d0 f   isosurfaceExtraction.obj
 0001:000815f0       iso_SmoothVerts            00000001800825f0 f   isosurfaceExtraction.obj
 0001:00081700       ?averageVerts@@YAXPEIAV?$PxVec4T@M@physx@@0IM@Z 0000000180082700 f   isosurfaceExtraction.obj
 0001:00081720       iso_AverageVerts           0000000180082720 f   isosurfaceExtraction.obj
 0001:00081830       ?normalize@@YA?AV?$PxVec3T@M@physx@@V12@@Z 0000000180082830 f   isosurfaceExtraction.obj
 0001:00081850       iso_SmoothNormals          0000000180082850 f   isosurfaceExtraction.obj
 0001:00081910       iso_SmoothNormalsSparse    0000000180082910 f   isosurfaceExtraction.obj
 0001:000819d0       ?normalize@@YA?AV?$PxVec4T@M@physx@@AEBV12@@Z 00000001800829d0 f   isosurfaceExtraction.obj
 0001:000819f0       iso_SmoothNormalsNormalize 00000001800829f0 f   isosurfaceExtraction.obj
 0001:00081ab0       iso_SmoothNormalsNormalizeSparse 0000000180082ab0 f   isosurfaceExtraction.obj
 0001:00081b70       iso_ComputeNormals         0000000180082b70 f   isosurfaceExtraction.obj
 0001:00081c30       iso_ComputeNormalsSparse   0000000180082c30 f   isosurfaceExtraction.obj
 0001:00081cf0       iso_NormalizeNormals       0000000180082cf0 f   isosurfaceExtraction.obj
 0001:00081db0       iso_NormalizeNormalsSparse 0000000180082db0 f   isosurfaceExtraction.obj
 0001:00081e70       iso_GridFilterGauss        0000000180082e70 f   isosurfaceExtraction.obj
 0001:00081f40       iso_GridFilterGaussSparse  0000000180082f40 f   isosurfaceExtraction.obj
 0001:00082010       iso_GridFilterDilateErode  0000000180083010 f   isosurfaceExtraction.obj
 0001:000820e0       iso_GridFilterDilateErodeSparse 00000001800830e0 f   isosurfaceExtraction.obj
 0001:000821e0       ?__device_stub__Z34iso_ComputeParticleDensityUsingSDFPN5physx7PxVec4TIfEEiPjjNS_26PxIsosurfaceExtractionDataES3_P6float4S6_S6_f@@YAXPEIAV?$PxVec4T@M@physx@@HPEIAIIAEAUPxIsosurfaceExtractionData@2@1PEIAUfloat4@@33M@Z 00000001800831e0 f   isosurfaceExtraction.obj
 0001:00082320       ?__device_stub__Z40iso_ComputeParticleDensityUsingSDFSparsePN5physx7PxVec4TIfEEiPjjNS_32PxSparseIsosurfaceExtractionDataES3_P6float4S6_S6_f@@YAXPEAV?$PxVec4T@M@physx@@HPEAIIAEAUPxSparseIsosurfaceExtractionData@2@PEIAIPEAUfloat4@@44M@Z 0000000180083320 f   isosurfaceExtraction.obj
 0001:00082460       ?__device_stub__Z26iso_ComputeParticleDensityPN5physx7PxVec4TIfEEiPjjNS_26PxIsosurfaceExtractionDataE@@YAXPEAV?$PxVec4T@M@physx@@HPEAIIAEAUPxIsosurfaceExtractionData@2@@Z 0000000180083460 f   isosurfaceExtraction.obj
 0001:00082570       ?__device_stub__Z32iso_ComputeParticleDensitySparsePN5physx7PxVec4TIfEEiPjjNS_32PxSparseIsosurfaceExtractionDataE@@YAXPEAV?$PxVec4T@M@physx@@HPEAIIAEAUPxSparseIsosurfaceExtractionData@2@@Z 0000000180083570 f   isosurfaceExtraction.obj
 0001:00082680       ?__device_stub__Z18iso_CountCellVertsN5physx26PxIsosurfaceExtractionDataE@@YAXAEAUPxIsosurfaceExtractionData@physx@@@Z 0000000180083680 f   isosurfaceExtraction.obj
 0001:00082740       ?__device_stub__Z24iso_CountCellVertsSparseN5physx32PxSparseIsosurfaceExtractionDataE@@YAXAEAUPxSparseIsosurfaceExtractionData@physx@@@Z 0000000180083740 f   isosurfaceExtraction.obj
 0001:00082800       ?__device_stub__Z20iso_CountCellVertsDCN5physx26PxIsosurfaceExtractionDataE@@YAXAEAUPxIsosurfaceExtractionData@physx@@@Z 0000000180083800 f   isosurfaceExtraction.obj
 0001:000828c0       ?__device_stub__Z26iso_CountCellVertsDCSparseN5physx32PxSparseIsosurfaceExtractionDataE@@YAXAEAUPxSparseIsosurfaceExtractionData@physx@@@Z 00000001800838c0 f   isosurfaceExtraction.obj
 0001:00082980       ?__device_stub__Z15iso_CreateVertsN5physx26PxIsosurfaceExtractionDataE@@YAXAEAUPxIsosurfaceExtractionData@physx@@@Z 0000000180083980 f   isosurfaceExtraction.obj
 0001:00082a40       ?__device_stub__Z21iso_CreateVertsSparseN5physx32PxSparseIsosurfaceExtractionDataE@@YAXAEAUPxSparseIsosurfaceExtractionData@physx@@@Z 0000000180083a40 f   isosurfaceExtraction.obj
 0001:00082b00       ?__device_stub__Z17iso_CreateVertsDCN5physx26PxIsosurfaceExtractionDataE@@YAXAEAUPxIsosurfaceExtractionData@physx@@@Z 0000000180083b00 f   isosurfaceExtraction.obj
 0001:00082bc0       ?__device_stub__Z23iso_CreateVertsDCSparseN5physx32PxSparseIsosurfaceExtractionDataE@@YAXAEAUPxSparseIsosurfaceExtractionData@physx@@@Z 0000000180083bc0 f   isosurfaceExtraction.obj
 0001:00082c80       ?__device_stub__Z15iso_CountTriIdsN5physx26PxIsosurfaceExtractionDataE@@YAXAEAUPxIsosurfaceExtractionData@physx@@@Z 0000000180083c80 f   isosurfaceExtraction.obj
 0001:00082d40       ?__device_stub__Z21iso_CountTriIdsSparseN5physx32PxSparseIsosurfaceExtractionDataE@@YAXAEAUPxSparseIsosurfaceExtractionData@physx@@@Z 0000000180083d40 f   isosurfaceExtraction.obj
 0001:00082e00       ?__device_stub__Z17iso_CountTriIdsDCN5physx26PxIsosurfaceExtractionDataE@@YAXAEAUPxIsosurfaceExtractionData@physx@@@Z 0000000180083e00 f   isosurfaceExtraction.obj
 0001:00082ec0       ?__device_stub__Z23iso_CountTriIdsDCSparseN5physx32PxSparseIsosurfaceExtractionDataE@@YAXAEAUPxSparseIsosurfaceExtractionData@physx@@@Z 0000000180083ec0 f   isosurfaceExtraction.obj
 0001:00082f80       ?__device_stub__Z16iso_CreateTriIdsN5physx26PxIsosurfaceExtractionDataEb@@YAXAEAUPxIsosurfaceExtractionData@physx@@_N@Z 0000000180083f80 f   isosurfaceExtraction.obj
 0001:00083050       ?__device_stub__Z22iso_CreateTriIdsSparseN5physx32PxSparseIsosurfaceExtractionDataEb@@YAXAEAUPxSparseIsosurfaceExtractionData@physx@@_N@Z 0000000180084050 f   isosurfaceExtraction.obj
 0001:00083120       ?__device_stub__Z18iso_CreateTriIdsDCN5physx26PxIsosurfaceExtractionDataEb@@YAXAEAUPxIsosurfaceExtractionData@physx@@_N@Z 0000000180084120 f   isosurfaceExtraction.obj
 0001:000831f0       ?__device_stub__Z24iso_CreateTriIdsDCSparseN5physx32PxSparseIsosurfaceExtractionDataEb@@YAXAEAUPxSparseIsosurfaceExtractionData@physx@@_N@Z 00000001800841f0 f   isosurfaceExtraction.obj
 0001:000832c0       ?__device_stub__Z15iso_SmoothVertsPKN5physx7PxVec4TIfEEPS1_PKjS6_@@YAXPEIBV?$PxVec4T@M@physx@@PEIAV12@PEIBI2@Z 00000001800842c0 f   isosurfaceExtraction.obj
 0001:000833d0       ?__device_stub__Z16iso_AverageVertsPN5physx7PxVec4TIfEES2_PKjf@@YAXPEIAV?$PxVec4T@M@physx@@0PEIBIM@Z 00000001800843d0 f   isosurfaceExtraction.obj
 0001:000834e0       ?__device_stub__Z17iso_SmoothNormalsN5physx26PxIsosurfaceExtractionDataE@@YAXAEAUPxIsosurfaceExtractionData@physx@@@Z 00000001800844e0 f   isosurfaceExtraction.obj
 0001:000835a0       ?__device_stub__Z23iso_SmoothNormalsSparseN5physx32PxSparseIsosurfaceExtractionDataE@@YAXAEAUPxSparseIsosurfaceExtractionData@physx@@@Z 00000001800845a0 f   isosurfaceExtraction.obj
 0001:00083660       ?__device_stub__Z26iso_SmoothNormalsNormalizeN5physx26PxIsosurfaceExtractionDataE@@YAXAEAUPxIsosurfaceExtractionData@physx@@@Z 0000000180084660 f   isosurfaceExtraction.obj
 0001:00083720       ?__device_stub__Z32iso_SmoothNormalsNormalizeSparseN5physx32PxSparseIsosurfaceExtractionDataE@@YAXAEAUPxSparseIsosurfaceExtractionData@physx@@@Z 0000000180084720 f   isosurfaceExtraction.obj
 0001:000837e0       ?__device_stub__Z18iso_ComputeNormalsN5physx26PxIsosurfaceExtractionDataE@@YAXAEAUPxIsosurfaceExtractionData@physx@@@Z 00000001800847e0 f   isosurfaceExtraction.obj
 0001:000838a0       ?__device_stub__Z24iso_ComputeNormalsSparseN5physx32PxSparseIsosurfaceExtractionDataE@@YAXAEAUPxSparseIsosurfaceExtractionData@physx@@@Z 00000001800848a0 f   isosurfaceExtraction.obj
 0001:00083960       ?__device_stub__Z20iso_NormalizeNormalsN5physx26PxIsosurfaceExtractionDataE@@YAXAEAUPxIsosurfaceExtractionData@physx@@@Z 0000000180084960 f   isosurfaceExtraction.obj
 0001:00083a20       ?__device_stub__Z26iso_NormalizeNormalsSparseN5physx32PxSparseIsosurfaceExtractionDataE@@YAXAEAUPxSparseIsosurfaceExtractionData@physx@@@Z 0000000180084a20 f   isosurfaceExtraction.obj
 0001:00083ae0       ?__device_stub__Z19iso_GridFilterGaussN5physx26PxIsosurfaceExtractionDataEf@@YAXAEAUPxIsosurfaceExtractionData@physx@@M@Z 0000000180084ae0 f   isosurfaceExtraction.obj
 0001:00083bb0       ?__device_stub__Z25iso_GridFilterGaussSparseN5physx32PxSparseIsosurfaceExtractionDataEf@@YAXAEAUPxSparseIsosurfaceExtractionData@physx@@M@Z 0000000180084bb0 f   isosurfaceExtraction.obj
 0001:00083c80       ?__device_stub__Z25iso_GridFilterDilateErodeN5physx26PxIsosurfaceExtractionDataEf@@YAXAEAUPxIsosurfaceExtractionData@physx@@M@Z 0000000180084c80 f   isosurfaceExtraction.obj
 0001:00083d50       ?__device_stub__Z31iso_GridFilterDilateErodeSparseN5physx32PxSparseIsosurfaceExtractionDataEf@@YAXAEAUPxSparseIsosurfaceExtractionData@physx@@M@Z 0000000180084d50 f   isosurfaceExtraction.obj
 0001:000848c0       initAnisotropyKernels0     00000001800858c0 f   anisotropy.obj
 0001:000848d0       smoothPositionsLaunch      00000001800858d0 f   anisotropy.obj
 0001:000849d0       calculateAnisotropyLaunch  00000001800859d0 f   anisotropy.obj
 0001:00084ad0       anisotropyKernel           0000000180085ad0 f   anisotropy.obj
 0001:00084cf0       smoothPositionsKernel      0000000180085cf0 f   anisotropy.obj
 0001:00084ee0       ?__device_stub__Z21smoothPositionsLaunchPN5physx19PxGpuParticleSystemEjPNS_22PxSmoothedPositionDataE@@YAXPEAVPxGpuParticleSystem@physx@@IPEAUPxSmoothedPositionData@2@@Z 0000000180085ee0 f   anisotropy.obj
 0001:00084fe0       ?__device_stub__Z25calculateAnisotropyLaunchPN5physx19PxGpuParticleSystemEjPNS_16PxAnisotropyDataE@@YAXPEAVPxGpuParticleSystem@physx@@IPEAUPxAnisotropyData@2@@Z 0000000180085fe0 f   anisotropy.obj
 0001:000850e0       ?__device_stub__Z16anisotropyKernelPK6float4PKjS3_jS3_S3_iPjjPS_S5_S5_ffff@@YAXQEIBUfloat4@@QEIBI1I11HPEAIIPEAU1@33MMMM@Z 00000001800860e0 f   anisotropy.obj
 0001:00085270       ?__device_stub__Z21smoothPositionsKernelP6float4PjS1_jS1_S1_iS1_jS0_ff@@YAXPEAUfloat4@@PEAI1I11H1I0MM@Z 0000000180086270 f   anisotropy.obj
 0001:000856c0       initAlgorithmsKernels0     00000001800866c0 f   algorithms.obj
 0001:000856d0       scanPerBlockKernel         00000001800866d0 f   algorithms.obj
 0001:00085800       ?exclusiveSumInt16@@YAXPEAUint4x4@@@Z 0000000180086800 f   algorithms.obj
 0001:00085820       scanPerBlockKernel4x4      0000000180086820 f   algorithms.obj
 0001:00085950       addBlockSumsKernel         0000000180086950 f   algorithms.obj
 0001:00085a60       addBlockSumsKernel4x4      0000000180086a60 f   algorithms.obj
 0001:00085b70       radixFourBitCountPerBlockKernel 0000000180086b70 f   algorithms.obj
 0001:00085ca0       radixFourBitReorderKernel  0000000180086ca0 f   algorithms.obj
 0001:00085e20       reorderKernel              0000000180086e20 f   algorithms.obj
 0001:00085f60       ?__device_stub__Z18scanPerBlockKernelPKjPjS1_jjS1_@@YAXPEBIPEAI1II1@Z 0000000180086f60 f   algorithms.obj
 0001:00086080       ?__device_stub__Z21scanPerBlockKernel4x4PK6int4x4PS_S2_jjS2_@@YAXPEBUint4x4@@PEAU1@1II1@Z 0000000180087080 f   algorithms.obj
 0001:000861a0       ?__device_stub__Z18addBlockSumsKernelPKjPjjS1_@@YAXPEBIPEAII1@Z 00000001800871a0 f   algorithms.obj
 0001:000862b0       ?__device_stub__Z21addBlockSumsKernel4x4PK6int4x4PS_jS2_@@YAXPEBUint4x4@@PEAU1@I1@Z 00000001800872b0 f   algorithms.obj
 0001:000863c0       ?__device_stub__Z31radixFourBitCountPerBlockKernelPKjPtjP6int4x4jS3_@@YAXPEBIPEAGIPEAUint4x4@@I2@Z 00000001800873c0 f   algorithms.obj
 0001:000864e0       ?__device_stub__Z25radixFourBitReorderKernelPKjPKtPjjP6int4x4jS5_S3_S3_@@YAXPEBIPEBGPEAIIPEAUint4x4@@I322@Z 00000001800874e0 f   algorithms.obj
 0001:00086620       ?__device_stub__Z13reorderKernelPK6float4PS_jPKj@@YAXPEBUfloat4@@PEAU1@IPEBI@Z 0000000180087620 f   algorithms.obj
 0001:00086ba0       initSparseGridStandaloneKernels0 0000000180087ba0 f   sparseGridStandalone.obj
 0001:00086bb0       sg_SparseGridCalcSubgridHashes 0000000180087bb0 f   sparseGridStandalone.obj
 0001:00086d10       ?applyMask@@YAXPEAIPEIBIII@Z 0000000180087d10 f   sparseGridStandalone.obj
 0001:00086d30       sg_SparseGridMarkRequiredNeighbors 0000000180087d30 f   sparseGridStandalone.obj
 0001:00086ea0       sg_SparseGridSortedArrayToDelta 0000000180087ea0 f   sparseGridStandalone.obj
 0001:00086fb0       sg_SparseGridGetUniqueValues 0000000180087fb0 f   sparseGridStandalone.obj
 0001:000870e0       sg_SparseGridClearDensity  00000001800880e0 f   sparseGridStandalone.obj
 0001:000871f0       sg_SparseGridBuildSubgridNeighbors 00000001800881f0 f   sparseGridStandalone.obj
 0001:00087300       sg_MarkSubgridEndIndices   0000000180088300 f   sparseGridStandalone.obj
 0001:00087400       sg_ReuseSubgrids           0000000180088400 f   sparseGridStandalone.obj
 0001:00087540       sg_AddReleasedSubgridsToUnusedStack 0000000180088540 f   sparseGridStandalone.obj
 0001:00087650       sg_AllocateNewSubgrids     0000000180088650 f   sparseGridStandalone.obj
 0001:000877b0       ?__device_stub__Z30sg_SparseGridCalcSubgridHashesN5physx18PxSparseGridParamsEPjS1_PKNS_7PxVec4TIfEEjPKjjS7_@@YAXAEAUPxSparseGridParams@physx@@PEIAI1QEIBV?$PxVec4T@M@2@IPEIBII3@Z 00000001800887b0 f   sparseGridStandalone.obj
 0001:000878e0       ?__device_stub__Z34sg_SparseGridMarkRequiredNeighborsPjPKjN5physx18PxSparseGridParamsEjPKNS2_7PxVec4TIfEEjS1_jS1_@@YAXPEAIPEIBIAEBUPxSparseGridParams@physx@@IPEBV?$PxVec4T@M@2@I1I1@Z 00000001800888e0 f   sparseGridStandalone.obj
 0001:00087a10       ?__device_stub__Z31sg_SparseGridSortedArrayToDeltaPKjS0_Pjj@@YAXPEBI0PEAII@Z 0000000180088a10 f   sparseGridStandalone.obj
 0001:00087b20       ?__device_stub__Z28sg_SparseGridGetUniqueValuesPKjS0_PjjS1_j@@YAXPEBI0PEAII1I@Z 0000000180088b20 f   sparseGridStandalone.obj
 0001:00087c40       ?__device_stub__Z25sg_SparseGridClearDensityPffPKjj@@YAXPEIAMMPEBII@Z 0000000180088c40 f   sparseGridStandalone.obj
 0001:00087d50       ?__device_stub__Z34sg_SparseGridBuildSubgridNeighborsPKjS0_jPj@@YAXPEIBI0IPEIAI@Z 0000000180088d50 f   sparseGridStandalone.obj
 0001:00087e60       ?__device_stub__Z24sg_MarkSubgridEndIndicesPKjjPj@@YAXPEBIIPEAI@Z 0000000180088e60 f   sparseGridStandalone.obj
 0001:00087f60       ?__device_stub__Z16sg_ReuseSubgridsN5physx18PxSparseGridParamsEPKjS2_PjS2_S2_S3_@@YAXAEBUPxSparseGridParams@physx@@PEBI1PEAI112@Z 0000000180088f60 f   sparseGridStandalone.obj
 0001:00088080       ?__device_stub__Z35sg_AddReleasedSubgridsToUnusedStackPKjS0_PjS1_@@YAXPEBI0PEAI1@Z 0000000180089080 f   sparseGridStandalone.obj
 0001:00088190       ?__device_stub__Z22sg_AllocateNewSubgridsPKjPjS1_S1_S0_j@@YAXPEBIPEAI110I@Z 0000000180089190 f   sparseGridStandalone.obj
 0001:00088640       initSdfConstructionKernels0 0000000180089640 f   SDFConstruction.obj
 0001:00088650       bvhCalculateMortonCodes    0000000180089650 f   SDFConstruction.obj
 0001:000887c0       bvhCalculateKeyDeltas      00000001800897c0 f   SDFConstruction.obj
 0001:000888c0       bvhCalculateKeyDeltasSquaredDistance 00000001800898c0 f   SDFConstruction.obj
 0001:000889e0       bvhBuildLeaves             00000001800899e0 f   SDFConstruction.obj
 0001:00088b50       bvhComputeTriangleBounds   0000000180089b50 f   SDFConstruction.obj
 0001:00088c80       bvhBuildHierarchy          0000000180089c80 f   SDFConstruction.obj
 0001:00088e00       bvhBuildHierarchyAndWindingClusters 0000000180089e00 f   SDFConstruction.obj
 0001:00088fc0       bvhComputeTotalBounds      0000000180089fc0 f   SDFConstruction.obj
 0001:000890e0       bvhComputeTotalInvEdges    000000018008a0e0 f   SDFConstruction.obj
 0001:000891e0       sdfCalculateDenseGridHybrid 000000018008a1e0 f   SDFConstruction.obj
 0001:00089310       sdfCalculateDenseGridBlocks 000000018008a310 f   SDFConstruction.obj
 0001:00089450       sdfPopulateBackgroundSDF   000000018008a450 f   SDFConstruction.obj
 0001:000895c0       sdfMarkRequiredSdfSubgrids 000000018008a5c0 f   SDFConstruction.obj
 0001:000897b0       sdfPopulateSdfSubgrids     000000018008a7b0 f   SDFConstruction.obj
 0001:000899e0       ?findHoles@@YAXPEIBMIIIV?$PxVec3T@M@physx@@PEAIPEBUGridQueryPointSampler@Gu@2@PEIAUfloat4@@4I@Z 000000018008a9e0 f   SDFConstruction.obj
 0001:00089a00       sdfCountHoles              000000018008aa00 f   SDFConstruction.obj
 0001:00089b30       sdfFindHoles               000000018008ab30 f   SDFConstruction.obj
 0001:00089ca0       sdfApplyHoleCorrections    000000018008aca0 f   SDFConstruction.obj
 0001:00089de0       sdfCalculateDenseGridPointCloud 000000018008ade0 f   SDFConstruction.obj
 0001:00089f30       ?__device_stub__Z23bvhCalculateMortonCodesPK6float4S1_PKiiPKN5physx7PxVec3TIfEES8_PiS9_@@YAXPEIBUfloat4@@0PEIBHHPEBV?$PxVec3T@M@physx@@2PEIAH3@Z 000000018008af30 f   SDFConstruction.obj
 0001:0008a060       ?__device_stub__Z21bvhCalculateKeyDeltasPKiPfi@@YAXPEIBHPEIAMH@Z 000000018008b060 f   SDFConstruction.obj
 0001:0008a170       ?__device_stub__Z36bvhCalculateKeyDeltasSquaredDistancePKiPfiPK6float4S4_@@YAXPEIBHPEIAMHPEIBUfloat4@@2@Z 000000018008b170 f   SDFConstruction.obj
 0001:0008a280       ?__device_stub__Z14bvhBuildLeavesPK6float4S1_iPKiPiS4_PN5physx17PxgPackedNodeHalfES7_@@YAXPEIBUfloat4@@0HPEIBHPEIAH2PEIAUPxgPackedNodeHalf@physx@@3@Z 000000018008b280 f   SDFConstruction.obj
 0001:0008a3b0       ?__device_stub__Z24bvhComputeTriangleBoundsPKN5physx7PxVec3TIfEEPKjjP6float4S7_f@@YAXPEIBV?$PxVec3T@M@physx@@PEIBIIPEIAUfloat4@@2M@Z 000000018008b3b0 f   SDFConstruction.obj
 0001:0008a4d0       ?__device_stub__Z17bvhBuildHierarchyiPiPjPKfS_PViS4_PVN5physx17PxgPackedNodeHalfES8_@@YAXHPEAHPEAIPEIBMPEIAHPEICH4PEICUPxgPackedNodeHalf@physx@@5@Z 000000018008b4d0 f   SDFConstruction.obj
 0001:0008a610       ?__device_stub__Z35bvhBuildHierarchyAndWindingClustersiPiPjPKfS_PViS4_PVN5physx17PxgPackedNodeHalfES8_PNS5_30PxgWindingClusterApproximationEPKNS5_7PxVec3TIfEEPKj@@YAXHPEAHPEAIPEIBMPEIAHPEICH4PEICUPxgPackedNodeHalf@physx@@5PEAUPxgWindingClusterApproximation@2@PEBV?$PxVec3T@M@2@PEBI@Z 000000018008b610 f   SDFConstruction.obj
 0001:0008a770       ?__device_stub__Z21bvhComputeTotalBoundsPK6float4S1_PN5physx7PxVec3TIfEES5_i@@YAXPEBUfloat4@@0PEAV?$PxVec3T@M@physx@@1H@Z 000000018008b770 f   SDFConstruction.obj
 0001:0008a880       ?__device_stub__Z23bvhComputeTotalInvEdgesPKN5physx7PxVec3TIfEES3_PS1_@@YAXPEBV?$PxVec3T@M@physx@@0PEAV12@@Z 000000018008b880 f   SDFConstruction.obj
 0001:0008a990       ?__device_stub__Z27sdfCalculateDenseGridHybridN5physx18PxgBvhTriangleMeshEPKNS_30PxgWindingClusterApproximationENS_2Gu21GridQueryPointSamplerEjjjPf@@YAXAEAUPxgBvhTriangleMesh@physx@@PEIBUPxgWindingClusterApproximation@2@AEAUGridQueryPointSampler@Gu@2@IIIPEIAM@Z 000000018008b990 f   SDFConstruction.obj
 0001:0008aab0       ?__device_stub__Z27sdfCalculateDenseGridBlocksN5physx18PxgBvhTriangleMeshEPKNS_30PxgWindingClusterApproximationENS_2Gu21GridQueryPointSamplerEjjjPfS6_@@YAXAEAUPxgBvhTriangleMesh@physx@@PEIBUPxgWindingClusterApproximation@2@AEAUGridQueryPointSampler@Gu@2@IIIPEIAM3@Z 000000018008bab0 f   SDFConstruction.obj
 0001:0008abd0       ?__device_stub__Z24sdfPopulateBackgroundSDFjPfjjjPKfjjj@@YAXIPEIAMIIIPEIBMIII@Z 000000018008bbd0 f   SDFConstruction.obj
 0001:0008ad10       ?__device_stub__Z26sdfMarkRequiredSdfSubgridsPfPKfPjPhjjjjjjjfS_S_f@@YAXPEIAMPEIBMPEIAIPEIAEIIIIIIIMPEAM4M@Z 000000018008bd10 f   SDFConstruction.obj
 0001:0008ae90       ?__device_stub__Z22sdfPopulateSdfSubgridsPKfjjjPjPhjjjjPvjjjS0_S0_jj@@YAXPEIBMIIIPEIAIPEIAEIIIIPEIAXIIIPEBM4II@Z 000000018008be90 f   SDFConstruction.obj
 0001:0008b040       ?__device_stub__Z13sdfCountHolesPKfjjjN5physx7PxVec3TIfEEPj@@YAXPEIBMIIIAEBV?$PxVec3T@M@physx@@PEAI@Z 000000018008c040 f   SDFConstruction.obj
 0001:0008b160       ?__device_stub__Z12sdfFindHolesPKfjjjN5physx7PxVec3TIfEEPjNS1_2Gu21GridQueryPointSamplerEP6float4S8_j@@YAXPEIBMIIIAEBV?$PxVec3T@M@physx@@PEAIAEBUGridQueryPointSampler@Gu@2@PEIAUfloat4@@4I@Z 000000018008c160 f   SDFConstruction.obj
 0001:0008b2a0       ?__device_stub__Z23sdfApplyHoleCorrectionsPfjjjN5physx2Gu21GridQueryPointSamplerEPNS0_7PxVec4TIfEEj@@YAXPEIAMIIIAEAUGridQueryPointSampler@Gu@physx@@PEIAV?$PxVec4T@M@3@I@Z 000000018008c2a0 f   SDFConstruction.obj
 0001:0008b3c0       ?__device_stub__Z31sdfCalculateDenseGridPointCloudN5physx6PxgBVHENS_2Gu21GridQueryPointSamplerEjjjPf@@YAXAEAUPxgBVH@physx@@AEAUGridQueryPointSampler@Gu@2@IIIPEIAM@Z 000000018008c3c0 f   SDFConstruction.obj
 0001:0008bb50       ??1PxgBodySimManager@physx@@QEAA@XZ 000000018008cb50 f   PxgBodySimManager.obj
 0001:0008c140       ??4?$PxArray@UPxgSelfConstraint@physx@@V?$PxReflectionAllocator@UPxgSelfConstraint@physx@@@2@@physx@@QEAAAEAV01@AEBV01@@Z 000000018008d140 f i PxgBodySimManager.obj
 0001:0008c1d0       ??4?$PxArray@UPxgStaticConstraint@physx@@V?$PxReflectionAllocator@UPxgStaticConstraint@physx@@@2@@physx@@QEAAAEAV01@AEBV01@@Z 000000018008d1d0 f i PxgBodySimManager.obj
 0001:0008c250       ?activateCloth@PxgBodySimManager@physx@@QEAA_NPEAVDeformableSurface@Dy@2@@Z 000000018008d250 f   PxgBodySimManager.obj
 0001:0008c2e0       ?activateSoftbody@PxgBodySimManager@physx@@QEAA_NPEAVDeformableVolume@Dy@2@@Z 000000018008d2e0 f   PxgBodySimManager.obj
 0001:0008c400       ?activateSoftbodySelfCollision@PxgBodySimManager@physx@@QEAA_NPEAVDeformableVolume@Dy@2@@Z 000000018008d400 f   PxgBodySimManager.obj
 0001:0008c490       ?addArticulation@PxgBodySimManager@physx@@QEAAXPEAVFeatherstoneArticulation@Dy@2@I_N@Z 000000018008d490 f   PxgBodySimManager.obj
 0001:0008c690       ?addBody@PxgBodySimManager@physx@@QEAAXPEAVPxsRigidBody@2@I@Z 000000018008d690 f   PxgBodySimManager.obj
 0001:0008c7d0       ?addFEMCloth@PxgBodySimManager@physx@@QEAAXPEAVDeformableSurface@Dy@2@I@Z 000000018008d7d0 f   PxgBodySimManager.obj
 0001:0008c9f0       ?addPBDParticleSystem@PxgBodySimManager@physx@@QEAAXPEAVParticleSystem@Dy@2@I@Z 000000018008d9f0 f   PxgBodySimManager.obj
 0001:0008cb70       ?addSelfArticulationContactManager@PxgBodySimManager@physx@@QEAA_NIVPxNodeIndex@2@0@Z 000000018008db70 f   PxgBodySimManager.obj
 0001:0008cc60       ?addSelfArticulationJoint@PxgBodySimManager@physx@@QEAA_NIVPxNodeIndex@2@0@Z 000000018008dc60 f   PxgBodySimManager.obj
 0001:0008cdb0       ?addSoftBody@PxgBodySimManager@physx@@QEAAXPEAVDeformableVolume@Dy@2@I@Z 000000018008ddb0 f   PxgBodySimManager.obj
 0001:0008d040       ?addStaticArticulationContactManager@PxgBodySimManager@physx@@QEAA_NIVPxNodeIndex@2@@Z 000000018008e040 f   PxgBodySimManager.obj
 0001:0008d140       ?addStaticArticulationJoint@PxgBodySimManager@physx@@QEAA_NIVPxNodeIndex@2@@Z 000000018008e140 f   PxgBodySimManager.obj
 0001:0008d230       ?addStaticRBContactManager@PxgBodySimManager@physx@@QEAA_NIVPxNodeIndex@2@@Z 000000018008e230 f   PxgBodySimManager.obj
 0001:0008d2d0       ?addStaticRBJoint@PxgBodySimManager@physx@@QEAA_NIVPxNodeIndex@2@@Z 000000018008e2d0 f   PxgBodySimManager.obj
 0001:0008d360       ?create@?$PxHashBase@V?$PxPair@$$CBII@physx@@IU?$PxHash@I@2@UGetKey@?$PxHashMapBase@IIU?$PxHash@I@physx@@VPxAllocator@2@@2@VPxAllocator@2@$00@physx@@QEAAPEAV?$PxPair@$$CBII@2@AEBIAEA_N@Z 000000018008e360 f i PxgBodySimManager.obj
 0001:0008d4b0       ?deactivateCloth@PxgBodySimManager@physx@@QEAA_NPEAVDeformableSurface@Dy@2@@Z 000000018008e4b0 f   PxgBodySimManager.obj
 0001:0008d520       ?deactivateSoftbody@PxgBodySimManager@physx@@QEAA_NPEAVDeformableVolume@Dy@2@@Z 000000018008e520 f   PxgBodySimManager.obj
 0001:0008d610       ?deactivateSoftbodySelfCollision@PxgBodySimManager@physx@@QEAA_NPEAVDeformableVolume@Dy@2@@Z 000000018008e610 f   PxgBodySimManager.obj
 0001:0008d690       ?erase@?$PxHashBase@V?$PxPair@$$CBII@physx@@IU?$PxHash@I@2@UGetKey@?$PxHashMapBase@IIU?$PxHash@I@physx@@VPxAllocator@2@@2@VPxAllocator@2@$00@physx@@QEAA_NAEBIAEAV?$PxPair@$$CBII@2@@Z 000000018008e690 f i PxgBodySimManager.obj
 0001:0008d7e0       ?growAndPushBack@?$PxArray@PEAUPxgArticulationSelfConstraints@physx@@V?$PxReflectionAllocator@PEAUPxgArticulationSelfConstraints@physx@@@2@@physx@@IEAAAEAPEAUPxgArticulationSelfConstraints@2@AEBQEAU32@@Z 000000018008e7e0 f i PxgBodySimManager.obj
 0001:0008d900       ?growAndPushBack@?$PxArray@PEAUPxgStaticConstraints@physx@@V?$PxReflectionAllocator@PEAUPxgStaticConstraints@physx@@@2@@physx@@IEAAAEAPEAUPxgStaticConstraints@2@AEBQEAU32@@Z 000000018008e900 f i PxgBodySimManager.obj
 0001:0008da20       ?growAndPushBack@?$PxArray@PEAVDeformableSurface@Dy@physx@@V?$PxReflectionAllocator@PEAVDeformableSurface@Dy@physx@@@3@@physx@@IEAAAEAPEAVDeformableSurface@Dy@2@AEBQEAV342@@Z 000000018008ea20 f i PxgBodySimManager.obj
 0001:0008db40       ?growAndPushBack@?$PxArray@PEAVDeformableVolume@Dy@physx@@V?$PxReflectionAllocator@PEAVDeformableVolume@Dy@physx@@@3@@physx@@IEAAAEAPEAVDeformableVolume@Dy@2@AEBQEAV342@@Z 000000018008eb40 f i PxgBodySimManager.obj
 0001:0008dc60       ?growAndPushBack@?$PxArray@UPxgArticulationIndices@physx@@V?$PxReflectionAllocator@UPxgArticulationIndices@physx@@@2@@physx@@IEAAAEAUPxgArticulationIndices@2@AEBU32@@Z 000000018008ec60 f i PxgBodySimManager.obj
 0001:0008dd80       ?growAndPushBack@?$PxArray@UPxgArticulationUpdate@physx@@V?$PxReflectionAllocator@UPxgArticulationUpdate@physx@@@2@@physx@@IEAAAEAUPxgArticulationUpdate@2@AEBU32@@Z 000000018008ed80 f i PxgBodySimManager.obj
 0001:0008dea0       ?growAndPushBack@?$PxArray@UPxgFEMClothIndices@physx@@V?$PxReflectionAllocator@UPxgFEMClothIndices@physx@@@2@@physx@@IEAAAEAUPxgFEMClothIndices@2@AEBU32@@Z 000000018008eea0 f i PxgBodySimManager.obj
 0001:0008dfc0       ?growAndPushBack@?$PxArray@UPxgParticleSystemIndices@physx@@V?$PxReflectionAllocator@UPxgParticleSystemIndices@physx@@@2@@physx@@IEAAAEAUPxgParticleSystemIndices@2@AEBU32@@Z 000000018008efc0 f i PxgBodySimManager.obj
 0001:0008e0e0       ?growAndPushBack@?$PxArray@UPxgSoftBodyIndices@physx@@V?$PxReflectionAllocator@UPxgSoftBodyIndices@physx@@@2@@physx@@IEAAAEAUPxgSoftBodyIndices@2@AEBU32@@Z 000000018008f0e0 f i PxgBodySimManager.obj
 0001:0008e200       ?growAndPushBack@?$PxArray@UPxgStaticConstraint@physx@@V?$PxReflectionAllocator@UPxgStaticConstraint@physx@@@2@@physx@@IEAAAEAUPxgStaticConstraint@2@AEBU32@@Z 000000018008f200 f i PxgBodySimManager.obj
 0001:0008e320       ?recreate@?$PxArray@IV?$PxReflectionAllocator@I@physx@@@physx@@IEAAXI@Z 000000018008f320 f i PxgBodySimManager.obj
 0001:0008e410       ?recreate@?$PxArray@PEAUPxgArticulationSelfConstraints@physx@@V?$PxReflectionAllocator@PEAUPxgArticulationSelfConstraints@physx@@@2@@physx@@IEAAXI@Z 000000018008f410 f i PxgBodySimManager.obj
 0001:0008e500       ?recreate@?$PxArray@PEAUPxgStaticConstraints@physx@@V?$PxReflectionAllocator@PEAUPxgStaticConstraints@physx@@@2@@physx@@IEAAXI@Z 000000018008f500 f i PxgBodySimManager.obj
 0001:0008e5f0       ?recreate@?$PxArray@PEAXV?$PxReflectionAllocator@PEAX@physx@@@physx@@IEAAXI@Z 000000018008f5f0 f i PxgBodySimManager.obj
 0001:0008e6e0       ?recreate@?$PxArray@UPxgConstraintData@physx@@VPxVirtualAllocator@2@@physx@@IEAAXI@Z 000000018008f6e0 f i PxgJointManager.obj
 0001:0008e6e0       ?recreate@?$PxArray@UPxgBodySimVelocityUpdate@physx@@VPxVirtualAllocator@2@@physx@@IEAAXI@Z 000000018008f6e0 f i PxgBodySimManager.obj
 0001:0008e7a0       ?recreate@?$PxArray@UPxgSelfConstraint@physx@@V?$PxReflectionAllocator@UPxgSelfConstraint@physx@@@2@@physx@@IEAAXI@Z 000000018008f7a0 f i PxgBodySimManager.obj
 0001:0008e8b0       ?recreate@?$PxArray@UPxgStaticConstraint@physx@@V?$PxReflectionAllocator@UPxgStaticConstraint@physx@@@2@@physx@@IEAAXI@Z 000000018008f8b0 f i PxgBodySimManager.obj
 0001:0008e9a0       ?releaseArticulation@PxgBodySimManager@physx@@QEAAXPEAVFeatherstoneArticulation@Dy@2@I@Z 000000018008f9a0 f   PxgBodySimManager.obj
 0001:0008ea90       ?releaseDeferredArticulationIds@PxgBodySimManager@physx@@QEAAXXZ 000000018008fa90 f   PxgBodySimManager.obj
 0001:0008eb60       ?releaseDeferredFEMClothIds@PxgBodySimManager@physx@@QEAAXXZ 000000018008fb60 f   PxgBodySimManager.obj
 0001:0008eb70       ?releaseDeferredPBDParticleSystemIds@PxgBodySimManager@physx@@QEAAXXZ 000000018008fb70 f   PxgBodySimManager.obj
 0001:0008eb80       ?releaseDeferredSoftBodyIds@PxgBodySimManager@physx@@QEAAXXZ 000000018008fb80 f   PxgBodySimManager.obj
 0001:0008eb90       ?releaseFEMCloth@PxgBodySimManager@physx@@QEAAXPEAVDeformableSurface@Dy@2@@Z 000000018008fb90 f   PxgBodySimManager.obj
 0001:0008ec90       ?releasePBDParticleSystem@PxgBodySimManager@physx@@QEAAXPEAVParticleSystem@Dy@2@@Z 000000018008fc90 f   PxgBodySimManager.obj
 0001:0008ed70       ?releaseSoftBody@PxgBodySimManager@physx@@QEAAXPEAVDeformableVolume@Dy@2@@Z 000000018008fd70 f   PxgBodySimManager.obj
 0001:0008eee0       ?removeSelfArticulationContactManager@PxgBodySimManager@physx@@QEAA_NIVPxNodeIndex@2@0@Z 000000018008fee0 f   PxgBodySimManager.obj
 0001:0008efa0       ?removeSelfArticulationJoint@PxgBodySimManager@physx@@QEAA_NIVPxNodeIndex@2@0@Z 000000018008ffa0 f   PxgBodySimManager.obj
 0001:0008f060       ?removeStaticArticulationContactManager@PxgBodySimManager@physx@@QEAA_NIVPxNodeIndex@2@@Z 0000000180090060 f   PxgBodySimManager.obj
 0001:0008f0a0       ?removeStaticArticulationJoint@PxgBodySimManager@physx@@QEAA_NIVPxNodeIndex@2@@Z 00000001800900a0 f   PxgBodySimManager.obj
 0001:0008f0e0       ?removeStaticRBContactManager@PxgBodySimManager@physx@@QEAA_NIVPxNodeIndex@2@@Z 00000001800900e0 f   PxgBodySimManager.obj
 0001:0008f120       ?removeStaticRBJoint@PxgBodySimManager@physx@@QEAA_NIVPxNodeIndex@2@@Z 0000000180090120 f   PxgBodySimManager.obj
 0001:0008f160       ?reserve@?$BlockArray@UPxgArticulationSelfConstraints@physx@@$0EAA@@Cm@physx@@QEAAXI@Z 0000000180090160 f i PxgBodySimManager.obj
 0001:0008f240       ?reserve@?$BlockArray@UPxgStaticConstraints@physx@@$0EAA@@Cm@physx@@QEAAXI@Z 0000000180090240 f i PxgBodySimManager.obj
 0001:0008f320       ?reserve@PxgBodySimManager@physx@@QEAAXI@Z 0000000180090320 f   PxgBodySimManager.obj
 0001:0008f360       ?reserveInternal@?$PxHashBase@V?$PxPair@$$CBII@physx@@IU?$PxHash@I@2@UGetKey@?$PxHashMapBase@IIU?$PxHash@I@physx@@VPxAllocator@2@@2@VPxAllocator@2@$00@physx@@AEAAXI@Z 0000000180090360 f i PxgBodySimManager.obj
 0001:0008f510       ?reset@PxgBodySimManager@physx@@QEAAXXZ 0000000180090510 f   PxgBodySimManager.obj
 0001:0008f540       ?resize@?$BlockArray@UPxgArticulationSelfConstraints@physx@@$0EAA@@Cm@physx@@QEAAXI@Z 0000000180090540 f i PxgBodySimManager.obj
 0001:0008f620       ?resize@?$BlockArray@UPxgStaticConstraints@physx@@$0EAA@@Cm@physx@@QEAAXI@Z 0000000180090620 f i PxgBodySimManager.obj
 0001:0008f700       ?resize@?$PxArray@IV?$PxReflectionAllocator@I@physx@@@physx@@QEAAXIAEBI@Z 0000000180090700 f i PxgBodySimManager.obj
 0001:0008f7c0       ?resize@?$PxArray@PEAUPxgArticulationSelfConstraints@physx@@V?$PxReflectionAllocator@PEAUPxgArticulationSelfConstraints@physx@@@2@@physx@@QEAAXIAEBQEAUPxgArticulationSelfConstraints@2@@Z 00000001800907c0 f i PxgBodySimManager.obj
 0001:0008f880       ?resize@?$PxArray@PEAUPxgStaticConstraints@physx@@V?$PxReflectionAllocator@PEAUPxgStaticConstraints@physx@@@2@@physx@@QEAAXIAEBQEAUPxgStaticConstraints@2@@Z 0000000180090880 f i PxgBodySimManager.obj
 0001:0008f940       ?resize@?$PxArray@PEAXV?$PxReflectionAllocator@PEAX@physx@@@physx@@QEAAXIAEBQEAX@Z 0000000180090940 f i PxgBodySimManager.obj
 0001:0008fa00       ?resizeUninitialized@?$PxArray@UPxgSelfConstraint@physx@@V?$PxReflectionAllocator@UPxgSelfConstraint@physx@@@2@@physx@@QEAAXI@Z 0000000180090a00 f i PxgBodySimManager.obj
 0001:0008fa40       ?resizeUninitialized@?$PxArray@UPxgStaticConstraint@physx@@V?$PxReflectionAllocator@UPxgStaticConstraint@physx@@@2@@physx@@QEAAXI@Z 0000000180090a40 f i PxgBodySimManager.obj
 0001:0008fa80       ?updateArticulation@PxgBodySimManager@physx@@QEAAXPEAVFeatherstoneArticulation@Dy@2@I@Z 0000000180090a80 f   PxgBodySimManager.obj
 0001:0008fb80       ?updateBodies@PxgBodySimManager@physx@@QEAAXPEAPEAVPxsRigidBody@2@PEAIIPEAUPxsExternalAccelerationProvider@2@@Z 0000000180090b80 f   PxgBodySimManager.obj
 0001:0008fd50       ?updateBody@PxgBodySimManager@physx@@QEAAXAEBVPxNodeIndex@2@@Z 0000000180090d50 f   PxgBodySimManager.obj
 0001:0008fdf0       ??0PxgArticulationBuffer@physx@@QEAA@PEAVPxgHeapMemoryAllocatorManager@1@@Z 0000000180090df0 f   PxgSimulationCore.obj
 0001:00090290       ??0PxgFEMClothBuffer@physx@@QEAA@PEAVPxgHeapMemoryAllocatorManager@1@@Z 0000000180091290 f   PxgSimulationCore.obj
 0001:000906b0       ??0PxgParticleSystemBuffer@physx@@QEAA@PEAVPxgHeapMemoryAllocatorManager@1@@Z 00000001800916b0 f   PxgSimulationCore.obj
 0001:00090df0       ??0PxgParticleSystemDiffuseBuffer@physx@@QEAA@PEAVPxgHeapMemoryAllocatorManager@1@@Z 0000000180091df0 f   PxgSimulationCore.obj
 0001:00091020       ??0PxgSimulationCore@physx@@QEAA@PEAVPxgCudaKernelWranglerManager@1@PEAVPxCudaContextManager@1@PEAVPxgHeapMemoryAllocatorManager@1@PEAVPxgGpuContext@1@_N@Z 0000000180092020 f   PxgSimulationCore.obj
 0001:00092410       ??0PxgSoftBody@physx@@QEAA@AEBV01@@Z 0000000180093410 f i PxgSimulationCore.obj
 0001:00092750       ??0PxgSoftBodyBuffer@physx@@QEAA@PEAVPxgHeapMemoryAllocatorManager@1@@Z 0000000180093750 f   PxgSimulationCore.obj
 0001:00092c20       ??1PxgArticulationBuffer@physx@@QEAA@XZ 0000000180093c20 f   PxgSimulationCore.obj
 0001:00092fd0       ??1PxgShapeSimManager@physx@@QEAA@XZ 0000000180093fd0 f i PxgSimulationCore.obj
 0001:000930b0       ??1PxgSimulationCore@physx@@QEAA@XZ 00000001800940b0 f   PxgSimulationCore.obj
 0001:00093c80       ??1PxgSoftBodyBuffer@physx@@QEAA@XZ 0000000180094c80 f i PxgSimulationCore.obj
 0001:00093e40       ?constructDescriptor@PxgSimulationCore@physx@@AEAAX_K0II@Z 0000000180094e40 f   PxgSimulationCore.obj
 0001:00094010       ?create@?$PxArray@VPxgSoftBody@physx@@VPxVirtualAllocator@2@@physx@@KAXPEAVPxgSoftBody@2@0AEBV32@@Z 0000000180095010 f i PxgSimulationCore.obj
 0001:00094390       ?getBoundArrayBuffer@PxgSimulationCore@physx@@QEAAPEAV?$PxgTypedCudaBuffer@VPxBounds3@physx@@@2@XZ 0000000180095390 f   PxgSimulationCore.obj
 0001:000943b0       ?getD6JointData@PxgSimulationCore@physx@@QEBA_NPEAXPEBIW4Enum@PxD6JointGPUAPIReadType@2@IMIPEAUCUevent_st@@3@Z 00000001800953b0 f   PxgSimulationCore.obj
 0001:000945e0       ?getMaxArticuationAttachments@PxgSimulationCore@physx@@QEBAIXZ 00000001800955e0 f   PxgSimulationCore.obj
 0001:00094600       ?getMaxArticuationFixedTendons@PxgSimulationCore@physx@@QEBAIXZ 0000000180095600 f   PxgSimulationCore.obj
 0001:00094620       ?getMaxArticuationSpatialTendons@PxgSimulationCore@physx@@QEBAIXZ 0000000180095620 f   PxgSimulationCore.obj
 0001:00094640       ?getMaxArticuationTendonJoints@PxgSimulationCore@physx@@QEBAIXZ 0000000180095640 f   PxgSimulationCore.obj
 0001:00094660       ?getMaxArticulationDofs@PxgSimulationCore@physx@@QEBAIXZ 0000000180095660 f   PxgSimulationCore.obj
 0001:00094680       ?getMaxArticulationLinks@PxgSimulationCore@physx@@QEBAIXZ 0000000180095680 f   PxgSimulationCore.obj
 0001:000946a0       ?getMaxArticulationMimicJoints@PxgSimulationCore@physx@@QEBAIXZ 00000001800956a0 f   PxgSimulationCore.obj
 0001:000946c0       ?getRigidDynamicData@PxgSimulationCore@physx@@QEBA_NPEAXPEBIW4Enum@PxRigidDynamicGPUAPIReadType@2@IMPEAUCUevent_st@@3@Z 00000001800956c0 f   PxgSimulationCore.obj
 0001:00094ad0       ?gpuMemDmaBack@PxgSimulationCore@physx@@QEAAXAEAV?$PxArray@IVPxVirtualAllocator@physx@@@2@000PEAV?$PxArray@UPxsCachedTransform@physx@@VPxVirtualAllocator@2@@2@IAEAVBoundsArray@Bp@2@AEAV?$PxBitMapBase@VPxVirtualAllocator@physx@@@2@II_N@Z 0000000180095ad0 f   PxgSimulationCore.obj
 0001:00094f50       ?gpuMemDmaUp@PxgSimulationCore@physx@@QEAAXIIAEAV?$PxBitMapBase@VPxVirtualAllocator@physx@@@2@_N@Z 0000000180095f50 f   PxgSimulationCore.obj
 0001:000954f0       ?gpuMemDmaUpBodySim@PxgSimulationCore@physx@@QEAAXAEAV?$PxArray@UPxgBodySimVelocityUpdate@physx@@VPxVirtualAllocator@2@@2@AEAV?$PxArray@UPxgBodySim@physx@@VPxVirtualAllocator@2@@2@AEAV?$PxArray@UPxgArticulationLink@physx@@VPxVirtualAllocator@2@@2@AEAV?$PxArray@MVPxVirtualAllocator@physx@@@2@AEAV?$PxArray@UUnAlignedSpatialVector@Cm@physx@@VPxVirtualAllocator@3@@2@AEAV?$PxArray@UPxgArticulationLinkProp@physx@@VPxVirtualAllocator@2@@2@AEAV?$PxArray@IVPxVirtualAllocator@physx@@@2@AEAV?$PxArray@_KVPxVirtualAllocator@physx@@@2@AEAV?$PxArray@V?$PxTransformT@M@physx@@VPxVirtualAllocator@2@@2@8AEAV?$PxArray@UArticulationJointCore@Dy@physx@@VPxVirtualAllocator@3@@2@AEAV?$PxArray@VArticulationJointCoreData@Dy@physx@@VPxVirtualAllocator@3@@2@AEAV?$PxArray@UPxgArticulationSimUpdate@physx@@VPxVirtualAllocator@2@@2@AEAV?$PxArray@VPxgArticulation@physx@@VPxVirtualAllocator@2@@2@AEAV?$PxArray@VPxGpuSpatialTendonData@physx@@VPxVirtualAllocator@2@@2@AEAV?$PxArray@VPxgArticulationTendon@physx@@VPxVirtualAllocator@2@@2@AEAV?$PxArray@VPxgArticulationTendonElementFixedData@physx@@VPxVirtualAllocator@2@@2@AEAV?$PxArray@VPxGpuTendonAttachmentData@physx@@VPxVirtualAllocator@2@@2@6AEAV?$PxArray@VPxGpuFixedTendonData@physx@@VPxVirtualAllocator@2@@2@AEAV?$PxArray@VPxgArticulationTendon@physx@@VPxVirtualAllocator@2@@2@AEAV?$PxArray@VPxgArticulationTendonElementFixedData@physx@@VPxVirtualAllocator@2@@2@AEAV?$PxArray@VPxGpuTendonJointCoefficientData@physx@@VPxVirtualAllocator@2@@2@6AEAV?$PxArray@UArticulationMimicJointCore@Dy@physx@@VPxVirtualAllocator@3@@2@6IIIIIIIII_N@Z 00000001800964f0 f   PxgSimulationCore.obj
 0001:00097450       ?gpuMemDmaUpFEMCloths@PxgSimulationCore@physx@@QEAAXAEAV?$PxArray@VPxgFEMCloth@physx@@VPxVirtualAllocator@2@@2@PEAIAEAV?$PxArray@UPxgFEMClothData@physx@@V?$PxReflectionAllocator@UPxgFEMClothData@physx@@@2@@2@AEAV?$PxArray@IV?$PxReflectionAllocator@I@physx@@@2@302AEAV?$PxArray@IVPxVirtualAllocator@physx@@@2@3AEAVPxgBodySimManager@2@AEAV?$PxArray@VPxgFEMRigidAttachment@physx@@VPxVirtualAllocator@2@@2@AEAV?$PxArray@VPxgRigidFilterPair@physx@@VPxVirtualAllocator@2@@2@_N48AEAV?$PxArray@VPxgFEMFEMAttachment@physx@@VPxVirtualAllocator@2@@2@AEAV?$PxArray@VPxgNonRigidFilterPair@physx@@VPxVirtualAllocator@2@@2@848@Z 0000000180098450 f   PxgSimulationCore.obj
 0001:00098e80       ?gpuMemDmaUpParticleSystem@PxgSimulationCore@physx@@QEAAXAEAVPxgBodySimManager@2@@Z 0000000180099e80 f   PxgSimulationCore.obj
 0001:00098f00       ?gpuMemDmaUpSoftBodies@PxgSimulationCore@physx@@QEAAXAEAV?$PxArray@VPxgSoftBody@physx@@VPxVirtualAllocator@2@@2@PEAIAEAV?$PxArray@UPxgSoftBodyData@physx@@V?$PxReflectionAllocator@UPxgSoftBodyData@physx@@@2@@2@AEAV?$PxArray@IV?$PxReflectionAllocator@I@physx@@@2@302AEAV?$PxArray@IVPxVirtualAllocator@physx@@@2@3AEAVPxgBodySimManager@2@AEAUSoftBodyAttachmentAndFilterData@2@@Z 0000000180099f00 f   PxgSimulationCore.obj
 0001:0009ae00       ?growAndPushBack@?$PxArray@PEAVPxgCudaBuffer@physx@@V?$PxReflectionAllocator@PEAVPxgCudaBuffer@physx@@@2@@physx@@IEAAAEAPEAVPxgCudaBuffer@2@AEBQEAV32@@Z 000000018009be00 f i PxgSimulationCore.obj
 0001:0009af20       ?growAndPushBack@?$PxArray@VPxgFEMCloth@physx@@V?$PxReflectionAllocator@VPxgFEMCloth@physx@@@2@@physx@@IEAAAEAVPxgFEMCloth@2@AEBV32@@Z 000000018009bf20 f i PxgSimulationCore.obj
 0001:0009b120       ?growAndPushBack@?$PxArray@VPxgSoftBody@physx@@V?$PxReflectionAllocator@VPxgSoftBody@physx@@@2@@physx@@IEAAAEAVPxgSoftBody@2@AEBV32@@Z 000000018009c120 f i PxgSimulationCore.obj
 0001:0009b260       ?mergeChangedAABBMgHandle@PxgSimulationCore@physx@@QEAAXXZ 000000018009c260 f   PxgSimulationCore.obj
 0001:0009b330       ?recreate@?$PxArray@PEAVPxgArticulationBuffer@physx@@V?$PxReflectionAllocator@PEAVPxgArticulationBuffer@physx@@@2@@physx@@IEAAXI@Z 000000018009c330 f i PxgSimulationCore.obj
 0001:0009b420       ?recreate@?$PxArray@PEAVPxgCudaBuffer@physx@@V?$PxReflectionAllocator@PEAVPxgCudaBuffer@physx@@@2@@physx@@IEAAXI@Z 000000018009c420 f i PxgSimulationCore.obj
 0001:0009b510       ?recreate@?$PxArray@PEAVPxgFEMClothBuffer@physx@@V?$PxReflectionAllocator@PEAVPxgFEMClothBuffer@physx@@@2@@physx@@IEAAXI@Z 000000018009c510 f i PxgSimulationCore.obj
 0001:0009b600       ?recreate@?$PxArray@PEAVPxgSoftBodyBuffer@physx@@V?$PxReflectionAllocator@PEAVPxgSoftBodyBuffer@physx@@@2@@physx@@IEAAXI@Z 000000018009c600 f i PxgSimulationCore.obj
 0001:0009b6f0       ?recreate@?$PxArray@UPxgFEMClothData@physx@@V?$PxReflectionAllocator@UPxgFEMClothData@physx@@@2@@physx@@IEAAXI@Z 000000018009c6f0 f i PxgSimulationCore.obj
 0001:0009b800       ?recreate@?$PxArray@UPxgSoftBodyData@physx@@V?$PxReflectionAllocator@UPxgSoftBodyData@physx@@@2@@physx@@IEAAXI@Z 000000018009c800 f i PxgSimulationCore.obj
 0001:0009b8f0       ?recreate@?$PxArray@VPxgFEMCloth@physx@@VPxVirtualAllocator@2@@physx@@IEAAXI@Z 000000018009c8f0 f i PxgSimulationCore.obj
 0001:0009ba00       ?recreate@?$PxArray@VPxgSoftBody@physx@@VPxVirtualAllocator@2@@physx@@IEAAXI@Z 000000018009ca00 f i PxgSimulationCore.obj
 0001:0009bad0       ?resize@?$PxArray@MVPxVirtualAllocator@physx@@@physx@@QEAAXIAEBM@Z 000000018009cad0 f i PxgSimulationCore.obj
 0001:0009bbe0       ?resize@?$PxArray@PEAVPxgArticulationBuffer@physx@@V?$PxReflectionAllocator@PEAVPxgArticulationBuffer@physx@@@2@@physx@@QEAAXIAEBQEAVPxgArticulationBuffer@2@@Z 000000018009cbe0 f i PxgSimulationCore.obj
 0001:0009bca0       ?resize@?$PxArray@PEAVPxgFEMClothBuffer@physx@@V?$PxReflectionAllocator@PEAVPxgFEMClothBuffer@physx@@@2@@physx@@QEAAXIAEBQEAVPxgFEMClothBuffer@2@@Z 000000018009cca0 f i PxgSimulationCore.obj
 0001:0009bd60       ?resize@?$PxArray@PEAVPxgSoftBodyBuffer@physx@@V?$PxReflectionAllocator@PEAVPxgSoftBodyBuffer@physx@@@2@@physx@@QEAAXIAEBQEAVPxgSoftBodyBuffer@2@@Z 000000018009cd60 f i PxgSimulationCore.obj
 0001:0009be20       ?resize@?$PxArray@UPxgFEMClothData@physx@@V?$PxReflectionAllocator@UPxgFEMClothData@physx@@@2@@physx@@QEAAXIAEBUPxgFEMClothData@2@@Z 000000018009ce20 f i PxgSimulationCore.obj
 0001:0009bea0       ?resize@?$PxArray@UPxgSoftBodyData@physx@@V?$PxReflectionAllocator@UPxgSoftBodyData@physx@@@2@@physx@@QEAAXIAEBUPxgSoftBodyData@2@@Z 000000018009cea0 f i PxgSimulationCore.obj
 0001:0009bf20       ?resize@?$PxArray@VPxgFEMCloth@physx@@VPxVirtualAllocator@2@@physx@@QEAAXIAEBVPxgFEMCloth@2@@Z 000000018009cf20 f i PxgSimulationCore.obj
 0001:0009c000       ?resize@?$PxArray@VPxgSoftBody@physx@@VPxVirtualAllocator@2@@physx@@QEAAXIAEBVPxgSoftBody@2@@Z 000000018009d000 f i PxgSimulationCore.obj
 0001:0009c060       ?setBounds@PxgSimulationCore@physx@@QEAAXPEAVBoundsArray@Bp@2@@Z 000000018009d060 f   PxgSimulationCore.obj
 0001:0009c070       ?setFEMClothWakeCounter@PxgSimulationCore@physx@@QEAAXIMI@Z 000000018009d070 f   PxgSimulationCore.obj
 0001:0009c0d0       ?setRigidDynamicData@PxgSimulationCore@physx@@QEAA_NPEBXPEBIW4Enum@PxRigidDynamicGPUAPIWriteType@2@IPEAUCUevent_st@@3@Z 000000018009d0d0 f   PxgSimulationCore.obj
 0001:0009c4b0       ?setSoftBodyWakeCounter@PxgSimulationCore@physx@@QEAAXIMI@Z 000000018009d4b0 f   PxgSimulationCore.obj
 0001:0009c510       ?syncDmaback@PxgSimulationCore@physx@@QEAAXAEAI0_N@Z 000000018009d510 f   PxgSimulationCore.obj
 0001:0009c5c0       ?synchronizeStreams@physx@@YAXPEAVPxCudaContext@1@AEAPEAUCUstream_st@@1AEAPEAUCUevent_st@@@Z 000000018009d5c0 f i PxgSimulationCore.obj
 0001:0009c690       ?update@PxgSimulationCore@physx@@QEAAX_N@Z 000000018009d690 f   PxgSimulationCore.obj
 0001:0009c9d0       ?updateArticulations@PxgSimulationCore@physx@@QEAAXIPEAUPxgArticulationSimUpdate@2@IPEAM@Z 000000018009d9d0 f   PxgSimulationCore.obj
 0001:0009cc60       ?updateBodies@PxgSimulationCore@physx@@QEAAXII@Z 000000018009dc60 f   PxgSimulationCore.obj
 0001:0009ce30       ?updateJointsAndSyncData@PxgSimulationCore@physx@@QEAAXAEBV?$PxArray@UPxgD6JointData@physx@@VPxVirtualAllocator@2@@2@AEBV?$PxArray@IVPxVirtualAllocator@physx@@@2@01AEBV?$PxArray@UPxgConstraintPrePrep@physx@@VPxVirtualAllocator@2@@2@2AEBV?$PxArray@VPxgConstraintIdMapEntry@physx@@VPxVirtualAllocator@2@@2@_NII@Z 000000018009de30 f   PxgSimulationCore.obj
 0001:0009d420       ??0PxgD6JointData@physx@@QEAA@AEBU01@@Z 000000018009e420 f i PxgJointManager.obj
 0001:0009d740       ??0PxgJointManager@physx@@QEAA@AEBVPxVirtualAllocator@1@_N@Z 000000018009e740 f   PxgJointManager.obj
 0001:0009da10       ??1PxgJointManager@physx@@QEAA@XZ 000000018009ea10 f   PxgJointManager.obj
 0001:0009de20       ??4PxgD6JointData@physx@@QEAAAEAU01@AEBU01@@Z 000000018009ee20 f i PxgJointManager.obj
 0001:0009e150       ?addJoint@PxgJointManager@physx@@QEAAXIPEBUConstraint@Dy@2@AEAVIslandSim@IG@2@AEAV?$PxArray@IV?$PxReflectionAllocator@I@physx@@@2@AEAV?$PxArray@UPxgSolverConstraintManagerConstants@physx@@VPxVirtualAllocator@2@@2@I@Z 000000018009f150 f   PxgJointManager.obj
 0001:0009e8d0       ?copy@?$PxArray@UPx1DConstraint@physx@@VPxVirtualAllocator@2@@physx@@KAXPEAUPx1DConstraint@2@0PEBU32@@Z 000000018009f8d0 f i PxgJointManager.obj
 0001:0009ec60       ?create@?$PxArray@UPxgD6JointData@physx@@VPxVirtualAllocator@2@@physx@@KAXPEAUPxgD6JointData@2@0AEBU32@@Z 000000018009fc60 f i PxgJointManager.obj
 0001:0009efa0       ?erase@?$PxHashMapBase@IIU?$PxHash@I@physx@@VPxAllocator@2@@physx@@QEAA_NAEBI@Z 000000018009ffa0 f i PxgJointManager.obj
 0001:0009f020       ?eraseInternal@?$PxHashBase@V?$PxPair@$$CBII@physx@@IU?$PxHash@I@2@UGetKey@?$PxHashMapBase@IIU?$PxHash@I@physx@@VPxAllocator@2@@2@VPxAllocator@2@$00@physx@@AEAA_NPEAI@Z 00000001800a0020 f i PxgJointManager.obj
 0001:0009f0e0       ?getCpuNbArtiConstraints@PxgJointManager@physx@@QEAAIXZ 00000001800a00e0 f   PxgJointManager.obj
 0001:0009f0f0       ?getCpuNbRigidConstraints@PxgJointManager@physx@@QEAAIXZ 00000001800a00f0 f   PxgJointManager.obj
 0001:0009f100       ?getGpuNbArtiConstraints@PxgJointManager@physx@@QEAAIXZ 00000001800a0100 f   PxgJointManager.obj
 0001:0009f110       ?getGpuNbRigidConstraints@PxgJointManager@physx@@QEAAIXZ 00000001800a0110 f   PxgJointManager.obj
 0001:0009f120       ?growAndPushBack@?$PxArray@PEBUConstraint@Dy@physx@@V?$PxReflectionAllocator@PEBUConstraint@Dy@physx@@@3@@physx@@IEAAAEAPEBUConstraint@Dy@2@AEBQEBU342@@Z 00000001800a0120 f i PxgJointManager.obj
 0001:0009f240       ?recreate@?$PxArray@UPx1DConstraint@physx@@VPxVirtualAllocator@2@@physx@@IEAAXI@Z 00000001800a0240 f i PxgJointManager.obj
 0001:0009f2e0       ?recreate@?$PxArray@UPxgConstraintPrePrep@physx@@VPxVirtualAllocator@2@@physx@@IEAAXI@Z 00000001800a02e0 f i PxgJointManager.obj
 0001:0009f2e0       ?recreate@?$PxArray@UArticulationMimicJointCore@Dy@physx@@VPxVirtualAllocator@3@@physx@@IEAAXI@Z 00000001800a02e0 f i PxgSimulationController.obj
 0001:0009f390       ?recreate@?$PxArray@UPxgD6JointData@physx@@VPxVirtualAllocator@2@@physx@@IEAAXI@Z 00000001800a0390 f i PxgJointManager.obj
 0001:0009f460       ?registerJoint@PxgJointManager@physx@@QEAAXAEBUConstraint@Dy@2@@Z 00000001800a0460 f   PxgJointManager.obj
 0001:0009f490       ?removeJoint@PxgJointManager@physx@@QEAAXIAEAV?$PxArray@IV?$PxReflectionAllocator@I@physx@@@2@AEBVCPUExternalData@IG@2@AEBVGPUExternalData@52@@Z 00000001800a0490 f   PxgJointManager.obj
 0001:0009fc40       ?reserveMemory@PxgJointManager@physx@@QEAAXI@Z 00000001800a0c40 f   PxgJointManager.obj
 0001:0009fd10       ?reserveMemoryPreAddRemove@PxgJointManager@physx@@QEAAXXZ 00000001800a0d10 f   PxgJointManager.obj
 0001:0009fd60       ?reset@PxgJointManager@physx@@QEAAXXZ 00000001800a0d60 f   PxgJointManager.obj
 0001:0009fdb0       ?resize@?$PxArray@UPxgConstraintPrePrep@physx@@VPxVirtualAllocator@2@@physx@@QEAAXIAEBUPxgConstraintPrePrep@2@@Z 00000001800a0db0 f i PxgJointManager.obj
 0001:0009fe30       ?resize@?$PxArray@UPxgD6JointData@physx@@VPxVirtualAllocator@2@@physx@@QEAAXIAEBUPxgD6JointData@2@@Z 00000001800a0e30 f i PxgJointManager.obj
 0001:0009fe90       ?resize@?$PxArray@VPxgConstraintIdMapEntry@physx@@VPxVirtualAllocator@2@@physx@@QEAAXIAEBVPxgConstraintIdMapEntry@2@@Z 00000001800a0e90 f i PxgJointManager.obj
 0001:0009ff50       ?update@PxgJointManager@physx@@QEAAXAEAV?$PxArray@IV?$PxReflectionAllocator@I@physx@@@2@@Z 00000001800a0f50 f   PxgJointManager.obj
 0001:000a0000       ?updateJoint@PxgJointManager@physx@@QEAAXIPEBUConstraint@Dy@2@@Z 00000001800a1000 f   PxgJointManager.obj
 0001:000a0250       ??0PxgShapeSimManager@physx@@QEAA@PEAVPxgHeapMemoryAllocatorManager@1@@Z 00000001800a1250 f   PxgShapeSimManager.obj
 0001:000a02d0       ??_EPxgPostUpdateParticleAndSoftBodyTask@physx@@UEAAPEAXI@Z 00000001800a12d0 f i PxgSimulationController.obj
 0001:000a02d0       ??_EPxgGpuTask@physx@@UEAAPEAXI@Z 00000001800a12d0 f i PxgContext.obj
 0001:000a02d0       ??_GPxgPostUpdateParticleAndSoftBodyTask@physx@@UEAAPEAXI@Z 00000001800a12d0 f i PxgSimulationController.obj
 0001:000a02d0       ??_EPxgCopyToBodySimTask@physx@@UEAAPEAXI@Z 00000001800a12d0 f i PxgSimulationController.obj
 0001:000a02d0       ??_GPxgCopyToShapeSimTask@physx@@UEAAPEAXI@Z 00000001800a12d0 f i PxgShapeSimManager.obj
 0001:000a02d0       ??_GPxgCopyToPBDParticleSystemSimTask@physx@@UEAAPEAXI@Z 00000001800a12d0 f i PxgSimulationController.obj
 0001:000a02d0       ??_GPxgCopyToBodySimTask@physx@@UEAAPEAXI@Z 00000001800a12d0 f i PxgSimulationController.obj
 0001:000a02d0       ??_EPxgCopyToPBDParticleSystemSimTask@physx@@UEAAPEAXI@Z 00000001800a12d0 f i PxgSimulationController.obj
 0001:000a02d0       ??_GPxgGpuTask@physx@@UEAAPEAXI@Z 00000001800a12d0 f i PxgContext.obj
 0001:000a02d0       ??_EPxgCopyToShapeSimTask@physx@@UEAAPEAXI@Z 00000001800a12d0 f i PxgShapeSimManager.obj
 0001:000a0310       ?addPxgShape@PxgShapeSimManager@physx@@QEAAXPEAVShapeSimBase@Sc@2@PEBUPxsShapeCore@2@VPxNodeIndex@2@I@Z 00000001800a1310 f   PxgShapeSimManager.obj
 0001:000a0420       ?copy@?$PxArray@UPxgNewShapeSim@physx@@VPxVirtualAllocator@2@@physx@@KAXPEAUPxgNewShapeSim@2@0PEBU32@@Z 00000001800a1420 f i PxgShapeSimManager.obj
 0001:000a0780       ?copyToGpuShapeSim@PxgShapeSimManager@physx@@QEAAXPEAVPxgGpuNarrowphaseCore@2@PEAVPxBaseTask@2@AEAVFlushPool@Cm@2@@Z 00000001800a1780 f   PxgShapeSimManager.obj
 0001:000a0990       ?getName@PxgCopyToShapeSimTask@physx@@UEBAPEBDXZ 00000001800a1990 f i PxgShapeSimManager.obj
 0001:000a09a0       ?gpuMemDmaUpShapeSim@PxgShapeSimManager@physx@@QEAAXPEAVPxCudaContext@2@PEAUCUstream_st@@PEAVKernelWrangler@2@@Z 00000001800a19a0 f   PxgShapeSimManager.obj
 0001:000a0bc0       ?recreate@?$PxArray@PEAVShapeSimBase@Sc@physx@@V?$PxReflectionAllocator@PEAVShapeSimBase@Sc@physx@@@3@@physx@@IEAAXI@Z 00000001800a1bc0 f i PxgShapeSimManager.obj
 0001:000a0cb0       ?recreate@?$PxArray@UPxgNewShapeSim@physx@@VPxVirtualAllocator@2@@physx@@IEAAXI@Z 00000001800a1cb0 f i PxgShapeSimManager.obj
 0001:000a0d50       ?recreate@?$PxArray@UPxgShapeSimData@physx@@V?$PxReflectionAllocator@UPxgShapeSimData@physx@@@2@@physx@@IEAAXI@Z 00000001800a1d50 f i PxgShapeSimManager.obj
 0001:000a0e60       ?removePxgShape@PxgShapeSimManager@physx@@QEAAXI@Z 00000001800a1e60 f   PxgShapeSimManager.obj
 0001:000a0ee0       ?resize@?$PxArray@PEAVShapeSimBase@Sc@physx@@V?$PxReflectionAllocator@PEAVShapeSimBase@Sc@physx@@@3@@physx@@QEAAXIAEBQEAVShapeSimBase@Sc@2@@Z 00000001800a1ee0 f i PxgShapeSimManager.obj
 0001:000a0fa0       ?resize@?$PxArray@UPxgShapeSimData@physx@@V?$PxReflectionAllocator@UPxgShapeSimData@physx@@@2@@physx@@QEAAXIAEBUPxgShapeSimData@2@@Z 00000001800a1fa0 f i PxgShapeSimManager.obj
 0001:000a1020       ?runInternal@PxgCopyToShapeSimTask@physx@@UEAAXXZ 00000001800a2020 f i PxgShapeSimManager.obj
 0001:000a11a0       ?setPxgShapeBodyNodeIndex@PxgShapeSimManager@physx@@QEAAXVPxNodeIndex@2@I@Z 00000001800a21a0 f   PxgShapeSimManager.obj
 0001:000a11b0       ??$PxSort@VPxgNonRigidFilterPair@physx@@USortPxgNonRigidFilterPair@2@V?$PxReflectionAllocator@VPxgNonRigidFilterPair@physx@@@2@@physx@@YAXPEAVPxgNonRigidFilterPair@0@IAEBUSortPxgNonRigidFilterPair@0@AEBV?$PxReflectionAllocator@VPxgNonRigidFilterPair@physx@@@0@I@Z 00000001800a21b0 f i PxgSimulationController.obj
 0001:000a1700       ??$addFilterPairInternal@VPxgNonRigidFilterPair@physx@@V?$PxArray@VPxgNonRigidFilterPair@physx@@VPxVirtualAllocator@2@@2@@physx@@YAXAEAVPxgNonRigidFilterPair@0@AEAV?$PxArray@VPxgNonRigidFilterPair@physx@@VPxVirtualAllocator@2@@0@AEAV?$PxArray@IV?$PxReflectionAllocator@I@physx@@@0@AEA_N@Z 00000001800a2700 f i PxgSimulationController.obj
 0001:000a18f0       ??$addFilterPairInternal@VPxgRigidFilterPair@physx@@V?$PxArray@VPxgRigidFilterPair@physx@@VPxVirtualAllocator@2@@2@@physx@@YAXAEAVPxgRigidFilterPair@0@AEAV?$PxArray@VPxgRigidFilterPair@physx@@VPxVirtualAllocator@2@@0@AEAV?$PxArray@IV?$PxReflectionAllocator@I@physx@@@0@AEA_N@Z 00000001800a28f0 f i PxgSimulationController.obj
 0001:000a1af0       ??$releaseFilterPairInternal@VPxgNonRigidFilterPair@physx@@V?$PxArray@VPxgNonRigidFilterPair@physx@@VPxVirtualAllocator@2@@2@@physx@@YAXAEAVPxgNonRigidFilterPair@0@AEAV?$PxArray@VPxgNonRigidFilterPair@physx@@VPxVirtualAllocator@2@@0@AEAV?$PxArray@IV?$PxReflectionAllocator@I@physx@@@0@AEA_NI@Z 00000001800a2af0 f i PxgSimulationController.obj
 0001:000a1c70       ??$releaseFilterPairInternal@VPxgRigidFilterPair@physx@@V?$PxArray@VPxgRigidFilterPair@physx@@VPxVirtualAllocator@2@@2@@physx@@YAXAEAVPxgRigidFilterPair@0@AEAV?$PxArray@VPxgRigidFilterPair@physx@@VPxVirtualAllocator@2@@0@AEAV?$PxArray@IV?$PxReflectionAllocator@I@physx@@@0@AEA_NI@Z 00000001800a2c70 f i PxgSimulationController.obj
 0001:000a1df0       ??0?$AttachmentManager@VPxgFEMFEMAttachment@physx@@@physx@@QEAA@PEAVPxgHeapMemoryAllocatorManager@1@@Z 00000001800a2df0 f i PxgSimulationController.obj
 0001:000a1df0       ??0?$AttachmentManager@VPxgFEMRigidAttachment@physx@@@physx@@QEAA@PEAVPxgHeapMemoryAllocatorManager@1@@Z 00000001800a2df0 f i PxgSimulationController.obj
 0001:000a1ed0       ??0PxgBodySimManager@physx@@QEAA@AEBVPxVirtualAllocator@1@@Z 00000001800a2ed0 f i PxgSimulationController.obj
 0001:000a2170       ??0PxgParticleSystem@physx@@QEAA@AEBV01@@Z 00000001800a3170 f i PxgSimulationController.obj
 0001:000a25c0       ??0PxgSimulationController@physx@@QEAA@PEAVPxsKernelWranglerManager@1@PEAVPxCudaContextManager@1@PEAVPxgGpuContext@1@PEAVPxgNphaseImplementationContext@1@PEAVBroadPhase@Bp@1@_NPEAVPxsSimulationControllerCallback@1@PEAVPxgHeapMemoryAllocatorManager@1@IIII5@Z 00000001800a35c0 f   PxgSimulationController.obj
 0001:000a3050       ??1?$AttachmentManager@VPxgFEMFEMAttachment@physx@@@physx@@QEAA@XZ 00000001800a4050 f i PxgSimulationController.obj
 0001:000a3050       ??1?$AttachmentManager@VPxgFEMRigidAttachment@physx@@@physx@@QEAA@XZ 00000001800a4050 f i PxgSimulationController.obj
 0001:000a3120       ??1PxgSimulationController@physx@@UEAA@XZ 00000001800a4120 f   PxgSimulationController.obj
 0001:000a3d40       ??_EPxgCopyToArticulationSimTask@physx@@UEAAPEAXI@Z 00000001800a4d40 f i PxgSimulationController.obj
 0001:000a3d40       ??_GPxgCopyToArticulationSimTask@physx@@UEAAPEAXI@Z 00000001800a4d40 f i PxgSimulationController.obj
 0001:000a3d80       ??_EPxgSimulationController@physx@@UEAAPEAXI@Z 00000001800a4d80 f i PxgSimulationController.obj
 0001:000a3d80       ??_GPxgSimulationController@physx@@UEAAPEAXI@Z 00000001800a4d80 f i PxgSimulationController.obj
 0001:000a3df0       ??_EPxgUpdateArticulationSimTask@physx@@UEAAPEAXI@Z 00000001800a4df0 f i PxgSimulationController.obj
 0001:000a3df0       ??_GPxgUpdateArticulationSimTask@physx@@UEAAPEAXI@Z 00000001800a4df0 f i PxgSimulationController.obj
 0001:000a3e30       ??_EPxsSimulationController@physx@@UEAAPEAXI@Z 00000001800a4e30 f i PxgSimulationController.obj
 0001:000a3e30       ??_GPxsSimulationController@physx@@UEAAPEAXI@Z 00000001800a4e30 f i PxgSimulationController.obj
 0001:000a3e80       ?activateAttachment@?$AttachmentManager@VPxgFEMFEMAttachment@physx@@@physx@@QEAAXI@Z 00000001800a4e80 f i PxgSimulationController.obj
 0001:000a3e80       ?activateAttachment@?$AttachmentManager@VPxgFEMRigidAttachment@physx@@@physx@@QEAAXI@Z 00000001800a4e80 f i PxgSimulationController.obj
 0001:000a3f30       ?activateCloth@PxgSimulationController@physx@@UEAAXPEAVDeformableSurface@Dy@2@@Z 00000001800a4f30 f   PxgSimulationController.obj
 0001:000a4160       ?activateSoftbody@PxgSimulationController@physx@@UEAAXPEAVDeformableVolume@Dy@2@@Z 00000001800a5160 f   PxgSimulationController.obj
 0001:000a4520       ?activateSoftbodySelfCollision@PxgSimulationController@physx@@UEAAXPEAVDeformableVolume@Dy@2@@Z 00000001800a5520 f   PxgSimulationController.obj
 0001:000a4530       ?addArticulation@PxgSimulationController@physx@@UEAAXPEAVFeatherstoneArticulation@Dy@2@AEBVPxNodeIndex@2@@Z 00000001800a5530 f   PxgSimulationController.obj
 0001:000a4580       ?addAttachment@?$AttachmentManager@VPxgFEMFEMAttachment@physx@@@physx@@QEAAXAEBVPxgFEMFEMAttachment@2@I@Z 00000001800a5580 f i PxgSimulationController.obj
 0001:000a4650       ?addClothAttachment@PxgSimulationController@physx@@UEAAIPEAVDeformableVolume@Dy@2@PEAVDeformableSurface@42@IAEBV?$PxVec4T@M@2@I2PEAUPxConeLimitedConstraint@2@M_N_N@Z 00000001800a5650 f   PxgSimulationController.obj
 0001:000a4900       ?addClothFilter@PxgSimulationController@physx@@UEAAXPEAVDeformableSurface@Dy@2@0II@Z 00000001800a5900 f   PxgSimulationController.obj
 0001:000a4bb0       ?addClothFilter@PxgSimulationController@physx@@UEAAXPEAVDeformableVolume@Dy@2@PEAVDeformableSurface@42@II@Z 00000001800a5bb0 f   PxgSimulationController.obj
 0001:000a4d60       ?addDynamic@PxgSimulationController@physx@@UEAAXPEAVPxsRigidBody@2@AEBVPxNodeIndex@2@@Z 00000001800a5d60 f   PxgSimulationController.obj
 0001:000a4d70       ?addDynamics@PxgSimulationController@physx@@UEAAXPEAPEAVPxsRigidBody@2@PEBII@Z 00000001800a5d70 f   PxgSimulationController.obj
 0001:000a4de0       ?addFEMCloth@PxgSimulationController@physx@@UEAAXPEAVDeformableSurface@Dy@2@AEBVPxNodeIndex@2@@Z 00000001800a5de0 f   PxgSimulationController.obj
 0001:000a4e20       ?addJoint@PxgSimulationController@physx@@UEAAXAEBUConstraint@Dy@2@@Z 00000001800a5e20 f   PxgSimulationController.obj
 0001:000a4e30       ?addParticleAttachment@PxgSimulationController@physx@@UEAAIPEAVDeformableVolume@Dy@2@PEBVParticleSystem@42@IIIAEBV?$PxVec4T@M@2@_N@Z 00000001800a5e30 f   PxgSimulationController.obj
 0001:000a4f90       ?addParticleFilter@PxgSimulationController@physx@@UEAAXPEAVDeformableVolume@Dy@2@PEAVParticleSystem@42@III@Z 00000001800a5f90 f   PxgSimulationController.obj
 0001:000a5010       ?addParticleSystem@PxgSimulationController@physx@@UEAAXPEAVParticleSystem@Dy@2@AEBVPxNodeIndex@2@@Z 00000001800a6010 f   PxgSimulationController.obj
 0001:000a50c0       ?addPxgShape@PxgSimulationController@physx@@UEAAXPEAVShapeSimBase@Sc@2@PEBUPxsShapeCore@2@VPxNodeIndex@2@I@Z 00000001800a60c0 f   PxgSimulationController.obj
 0001:000a50e0       ?addRigidAttachment@PxgSimulationController@physx@@UEAAIPEAVDeformableSurface@Dy@2@AEBVPxNodeIndex@2@PEAVPxsRigidBody@2@1IAEBV?$PxVec3T@M@2@PEAUPxConeLimitedConstraint@2@_N@Z 00000001800a60e0 f   PxgSimulationController.obj
 0001:000a51b0       ?addRigidAttachment@PxgSimulationController@physx@@UEAAIPEAVDeformableVolume@Dy@2@AEBVPxNodeIndex@2@PEAVPxsRigidBody@2@1IAEBV?$PxVec3T@M@2@PEAUPxConeLimitedConstraint@2@_N_N@Z 00000001800a61b0 f   PxgSimulationController.obj
 0001:000a52c0       ?addRigidAttachmentInternal@PxgSimulationController@physx@@QEAAIII_NAEBV?$PxVec4T@M@2@PEAVPxsRigidBody@2@AEBVPxNodeIndex@2@AEBV?$PxVec3T@M@2@PEAUPxConeLimitedConstraint@2@AEAV?$AttachmentManager@VPxgFEMRigidAttachment@physx@@@2@_N@Z 00000001800a62c0 f   PxgSimulationController.obj
 0001:000a55f0       ?addRigidFilter@PxgSimulationController@physx@@UEAAXPEAVDeformableVolume@Dy@2@AEBVPxNodeIndex@2@I@Z 00000001800a65f0 f   PxgSimulationController.obj
 0001:000a5880       ?addSoftBody@PxgSimulationController@physx@@UEAAXPEAVDeformableVolume@Dy@2@AEBVPxNodeIndex@2@@Z 00000001800a6880 f   PxgSimulationController.obj
 0001:000a58c0       ?addSoftBodyAttachment@PxgSimulationController@physx@@UEAAIPEAVDeformableVolume@Dy@2@0IIAEBV?$PxVec4T@M@2@1PEAUPxConeLimitedConstraint@2@M_N_N@Z 00000001800a68c0 f   PxgSimulationController.obj
 0001:000a5c00       ?addSoftBodyFilter@PxgSimulationController@physx@@UEAAXPEAVDeformableVolume@Dy@2@0II@Z 00000001800a6c00 f   PxgSimulationController.obj
 0001:000a5f50       ?addSoftBodyFilters@PxgSimulationController@physx@@UEAAXPEAVDeformableVolume@Dy@2@0PEAI1I@Z 00000001800a6f50 f   PxgSimulationController.obj
 0001:000a6160       ?addSoftBodyFiltersInternal@PxgSimulationController@physx@@QEAAXPEAVDeformableVolume@Dy@2@0PEAII@Z 00000001800a7160 f   PxgSimulationController.obj
 0001:000a65d0       ?addTetRigidAttachment@PxgSimulationController@physx@@UEAAIPEAVDeformableVolume@Dy@2@PEAVPxsRigidBody@2@AEBVPxNodeIndex@2@IAEBV?$PxVec4T@M@2@AEBV?$PxVec3T@M@2@PEAUPxConeLimitedConstraint@2@_N_N@Z 00000001800a75d0 f   PxgSimulationController.obj
 0001:000a6700       ?addTetRigidFilter@PxgSimulationController@physx@@UEAAXPEAVDeformableVolume@Dy@2@AEBVPxNodeIndex@2@I@Z 00000001800a7700 f   PxgSimulationController.obj
 0001:000a6770       ?addTriClothAttachment@PxgSimulationController@physx@@UEAAIPEAVDeformableSurface@Dy@2@0IIAEBV?$PxVec4T@M@2@1_N@Z 00000001800a7770 f   PxgSimulationController.obj
 0001:000a68c0       ?addTriRigidAttachment@PxgSimulationController@physx@@UEAAIPEAVDeformableSurface@Dy@2@PEAVPxsRigidBody@2@AEBVPxNodeIndex@2@IAEBV?$PxVec4T@M@2@AEBV?$PxVec3T@M@2@PEAUPxConeLimitedConstraint@2@_N@Z 00000001800a78c0 f   PxgSimulationController.obj
 0001:000a6990       ?addTriRigidFilter@PxgSimulationController@physx@@UEAAXPEAVDeformableSurface@Dy@2@AEBVPxNodeIndex@2@I@Z 00000001800a7990 f   PxgSimulationController.obj
 0001:000a6ac0       ?applyParticleBufferDataDEPRECATED@PxgSimulationController@physx@@UEAAXPEBIPEBUPxGpuParticleBufferIndexPair@2@PEBV?$PxFlags@W4Enum@PxParticleBufferFlag@physx@@I@2@IPEAUCUevent_st@@3@Z 00000001800a7ac0 f   PxgSimulationController.obj
 0001:000a6b60       ?applySoftBodyDataDEPRECATED@PxgSimulationController@physx@@UEAAXPEAPEAXPEAX1W4Enum@PxSoftBodyGpuDataFlag@2@IIPEAUCUevent_st@@3@Z 00000001800a7b60 f   PxgSimulationController.obj
 0001:000a6c20       ?clear@PxgSimulationController@physx@@UEAAXXZ 00000001800a7c20 f i PxgSimulationController.obj
 0001:000a6c30       ?computeArticulationData@PxgSimulationController@physx@@UEAA_NPEAXPEBIW4Enum@PxArticulationGPUAPIComputeType@2@IPEAUCUevent_st@@3@Z 00000001800a7c30 f   PxgSimulationController.obj
 0001:000a6c90       ?copy@?$PxArray@UPxgArticulationLink@physx@@VPxVirtualAllocator@2@@physx@@KAXPEAUPxgArticulationLink@2@0PEBU32@@Z 00000001800a7c90 f i PxgSimulationController.obj
 0001:000a70b0       ?copy@?$PxArray@UPxgBodySim@physx@@VPxVirtualAllocator@2@@physx@@KAXPEAUPxgBodySim@2@0PEBU32@@Z 00000001800a80b0 f i PxgSimulationController.obj
 0001:000a75b0       ?copyBoundsAndTransforms@PxgSimulationController@physx@@AEAAXAEAVBoundsArray@Bp@2@AEAVPxsTransformCache@2@AEAVPxgCudaBuffer@2@IIPEAUCUstream_st@@@Z 00000001800a85b0 f   PxgSimulationController.obj
 0001:000a76e0       ?copyContactData@PxgSimulationController@physx@@UEAA_NPEAXPEAIIPEAUCUevent_st@@2@Z 00000001800a86e0 f   PxgSimulationController.obj
 0001:000a7780       ?copySoftBodyDataDEPRECATED@PxgSimulationController@physx@@UEAAXPEAPEAXPEAX1W4Enum@PxSoftBodyGpuDataFlag@2@IIPEAUCUevent_st@@@Z 00000001800a8780 f   PxgSimulationController.obj
 0001:000a7820       ?copyToGpuArticulationSim@PxgSimulationController@physx@@AEAAXIIIPEAH0000000@Z 00000001800a8820 f   PxgSimulationController.obj
 0001:000a8c30       ?copyToGpuBodySim@PxgSimulationController@physx@@AEAAXIII@Z 00000001800a9c30 f   PxgSimulationController.obj
 0001:000a9050       ?copyToGpuBodySim@PxgSimulationController@physx@@AEAAXPEAVPxBaseTask@2@@Z 00000001800aa050 f   PxgSimulationController.obj
 0001:000a9ec0       ?copyToGpuFEMCloth@PxgSimulationController@physx@@AEAAXPEAVPxBaseTask@2@@Z 00000001800aaec0 f   PxgSimulationController.obj
 0001:000aa160       ?copyToGpuFEMClothSim@PxgSimulationController@physx@@AEAAXII@Z 00000001800ab160 f   PxgSimulationController.obj
 0001:000aa9e0       ?copyToGpuPBDParticleSystemSim@PxgSimulationController@physx@@AEAAXII@Z 00000001800ab9e0 f   PxgSimulationController.obj
 0001:000aac10       ?copyToGpuParticleSystem@PxgSimulationController@physx@@AEAAXPEAVPxBaseTask@2@@Z 00000001800abc10 f   PxgSimulationController.obj
 0001:000aae70       ?copyToGpuSoftBody@PxgSimulationController@physx@@AEAAXPEAVPxBaseTask@2@@Z 00000001800abe70 f   PxgSimulationController.obj
 0001:000ab110       ?copyToGpuSoftBodySim@PxgSimulationController@physx@@AEAAXII@Z 00000001800ac110 f   PxgSimulationController.obj
 0001:000ab810       ?createDeformableSurfaceCore@PxgSimulationController@physx@@QEAAXXZ 00000001800ac810 f   PxgSimulationController.obj
 0001:000ab8d0       ?createDeformableVolumeCore@PxgSimulationController@physx@@QEAAXXZ 00000001800ac8d0 f   PxgSimulationController.obj
 0001:000ab990       ?createPxgSimulationController@physx@@YAXXZ 00000001800ac990 f   PxgSimulationController.obj
 0001:000ab9b0       ?deactivateAttachment@?$AttachmentManager@VPxgFEMRigidAttachment@physx@@@physx@@QEAAXI@Z 00000001800ac9b0 f i PxgSimulationController.obj
 0001:000ab9b0       ?deactivateAttachment@?$AttachmentManager@VPxgFEMFEMAttachment@physx@@@physx@@QEAAXI@Z 00000001800ac9b0 f i PxgSimulationController.obj
 0001:000aba60       ?deactivateCloth@PxgSimulationController@physx@@UEAAXPEAVDeformableSurface@Dy@2@@Z 00000001800aca60 f   PxgSimulationController.obj
 0001:000abc40       ?deactivateSoftbody@PxgSimulationController@physx@@UEAAXPEAVDeformableVolume@Dy@2@@Z 00000001800acc40 f   PxgSimulationController.obj
 0001:000abf80       ?deactivateSoftbodySelfCollision@PxgSimulationController@physx@@UEAAXPEAVDeformableVolume@Dy@2@@Z 00000001800acf80 f   PxgSimulationController.obj
 0001:000abf90       ?evaluateSDFDistances@PxgSimulationController@physx@@UEAA_NPEAV?$PxVec4T@M@2@PEBIPEBV32@1IIPEAUCUevent_st@@3@Z 00000001800acf90 f   PxgSimulationController.obj
 0001:000abfb0       ?getActivatedDeformableSurfaces@PxgSimulationController@physx@@UEBAPEAPEAVDeformableSurface@Dy@2@XZ 00000001800acfb0 f   PxgSimulationController.obj
 0001:000abfc0       ?getActivatedDeformableVolumes@PxgSimulationController@physx@@UEBAPEAPEAVDeformableVolume@Dy@2@XZ 00000001800acfc0 f   PxgSimulationController.obj
 0001:000abfd0       ?getActiveBodies@PxgSimulationController@physx@@UEAAPEAIXZ 00000001800acfd0 f   PxgSimulationController.obj
 0001:000abfe0       ?getArticulationData@PxgSimulationController@physx@@UEBA_NPEAXPEBIW4Enum@PxArticulationGPUAPIReadType@2@IPEAUCUevent_st@@3@Z 00000001800acfe0 f   PxgSimulationController.obj
 0001:000ac040       ?getArticulationGPUAPIMaxCounts@PxgSimulationController@physx@@UEBA?AUPxArticulationGPUAPIMaxCounts@2@XZ 00000001800ad040 f   PxgSimulationController.obj
 0001:000ac080       ?getArticulationGPUAPIMaxCounts@PxsSimulationController@physx@@UEBA?AUPxArticulationGPUAPIMaxCounts@2@XZ 00000001800ad080 f i PxgSimulationController.obj
 0001:000ac0a0       ?getArticulationRemapIndex@PxgSimulationController@physx@@UEAAII@Z 00000001800ad0a0 f i PxgSimulationController.obj
 0001:000ac130       ?getD6JointData@PxgSimulationController@physx@@UEBA_NPEAXPEBIW4Enum@PxD6JointGPUAPIReadType@2@IMPEAUCUevent_st@@3@Z 00000001800ad130 f   PxgSimulationController.obj
 0001:000ac190       ?getDeactivatedDeformableSurfaces@PxgSimulationController@physx@@UEBAPEAPEAVDeformableSurface@Dy@2@XZ 00000001800ad190 f   PxgSimulationController.obj
 0001:000ac1a0       ?getDeactivatedDeformableVolumes@PxgSimulationController@physx@@UEBAPEAPEAVDeformableVolume@Dy@2@XZ 00000001800ad1a0 f   PxgSimulationController.obj
 0001:000ac1b0       ?getDeactiveBodies@PxgSimulationController@physx@@UEAAPEAIXZ 00000001800ad1b0 f   PxgSimulationController.obj
 0001:000ac1c0       ?getDeformableVolumeWakeCounters@PxgSimulationController@physx@@UEBAPEBMXZ 00000001800ad1c0 f   PxgSimulationController.obj
 0001:000ac1d0       ?getEnableOVDCollisionReadback@PxgSimulationController@physx@@UEBA_NXZ 00000001800ad1d0 f   PxgSimulationController.obj
 0001:000ac1e0       ?getEnableOVDReadback@PxgSimulationController@physx@@UEBA_NXZ 00000001800ad1e0 f   PxgSimulationController.obj
 0001:000ac1f0       ?getFrozenShapes@PxgSimulationController@physx@@UEAAPEAIXZ 00000001800ad1f0 f   PxgSimulationController.obj
 0001:000ac200       ?getInternalShapeIndex@PxgSimulationController@physx@@UEAAIAEBUPxsShapeCore@2@@Z 00000001800ad200 f   PxgSimulationController.obj
 0001:000ac220       ?getName@PxgCopyToArticulationSimTask@physx@@UEBAPEBDXZ 00000001800ad220 f i PxgSimulationController.obj
 0001:000ac230       ?getName@PxgCopyToBodySimTask@physx@@UEBAPEBDXZ 00000001800ad230 f i PxgSimulationController.obj
 0001:000ac240       ?getName@PxgCopyToFEMClothSimTask@physx@@UEBAPEBDXZ 00000001800ad240 f i PxgSimulationController.obj
 0001:000ac250       ?getName@PxgCopyToPBDParticleSystemSimTask@physx@@UEBAPEBDXZ 00000001800ad250 f i PxgSimulationController.obj
 0001:000ac260       ?getName@PxgCopyToSoftBodySimTask@physx@@UEBAPEBDXZ 00000001800ad260 f i PxgSimulationController.obj
 0001:000ac270       ?getName@PxgPostCopyToBodySimTask@physx@@UEBAPEBDXZ 00000001800ad270 f i PxgSimulationController.obj
 0001:000ac280       ?getName@PxgPostCopyToShapeSimTask@physx@@UEBAPEBDXZ 00000001800ad280 f i PxgSimulationController.obj
 0001:000ac290       ?getName@PxgPostUpdateParticleAndSoftBodyTask@physx@@UEBAPEBDXZ 00000001800ad290 f i PxgSimulationController.obj
 0001:000ac2a0       ?getName@PxgUpdateArticulationSimTask@physx@@UEBAPEBDXZ 00000001800ad2a0 f i PxgSimulationController.obj
 0001:000ac2b0       ?getNbActivatedDeformableSurfaces@PxgSimulationController@physx@@UEBAIXZ 00000001800ad2b0 f   PxgSimulationController.obj
 0001:000ac2c0       ?getNbActivatedDeformableVolumes@PxgSimulationController@physx@@UEBAIXZ 00000001800ad2c0 f   PxgSimulationController.obj
 0001:000ac2d0       ?getNbBodies@PxgSimulationController@physx@@UEAAIXZ 00000001800ad2d0 f   PxgSimulationController.obj
 0001:000ac2e0       ?getNbDeactivatedDeformableSurfaces@PxgSimulationController@physx@@UEBAIXZ 00000001800ad2e0 f   PxgSimulationController.obj
 0001:000ac2f0       ?getNbDeactivatedDeformableVolumes@PxgSimulationController@physx@@UEBAIXZ 00000001800ad2f0 f   PxgSimulationController.obj
 0001:000ac300       ?getNbFrozenShapes@PxgSimulationController@physx@@UEAAIXZ 00000001800ad300 f   PxgSimulationController.obj
 0001:000ac310       ?getNbShapes@PxgSimulationController@physx@@UEAAIXZ 00000001800ad310 f   PxgSimulationController.obj
 0001:000ac320       ?getNbUnfrozenShapes@PxgSimulationController@physx@@UEAAIXZ 00000001800ad320 f   PxgSimulationController.obj
 0001:000ac330       ?getRigidBodies@PxgSimulationController@physx@@UEAAPEAPEAXXZ 00000001800ad330 f   PxgSimulationController.obj
 0001:000ac340       ?getRigidDynamicData@PxgSimulationController@physx@@UEBA_NPEAXPEBIW4Enum@PxRigidDynamicGPUAPIReadType@2@IMPEAUCUevent_st@@3@Z 00000001800ad340 f   PxgSimulationController.obj
 0001:000ac350       ?getShapeSims@PxgSimulationController@physx@@UEAAPEAPEAVShapeSimBase@Sc@2@XZ 00000001800ad350 f   PxgSimulationController.obj
 0001:000ac360       ?getUnfrozenShapes@PxgSimulationController@physx@@UEAAPEAIXZ 00000001800ad360 f   PxgSimulationController.obj
 0001:000ac370       ?gpuDmabackData@PxgSimulationController@physx@@UEAAXAEAVPxsTransformCache@2@AEAVBoundsArray@Bp@2@AEAV?$PxBitMapBase@VPxVirtualAllocator@physx@@@2@_N@Z 00000001800ad370 f   PxgSimulationController.obj
 0001:000ac510       ?growAndPushBack@?$PxArray@VPxgFEMFEMAttachment@physx@@VPxVirtualAllocator@2@@physx@@IEAAAEAVPxgFEMFEMAttachment@2@AEBV32@@Z 00000001800ad510 f i PxgSimulationController.obj
 0001:000ac650       ?growAndPushBack@?$PxArray@VPxgFEMRigidAttachment@physx@@VPxVirtualAllocator@2@@physx@@IEAAAEAVPxgFEMRigidAttachment@2@AEBV32@@Z 00000001800ad650 f i PxgSimulationController.obj
 0001:000ac7a0       ?growAndPushBack@?$PxArray@VPxgNonRigidFilterPair@physx@@V?$PxReflectionAllocator@VPxgNonRigidFilterPair@physx@@@2@@physx@@IEAAAEAVPxgNonRigidFilterPair@2@AEBV32@@Z 00000001800ad7a0 f i PxgSimulationController.obj
 0001:000ac8c0       ?hasDeformableSurfaces@PxgSimulationController@physx@@UEBA_NXZ 00000001800ad8c0 f i PxgSimulationController.obj
 0001:000ac8d0       ?hasDeformableVolumes@PxgSimulationController@physx@@UEBA_NXZ 00000001800ad8d0 f i PxgSimulationController.obj
 0001:000ac8e0       ?mergeBoundsAndTransformsChanges@PxgSimulationController@physx@@AEAAXAEAVPxgBoundsArray@2@AEAVPxsTransformCache@2@AEAVPxgCudaBuffer@2@IIIPEAUCUstream_st@@@Z 00000001800ad8e0 f   PxgSimulationController.obj
 0001:000acb60       ?mergeChangedAABBMgHandle@PxgSimulationController@physx@@UEAAXXZ 00000001800adb60 f   PxgSimulationController.obj
 0001:000acba0       ?preIntegrateAndUpdateBound@PxgSimulationController@physx@@UEAAXPEAVPxBaseTask@2@V?$PxVec3T@M@2@M@Z 00000001800adba0 f   PxgSimulationController.obj
 0001:000acc60       ?preIntegrateAndUpdateBoundSoftBody@PxgSimulationController@physx@@QEAAXV?$PxVec3T@M@2@M@Z 00000001800adc60 f   PxgSimulationController.obj
 0001:000acf00       ?recreate@?$PxArray@UArticulationJointCore@Dy@physx@@VPxVirtualAllocator@3@@physx@@IEAAXI@Z 00000001800adf00 f i PxgSimulationController.obj
 0001:000ad1c0       ?recreate@?$PxArray@UPxgArticulationLink@physx@@VPxVirtualAllocator@2@@physx@@IEAAXI@Z 00000001800ae1c0 f i PxgSimulationController.obj
 0001:000ad260       ?recreate@?$PxArray@UPxgArticulationLinkProp@physx@@VPxVirtualAllocator@2@@physx@@IEAAXI@Z 00000001800ae260 f i PxgSimulationController.obj
 0001:000ad3d0       ?recreate@?$PxArray@UPxgBodySim@physx@@VPxVirtualAllocator@2@@physx@@IEAAXI@Z 00000001800ae3d0 f i PxgSimulationController.obj
 0001:000ad460       ?recreate@?$PxArray@UUnAlignedSpatialVector@Cm@physx@@VPxVirtualAllocator@3@@physx@@IEAAXI@Z 00000001800ae460 f i PxgSimulationController.obj
 0001:000ad610       ?recreate@?$PxArray@V?$PxTransformT@M@physx@@VPxVirtualAllocator@2@@physx@@IEAAXI@Z 00000001800ae610 f i PxgSimulationController.obj
 0001:000ad7f0       ?recreate@?$PxArray@VPxgRigidFilterPair@physx@@VPxVirtualAllocator@2@@physx@@IEAAXI@Z 00000001800ae7f0 f i PxgSimulationController.obj
 0001:000ad7f0       ?recreate@?$PxArray@VPxGpuFixedTendonData@physx@@VPxVirtualAllocator@2@@physx@@IEAAXI@Z 00000001800ae7f0 f i PxgSimulationController.obj
 0001:000ad8a0       ?recreate@?$PxArray@VPxGpuTendonAttachmentData@physx@@VPxVirtualAllocator@2@@physx@@IEAAXI@Z 00000001800ae8a0 f i PxgSimulationController.obj
 0001:000adac0       ?recreate@?$PxArray@VPxgArticulation@physx@@VPxVirtualAllocator@2@@physx@@IEAAXI@Z 00000001800aeac0 f i PxgSimulationController.obj
 0001:000adbe0       ?recreate@?$PxArray@UPartitionNodeData@physx@@VPxVirtualAllocator@2@@physx@@IEAAXI@Z 00000001800aebe0 f i PxgConstraintPartition.obj
 0001:000adbe0       ?recreate@?$PxArray@VPxgArticulationTendon@physx@@VPxVirtualAllocator@2@@physx@@IEAAXI@Z 00000001800aebe0 f i PxgSimulationController.obj
 0001:000adc90       ?recreate@?$PxArray@VPxgArticulationTendonElementFixedData@physx@@VPxVirtualAllocator@2@@physx@@IEAAXI@Z 00000001800aec90 f i PxgSimulationController.obj
 0001:000adc90       ?recreate@?$PxArray@UVolumeData@Bp@physx@@VPxVirtualAllocator@3@@physx@@IEAAXI@Z 00000001800aec90 f i BpAABBManagerBase.obj
 0001:000add40       ?recreate@?$PxArray@VPxgNonRigidFilterPair@physx@@V?$PxReflectionAllocator@VPxgNonRigidFilterPair@physx@@@2@@physx@@IEAAXI@Z 00000001800aed40 f i PxgSimulationController.obj
 0001:000ade30       ?recreate@?$PxArray@VPxgParticleSystem@physx@@VPxVirtualAllocator@2@@physx@@IEAAXI@Z 00000001800aee30 f i PxgSimulationController.obj
 0001:000adf00       ?releaseArticulation@PxgSimulationController@physx@@UEAAXPEAVFeatherstoneArticulation@Dy@2@AEBVPxNodeIndex@2@@Z 00000001800aef00 f   PxgSimulationController.obj
 0001:000adf10       ?releaseDeferredArticulationIds@PxgSimulationController@physx@@UEAAXXZ 00000001800aef10 f   PxgSimulationController.obj
 0001:000adf20       ?releaseDeferredFEMClothIds@PxgSimulationController@physx@@UEAAXXZ 00000001800aef20 f   PxgSimulationController.obj
 0001:000adf30       ?releaseDeferredParticleSystemIds@PxgSimulationController@physx@@UEAAXXZ 00000001800aef30 f   PxgSimulationController.obj
 0001:000adf40       ?releaseDeferredSoftBodyIds@PxgSimulationController@physx@@UEAAXXZ 00000001800aef40 f   PxgSimulationController.obj
 0001:000adf50       ?releaseFEMCloth@PxgSimulationController@physx@@UEAAXPEAVDeformableSurface@Dy@2@@Z 00000001800aef50 f   PxgSimulationController.obj
 0001:000adf60       ?releaseParticleSystem@PxgSimulationController@physx@@UEAAXPEAVParticleSystem@Dy@2@@Z 00000001800aef60 f   PxgSimulationController.obj
 0001:000adf70       ?releaseSoftBody@PxgSimulationController@physx@@UEAAXPEAVDeformableVolume@Dy@2@@Z 00000001800aef70 f   PxgSimulationController.obj
 0001:000adf80       ?removeAttachment@?$AttachmentManager@VPxgFEMFEMAttachment@physx@@@physx@@QEAA_NI@Z 00000001800aef80 f i PxgSimulationController.obj
 0001:000ae110       ?removeAttachment@?$AttachmentManager@VPxgFEMRigidAttachment@physx@@@physx@@QEAA_NI@Z 00000001800af110 f i PxgSimulationController.obj
 0001:000ae2b0       ?removeClothAttachment@PxgSimulationController@physx@@UEAAXPEAVDeformableVolume@Dy@2@I@Z 00000001800af2b0 f   PxgSimulationController.obj
 0001:000ae320       ?removeClothFilter@PxgSimulationController@physx@@UEAAXPEAVDeformableSurface@Dy@2@0II@Z 00000001800af320 f   PxgSimulationController.obj
 0001:000ae5c0       ?removeClothFilter@PxgSimulationController@physx@@UEAAXPEAVDeformableVolume@Dy@2@PEAVDeformableSurface@42@II@Z 00000001800af5c0 f   PxgSimulationController.obj
 0001:000ae780       ?removeParticleAttachment@PxgSimulationController@physx@@UEAAXPEAVDeformableVolume@Dy@2@I@Z 00000001800af780 f   PxgSimulationController.obj
 0001:000ae7f0       ?removeParticleFilter@PxgSimulationController@physx@@UEAAXPEAVDeformableVolume@Dy@2@PEBVParticleSystem@42@III@Z 00000001800af7f0 f   PxgSimulationController.obj
 0001:000ae880       ?removePxgShape@PxgSimulationController@physx@@UEAAXI@Z 00000001800af880 f   PxgSimulationController.obj
 0001:000ae8a0       ?removeTriRigidAttachment@PxgSimulationController@physx@@UEAAXPEAVDeformableSurface@Dy@2@I@Z 00000001800af8a0 f   PxgSimulationController.obj
 0001:000ae8a0       ?removeRigidAttachment@PxgSimulationController@physx@@UEAAXPEAVDeformableSurface@Dy@2@I@Z 00000001800af8a0 f   PxgSimulationController.obj
 0001:000ae910       ?removeRigidAttachment@PxgSimulationController@physx@@UEAAXPEAVDeformableVolume@Dy@2@I@Z 00000001800af910 f   PxgSimulationController.obj
 0001:000ae980       ?removeRigidFilter@PxgSimulationController@physx@@UEAAXPEAVDeformableVolume@Dy@2@AEBVPxNodeIndex@2@I@Z 00000001800af980 f   PxgSimulationController.obj
 0001:000aea80       ?removeSoftBodyAttachment@PxgSimulationController@physx@@UEAAXPEAVDeformableVolume@Dy@2@I@Z 00000001800afa80 f   PxgSimulationController.obj
 0001:000aeaf0       ?removeSoftBodyFilter@PxgSimulationController@physx@@UEAAXPEAVDeformableVolume@Dy@2@0II@Z 00000001800afaf0 f   PxgSimulationController.obj
 0001:000aed90       ?removeSoftBodyFilters@PxgSimulationController@physx@@UEAAXPEAVDeformableVolume@Dy@2@0PEAI1I@Z 00000001800afd90 f   PxgSimulationController.obj
 0001:000aefa0       ?removeSoftBodyFiltersInternal@PxgSimulationController@physx@@QEAAXPEAVDeformableVolume@Dy@2@0PEAII@Z 00000001800affa0 f   PxgSimulationController.obj
 0001:000af3b0       ?removeTetRigidFilter@PxgSimulationController@physx@@UEAAXPEAVDeformableVolume@Dy@2@AEBVPxNodeIndex@2@I@Z 00000001800b03b0 f   PxgSimulationController.obj
 0001:000af430       ?removeTriClothAttachment@PxgSimulationController@physx@@UEAAXPEAVDeformableSurface@Dy@2@I@Z 00000001800b0430 f   PxgSimulationController.obj
 0001:000af4a0       ?removeTriRigidFilter@PxgSimulationController@physx@@UEAAXPEAVDeformableSurface@Dy@2@AEBVPxNodeIndex@2@I@Z 00000001800b04a0 f   PxgSimulationController.obj
 0001:000af5f0       ?reserve@PxgSimulationController@physx@@UEAAXI@Z 00000001800b05f0 f   PxgSimulationController.obj
 0001:000af650       ?runInternal@PxgCopyToArticulationSimTask@physx@@UEAAXXZ 00000001800b0650 f   PxgSimulationController.obj
 0001:000af6b0       ?runInternal@PxgCopyToBodySimTask@physx@@UEAAXXZ 00000001800b06b0 f   PxgSimulationController.obj
 0001:000af6d0       ?runInternal@PxgCopyToFEMClothSimTask@physx@@UEAAXXZ 00000001800b06d0 f   PxgSimulationController.obj
 0001:000af6e0       ?runInternal@PxgCopyToPBDParticleSystemSimTask@physx@@UEAAXXZ 00000001800b06e0 f   PxgSimulationController.obj
 0001:000af6f0       ?runInternal@PxgCopyToSoftBodySimTask@physx@@UEAAXXZ 00000001800b06f0 f   PxgSimulationController.obj
 0001:000af700       ?runInternal@PxgPostCopyToBodySimTask@physx@@UEAAXXZ 00000001800b0700 f   PxgSimulationController.obj
 0001:000af9b0       ?runInternal@PxgPostCopyToShapeSimTask@physx@@UEAAXXZ 00000001800b09b0 f   PxgSimulationController.obj
 0001:000afa00       ?runInternal@PxgPostUpdateParticleAndSoftBodyTask@physx@@UEAAXXZ 00000001800b0a00 f   PxgSimulationController.obj
 0001:000afd60       ?runInternal@PxgUpdateArticulationSimTask@physx@@UEAAXXZ 00000001800b0d60 f   PxgSimulationController.obj
 0001:000afdc0       ?setArticulationData@PxgSimulationController@physx@@UEAA_NPEBXPEBIW4Enum@PxArticulationGPUAPIWriteType@2@IPEAUCUevent_st@@3@Z 00000001800b0dc0 f   PxgSimulationController.obj
 0001:000afe40       ?setBounds@PxgSimulationController@physx@@UEAAXPEAVBoundsArray@Bp@2@@Z 00000001800b0e40 f   PxgSimulationController.obj
 0001:000afe50       ?setClothWakeCounter@PxgSimulationController@physx@@UEAAXPEAVDeformableSurface@Dy@2@@Z 00000001800b0e50 f   PxgSimulationController.obj
 0001:000afec0       ?setDeformableSurfaceGpuPostSolveCallback@PxgSimulationController@physx@@UEAAXPEAVPxPostSolveCallback@2@@Z 00000001800b0ec0 f   PxgSimulationController.obj
 0001:000aff00       ?setDeformableVolumeGpuPostSolveCallback@PxgSimulationController@physx@@UEAAXPEAVPxPostSolveCallback@2@@Z 00000001800b0f00 f   PxgSimulationController.obj
 0001:000aff40       ?setEnableOVDCollisionReadback@PxgSimulationController@physx@@UEAAX_N@Z 00000001800b0f40 f   PxgSimulationController.obj
 0001:000aff50       ?setEnableOVDReadback@PxgSimulationController@physx@@UEAAX_N@Z 00000001800b0f50 f   PxgSimulationController.obj
 0001:000aff60       ?setPxgShapeBodyNodeIndex@PxgSimulationController@physx@@UEAAXVPxNodeIndex@2@I@Z 00000001800b0f60 f   PxgSimulationController.obj
 0001:000aff80       ?setRigidDynamicData@PxgSimulationController@physx@@UEAA_NPEBXPEBIW4Enum@PxRigidDynamicGPUAPIWriteType@2@IPEAUCUevent_st@@3@Z 00000001800b0f80 f   PxgSimulationController.obj
 0001:000aff90       ?setSoftBodyWakeCounter@PxgSimulationController@physx@@UEAAXPEAVDeformableVolume@Dy@2@@Z 00000001800b0f90 f   PxgSimulationController.obj
 0001:000b0000       ?sortContacts@PxgSimulationController@physx@@UEAAXXZ 00000001800b1000 f   PxgSimulationController.obj
 0001:000b0090       ?syncParticleData@PxgSimulationController@physx@@UEAAXXZ 00000001800b1090 f   PxgSimulationController.obj
 0001:000b01a0       ?update@PxgSimulationController@physx@@UEAAXAEAV?$PxBitMapBase@VPxVirtualAllocator@physx@@@2@@Z 00000001800b11a0 f   PxgSimulationController.obj
 0001:000b0230       ?updateArticulation@PxgSimulationController@physx@@UEAAXPEAVFeatherstoneArticulation@Dy@2@AEBVPxNodeIndex@2@@Z 00000001800b1230 f   PxgSimulationController.obj
 0001:000b0240       ?updateArticulationExtAccel@PxgSimulationController@physx@@UEAAXPEAVFeatherstoneArticulation@Dy@2@AEBVPxNodeIndex@2@@Z 00000001800b1240 f   PxgSimulationController.obj
 0001:000b0260       ?updateArticulationJoint@PxgSimulationController@physx@@UEAAXPEAVFeatherstoneArticulation@Dy@2@AEBVPxNodeIndex@2@@Z 00000001800b1260 f   PxgSimulationController.obj
 0001:000b0280       ?updateBodies@PxgSimulationController@physx@@UEAAXPEAPEAVPxsRigidBody@2@PEAIIPEAUPxsExternalAccelerationProvider@2@@Z 00000001800b1280 f   PxgSimulationController.obj
 0001:000b0290       ?updateBodies@PxgSimulationController@physx@@UEAAXPEAVPxBaseTask@2@@Z 00000001800b1290 f   PxgSimulationController.obj
 0001:000b02f0       ?updateBoundsAndShapes@PxgSimulationController@physx@@UEAAXAEAVAABBManagerBase@Bp@2@_N@Z 00000001800b12f0 f   PxgSimulationController.obj
 0001:000b04a0       ?updateDynamic@PxgSimulationController@physx@@UEAAXPEAVFeatherstoneArticulation@Dy@2@AEBVPxNodeIndex@2@@Z 00000001800b14a0 f   PxgSimulationController.obj
 0001:000b04d0       ?updateGpuArticulationSim@PxgSimulationController@physx@@AEAAXIIPEAH000000@Z 00000001800b14d0 f   PxgSimulationController.obj
 0001:000b1e50       ?updateJoint@PxgSimulationController@physx@@UEAAXIPEAUConstraint@Dy@2@@Z 00000001800b2e50 f   PxgSimulationController.obj
 0001:000b1e60       ?updateJointsAndSyncData@PxgSimulationController@physx@@QEAAXXZ 00000001800b2e60 f   PxgSimulationController.obj
 0001:000b1f50       ?updateParticleSystemsAndSoftBodies@PxgSimulationController@physx@@UEAAXXZ 00000001800b2f50 f   PxgSimulationController.obj
 0001:000b1ff0       ?updateScBodyAndShapeSim@PxgSimulationController@physx@@UEAAXAEAVPxsTransformCache@2@AEAVBoundsArray@Bp@2@PEAVPxBaseTask@2@@Z 00000001800b2ff0 f   PxgSimulationController.obj
 0001:000b20f0       ?updateShapes@PxgSimulationController@physx@@UEAAXPEAVPxBaseTask@2@@Z 00000001800b30f0 f   PxgSimulationController.obj
 0001:000b2180       ??0?$PxgParticleBufferBase@VPxsParticleClothBuffer@physx@@@physx@@QEAA@IIAEAVPxCudaContextManager@1@@Z 00000001800b3180 f i PxgParticleSystemCore.obj
 0001:000b2180       ??0?$PxgParticleBufferBase@VPxsParticleAndDiffuseBuffer@physx@@@physx@@QEAA@IIAEAVPxCudaContextManager@1@@Z 00000001800b3180 f i PxgParticleSystemCore.obj
 0001:000b2330       ??0?$PxgParticleBufferBase@VPxsParticleBuffer@physx@@@physx@@QEAA@IIAEAVPxCudaContextManager@1@@Z 00000001800b3330 f i PxgParticleSystemCore.obj
 0001:000b24e0       ??0?$PxgParticleBufferBase@VPxsParticleRigidBuffer@physx@@@physx@@QEAA@IIAEAVPxCudaContextManager@1@@Z 00000001800b34e0 f i PxgParticleSystemCore.obj
 0001:000b2690       ??0PxgDiffuseParticleCore@physx@@QEAA@PEAVPxgEssentialCore@1@@Z 00000001800b3690 f   PxgParticleSystemCore.obj
 0001:000b26d0       ??0PxgParticleAndDiffuseBuffer@physx@@QEAA@IIIAEAVPxCudaContextManager@1@@Z 00000001800b36d0 f   PxgParticleSystemCore.obj
 0001:000b2910       ??0PxgParticleBuffer@physx@@QEAA@IIAEAVPxCudaContextManager@1@@Z 00000001800b3910 f   PxgParticleSystemCore.obj
 0001:000b2940       ??0PxgParticleClothBuffer@physx@@QEAA@IIIIIAEAVPxCudaContextManager@1@@Z 00000001800b3940 f   PxgParticleSystemCore.obj
 0001:000b2ab0       ??0PxgParticleRigidBuffer@physx@@QEAA@IIIAEAVPxCudaContextManager@1@@Z 00000001800b3ab0 f   PxgParticleSystemCore.obj
 0001:000b2ce0       ??0PxgParticleSystemCore@physx@@QEAA@PEAVPxgCudaKernelWranglerManager@1@PEAVPxCudaContextManager@1@PEAVPxgHeapMemoryAllocatorManager@1@PEAVPxgSimulationController@1@PEAVPxgGpuContext@1@I@Z 00000001800b3ce0 f   PxgParticleSystemCore.obj
 0001:000b3550       ??1?$PxgParticleBufferBase@VPxsParticleAndDiffuseBuffer@physx@@@physx@@UEAA@XZ 00000001800b4550 f i PxgParticleSystemCore.obj
 0001:000b3550       ??1?$PxgParticleBufferBase@VPxsParticleClothBuffer@physx@@@physx@@UEAA@XZ 00000001800b4550 f i PxgParticleSystemCore.obj
 0001:000b3730       ??1?$PxgParticleBufferBase@VPxsParticleBuffer@physx@@@physx@@UEAA@XZ 00000001800b4730 f i PxgParticleSystemCore.obj
 0001:000b3910       ??1?$PxgParticleBufferBase@VPxsParticleRigidBuffer@physx@@@physx@@UEAA@XZ 00000001800b4910 f i PxgParticleSystemCore.obj
 0001:000b3af0       ??1PxgDiffuseParticleCore@physx@@UEAA@XZ 00000001800b4af0 f   PxgParticleSystemCore.obj
 0001:000b3b50       ??1PxgParticleClothBuffer@physx@@UEAA@XZ 00000001800b4b50 f   PxgParticleSystemCore.obj
 0001:000b3e70       ??1PxgParticleRigidBuffer@physx@@UEAA@XZ 00000001800b4e70 f   PxgParticleSystemCore.obj
 0001:000b4020       ??1PxgParticleSystemBuffer@physx@@QEAA@XZ 00000001800b5020 f i PxgParticleSystemCore.obj
 0001:000b43f0       ??1PxgParticleSystemCore@physx@@UEAA@XZ 00000001800b53f0 f   PxgParticleSystemCore.obj
 0001:000b4790       ??_G?$PxgParticleBufferBase@VPxsParticleClothBuffer@physx@@@physx@@UEAAPEAXI@Z 00000001800b5790 f i PxgParticleSystemCore.obj
 0001:000b4790       ??_E?$PxgParticleBufferBase@VPxsParticleClothBuffer@physx@@@physx@@UEAAPEAXI@Z 00000001800b5790 f i PxgParticleSystemCore.obj
 0001:000b4790       ??_G?$PxgParticleBufferBase@VPxsParticleAndDiffuseBuffer@physx@@@physx@@UEAAPEAXI@Z 00000001800b5790 f i PxgParticleSystemCore.obj
 0001:000b4790       ??_E?$PxgParticleBufferBase@VPxsParticleAndDiffuseBuffer@physx@@@physx@@UEAAPEAXI@Z 00000001800b5790 f i PxgParticleSystemCore.obj
 0001:000b4800       ??_G?$PxgParticleBufferBase@VPxsParticleBuffer@physx@@@physx@@UEAAPEAXI@Z 00000001800b5800 f i PxgParticleSystemCore.obj
 0001:000b4800       ??_E?$PxgParticleBufferBase@VPxsParticleBuffer@physx@@@physx@@UEAAPEAXI@Z 00000001800b5800 f i PxgParticleSystemCore.obj
 0001:000b4870       ??_G?$PxgParticleBufferBase@VPxsParticleRigidBuffer@physx@@@physx@@UEAAPEAXI@Z 00000001800b5870 f i PxgParticleSystemCore.obj
 0001:000b4870       ??_E?$PxgParticleBufferBase@VPxsParticleRigidBuffer@physx@@@physx@@UEAAPEAXI@Z 00000001800b5870 f i PxgParticleSystemCore.obj
 0001:000b48e0       ??_GPxgDiffuseParticleCore@physx@@UEAAPEAXI@Z 00000001800b58e0 f i PxgParticleSystemCore.obj
 0001:000b48e0       ??_EPxgDiffuseParticleCore@physx@@UEAAPEAXI@Z 00000001800b58e0 f i PxgParticleSystemCore.obj
 0001:000b4960       ??_EPxgParticleAndDiffuseBuffer@physx@@UEAAPEAXI@Z 00000001800b5960 f i PxgParticleSystemCore.obj
 0001:000b4960       ??_GPxgParticleAndDiffuseBuffer@physx@@UEAAPEAXI@Z 00000001800b5960 f i PxgParticleSystemCore.obj
 0001:000b4ad0       ??_EPxgParticleBuffer@physx@@UEAAPEAXI@Z 00000001800b5ad0 f i PxgParticleSystemCore.obj
 0001:000b4ad0       ??_GPxgParticleBuffer@physx@@UEAAPEAXI@Z 00000001800b5ad0 f i PxgParticleSystemCore.obj
 0001:000b4b40       ??_EPxgParticleClothBuffer@physx@@UEAAPEAXI@Z 00000001800b5b40 f i PxgParticleSystemCore.obj
 0001:000b4b40       ??_GPxgParticleClothBuffer@physx@@UEAAPEAXI@Z 00000001800b5b40 f i PxgParticleSystemCore.obj
 0001:000b4bb0       ??_EPxgParticleRigidBuffer@physx@@UEAAPEAXI@Z 00000001800b5bb0 f i PxgParticleSystemCore.obj
 0001:000b4bb0       ??_GPxgParticleRigidBuffer@physx@@UEAAPEAXI@Z 00000001800b5bb0 f i PxgParticleSystemCore.obj
 0001:000b4c20       ??_GPxgParticleSystemCore@physx@@UEAAPEAXI@Z 00000001800b5c20 f i PxgParticleSystemCore.obj
 0001:000b4c20       ??_EPxgParticleSystemCore@physx@@UEAAPEAXI@Z 00000001800b5c20 f i PxgParticleSystemCore.obj
 0001:000b4c60       ??_EPxsParticleBuffer@physx@@MEAAPEAXI@Z 00000001800b5c60 f i PxgParticleSystemCore.obj
 0001:000b4c60       ??_GPxsParticleBuffer@physx@@MEAAPEAXI@Z 00000001800b5c60 f i PxgParticleSystemCore.obj
 0001:000b5020       ?accumulateRigidDeltas@PxgParticleSystemCore@physx@@IEAAX_K00000PEAUCUstream_st@@_N@Z 00000001800b6020 f   PxgParticleSystemCore.obj
 0001:000b52e0       ?allocHostBuffers@?$PxgParticleBufferBase@VPxsParticleClothBuffer@physx@@@physx@@UEAAXXZ 00000001800b62e0 f i PxgParticleSystemCore.obj
 0001:000b52e0       ?allocHostBuffers@?$PxgParticleBufferBase@VPxsParticleAndDiffuseBuffer@physx@@@physx@@UEAAXXZ 00000001800b62e0 f i PxgParticleSystemCore.obj
 0001:000b52e0       ?allocHostBuffers@?$PxgParticleBufferBase@VPxsParticleRigidBuffer@physx@@@physx@@UEAAXXZ 00000001800b62e0 f i PxgParticleSystemCore.obj
 0001:000b52e0       ?allocHostBuffers@?$PxgParticleBufferBase@VPxsParticleBuffer@physx@@@physx@@UEAAXXZ 00000001800b62e0 f i PxgParticleSystemCore.obj
 0001:000b5430       ?applyDeltas@PxgParticleSystemCore@physx@@IEAAX_K0IMPEAUCUstream_st@@@Z 00000001800b6430 f   PxgParticleSystemCore.obj
 0001:000b5550       ?calculateHash@PxgParticleSystemCore@physx@@IEAAX_K0I@Z 00000001800b6550 f   PxgParticleSystemCore.obj
 0001:000b5650       ?copyUnsortedArrayToUserBuffer@PxgParticleSystemCore@physx@@IEAAX_K0I@Z 00000001800b6650 f   PxgParticleSystemCore.obj
 0001:000b5760       ?copyUserBufferDataToHost@PxgParticleSystemCore@physx@@IEAAXPEAVPxgParticleSystem@2@PEAII@Z 00000001800b6760 f   PxgParticleSystemCore.obj
 0001:000b5950       ?copyUserBufferToUnsortedArray@PxgParticleSystemCore@physx@@IEAAX_K0IPEAUCUstream_st@@@Z 00000001800b6950 f   PxgParticleSystemCore.obj
 0001:000b5a40       ?copyUserDiffuseBufferToUnsortedArray@PxgParticleSystemCore@physx@@IEAAX_K0IPEAUCUstream_st@@@Z 00000001800b6a40 f   PxgParticleSystemCore.obj
 0001:000b5b30       ?getDiffuseParticleParams@PxgParticleAndDiffuseBuffer@physx@@UEBAAEBVPxDiffuseParticleParams@2@XZ 00000001800b6b30 f i PxgParticleSystemCore.obj
 0001:000b5b40       ?getRigidRotationsD@PxgParticleRigidBuffer@physx@@UEBAPEAV?$PxVec4T@M@2@XZ 00000001800b6b40 f i PxgParticleSystemCore.obj
 0001:000b5b40       ?getDiffusePositionLifeTimeD@PxgParticleAndDiffuseBuffer@physx@@UEBAPEAV?$PxVec4T@M@2@XZ 00000001800b6b40 f i PxgParticleSystemCore.obj
 0001:000b5b40       ?getSpringsD@PxgParticleClothBuffer@physx@@UEAAPEAUPxParticleSpring@2@XZ 00000001800b6b40 f i PxgParticleSystemCore.obj
 0001:000b5b50       ?getDiffuseVelocitiesD@PxgParticleAndDiffuseBuffer@physx@@UEBAPEAV?$PxVec4T@M@2@XZ 00000001800b6b50 f i PxgParticleSystemCore.obj
 0001:000b5b60       ?getFlatListStartIndex@?$PxgParticleBufferBase@VPxsParticleClothBuffer@physx@@@physx@@UEBAIXZ 00000001800b6b60 f i PxgParticleSystemCore.obj
 0001:000b5b60       ?getFlatListStartIndex@?$PxgParticleBufferBase@VPxsParticleBuffer@physx@@@physx@@UEBAIXZ 00000001800b6b60 f i PxgParticleSystemCore.obj
 0001:000b5b60       ?getFlatListStartIndex@?$PxgParticleBufferBase@VPxsParticleRigidBuffer@physx@@@physx@@UEBAIXZ 00000001800b6b60 f i PxgParticleSystemCore.obj
 0001:000b5b60       ?getFlatListStartIndex@?$PxgParticleBufferBase@VPxsParticleAndDiffuseBuffer@physx@@@physx@@UEBAIXZ 00000001800b6b60 f i PxgParticleSystemCore.obj
 0001:000b5b70       ?getMaxDiffuseParticles@PxgParticleAndDiffuseBuffer@physx@@UEBAIXZ 00000001800b6b70 f i PxgParticleSystemCore.obj
 0001:000b5b80       ?getMaxIterationCount@PxgParticleSystemCore@physx@@IEAAXAEAVPxgBodySimManager@2@IPEBIAEAH2@Z 00000001800b6b80 f   PxgParticleSystemCore.obj
 0001:000b5c00       ?getMaxParticleVolumes@?$PxgParticleBufferBase@VPxsParticleClothBuffer@physx@@@physx@@UEBAIXZ 00000001800b6c00 f i PxgParticleSystemCore.obj
 0001:000b5c00       ?getMaxParticleVolumes@?$PxgParticleBufferBase@VPxsParticleRigidBuffer@physx@@@physx@@UEBAIXZ 00000001800b6c00 f i PxgParticleSystemCore.obj
 0001:000b5c00       ?getMaxParticleVolumes@?$PxgParticleBufferBase@VPxsParticleAndDiffuseBuffer@physx@@@physx@@UEBAIXZ 00000001800b6c00 f i PxgParticleSystemCore.obj
 0001:000b5c00       ?getMaxParticleVolumes@?$PxgParticleBufferBase@VPxsParticleBuffer@physx@@@physx@@UEBAIXZ 00000001800b6c00 f i PxgParticleSystemCore.obj
 0001:000b5c10       ?getMaxParticles@?$PxgParticleBufferBase@VPxsParticleRigidBuffer@physx@@@physx@@UEBAIXZ 00000001800b6c10 f i PxgParticleSystemCore.obj
 0001:000b5c10       ?getMaxParticles@?$PxgParticleBufferBase@VPxsParticleAndDiffuseBuffer@physx@@@physx@@UEBAIXZ 00000001800b6c10 f i PxgParticleSystemCore.obj
 0001:000b5c10       ?getMaxParticles@?$PxgParticleBufferBase@VPxsParticleClothBuffer@physx@@@physx@@UEBAIXZ 00000001800b6c10 f i PxgParticleSystemCore.obj
 0001:000b5c10       ?getMaxParticles@?$PxgParticleBufferBase@VPxsParticleBuffer@physx@@@physx@@UEBAIXZ 00000001800b6c10 f i PxgParticleSystemCore.obj
 0001:000b5c20       ?getNbActiveDiffuseParticles@PxgParticleAndDiffuseBuffer@physx@@UEBAIXZ 00000001800b6c20 f i PxgParticleSystemCore.obj
 0001:000b5c30       ?getNbActiveParticles@?$PxgParticleBufferBase@VPxsParticleClothBuffer@physx@@@physx@@UEBAIXZ 00000001800b6c30 f i PxgParticleSystemCore.obj
 0001:000b5c30       ?getNbActiveParticles@?$PxgParticleBufferBase@VPxsParticleRigidBuffer@physx@@@physx@@UEBAIXZ 00000001800b6c30 f i PxgParticleSystemCore.obj
 0001:000b5c30       ?getNbActiveParticles@?$PxgParticleBufferBase@VPxsParticleBuffer@physx@@@physx@@UEBAIXZ 00000001800b6c30 f i PxgParticleSystemCore.obj
 0001:000b5c30       ?getNbActiveParticles@?$PxgParticleBufferBase@VPxsParticleAndDiffuseBuffer@physx@@@physx@@UEBAIXZ 00000001800b6c30 f i PxgParticleSystemCore.obj
 0001:000b5c40       ?getNbParticleVolumes@?$PxgParticleBufferBase@VPxsParticleClothBuffer@physx@@@physx@@UEBAIXZ 00000001800b6c40 f i PxgParticleSystemCore.obj
 0001:000b5c40       ?getNbParticleVolumes@?$PxgParticleBufferBase@VPxsParticleBuffer@physx@@@physx@@UEBAIXZ 00000001800b6c40 f i PxgParticleSystemCore.obj
 0001:000b5c40       ?getNbParticleVolumes@?$PxgParticleBufferBase@VPxsParticleRigidBuffer@physx@@@physx@@UEBAIXZ 00000001800b6c40 f i PxgParticleSystemCore.obj
 0001:000b5c40       ?getNbParticleVolumes@?$PxgParticleBufferBase@VPxsParticleAndDiffuseBuffer@physx@@@physx@@UEBAIXZ 00000001800b6c40 f i PxgParticleSystemCore.obj
 0001:000b5c50       ?getNbRigids@PxgParticleRigidBuffer@physx@@UEBAIXZ 00000001800b6c50 f i PxgParticleSystemCore.obj
 0001:000b5c60       ?getNbSprings@PxgParticleClothBuffer@physx@@UEBAIXZ 00000001800b6c60 f i PxgParticleSystemCore.obj
 0001:000b5c70       ?getNbTriangles@PxgParticleClothBuffer@physx@@UEBAIXZ 00000001800b6c70 f i PxgParticleSystemCore.obj
 0001:000b5c80       ?getParticleVolumesD@?$PxgParticleBufferBase@VPxsParticleRigidBuffer@physx@@@physx@@UEBAPEAUPxParticleVolume@2@XZ 00000001800b6c80 f i PxgParticleSystemCore.obj
 0001:000b5c80       ?getParticleVolumesD@?$PxgParticleBufferBase@VPxsParticleBuffer@physx@@@physx@@UEBAPEAUPxParticleVolume@2@XZ 00000001800b6c80 f i PxgParticleSystemCore.obj
 0001:000b5c80       ?getParticleVolumesD@?$PxgParticleBufferBase@VPxsParticleAndDiffuseBuffer@physx@@@physx@@UEBAPEAUPxParticleVolume@2@XZ 00000001800b6c80 f i PxgParticleSystemCore.obj
 0001:000b5c80       ?getParticleVolumesD@?$PxgParticleBufferBase@VPxsParticleClothBuffer@physx@@@physx@@UEBAPEAUPxParticleVolume@2@XZ 00000001800b6c80 f i PxgParticleSystemCore.obj
 0001:000b5c90       ?getSimulationController@PxgGpuContext@physx@@QEAAPEAVPxgSimulationController@2@XZ 00000001800b6c90 f i PxgContext.obj
 0001:000b5c90       ?getParticleVolumesH@?$PxgParticleBufferBase@VPxsParticleClothBuffer@physx@@@physx@@UEBAPEAUPxParticleVolume@2@XZ 00000001800b6c90 f i PxgParticleSystemCore.obj
 0001:000b5c90       ?getParticleVolumesH@?$PxgParticleBufferBase@VPxsParticleAndDiffuseBuffer@physx@@@physx@@UEBAPEAUPxParticleVolume@2@XZ 00000001800b6c90 f i PxgParticleSystemCore.obj
 0001:000b5c90       ?getParticleVolumesH@?$PxgParticleBufferBase@VPxsParticleRigidBuffer@physx@@@physx@@UEBAPEAUPxParticleVolume@2@XZ 00000001800b6c90 f i PxgParticleSystemCore.obj
 0001:000b5c90       ?getParticleVolumesH@?$PxgParticleBufferBase@VPxsParticleBuffer@physx@@@physx@@UEBAPEAUPxParticleVolume@2@XZ 00000001800b6c90 f i PxgParticleSystemCore.obj
 0001:000b5ca0       ?getAnisotropy1DevicePointer@PxgAnisotropyGenerator@physx@@UEBAPEAV?$PxVec4T@M@2@XZ 00000001800b6ca0 f i PxgAnisotropy.obj
 0001:000b5ca0       ?getPositionInvMassesD@?$PxgParticleBufferBase@VPxsParticleBuffer@physx@@@physx@@UEBAPEAV?$PxVec4T@M@2@XZ 00000001800b6ca0 f i PxgParticleSystemCore.obj
 0001:000b5ca0       ?getPositionInvMassesD@?$PxgParticleBufferBase@VPxsParticleClothBuffer@physx@@@physx@@UEBAPEAV?$PxVec4T@M@2@XZ 00000001800b6ca0 f i PxgParticleSystemCore.obj
 0001:000b5ca0       ?getSmoothedPositionsDevicePointer@PxgSmoothedPositionGenerator@physx@@UEBAPEAV?$PxVec4T@M@2@XZ 00000001800b6ca0 f i PxgSmoothing.obj
 0001:000b5ca0       ?getPositionInvMassesD@?$PxgParticleBufferBase@VPxsParticleRigidBuffer@physx@@@physx@@UEBAPEAV?$PxVec4T@M@2@XZ 00000001800b6ca0 f i PxgParticleSystemCore.obj
 0001:000b5ca0       ?getPositionInvMassesD@?$PxgParticleBufferBase@VPxsParticleAndDiffuseBuffer@physx@@@physx@@UEBAPEAV?$PxVec4T@M@2@XZ 00000001800b6ca0 f i PxgParticleSystemCore.obj
 0001:000b5cb0       ?getPositionInvMassesH@?$PxgParticleBufferBase@VPxsParticleAndDiffuseBuffer@physx@@@physx@@UEBAPEAV?$PxVec4T@M@2@XZ 00000001800b6cb0 f i PxgParticleSystemCore.obj
 0001:000b5cb0       ?getPositionInvMassesH@?$PxgParticleBufferBase@VPxsParticleBuffer@physx@@@physx@@UEBAPEAV?$PxVec4T@M@2@XZ 00000001800b6cb0 f i PxgParticleSystemCore.obj
 0001:000b5cb0       ?getPositionInvMassesH@?$PxgParticleBufferBase@VPxsParticleRigidBuffer@physx@@@physx@@UEBAPEAV?$PxVec4T@M@2@XZ 00000001800b6cb0 f i PxgParticleSystemCore.obj
 0001:000b5cb0       ?getPositionInvMassesH@?$PxgParticleBufferBase@VPxsParticleClothBuffer@physx@@@physx@@UEBAPEAV?$PxVec4T@M@2@XZ 00000001800b6cb0 f i PxgParticleSystemCore.obj
 0001:000b5cc0       ?getRigidOffsetsD@PxgParticleRigidBuffer@physx@@UEBAPEAIXZ 00000001800b6cc0 f i PxgParticleSystemCore.obj
 0001:000b5cc0       ?getRestPositionsD@PxgParticleClothBuffer@physx@@UEAAPEAV?$PxVec4T@M@2@XZ 00000001800b6cc0 f i PxgParticleSystemCore.obj
 0001:000b5cd0       ?getRigidCoefficientsD@PxgParticleRigidBuffer@physx@@UEBAPEAMXZ 00000001800b6cd0 f i PxgParticleSystemCore.obj
 0001:000b5cd0       ?getTrianglesD@PxgParticleClothBuffer@physx@@UEBAPEAIXZ 00000001800b6cd0 f i PxgParticleSystemCore.obj
 0001:000b5ce0       ?getRigidLocalNormalsD@PxgParticleRigidBuffer@physx@@UEBAPEAV?$PxVec4T@M@2@XZ 00000001800b6ce0 f i PxgParticleSystemCore.obj
 0001:000b5cf0       ?getRigidLocalPositionsD@PxgParticleRigidBuffer@physx@@UEBAPEAV?$PxVec4T@M@2@XZ 00000001800b6cf0 f i PxgParticleSystemCore.obj
 0001:000b5d00       ?getRigidTranslationsD@PxgParticleRigidBuffer@physx@@UEBAPEAV?$PxVec4T@M@2@XZ 00000001800b6d00 f i PxgParticleSystemCore.obj
 0001:000b5d10       ?getUniqueId@?$PxgParticleBufferBase@VPxsParticleClothBuffer@physx@@@physx@@UEBAIXZ 00000001800b6d10 f i PxgParticleSystemCore.obj
 0001:000b5d10       ?getUniqueId@?$PxgParticleBufferBase@VPxsParticleBuffer@physx@@@physx@@UEBAIXZ 00000001800b6d10 f i PxgParticleSystemCore.obj
 0001:000b5d10       ?getUniqueId@?$PxgParticleBufferBase@VPxsParticleRigidBuffer@physx@@@physx@@UEBAIXZ 00000001800b6d10 f i PxgParticleSystemCore.obj
 0001:000b5d10       ?getUniqueId@?$PxgParticleBufferBase@VPxsParticleAndDiffuseBuffer@physx@@@physx@@UEBAIXZ 00000001800b6d10 f i PxgParticleSystemCore.obj
 0001:000b5d20       ?getVelocitiesH@?$PxgParticleBufferBase@VPxsParticleAndDiffuseBuffer@physx@@@physx@@UEBAPEAV?$PxVec4T@M@2@XZ 00000001800b6d20 f i PxgParticleSystemCore.obj
 0001:000b5d20       ?getVelocitiesH@?$PxgParticleBufferBase@VPxsParticleRigidBuffer@physx@@@physx@@UEBAPEAV?$PxVec4T@M@2@XZ 00000001800b6d20 f i PxgParticleSystemCore.obj
 0001:000b5d20       ?getVelocitiesH@?$PxgParticleBufferBase@VPxsParticleClothBuffer@physx@@@physx@@UEBAPEAV?$PxVec4T@M@2@XZ 00000001800b6d20 f i PxgParticleSystemCore.obj
 0001:000b5d20       ?getVelocitiesH@?$PxgParticleBufferBase@VPxsParticleBuffer@physx@@@physx@@UEBAPEAV?$PxVec4T@M@2@XZ 00000001800b6d20 f i PxgParticleSystemCore.obj
 0001:000b5d30       ?gpuDMAActiveParticleIndices@PxgParticleSystemCore@physx@@QEAAXPEBIIPEAUCUstream_st@@@Z 00000001800b6d30 f   PxgParticleSystemCore.obj
 0001:000b5db0       ?integrateSystem@PxgParticleSystemCore@physx@@IEAAX_K0IMM@Z 00000001800b6db0 f   PxgParticleSystemCore.obj
 0001:000b5ec0       ?preDiffuseIntegrateSystem@PxgDiffuseParticleCore@physx@@QEAAX_K0IV?$PxVec3T@M@2@MPEAUCUstream_st@@@Z 00000001800b6ec0 f   PxgParticleSystemCore.obj
 0001:000b5fd0       ?preIntegrateSystem@PxgParticleSystemCore@physx@@IEAAX_K0IV?$PxVec3T@M@2@MPEAUCUstream_st@@@Z 00000001800b6fd0 f   PxgParticleSystemCore.obj
 0001:000b6120       ?prepParticleConstraint@PxgParticleSystemCore@physx@@MEAAX_K00_NM@Z 00000001800b7120 f   PxgParticleSystemCore.obj
 0001:000b6300       ?prepPrimitiveConstraint@PxgParticleSystemCore@physx@@IEAAX_K00M_NPEAUCUstream_st@@@Z 00000001800b7300 f   PxgParticleSystemCore.obj
 0001:000b6730       ?prepRigidAttachments@PxgParticleSystemCore@physx@@IEAAX_K0_NMPEAUCUstream_st@@I0I@Z 00000001800b7730 f   PxgParticleSystemCore.obj
 0001:000b68f0       ?raiseFlags@?$PxgParticleBufferBase@VPxsParticleBuffer@physx@@@physx@@UEAAXW4Enum@PxParticleBufferFlag@2@@Z 00000001800b78f0 f i PxgParticleSystemCore.obj
 0001:000b68f0       ?raiseFlags@?$PxgParticleBufferBase@VPxsParticleRigidBuffer@physx@@@physx@@UEAAXW4Enum@PxParticleBufferFlag@2@@Z 00000001800b78f0 f i PxgParticleSystemCore.obj
 0001:000b68f0       ?raiseFlags@?$PxgParticleBufferBase@VPxsParticleAndDiffuseBuffer@physx@@@physx@@UEAAXW4Enum@PxParticleBufferFlag@2@@Z 00000001800b78f0 f i PxgParticleSystemCore.obj
 0001:000b68f0       ?raiseFlags@?$PxgParticleBufferBase@VPxsParticleClothBuffer@physx@@@physx@@UEAAXW4Enum@PxParticleBufferFlag@2@@Z 00000001800b78f0 f i PxgParticleSystemCore.obj
 0001:000b6900       ?recreate@?$PxArray@UPxgRadixSortBlockDesc@physx@@VPxVirtualAllocator@2@@physx@@IEAAXI@Z 00000001800b7900 f i PxgParticleSystemCore.obj
 0001:000b6900       ?recreate@?$PxArray@UPxgParticleRigidSimBuffer@physx@@VPxVirtualAllocator@2@@physx@@IEAAXI@Z 00000001800b7900 f i PxgPBDParticleSystemCore.obj
 0001:000b69c0       ?release@PxgParticleRigidBuffer@physx@@UEAAXXZ 00000001800b79c0 f i PxgParticleSystemCore.obj
 0001:000b69c0       ?release@PxgParticleClothBuffer@physx@@UEAAXXZ 00000001800b79c0 f i PxgParticleSystemCore.obj
 0001:000b69c0       ?release@PxgParticleAndDiffuseBuffer@physx@@UEAAXXZ 00000001800b79c0 f i PxgParticleSystemCore.obj
 0001:000b69c0       ?release@PxgParticleBuffer@physx@@UEAAXXZ 00000001800b79c0 f i PxgParticleSystemCore.obj
 0001:000b69e0       ?releaseInternalDiffuseParticleDataBuffer@PxgDiffuseParticleCore@physx@@QEAAXXZ 00000001800b79e0 f   PxgParticleSystemCore.obj
 0001:000b6b40       ?releaseInternalParticleSystemDataBuffer@PxgParticleSystemCore@physx@@IEAAXXZ 00000001800b7b40 f   PxgParticleSystemCore.obj
 0001:000b6bf0       ?reorderDataAndFindCellStart@PxgParticleSystemCore@physx@@IEAAXPEAVPxgParticleSystem@2@_KII@Z 00000001800b7bf0 f   PxgParticleSystemCore.obj
 0001:000b6d90       ?resetContactCounts@PxgParticleSystemCore@physx@@QEAAXXZ 00000001800b7d90 f   PxgParticleSystemCore.obj
 0001:000b6df0       ?resize@?$PxArray@UPxgRadixSortBlockDesc@physx@@VPxVirtualAllocator@2@@physx@@QEAAXIAEBUPxgRadixSortBlockDesc@2@@Z 00000001800b7df0 f i PxgParticleSystemCore.obj
 0001:000b6e70       ?resizeDiffuseParticleParticleBuffers@PxgDiffuseParticleCore@physx@@IEAAXAEAVPxgParticleSystem@2@PEAVPxgParticleSystemDiffuseBuffer@2@I@Z 00000001800b7e70 f   PxgParticleSystemCore.obj
 0001:000b6ec0       ?selfCollision@PxgParticleSystemCore@physx@@IEAAXAEAVPxgParticleSystem@2@PEAV32@II@Z 00000001800b7ec0 f   PxgParticleSystemCore.obj
 0001:000b7010       ?setCloths@PxgParticleClothBuffer@physx@@UEAAXAEAUPxPartitionedParticleCloth@2@@Z 00000001800b8010 f   PxgParticleSystemCore.obj
 0001:000b7770       ?setDiffuseParticleParams@PxgParticleAndDiffuseBuffer@physx@@UEAAXAEBVPxDiffuseParticleParams@2@@Z 00000001800b8770 f   PxgParticleSystemCore.obj
 0001:000b77a0       ?setMaxActiveDiffuseParticles@PxgParticleAndDiffuseBuffer@physx@@UEAAXI@Z 00000001800b87a0 f   PxgParticleSystemCore.obj
 0001:000b77b0       ?setNbActiveParticles@?$PxgParticleBufferBase@VPxsParticleAndDiffuseBuffer@physx@@@physx@@UEAAXI@Z 00000001800b87b0 f i PxgParticleSystemCore.obj
 0001:000b77b0       ?setNbActiveParticles@?$PxgParticleBufferBase@VPxsParticleRigidBuffer@physx@@@physx@@UEAAXI@Z 00000001800b87b0 f i PxgParticleSystemCore.obj
 0001:000b77b0       ?setNbActiveParticles@?$PxgParticleBufferBase@VPxsParticleClothBuffer@physx@@@physx@@UEAAXI@Z 00000001800b87b0 f i PxgParticleSystemCore.obj
 0001:000b77b0       ?setNbActiveParticles@?$PxgParticleBufferBase@VPxsParticleBuffer@physx@@@physx@@UEAAXI@Z 00000001800b87b0 f i PxgParticleSystemCore.obj
 0001:000b77c0       ?setNbActiveParticles@PxgParticleClothBuffer@physx@@UEAAXI@Z 00000001800b87c0 f   PxgParticleSystemCore.obj
 0001:000b77e0       ?setNbParticleVolumes@?$PxgParticleBufferBase@VPxsParticleBuffer@physx@@@physx@@UEAAXI@Z 00000001800b87e0 f i PxgParticleSystemCore.obj
 0001:000b77e0       ?setNbParticleVolumes@?$PxgParticleBufferBase@VPxsParticleAndDiffuseBuffer@physx@@@physx@@UEAAXI@Z 00000001800b87e0 f i PxgParticleSystemCore.obj
 0001:000b77e0       ?setNbParticleVolumes@?$PxgParticleBufferBase@VPxsParticleClothBuffer@physx@@@physx@@UEAAXI@Z 00000001800b87e0 f i PxgParticleSystemCore.obj
 0001:000b77e0       ?setNbParticleVolumes@?$PxgParticleBufferBase@VPxsParticleRigidBuffer@physx@@@physx@@UEAAXI@Z 00000001800b87e0 f i PxgParticleSystemCore.obj
 0001:000b77f0       ?setNbRigids@PxgParticleRigidBuffer@physx@@UEAAXI@Z 00000001800b87f0 f i PxgParticleSystemCore.obj
 0001:000b7800       ?setNbTriangles@PxgParticleClothBuffer@physx@@UEAAXI@Z 00000001800b8800 f i PxgParticleSystemCore.obj
 0001:000b7810       ?setRigidAttachments@?$PxgParticleBufferBase@VPxsParticleClothBuffer@physx@@@physx@@UEAAXPEAUPxParticleRigidAttachment@2@I@Z 00000001800b8810 f i PxgParticleSystemCore.obj
 0001:000b7810       ?setRigidAttachments@?$PxgParticleBufferBase@VPxsParticleBuffer@physx@@@physx@@UEAAXPEAUPxParticleRigidAttachment@2@I@Z 00000001800b8810 f i PxgParticleSystemCore.obj
 0001:000b7810       ?setRigidAttachments@?$PxgParticleBufferBase@VPxsParticleRigidBuffer@physx@@@physx@@UEAAXPEAUPxParticleRigidAttachment@2@I@Z 00000001800b8810 f i PxgParticleSystemCore.obj
 0001:000b7810       ?setRigidAttachments@?$PxgParticleBufferBase@VPxsParticleAndDiffuseBuffer@physx@@@physx@@UEAAXPEAUPxParticleRigidAttachment@2@I@Z 00000001800b8810 f i PxgParticleSystemCore.obj
 0001:000b7820       ?setRigidFilters@?$PxgParticleBufferBase@VPxsParticleBuffer@physx@@@physx@@UEAAXPEAUPxParticleRigidFilterPair@2@I@Z 00000001800b8820 f i PxgParticleSystemCore.obj
 0001:000b7820       ?setRigidFilters@?$PxgParticleBufferBase@VPxsParticleClothBuffer@physx@@@physx@@UEAAXPEAUPxParticleRigidFilterPair@2@I@Z 00000001800b8820 f i PxgParticleSystemCore.obj
 0001:000b7820       ?setRigidFilters@?$PxgParticleBufferBase@VPxsParticleRigidBuffer@physx@@@physx@@UEAAXPEAUPxParticleRigidFilterPair@2@I@Z 00000001800b8820 f i PxgParticleSystemCore.obj
 0001:000b7820       ?setRigidFilters@?$PxgParticleBufferBase@VPxsParticleAndDiffuseBuffer@physx@@@physx@@UEAAXPEAUPxParticleRigidFilterPair@2@I@Z 00000001800b8820 f i PxgParticleSystemCore.obj
 0001:000b7830       ?setSeed@RandomR250@Cm@physx@@QEAAXH@Z 00000001800b8830 f i PxgParticleSystemCore.obj
 0001:000b7a00       ?solveOneWayCollision@PxgParticleSystemCore@physx@@IEAAX_K0IMM_N@Z 00000001800b8a00 f   PxgParticleSystemCore.obj
 0001:000b7b50       ?solvePrimitiveCollisionForParticles@PxgParticleSystemCore@physx@@IEAAX_K000M_NM1@Z 00000001800b8b50 f   PxgParticleSystemCore.obj
 0001:000b7ef0       ?solvePrimitiveCollisionForRigids@PxgParticleSystemCore@physx@@IEAAX_K000PEAUCUstream_st@@M_NM2@Z 00000001800b8ef0 f   PxgParticleSystemCore.obj
 0001:000b81d0       ?solveRigidAttachments@PxgParticleSystemCore@physx@@IEAAX_K000PEAUCUstream_st@@M_NM200I@Z 00000001800b91d0 f   PxgParticleSystemCore.obj
 0001:000b8a00       ?sortContacts@PxgParticleSystemCore@physx@@QEAAXI@Z 00000001800b9a00 f   PxgParticleSystemCore.obj
 0001:000b9500       ?stepParticleSystems@PxgParticleSystemCore@physx@@IEAAX_K0IMM_N@Z 00000001800ba500 f   PxgParticleSystemCore.obj
 0001:000b9670       ?updateBounds@PxgParticleSystemCore@physx@@UEAAXPEAVPxgParticleSystem@2@PEAII@Z 00000001800ba670 f   PxgParticleSystemCore.obj
 0001:000b99c0       ?updateParticleSystemData@PxgParticleSystemCore@physx@@QEAAXAEAVPxgParticleSystem@2@AEAVParticleSystemCore@Dy@2@@Z 00000001800ba9c0 f   PxgParticleSystemCore.obj
 0001:000b9b60       ?updateSortedVelocity@PxgParticleSystemCore@physx@@IEAAX_K0IM_N@Z 00000001800bab60 f   PxgParticleSystemCore.obj
 0001:000b9cc0       ??$PxSort@IUComparer@physx@@V?$PxReflectionAllocator@I@2@@physx@@YAXPEAIIAEBUComparer@0@AEBV?$PxReflectionAllocator@I@0@I@Z 00000001800bacc0 f i PxgPBDParticleSystemCore.obj
 0001:000ba140       ??0PxgPBDParticleSystemCore@physx@@QEAA@PEAVPxgCudaKernelWranglerManager@1@PEAVPxCudaContextManager@1@PEAVPxgHeapMemoryAllocatorManager@1@PEAVPxgSimulationController@1@PEAVPxgGpuContext@1@I@Z 00000001800bb140 f   PxgPBDParticleSystemCore.obj
 0001:000ba230       ??_EPxgPBDParticleSystemCore@physx@@WHEA@EAAPEAXI@Z 00000001800bb230 f i PxgPBDParticleSystemCore.obj
 0001:000ba240       ??_EPxgPBDParticleSystemCore@physx@@UEAAPEAXI@Z 00000001800bb240 f i PxgPBDParticleSystemCore.obj
 0001:000ba240       ??_GPxgPBDParticleSystemCore@physx@@UEAAPEAXI@Z 00000001800bb240 f i PxgPBDParticleSystemCore.obj
 0001:000ba2b0       ?allocateParticleDataBuffer@PxgPBDParticleSystemCore@physx@@AEAAXPEAPEAXPEAUCUstream_st@@@Z 00000001800bb2b0 f   PxgPBDParticleSystemCore.obj
 0001:000baa50       ?applyParticleBufferDataDEPRECATED@PxgPBDParticleSystemCore@physx@@QEAAXPEBIPEBUPxGpuParticleBufferIndexPair@2@PEBV?$PxFlags@W4Enum@PxParticleBufferFlag@physx@@I@2@IPEAUCUevent_st@@3@Z 00000001800bba50 f   PxgPBDParticleSystemCore.obj
 0001:000bac00       ?constraintPrep@PxgPBDParticleSystemCore@physx@@UEAAX_K000MPEAUCUstream_st@@_NI@Z 00000001800bbc00 f   PxgPBDParticleSystemCore.obj
 0001:000bae80       ?createUserParticleData@PxgPBDParticleSystemCore@physx@@AEAA_NAEAVPxgParticleSystem@2@AEAVParticleSystemCore@Dy@2@PEAVPxgParticleSystemBuffer@2@PEAVPxgParticleSystemDiffuseBuffer@2@PEAUCUstream_st@@@Z 00000001800bbe80 f   PxgPBDParticleSystemCore.obj
 0001:000bbf70       ?finalizeVelocities@PxgPBDParticleSystemCore@physx@@UEAAXMM@Z 00000001800bcf70 f   PxgPBDParticleSystemCore.obj
 0001:000bc170       ?getMaxIterationCount@PxgPBDParticleSystemCore@physx@@UEAAXAEAVPxgBodySimManager@2@AEAH1@Z 00000001800bd170 f   PxgPBDParticleSystemCore.obj
 0001:000bc1a0       ?gpuMemDmaUpParticleSystem@PxgPBDParticleSystemCore@physx@@UEAAXAEAVPxgBodySimManager@2@PEAUCUstream_st@@@Z 00000001800bd1a0 f   PxgPBDParticleSystemCore.obj
 0001:000bc360       ?growAndPushBack@?$PxArray@PEAVPxgParticleSystemCore@physx@@V?$PxReflectionAllocator@PEAVPxgParticleSystemCore@physx@@@2@@physx@@IEAAAEAPEAVPxgParticleSystemCore@2@AEBQEAV32@@Z 00000001800bd360 f i PxgPBDParticleSystemCore.obj
 0001:000bc480       ?integrateSystems@PxgPBDParticleSystemCore@physx@@UEAAXMM@Z 00000001800bd480 f   PxgPBDParticleSystemCore.obj
 0001:000bca60       ?onPostSolve@PxgPBDParticleSystemCore@physx@@UEAAXXZ 00000001800bda60 f   PxgPBDParticleSystemCore.obj
 0001:000bcb50       ?preIntegrateSystems@PxgPBDParticleSystemCore@physx@@UEAAXIV?$PxVec3T@M@2@M@Z 00000001800bdb50 f   PxgPBDParticleSystemCore.obj
 0001:000bcd90       ?prepParticleConstraint@PxgPBDParticleSystemCore@physx@@UEAAX_K00_NM@Z 00000001800bdd90 f   PxgPBDParticleSystemCore.obj
 0001:000bd1b0       ?recreate@?$PxArray@GVPxVirtualAllocator@physx@@@physx@@IEAAXI@Z 00000001800be1b0 f i PxgPBDParticleSystemCore.obj
 0001:000bd260       ?recreate@?$PxArray@PEAVPxgParticleSystemBuffer@physx@@V?$PxReflectionAllocator@PEAVPxgParticleSystemBuffer@physx@@@2@@physx@@IEAAXI@Z 00000001800be260 f i PxgPBDParticleSystemCore.obj
 0001:000bd350       ?recreate@?$PxArray@PEAVPxgParticleSystemDiffuseBuffer@physx@@V?$PxReflectionAllocator@PEAVPxgParticleSystemDiffuseBuffer@physx@@@2@@physx@@IEAAXI@Z 00000001800be350 f i PxgPBDParticleSystemCore.obj
 0001:000bd440       ?recreate@?$PxArray@UPxgParticleClothSimBuffer@physx@@VPxVirtualAllocator@2@@physx@@IEAAXI@Z 00000001800be440 f i PxgPBDParticleSystemCore.obj
 0001:000bd520       ?recreate@?$PxArray@UPxgParticleDiffuseSimBuffer@physx@@VPxVirtualAllocator@2@@physx@@IEAAXI@Z 00000001800be520 f i PxgPBDParticleSystemCore.obj
 0001:000bd520       ?recreate@?$PxArray@UPxgParticleSimBuffer@physx@@VPxVirtualAllocator@2@@physx@@IEAAXI@Z 00000001800be520 f i PxgPBDParticleSystemCore.obj
 0001:000bd5f0       ?releaseParticleSystemDataBuffer@PxgPBDParticleSystemCore@physx@@UEAAXXZ 00000001800be5f0 f   PxgPBDParticleSystemCore.obj
 0001:000bd620       ?resize@?$PxArray@GVPxVirtualAllocator@physx@@@physx@@QEAAXIAEBG@Z 00000001800be620 f i PxgPBDParticleSystemCore.obj
 0001:000bd6e0       ?resize@?$PxArray@PEAVPxgParticleSystemBuffer@physx@@V?$PxReflectionAllocator@PEAVPxgParticleSystemBuffer@physx@@@2@@physx@@QEAAXIAEBQEAVPxgParticleSystemBuffer@2@@Z 00000001800be6e0 f i PxgPBDParticleSystemCore.obj
 0001:000bd7a0       ?resize@?$PxArray@PEAVPxgParticleSystemDiffuseBuffer@physx@@V?$PxReflectionAllocator@PEAVPxgParticleSystemDiffuseBuffer@physx@@@2@@physx@@QEAAXIAEBQEAVPxgParticleSystemDiffuseBuffer@2@@Z 00000001800be7a0 f i PxgPBDParticleSystemCore.obj
 0001:000bd860       ?resize@?$PxArray@VPxgParticleSystem@physx@@VPxVirtualAllocator@2@@physx@@QEAAXIAEBVPxgParticleSystem@2@@Z 00000001800be860 f i PxgPBDParticleSystemCore.obj
 0001:000bd8f0       ?resizeDiffuseParticleDiffuseBuffer@PxgPBDParticleSystemCore@physx@@AEAAXAEAVPxgParticleSystem@2@PEAVPxgParticleSystemDiffuseBuffer@2@IPEAUCUstream_st@@@Z 00000001800be8f0 f   PxgPBDParticleSystemCore.obj
 0001:000bdc90       ?resizeParticleDataBuffer@PxgPBDParticleSystemCore@physx@@AEAAXAEAVPxgParticleSystem@2@PEAVPxgParticleSystemBuffer@2@IIPEAUCUstream_st@@@Z 00000001800bec90 f   PxgPBDParticleSystemCore.obj
 0001:000be2f0       ?selfCollision@PxgPBDParticleSystemCore@physx@@UEAAXXZ 00000001800bf2f0 f   PxgPBDParticleSystemCore.obj
 0001:000be390       ?solve@PxgPBDParticleSystemCore@physx@@UEAAX_K000MPEAUCUstream_st@@@Z 00000001800bf390 f   PxgPBDParticleSystemCore.obj
 0001:000be590       ?solveDiffuseParticles@PxgPBDParticleSystemCore@physx@@AEAAX_K0IM@Z 00000001800bf590 f   PxgPBDParticleSystemCore.obj
 0001:000beab0       ?solveParticleCollision@PxgPBDParticleSystemCore@physx@@QEAAXM_NM@Z 00000001800bfab0 f   PxgPBDParticleSystemCore.obj
 0001:000bef80       ?solveSprings@PxgPBDParticleSystemCore@physx@@QEAAX_K0IM_N@Z 00000001800bff80 f   PxgPBDParticleSystemCore.obj
 0001:000bf2b0       ?solveTGS@PxgPBDParticleSystemCore@physx@@UEAAX_K000MMPEAUCUstream_st@@_NHHM@Z 00000001800c02b0 f   PxgPBDParticleSystemCore.obj
 0001:000bf530       ?updateDirtyData@PxgPBDParticleSystemCore@physx@@AEAAXAEAVPxgBodySimManager@2@PEAUCUstream_st@@@Z 00000001800c0530 f   PxgPBDParticleSystemCore.obj
 0001:000bfc10       ?updateGrid@PxgPBDParticleSystemCore@physx@@UEAAXXZ 00000001800c0c10 f   PxgPBDParticleSystemCore.obj
 0001:000c02a0       ?updateParticles@PxgPBDParticleSystemCore@physx@@UEAAXM@Z 00000001800c12a0 f   PxgPBDParticleSystemCore.obj
 0001:000c02f0       ??0PxgSoftBodyCore@physx@@QEAA@PEAVPxgCudaKernelWranglerManager@1@PEAVPxCudaContextManager@1@PEAVPxgHeapMemoryAllocatorManager@1@PEAVPxgSimulationController@1@PEAVPxgGpuContext@1@II_N@Z 00000001800c12f0 f   PxgSoftBodyCore.obj
 0001:000c0730       ??1PxgSoftBodyCore@physx@@UEAA@XZ 00000001800c1730 f   PxgSoftBodyCore.obj
 0001:000c08f0       ??_GPxgSoftBodyCore@physx@@UEAAPEAXI@Z 00000001800c18f0 f i PxgSoftBodyCore.obj
 0001:000c08f0       ??_EPxgSoftBodyCore@physx@@UEAAPEAXI@Z 00000001800c18f0 f i PxgSoftBodyCore.obj
 0001:000c0930       ?applyExternalTetraDeltaGM@PxgSoftBodyCore@physx@@QEAAXIMPEAUCUstream_st@@@Z 00000001800c1930 f   PxgSoftBodyCore.obj
 0001:000c0a90       ?applySoftBodyDataDEPRECATED@PxgSoftBodyCore@physx@@QEAAXPEAPEAXPEAX1W4Enum@PxSoftBodyGpuDataFlag@2@IIPEAUCUevent_st@@3@Z 00000001800c1a90 f   PxgSoftBodyCore.obj
 0001:000c0b60       ?checkBufferOverflows@PxgSoftBodyCore@physx@@QEAAXXZ 00000001800c1b60 f   PxgSoftBodyCore.obj
 0001:000c0c80       ?constraintPrep@PxgSoftBodyCore@physx@@QEAAXU?$PxgDevicePointer@UPxgPrePrepDesc@physx@@@2@U?$PxgDevicePointer@UPxgConstraintPrepareDesc@physx@@@2@MU?$PxgDevicePointer@UPxgSolverSharedDescBase@physx@@@2@PEAUCUstream_st@@_NII@Z 00000001800c1c80 f   PxgSoftBodyCore.obj
 0001:000c1720       ?copyOrApplySoftBodyDataDEPRECATED@PxgSoftBodyCore@physx@@AEAAXIPEAIPEAPEAE0III@Z 00000001800c2720 f   PxgSoftBodyCore.obj
 0001:000c1880       ?copySoftBodyDataDEPRECATED@PxgSoftBodyCore@physx@@QEAAXPEAPEAXPEAX1W4Enum@PxSoftBodyGpuDataFlag@2@IIPEAUCUevent_st@@@Z 00000001800c2880 f   PxgSoftBodyCore.obj
 0001:000c1930       ?createActivatedDeactivatedLists@PxgSoftBodyCore@physx@@QEAAXXZ 00000001800c2930 f   PxgSoftBodyCore.obj
 0001:000c1a90       ?finalizeVelocities@PxgSoftBodyCore@physx@@QEAAXMM_N@Z 00000001800c2a90 f   PxgSoftBodyCore.obj
 0001:000c1f30       ?preIntegrateSystem@PxgSoftBodyCore@physx@@AEAAXU?$PxgDevicePointer@VPxgSoftBody@physx@@@2@U?$PxgDevicePointer@I@2@IIV?$PxVec3T@M@2@MPEAUCUstream_st@@@Z 00000001800c2f30 f   PxgSoftBodyCore.obj
 0001:000c21b0       ?preIntegrateSystems@PxgSoftBodyCore@physx@@QEAAXPEAVPxgSoftBody@2@PEAIIV?$PxVec3T@M@2@M@Z 00000001800c31b0 f   PxgSoftBodyCore.obj
 0001:000c22a0       ?prepRigidContactConstraint@PxgSoftBodyCore@physx@@AEAAXU?$PxgDevicePointer@UPxgPrePrepDesc@physx@@@2@U?$PxgDevicePointer@UPxgConstraintPrepareDesc@physx@@@2@MU?$PxgDevicePointer@UPxgSolverSharedDescBase@physx@@@2@PEAUCUstream_st@@_NII@Z 00000001800c32a0 f   PxgSoftBodyCore.obj
 0001:000c2560       ?prepSoftBodyParticleConstraint@PxgSoftBodyCore@physx@@AEAAXXZ 00000001800c3560 f   PxgSoftBodyCore.obj
 0001:000c2a10       ?queryRigidContactReferenceCount@PxgSoftBodyCore@physx@@AEAAXU?$PxgDevicePointer@UPxgPrePrepDesc@physx@@@2@U?$PxgDevicePointer@UPxgSolverCoreDesc@physx@@@2@U?$PxgDevicePointer@UPxgSolverSharedDescBase@physx@@@2@U?$PxgDevicePointer@UPxgArticulationCoreDesc@physx@@@2@M@Z 00000001800c3a10 f   PxgSoftBodyCore.obj
 0001:000c2c50       ?refitBound@PxgSoftBodyCore@physx@@QEAAXPEAVPxgSoftBody@2@I@Z 00000001800c3c50 f   PxgSoftBodyCore.obj
 0001:000c2e40       ?resetContactCounts@PxgSoftBodyCore@physx@@QEAAXXZ 00000001800c3e40 f   PxgSoftBodyCore.obj
 0001:000c2f90       ?selfCollision@PxgSoftBodyCore@physx@@QEAAXXZ 00000001800c3f90 f   PxgSoftBodyCore.obj
 0001:000c3440       ?solve@PxgSoftBodyCore@physx@@QEAAXU?$PxgDevicePointer@UPxgPrePrepDesc@physx@@@2@U?$PxgDevicePointer@UPxgConstraintPrepareDesc@physx@@@2@U?$PxgDevicePointer@UPxgSolverCoreDesc@physx@@@2@U?$PxgDevicePointer@UPxgSolverSharedDescBase@physx@@@2@U?$PxgDevicePointer@UPxgArticulationCoreDesc@physx@@@2@MPEAUCUstream_st@@_N@Z 00000001800c4440 f   PxgSoftBodyCore.obj
 0001:000c3ea0       ?solveClothAttachmentDelta@PxgSoftBodyCore@physx@@AEAAXXZ 00000001800c4ea0 f   PxgSoftBodyCore.obj
 0001:000c3fe0       ?solveCorotationalFEM@PxgSoftBodyCore@physx@@AEAAXPEAVPxgSoftBody@2@0U?$PxgDevicePointer@I@2@IMPEAUCUstream_st@@_N3@Z 00000001800c4fe0 f   PxgSoftBodyCore.obj
 0001:000c44a0       ?solveParticleAttachmentDelta@PxgSoftBodyCore@physx@@AEAAXXZ 00000001800c54a0 f   PxgSoftBodyCore.obj
 0001:000c45e0       ?solveRSContactsOutputRigidDelta@PxgSoftBodyCore@physx@@AEAAXU?$PxgDevicePointer@UPxgPrePrepDesc@physx@@@2@U?$PxgDevicePointer@UPxgSolverCoreDesc@physx@@@2@U?$PxgDevicePointer@UPxgSolverSharedDescBase@physx@@@2@U?$PxgDevicePointer@UPxgArticulationCoreDesc@physx@@@2@PEAUCUstream_st@@M@Z 00000001800c55e0 f   PxgSoftBodyCore.obj
 0001:000c4920       ?solveRSContactsOutputRigidDeltaTGS@PxgSoftBodyCore@physx@@AEAAXU?$PxgDevicePointer@UPxgPrePrepDesc@physx@@@2@U?$PxgDevicePointer@UPxgSolverCoreDesc@physx@@@2@U?$PxgDevicePointer@UPxgSolverSharedDescBase@physx@@@2@U?$PxgDevicePointer@UPxgArticulationCoreDesc@physx@@@2@PEAUCUstream_st@@M@Z 00000001800c5920 f   PxgSoftBodyCore.obj
 0001:000c4c40       ?solveSCContactsOutputDelta@PxgSoftBodyCore@physx@@AEAAXXZ 00000001800c5c40 f   PxgSoftBodyCore.obj
 0001:000c4dd0       ?solveSPContactsOutputParticleDelta@PxgSoftBodyCore@physx@@AEAAXMMPEAUCUstream_st@@@Z 00000001800c5dd0 f   PxgSoftBodyCore.obj
 0001:000c5170       ?solveSPContactsOutputSoftBodyDelta@PxgSoftBodyCore@physx@@AEAAXMM@Z 00000001800c6170 f   PxgSoftBodyCore.obj
 0001:000c5350       ?solveSSContactsOutputSoftBodyDelta@PxgSoftBodyCore@physx@@AEAAXMM_N@Z 00000001800c6350 f   PxgSoftBodyCore.obj
 0001:000c5520       ?solveSoftBodyAttachmentDelta@PxgSoftBodyCore@physx@@AEAAXXZ 00000001800c6520 f   PxgSoftBodyCore.obj
 0001:000c5630       ?solveTGS@PxgSoftBodyCore@physx@@QEAAXU?$PxgDevicePointer@UPxgPrePrepDesc@physx@@@2@U?$PxgDevicePointer@UPxgConstraintPrepareDesc@physx@@@2@U?$PxgDevicePointer@UPxgSolverCoreDesc@physx@@@2@U?$PxgDevicePointer@UPxgSolverSharedDescBase@physx@@@2@U?$PxgDevicePointer@UPxgArticulationCoreDesc@physx@@@2@MPEAUCUstream_st@@_NM6AEBV?$PxVec3T@M@2@@Z 00000001800c6630 f   PxgSoftBodyCore.obj
 0001:000c6270       ?sortContacts@PxgSoftBodyCore@physx@@QEAAXI@Z 00000001800c7270 f   PxgSoftBodyCore.obj
 0001:000c70d0       ?syncCloths@PxgFEMClothCore@physx@@QEAAXXZ 00000001800c80d0 f   PxgFEMClothCore.obj
 0001:000c70d0       ?syncSoftBodies@PxgSoftBodyCore@physx@@QEAAXXZ 00000001800c80d0 f   PxgSoftBodyCore.obj
 0001:000c7110       ?updateTetModelVerts@PxgSoftBodyCore@physx@@AEAAXU?$PxgDevicePointer@VPxgSoftBody@physx@@@2@U?$PxgDevicePointer@I@2@IPEAUCUstream_st@@@Z 00000001800c8110 f   PxgSoftBodyCore.obj
 0001:000c7220       ?updateTetraRotations@PxgSoftBodyCore@physx@@QEAAXXZ 00000001800c8220 f   PxgSoftBodyCore.obj
 0001:000c7350       ?updateUserData@PxgSoftBodyCore@physx@@QEAA_NAEAV?$PxArray@VPxgSoftBody@physx@@VPxVirtualAllocator@2@@2@AEAV?$PxArray@IV?$PxReflectionAllocator@I@physx@@@2@PEBIIPEAPEAX@Z 00000001800c8350 f   PxgSoftBodyCore.obj
 0001:000c7780       ?computeTetMeshByteSize@PxgSoftBodyUtil@physx@@SAIPEBVBVTetrahedronMesh@Gu@2@@Z 00000001800c8780 f   PxgSoftBody.obj
 0001:000c7d70       ?dataIndexFromFlagDEPRECATED@PxgSoftBody@physx@@SAIW4Enum@PxSoftBodyGpuDataFlag@2@@Z 00000001800c8d70 f   PxgSoftBody.obj
 0001:000c7de0       ?deallocate@PxgSoftBody@physx@@QEAAXPEAVPxsHeapMemoryAllocator@2@@Z 00000001800c8de0 f   PxgSoftBody.obj
 0001:000c7f50       ?initialTetData@PxgSoftBodyUtil@physx@@SAXAEAVPxgSoftBody@2@PEBVBVTetrahedronMesh@Gu@2@PEBVTetrahedronMesh@52@PEBVDeformableVolumeAuxData@52@PEBGPEAVPxsHeapMemoryAllocator@2@@Z 00000001800c8f50 f   PxgSoftBody.obj
 0001:000c89f0       ?loadOutTetMesh@PxgSoftBodyUtil@physx@@SAIPEAXPEBVBVTetrahedronMesh@Gu@2@@Z 00000001800c99f0 f   PxgSoftBody.obj
 0001:000c8ab0       ??0PxgFEMClothCore@physx@@QEAA@PEAVPxgCudaKernelWranglerManager@1@PEAVPxCudaContextManager@1@PEAVPxgHeapMemoryAllocatorManager@1@PEAVPxgSimulationController@1@PEAVPxgGpuContext@1@II_N@Z 00000001800c9ab0 f   PxgFEMClothCore.obj
 0001:000c8cc0       ??_EPxgFEMClothCore@physx@@UEAAPEAXI@Z 00000001800c9cc0 f i PxgFEMClothCore.obj
 0001:000c8cc0       ??_GPxgFEMClothCore@physx@@UEAAPEAXI@Z 00000001800c9cc0 f i PxgFEMClothCore.obj
 0001:000c8e30       ?applyDamping@PxgFEMClothCore@physx@@QEAAXIMPEAUCUstream_st@@@Z 00000001800c9e30 f   PxgFEMClothCore.obj
 0001:000c9110       ?applyExternalDelta@PxgFEMClothCore@physx@@QEAAXIMPEAUCUstream_st@@@Z 00000001800ca110 f   PxgFEMClothCore.obj
 0001:000c9260       ?checkBufferOverflows@PxgFEMClothCore@physx@@QEAAXXZ 00000001800ca260 f   PxgFEMClothCore.obj
 0001:000c9380       ?classifyTrianglePairs@physx@@YAXAEBV?$PxArray@Uuint4@@V?$PxReflectionAllocator@Uuint4@@@physx@@@1@AEBV?$PxArray@IV?$PxReflectionAllocator@I@physx@@@1@IPEAI2AEAV31@@Z 00000001800ca380 f   PxgFEMClothCore.obj
 0001:000c9510       ?classifyTriangles@physx@@YAXQEBUuint4@@AEBV?$PxArray@IV?$PxReflectionAllocator@I@physx@@@1@IPEAI2AEAV31@@Z 00000001800ca510 f   PxgFEMClothCore.obj
 0001:000c9770       ?combineTrianglePairPartitions@physx@@YAXAEAVPxgFEMCloth@1@AEAV?$PxArray@IV?$PxReflectionAllocator@I@physx@@@1@PEAIAEAUPxgFEMClothData@1@IAEBV31@AEBV?$PxArray@Uuint4@@V?$PxReflectionAllocator@Uuint4@@@physx@@@1@_NPEAVPxsHeapMemoryAllocator@1@@Z 00000001800ca770 f   PxgFEMClothCore.obj
 0001:000ca040       ?computeTrianglePairPartition@physx@@YAIAEBUuint4@@IPEAI@Z 00000001800cb040 f   PxgFEMClothCore.obj
 0001:000ca0e0       ?constraintPrep@PxgFEMClothCore@physx@@QEAAXU?$PxgDevicePointer@UPxgPrePrepDesc@physx@@@2@U?$PxgDevicePointer@UPxgConstraintPrepareDesc@physx@@@2@MU?$PxgDevicePointer@UPxgSolverSharedDescBase@physx@@@2@PEAUCUstream_st@@II@Z 00000001800cb0e0 f   PxgFEMClothCore.obj
 0001:000ca4d0       ?createActivatedDeactivatedLists@PxgFEMClothCore@physx@@QEAAXXZ 00000001800cb4d0 f   PxgFEMClothCore.obj
 0001:000ca630       ?differentClothCollision@PxgFEMClothCore@physx@@QEAAXXZ 00000001800cb630 f   PxgFEMClothCore.obj
 0001:000ca990       ?finalizeVelocities@PxgFEMClothCore@physx@@QEAAXM@Z 00000001800cb990 f   PxgFEMClothCore.obj
 0001:000cace0       ?partitionTrianglePairSimData@PxgFEMClothCore@physx@@QEAAXAEAVPxgFEMCloth@2@AEAUPxgFEMClothData@2@IAEAV?$PxArray@IV?$PxReflectionAllocator@I@physx@@@2@AEBV52@AEBV?$PxArray@Uuint4@@V?$PxReflectionAllocator@Uuint4@@@physx@@@2@_NPEAVPxsHeapMemoryAllocator@2@@Z 00000001800cbce0 f   PxgFEMClothCore.obj
 0001:000cae30       ?partitionTriangleSimData@PxgFEMClothCore@physx@@QEAAXAEAVPxgFEMCloth@2@AEAUPxgFEMClothData@2@AEAV?$PxArray@IV?$PxReflectionAllocator@I@physx@@@2@AEBV52@PEAVPxsHeapMemoryAllocator@2@@Z 00000001800cbe30 f   PxgFEMClothCore.obj
 0001:000cb110       ?preIntegrateSystems@PxgFEMClothCore@physx@@QEAAXIAEBV?$PxVec3T@M@2@M@Z 00000001800cc110 f   PxgFEMClothCore.obj
 0001:000cb3b0       ?preIteration@PxgFEMClothCore@physx@@QEAAXXZ 00000001800cc3b0 f   PxgFEMClothCore.obj
 0001:000cb530       ?prepClothParticleConstraint@PxgFEMClothCore@physx@@AEAAXXZ 00000001800cc530 f   PxgFEMClothCore.obj
 0001:000cb9e0       ?prepRigidContactConstraint@PxgFEMClothCore@physx@@AEAAXU?$PxgDevicePointer@UPxgPrePrepDesc@physx@@@2@U?$PxgDevicePointer@UPxgConstraintPrepareDesc@physx@@@2@MU?$PxgDevicePointer@UPxgSolverSharedDescBase@physx@@@2@PEAUCUstream_st@@II@Z 00000001800cc9e0 f   PxgFEMClothCore.obj
 0001:000cbca0       ?prepareClothClothCollision@PxgFEMClothCore@physx@@AEAAX_N0@Z 00000001800ccca0 f   PxgFEMClothCore.obj
 0001:000cc290       ?refitBound@PxgFEMClothCore@physx@@QEAAXIPEAUCUstream_st@@@Z 00000001800cd290 f   PxgFEMClothCore.obj
 0001:000cc4a0       ?resetClothVsNonclothContactCounts@PxgFEMClothCore@physx@@QEAAXXZ 00000001800cd4a0 f   PxgFEMClothCore.obj
 0001:000cc560       ?selfCollision@PxgFEMClothCore@physx@@QEAAXXZ 00000001800cd560 f   PxgFEMClothCore.obj
 0001:000cc830       ?solve@PxgFEMClothCore@physx@@QEAAXU?$PxgDevicePointer@UPxgPrePrepDesc@physx@@@2@U?$PxgDevicePointer@UPxgSolverCoreDesc@physx@@@2@U?$PxgDevicePointer@UPxgSolverSharedDescBase@physx@@@2@U?$PxgDevicePointer@UPxgArticulationCoreDesc@physx@@@2@MPEAUCUstream_st@@II_NAEBV?$PxVec3T@M@2@@Z 00000001800cd830 f   PxgFEMClothCore.obj
 0001:000cc900       ?solveClothContactsOutputClothDelta@PxgFEMClothCore@physx@@AEAAXM@Z 00000001800cd900 f   PxgFEMClothCore.obj
 0001:000cca50       ?solveNonSharedTriangles@PxgFEMClothCore@physx@@AEAAXPEAVPxgFEMCloth@2@U?$PxgDevicePointer@I@2@IM@Z 00000001800cda50 f   PxgFEMClothCore.obj
 0001:000cccd0       ?solveParticleContactsOutputParticleDelta@PxgFEMClothCore@physx@@AEAAXPEAUCUstream_st@@@Z 00000001800cdcd0 f   PxgFEMClothCore.obj
 0001:000cd000       ?solveRigidContactsOutputClothDelta@PxgFEMClothCore@physx@@AEAAXU?$PxgDevicePointer@UPxgPrePrepDesc@physx@@@2@U?$PxgDevicePointer@UPxgSolverCoreDesc@physx@@@2@U?$PxgDevicePointer@UPxgSolverSharedDescBase@physx@@@2@U?$PxgDevicePointer@UPxgArticulationCoreDesc@physx@@@2@M@Z 00000001800ce000 f   PxgFEMClothCore.obj
 0001:000cd2b0       ?solveRigidContactsOutputRigidDelta@PxgFEMClothCore@physx@@AEAAXU?$PxgDevicePointer@UPxgPrePrepDesc@physx@@@2@U?$PxgDevicePointer@UPxgSolverCoreDesc@physx@@@2@U?$PxgDevicePointer@UPxgSolverSharedDescBase@physx@@@2@U?$PxgDevicePointer@UPxgArticulationCoreDesc@physx@@@2@PEAUCUstream_st@@M@Z 00000001800ce2b0 f   PxgFEMClothCore.obj
 0001:000cd5f0       ?solveTrianglePairs@PxgFEMClothCore@physx@@AEAAXPEAVPxgFEMCloth@2@U?$PxgDevicePointer@I@2@IM_N@Z 00000001800ce5f0 f   PxgFEMClothCore.obj
 0001:000cd9b0       ?solve_position@PxgFEMClothCore@physx@@QEAAXU?$PxgDevicePointer@UPxgPrePrepDesc@physx@@@2@U?$PxgDevicePointer@UPxgSolverCoreDesc@physx@@@2@U?$PxgDevicePointer@UPxgSolverSharedDescBase@physx@@@2@U?$PxgDevicePointer@UPxgArticulationCoreDesc@physx@@@2@MPEAUCUstream_st@@IIAEBV?$PxVec3T@M@2@@Z 00000001800ce9b0 f   PxgFEMClothCore.obj
 0001:000cea10       ?sortContacts@PxgFEMClothCore@physx@@QEAAXI@Z 00000001800cfa10 f   PxgFEMClothCore.obj
 0001:000cf9c0       ?trianglePairPartitions@physx@@YAPEAIAEAVPxgFEMCloth@1@AEAV?$PxArray@IV?$PxReflectionAllocator@I@physx@@@1@AEBV31@AEBV?$PxArray@Uuint4@@V?$PxReflectionAllocator@Uuint4@@@physx@@@1@_N@Z 00000001800d09c0 f   PxgFEMClothCore.obj
 0001:000cfc30       ?updateUserData@PxgFEMClothCore@physx@@QEAA_NAEAV?$PxArray@VPxgFEMCloth@physx@@VPxVirtualAllocator@2@@2@AEAV?$PxArray@IV?$PxReflectionAllocator@I@physx@@@2@PEBIIPEAPEAX@Z 00000001800d0c30 f   PxgFEMClothCore.obj
 0001:000d0040       ?writeTrianglePairs@physx@@YAXAEBV?$PxArray@Uuint4@@V?$PxReflectionAllocator@Uuint4@@@physx@@@1@AEBV?$PxArray@IV?$PxReflectionAllocator@I@physx@@@1@IPEAI2AEAV31@2@Z 00000001800d1040 f   PxgFEMClothCore.obj
 0001:000d01a0       ?writeTriangles@physx@@YAXQEBUuint4@@AEBV?$PxArray@IV?$PxReflectionAllocator@I@physx@@@1@IPEAI2AEAV31@2@Z 00000001800d11a0 f   PxgFEMClothCore.obj
 0001:000d0920       ?categorizeClothConstraints@PxgFEMClothUtil@physx@@SAXAEAV?$PxArray@IV?$PxReflectionAllocator@I@physx@@@2@00AEAVPxgFEMCloth@2@AEBV?$PxArray@Uuint2@@V?$PxReflectionAllocator@Uuint2@@@physx@@@2@AEBV?$PxArray@Uuint4@@V?$PxReflectionAllocator@Uuint4@@@physx@@@2@@Z 00000001800d1920 f   PxgFEMCloth.obj
 0001:000d0b50       ?computeNonSharedTriangleConfiguration@PxgFEMClothUtil@physx@@SAXAEAVPxgFEMCloth@2@AEBV?$PxArray@IV?$PxReflectionAllocator@I@physx@@@2@1QEBVTriangleMesh@Gu@2@@Z 00000001800d1b50 f   PxgFEMCloth.obj
 0001:000d0f00       ?computeTriangleMeshByteSize@PxgFEMClothUtil@physx@@SAIPEBVTriangleMesh@Gu@2@@Z 00000001800d1f00 f   PxgFEMCloth.obj
 0001:000d0f20       ?computeTrianglePairConfiguration@PxgFEMClothUtil@physx@@SAXAEAVPxgFEMCloth@2@AEAV?$PxArray@Uuint2@@V?$PxReflectionAllocator@Uuint2@@@physx@@@2@AEBV?$PxArray@Uuint4@@V?$PxReflectionAllocator@Uuint4@@@physx@@@2@AEBV?$PxArray@IV?$PxReflectionAllocator@I@physx@@@2@3QEBVTriangleMesh@Gu@2@PEBUPxsDeformableSurfaceMaterialData@2@_N6@Z 00000001800d1f20 f   PxgFEMCloth.obj
 0001:000d1090       ?deallocate@PxgFEMCloth@physx@@QEAAXPEAVPxsHeapMemoryAllocator@2@@Z 00000001800d2090 f   PxgFEMCloth.obj
 0001:000d11f0       ?growAndPushBack@?$PxArray@Uuint2@@V?$PxReflectionAllocator@Uuint2@@@physx@@@physx@@IEAAAEAUuint2@@AEBU3@@Z 00000001800d21f0 f i PxgFEMCloth.obj
 0001:000d1310       ?growAndPushBack@?$PxArray@Uuint4@@V?$PxReflectionAllocator@Uuint4@@@physx@@@physx@@IEAAAEAUuint4@@AEBU3@@Z 00000001800d2310 f i PxgFEMCloth.obj
 0001:000d1430       ?growAndPushBack@?$PxArray@V?$PxPair@II@physx@@V?$PxReflectionAllocator@V?$PxPair@II@physx@@@2@@physx@@IEAAAEAV?$PxPair@II@2@AEBV32@@Z 00000001800d2430 f i PxgFEMCloth.obj
 0001:000d1560       ?initialTriangleData@PxgFEMClothUtil@physx@@SAIAEAVPxgFEMCloth@2@AEAV?$PxArray@Uuint2@@V?$PxReflectionAllocator@Uuint2@@@physx@@@2@AEAV?$PxArray@Uuint4@@V?$PxReflectionAllocator@Uuint4@@@physx@@@2@PEBVTriangleMesh@Gu@2@PEBGPEAUPxsDeformableSurfaceMaterialData@2@I@Z 00000001800d2560 f   PxgFEMCloth.obj
 0001:000d1e20       ?loadOutTriangleMesh@PxgFEMClothUtil@physx@@SAIPEAXPEBVTriangleMesh@Gu@2@@Z 00000001800d2e20 f   PxgFEMCloth.obj
 0001:000d1ee0       ?recreate@?$PxArray@Uuint2@@V?$PxReflectionAllocator@Uuint2@@@physx@@@physx@@IEAAXI@Z 00000001800d2ee0 f i PxgFEMCloth.obj
 0001:000d1fd0       ?recreate@?$PxArray@Uuint4@@V?$PxReflectionAllocator@Uuint4@@@physx@@@physx@@IEAAXI@Z 00000001800d2fd0 f i PxgFEMCloth.obj
 0001:000d20c0       ?recreate@?$PxArray@V?$PxPair@II@physx@@V?$PxReflectionAllocator@V?$PxPair@II@physx@@@2@@physx@@IEAAXI@Z 00000001800d30c0 f i PxgFEMCloth.obj
 0001:000d21b0       ?recreate@?$PxArray@_NV?$PxReflectionAllocator@_N@physx@@@physx@@IEAAXI@Z 00000001800d31b0 f i PxgFEMCloth.obj
 0001:000d22a0       ?resize@?$PxArray@_NV?$PxReflectionAllocator@_N@physx@@@physx@@QEAAXIAEB_N@Z 00000001800d32a0 f i PxgFEMCloth.obj
 0001:000d2360       ?updateRestConfiguration@PxgFEMClothUtil@physx@@SA_NPEAUfloat4@@PEAUuint4@@AEAVPxgFEMCloth@2@IIAEAV?$PxArray@Uuint2@@V?$PxReflectionAllocator@Uuint2@@@physx@@@2@AEBV?$PxArray@Uuint4@@V?$PxReflectionAllocator@Uuint4@@@physx@@@2@PEBUPxsDeformableSurfaceMaterialData@2@PEBV?$PxVec3T@M@2@_N00@Z 00000001800d3360 f   PxgFEMCloth.obj
 0001:000d2d20       ??0PxgNonRigidCore@physx@@QEAA@PEAVPxgCudaKernelWranglerManager@1@PEAVPxCudaContextManager@1@PEAVPxgHeapMemoryAllocatorManager@1@PEAVPxgSimulationController@1@PEAVPxgGpuContext@1@IIW4Enum@PxsHeapStats@1@@Z 00000001800d3d20 f   PxgNonRigidCoreCommon.obj
 0001:000d3220       ??1PxgNonRigidCore@physx@@UEAA@XZ 00000001800d4220 f   PxgNonRigidCoreCommon.obj
 0001:000d33b0       ??_GPxgNonRigidCore@physx@@UEAAPEAXI@Z 00000001800d43b0 f i PxgNonRigidCoreCommon.obj
 0001:000d33b0       ??_EPxgNonRigidCore@physx@@UEAAPEAXI@Z 00000001800d43b0 f i PxgNonRigidCoreCommon.obj
 0001:000d33f0       ?updateGPURadixSortBlockDesc@PxgNonRigidCore@physx@@QEAAXPEAUCUstream_st@@_K11111PEAUPxgRadixSortBlockDesc@2@11@Z 00000001800d43f0 f   PxgNonRigidCoreCommon.obj
 0001:000d34e0       ??0PxgFEMCore@physx@@QEAA@PEAVPxgCudaKernelWranglerManager@1@PEAVPxCudaContextManager@1@PEAVPxgHeapMemoryAllocatorManager@1@PEAVPxgSimulationController@1@PEAVPxgGpuContext@1@II_NW4Enum@PxsHeapStats@1@@Z 00000001800d44e0 f   PxgFEMCore.obj
 0001:000d4190       ??1PxgFEMCore@physx@@UEAA@XZ 00000001800d5190 f   PxgFEMCore.obj
 0001:000d44e0       ??_EPxgFEMCore@physx@@UEAAPEAXI@Z 00000001800d54e0 f i PxgFEMCore.obj
 0001:000d44e0       ??_GPxgFEMCore@physx@@UEAAPEAXI@Z 00000001800d54e0 f i PxgFEMCore.obj
 0001:000d4520       ?accumulateRigidDeltas@PxgFEMCore@physx@@IEAAXU?$PxgDevicePointer@UPxgPrePrepDesc@physx@@@2@U?$PxgDevicePointer@UPxgSolverCoreDesc@physx@@@2@U?$PxgDevicePointer@UPxgSolverSharedDescBase@physx@@@2@U?$PxgDevicePointer@UPxgArticulationCoreDesc@physx@@@2@U?$PxgDevicePointer@VPxNodeIndex@physx@@@2@U?$PxgDevicePointer@I@2@PEAUCUstream_st@@PEAUCUevent_st@@_N@Z 00000001800d5520 f   PxgFEMCore.obj
 0001:000d47f0       ?copyContactCountsToHost@PxgFEMCore@physx@@QEAAXXZ 00000001800d57f0 f   PxgFEMCore.obj
 0001:000d4a40       ?reorderRigidContacts@PxgFEMCore@physx@@QEAAXXZ 00000001800d5a40 f   PxgFEMCore.obj
 0001:000d4cb0       ?reserveRigidDeltaVelBuf@PxgFEMCore@physx@@QEAAXI@Z 00000001800d5cb0 f   PxgFEMCore.obj
 0001:000d4ce0       ?updateGPURadixSortDesc@PxgRadixSortCore@physx@@SAXPEAVPxCudaContext@2@AEBQEAUCUstream_st@@_K2222PEAUPxgRadixSortDesc@2@22I@Z 00000001800d5ce0 f   PxgRadixSortCore.obj
 0001:000d4dd0       ??$computeBlockSum@I@physx@@YAXAEAVPxgKernelLauncher@0@PEBIPEAI22IIIAEBQEAUCUstream_st@@2@Z 00000001800d5dd0 f i PxgAlgorithms.obj
 0001:000d4fd0       ??$computeBlockSum@UPxInt4x4@physx@@@physx@@YAXAEAVPxgKernelLauncher@0@PEBUPxInt4x4@0@PEAU20@22IIIAEBQEAUCUstream_st@@2@Z 00000001800d5fd0 f i PxgAlgorithms.obj
 0001:000d52d0       ?initialize@?$PxGpuRadixSort@I@physx@@UEAA_NPEAVPxgKernelLauncher@2@II@Z 00000001800d62d0 f i PxgAlgorithms.obj
 0001:000d54b0       ?initialize@PxGpuScan@physx@@QEAA_NPEAVPxgKernelLauncher@2@II@Z 00000001800d64b0 f   PxgAlgorithms.obj
 0001:000d5600       ?release@?$PxGpuRadixSort@I@physx@@UEAA_NXZ 00000001800d6600 f i PxgAlgorithms.obj
 0001:000d5780       ?release@PxGpuScan@physx@@QEAA_NXZ 00000001800d6780 f   PxgAlgorithms.obj
 0001:000d5860       ?scan@PxGpuScan@physx@@AEAAXPEAIIAEBQEAUCUstream_st@@I@Z 00000001800d6860 f   PxgAlgorithms.obj
 0001:000d5950       ?scanPerBlockLaunch@physx@@YAXAEAVPxgKernelLauncher@1@PEBIPEAI2IIIPEAUCUstream_st@@I2@Z 00000001800d6950 f   PxgAlgorithms.obj
 0001:000d5a80       ?sort@?$PxGpuRadixSort@I@physx@@UEAAXPEAIIAEBQEAUCUstream_st@@0I@Z 00000001800d6a80 f i PxgAlgorithms.obj
 0001:000d5ec0       ??0PxgAnisotropyGenerator@physx@@QEAA@AEAVPxgKernelLauncher@1@IMMM@Z 00000001800d6ec0 f   PxgAnisotropy.obj
 0001:000d5f90       ??_GPxgAnisotropyGenerator@physx@@UEAAPEAXI@Z 00000001800d6f90 f i PxgAnisotropy.obj
 0001:000d5f90       ??_EPxgAnisotropyGenerator@physx@@UEAAPEAXI@Z 00000001800d6f90 f i PxgAnisotropy.obj
 0001:000d5fe0       ?allocateGPUAnisotropyBuffers@PxgAnisotropyGenerator@physx@@AEAAXXZ 00000001800d6fe0 f   PxgAnisotropy.obj
 0001:000d60f0       ?generateAnisotropy@PxgAnisotropyGenerator@physx@@UEAAXPEAV?$PxVec4T@M@2@AEAVPxParticleNeighborhoodProvider@2@IMPEAUCUstream_st@@@Z 00000001800d70f0 f   PxgAnisotropy.obj
 0001:000d63b0       ?generateAnisotropy@PxgAnisotropyGenerator@physx@@UEAAXPEAVPxGpuParticleSystem@2@IPEAUCUstream_st@@@Z 00000001800d73b0 f   PxgAnisotropy.obj
 0001:000d65d0       ?getMaxParticles@PxgAnisotropyGenerator@physx@@UEBAIXZ 00000001800d75d0 f i PxgAnisotropy.obj
 0001:000d65e0       ?isEnabled@PxgAnisotropyGenerator@physx@@UEBA_NXZ 00000001800d75e0 f i PxgAnisotropy.obj
 0001:000d65f0       ?release@PxgAnisotropyGenerator@physx@@UEAAXXZ 00000001800d75f0 f   PxgAnisotropy.obj
 0001:000d6670       ?releaseGPUAnisotropyBuffers@PxgAnisotropyGenerator@physx@@AEAAXXZ 00000001800d7670 f   PxgAnisotropy.obj
 0001:000d6740       ?setAnisotropyMax@PxgAnisotropyGenerator@physx@@UEAAXM@Z 00000001800d7740 f i PxgAnisotropy.obj
 0001:000d6750       ?setAnisotropyMin@PxgAnisotropyGenerator@physx@@UEAAXM@Z 00000001800d7750 f i PxgAnisotropy.obj
 0001:000d6760       ?setAnisotropyScale@PxgAnisotropyGenerator@physx@@UEAAXM@Z 00000001800d7760 f i PxgAnisotropy.obj
 0001:000d6770       ?setEnabled@PxgAnisotropyGenerator@physx@@UEAAX_N@Z 00000001800d7770 f i PxgAnisotropy.obj
 0001:000d6780       ?setMaxParticles@PxgAnisotropyGenerator@physx@@UEAAXI@Z 00000001800d7780 f   PxgAnisotropy.obj
 0001:000d67b0       ?setResultBufferDevice@PxgAnisotropyGenerator@physx@@UEAAXPEAV?$PxVec4T@M@2@00@Z 00000001800d77b0 f   PxgAnisotropy.obj
 0001:000d6810       ?setResultBufferHost@PxgAnisotropyGenerator@physx@@UEAAXPEAV?$PxVec4T@M@2@00@Z 00000001800d7810 f   PxgAnisotropy.obj
 0001:000d6840       ??0PxgParticleNeighborhoodProvider@physx@@QEAA@AEAVPxgKernelLauncher@1@IMI@Z 00000001800d7840 f   PxgParticleNeighborhood.obj
 0001:000d6980       ??_EPxParticleNeighborhoodProvider@physx@@UEAAPEAXI@Z 00000001800d7980 f i PxgParticleNeighborhood.obj
 0001:000d6980       ??_GPxParticleNeighborhoodProvider@physx@@UEAAPEAXI@Z 00000001800d7980 f i PxgParticleNeighborhood.obj
 0001:000d69b0       ??_EPxgParticleNeighborhoodProvider@physx@@UEAAPEAXI@Z 00000001800d79b0 f i PxgParticleNeighborhood.obj
 0001:000d69b0       ??_GPxgParticleNeighborhoodProvider@physx@@UEAAPEAXI@Z 00000001800d79b0 f i PxgParticleNeighborhood.obj
 0001:000d6a60       ?buildNeighborhood@PxgParticleNeighborhoodProvider@physx@@UEAAXPEAV?$PxVec4T@M@2@IPEAUCUstream_st@@PEAIIPEBI@Z 00000001800d7a60 f i PxgParticleNeighborhood.obj
 0001:000d6ac0       ?getCellSize@PxgParticleNeighborhoodProvider@physx@@UEBAMXZ 00000001800d7ac0 f i PxgParticleNeighborhood.obj
 0001:000d6ad0       ?getMaxGridCells@PxgParticleNeighborhoodProvider@physx@@UEBAIXZ 00000001800d7ad0 f i PxgParticleNeighborhood.obj
 0001:000d6ae0       ?getMaxParticles@PxgParticleNeighborhoodProvider@physx@@UEBAIXZ 00000001800d7ae0 f i PxgParticleNeighborhood.obj
 0001:000d6af0       ?getNumGridCellsInUse@PxgParticleNeighborhoodProvider@physx@@UEBAIXZ 00000001800d7af0 f i PxgParticleNeighborhood.obj
 0001:000d6b00       ?release@PxgParticleNeighborhoodProvider@physx@@UEAAXXZ 00000001800d7b00 f i PxgParticleNeighborhood.obj
 0001:000d6b30       ?setCellProperties@PxgParticleNeighborhoodProvider@physx@@UEAAXIM@Z 00000001800d7b30 f   PxgParticleNeighborhood.obj
 0001:000d6bc0       ?setMaxParticles@PxgParticleNeighborhoodProvider@physx@@UEAAXI@Z 00000001800d7bc0 f i PxgParticleNeighborhood.obj
 0001:000d6c20       ??0PxgSmoothedPositionGenerator@physx@@QEAA@AEAVPxgKernelLauncher@1@IM@Z 00000001800d7c20 f   PxgSmoothing.obj
 0001:000d6cd0       ??_GPxSmoothedPositionGenerator@physx@@UEAAPEAXI@Z 00000001800d7cd0 f i PxgSmoothing.obj
 0001:000d6cd0       ??_EPxSmoothedPositionGenerator@physx@@UEAAPEAXI@Z 00000001800d7cd0 f i PxgSmoothing.obj
 0001:000d6d00       ??_EPxgSmoothedPositionGenerator@physx@@UEAAPEAXI@Z 00000001800d7d00 f i PxgSmoothing.obj
 0001:000d6d00       ??_GPxgSmoothedPositionGenerator@physx@@UEAAPEAXI@Z 00000001800d7d00 f i PxgSmoothing.obj
 0001:000d6d50       ?allocateGPUSmoothedPositionBuffers@PxgSmoothedPositionGenerator@physx@@AEAAXXZ 00000001800d7d50 f   PxgSmoothing.obj
 0001:000d6dd0       ?generateSmoothedPositions@PxgSmoothedPositionGenerator@physx@@UEAAXPEAV?$PxVec4T@M@2@AEAVPxParticleNeighborhoodProvider@2@IMPEAUCUstream_st@@@Z 00000001800d7dd0 f   PxgSmoothing.obj
 0001:000d6fd0       ?generateSmoothedPositions@PxgSmoothedPositionGenerator@physx@@UEAAXPEAVPxGpuParticleSystem@2@IPEAUCUstream_st@@@Z 00000001800d7fd0 f   PxgSmoothing.obj
 0001:000d7190       ?getMaxParticles@PxgSmoothedPositionGenerator@physx@@UEBAIXZ 00000001800d8190 f i PxgSmoothing.obj
 0001:000d71a0       ?isEnabled@PxgSmoothedPositionGenerator@physx@@UEBA_NXZ 00000001800d81a0 f i PxgSmoothing.obj
 0001:000d71b0       ?release@PxgSmoothedPositionGenerator@physx@@UEAAXXZ 00000001800d81b0 f   PxgSmoothing.obj
 0001:000d7230       ?releaseGPUSmoothedPositionBuffers@PxgSmoothedPositionGenerator@physx@@AEAAXXZ 00000001800d8230 f   PxgSmoothing.obj
 0001:000d7290       ?setEnabled@PxgSmoothedPositionGenerator@physx@@UEAAX_N@Z 00000001800d8290 f i PxgSmoothing.obj
 0001:000d72a0       ?setMaxParticles@PxgSmoothedPositionGenerator@physx@@UEAAXI@Z 00000001800d82a0 f   PxgSmoothing.obj
 0001:000d72d0       ?setResultBufferDevice@PxgSmoothedPositionGenerator@physx@@UEAAXPEAV?$PxVec4T@M@2@@Z 00000001800d82d0 f i PxgSmoothing.obj
 0001:000d7350       ?setResultBufferHost@PxgSmoothedPositionGenerator@physx@@UEAAXPEAV?$PxVec4T@M@2@@Z 00000001800d8350 f i PxgSmoothing.obj
 0001:000d7370       ?setSmoothing@PxgSmoothedPositionGenerator@physx@@UEAAXM@Z 00000001800d8370 f i PxgSmoothing.obj
 0001:000d7380       ?initialize@PxSparseGridBuilder@physx@@UEAAXPEAVPxgKernelLauncher@2@AEBUPxSparseGridParams@2@II_N@Z 00000001800d8380 f   PxgSparseGridStandalone.obj
 0001:000d7690       ?release@PxSparseGridBuilder@physx@@UEAAXXZ 00000001800d8690 f   PxgSparseGridStandalone.obj
 0001:000d78d0       ?sparseGridGetUniqueValues@physx@@YAXAEAVPxgKernelLauncher@1@PEBI1PEAII2IPEAUCUstream_st@@@Z 00000001800d88d0 f   PxgSparseGridStandalone.obj
 0001:000d79f0       ?sparseGridSortedArrayToDelta@physx@@YAXAEAVPxgKernelLauncher@1@PEBI1PEAIIPEAUCUstream_st@@@Z 00000001800d89f0 f   PxgSparseGridStandalone.obj
 0001:000d7b00       ?updateSparseGrid@PxSparseGridBuilder@physx@@UEAAXPEAV?$PxVec4T@M@2@IPEAIPEAUCUstream_st@@IPEBI@Z 00000001800d8b00 f   PxgSparseGridStandalone.obj
 0001:000d7cd0       ?updateSubgridEndIndices@PxSparseGridBuilder@physx@@QEAAXIPEAUCUstream_st@@@Z 00000001800d8cd0 f   PxgSparseGridStandalone.obj
 0001:000d7de0       ?updateSubgrids@PxSparseGridBuilder@physx@@IEAAPEAIPEAV?$PxVec4T@M@2@IPEAIPEAUCUstream_st@@IPEBI@Z 00000001800d8de0 f   PxgSparseGridStandalone.obj
 0001:000d8340       ??$launchKernel@UPxIsosurfaceExtractionData@physx@@@PxgKernelLauncher@physx@@QEAA?AU?$PxCUenum@I@1@GIIIPEAUCUstream_st@@AEBUPxIsosurfaceExtractionData@1@@Z 00000001800d9340 f i PxgIsosurfaceExtraction.obj
 0001:000d8340       ??$launchKernel@UPxSparseIsosurfaceExtractionData@physx@@@PxgKernelLauncher@physx@@QEAA?AU?$PxCUenum@I@1@GIIIPEAUCUstream_st@@AEBUPxSparseIsosurfaceExtractionData@1@@Z 00000001800d9340 f i PxgIsosurfaceExtraction.obj
 0001:000d8460       ??$launchKernel@UPxSparseIsosurfaceExtractionData@physx@@M@PxgKernelLauncher@physx@@QEAA?AU?$PxCUenum@I@1@GIIIPEAUCUstream_st@@AEBUPxSparseIsosurfaceExtractionData@1@AEBM@Z 00000001800d9460 f i PxgIsosurfaceExtraction.obj
 0001:000d8460       ??$launchKernel@UPxIsosurfaceExtractionData@physx@@M@PxgKernelLauncher@physx@@QEAA?AU?$PxCUenum@I@1@GIIIPEAUCUstream_st@@AEBUPxIsosurfaceExtractionData@1@AEBM@Z 00000001800d9460 f i PxgIsosurfaceExtraction.obj
 0001:000d8590       ??$meshFromDensity@UPxIsosurfaceExtractionData@physx@@@PxgSharedIsosurfaceExtractor@physx@@QEAAXAEAUPxIsosurfaceExtractionData@1@PEAUCUstream_st@@@Z 00000001800d9590 f i PxgIsosurfaceExtraction.obj
 0001:000d8bf0       ??$meshFromDensity@UPxSparseIsosurfaceExtractionData@physx@@@PxgSharedIsosurfaceExtractor@physx@@QEAAXAEAUPxSparseIsosurfaceExtractionData@1@PEAUCUstream_st@@@Z 00000001800d9bf0 f i PxgIsosurfaceExtraction.obj
 0001:000d92a0       ?allocateGPUBuffers@PxgDenseGridIsosurfaceExtractor@physx@@MEAAXXZ 00000001800da2a0 f   PxgIsosurfaceExtraction.obj
 0001:000d93c0       ?allocateGPUBuffers@PxgSparseGridIsosurfaceExtractor@physx@@MEAAXXZ 00000001800da3c0 f   PxgIsosurfaceExtraction.obj
 0001:000d94e0       ?averageVertsLaunch@physx@@YAXAEAVPxgKernelLauncher@1@PEAV?$PxVec4T@M@1@1PEBIPEAUCUstream_st@@M@Z 00000001800da4e0 f   PxgIsosurfaceExtraction.obj
 0001:000d95e0       ?clearDensity@PxgDenseGridIsosurfaceExtractor@physx@@UEAAXPEAUCUstream_st@@@Z 00000001800da5e0 f   PxgIsosurfaceExtraction.obj
 0001:000d96c0       ?clearDensity@PxgSparseGridIsosurfaceExtractor@physx@@UEAAXPEAUCUstream_st@@@Z 00000001800da6c0 f   PxgIsosurfaceExtraction.obj
 0001:000d9850       ?extractIsosurface@PxgDenseGridIsosurfaceExtractor@physx@@UEAAXPEAV?$PxVec4T@M@2@IPEAUCUstream_st@@PEAII2000M@Z 00000001800da850 f   PxgIsosurfaceExtraction.obj
 0001:000d9a20       ?extractIsosurface@PxgSparseGridIsosurfaceExtractor@physx@@UEAAXPEAV?$PxVec4T@M@2@IPEAUCUstream_st@@PEAII2000M@Z 00000001800daa20 f   PxgIsosurfaceExtraction.obj
 0001:000d9c40       ?initialize@PxgDenseGridIsosurfaceExtractor@physx@@QEAAXAEAVPxgKernelLauncher@2@AEBVPxBounds3@2@MAEBUPxIsosurfaceParams@2@III@Z 00000001800dac40 f   PxgIsosurfaceExtraction.obj
 0001:000d9fe0       ?initialize@PxgSparseGridIsosurfaceExtractor@physx@@QEAAXAEAVPxgKernelLauncher@2@UPxSparseGridParams@2@AEBUPxIsosurfaceParams@2@III@Z 00000001800dafe0 f   PxgIsosurfaceExtraction.obj
 0001:000da330       ?paramsToMCData@PxgDenseGridIsosurfaceExtractor@physx@@IEAAXXZ 00000001800db330 f   PxgIsosurfaceExtraction.obj
 0001:000da370       ?paramsToMCData@PxgSparseGridIsosurfaceExtractor@physx@@IEAAXXZ 00000001800db370 f   PxgIsosurfaceExtraction.obj
 0001:000da3b0       ?release@PxgDenseGridIsosurfaceExtractor@physx@@UEAAXXZ 00000001800db3b0 f   PxgIsosurfaceExtraction.obj
 0001:000da620       ?release@PxgSparseGridIsosurfaceExtractor@physx@@UEAAXXZ 00000001800db620 f   PxgIsosurfaceExtraction.obj
 0001:000da8a0       ?releaseGPUBuffers@PxgDenseGridIsosurfaceExtractor@physx@@MEAAXXZ 00000001800db8a0 f   PxgIsosurfaceExtraction.obj
 0001:000da990       ?releaseGPUBuffers@PxgSparseGridIsosurfaceExtractor@physx@@MEAAXXZ 00000001800db990 f   PxgIsosurfaceExtraction.obj
 0001:000daa80       ?setMaxParticles@PxgSparseGridIsosurfaceExtractor@physx@@UEAAXI@Z 00000001800dba80 f   PxgIsosurfaceExtraction.obj
 0001:000dab40       ?setMaxVerticesAndTriangles@PxgDenseGridIsosurfaceExtractor@physx@@MEAAXII@Z 00000001800dbb40 f   PxgIsosurfaceExtraction.obj
 0001:000dae00       ?setMaxVerticesAndTriangles@PxgSparseGridIsosurfaceExtractor@physx@@MEAAXII@Z 00000001800dbe00 f   PxgIsosurfaceExtraction.obj
 0001:000db0c0       ?setResultBufferDevice@PxgDenseGridIsosurfaceExtractor@physx@@UEAAXPEAV?$PxVec4T@M@2@PEAI0@Z 00000001800dc0c0 f   PxgIsosurfaceExtraction.obj
 0001:000db140       ?setResultBufferDevice@PxgSparseGridIsosurfaceExtractor@physx@@UEAAXPEAV?$PxVec4T@M@2@PEAI0@Z 00000001800dc140 f   PxgIsosurfaceExtraction.obj
 0001:000db1c0       ?setResultBufferHost@PxgDenseGridIsosurfaceExtractor@physx@@UEAAXPEAV?$PxVec4T@M@2@PEAI0@Z 00000001800dc1c0 f   PxgIsosurfaceExtraction.obj
 0001:000db230       ?setResultBufferHost@PxgSparseGridIsosurfaceExtractor@physx@@UEAAXPEAV?$PxVec4T@M@2@PEAI0@Z 00000001800dc230 f   PxgIsosurfaceExtraction.obj
 0001:000db2a0       ?smoothVertsLaunch@physx@@YAXAEAVPxgKernelLauncher@1@PEBV?$PxVec4T@M@1@PEAV31@PEBI3PEAUCUstream_st@@@Z 00000001800dc2a0 f   PxgIsosurfaceExtraction.obj
 0001:000db3a0       ??0PxgArrayConverter@physx@@QEAA@AEAVPxgKernelLauncher@1@@Z 00000001800dc3a0 f   PxgArrayConverter.obj
 0001:000db3c0       ??_GPxArrayConverter@physx@@UEAAPEAXI@Z 00000001800dc3c0 f i PxgArrayConverter.obj
 0001:000db3c0       ??_EPxArrayConverter@physx@@UEAAPEAXI@Z 00000001800dc3c0 f i PxgArrayConverter.obj
 0001:000db3f0       ??_GPxgArrayConverter@physx@@UEAAPEAXI@Z 00000001800dc3f0 f i PxgArrayConverter.obj
 0001:000db3f0       ??_EPxgArrayConverter@physx@@UEAAPEAXI@Z 00000001800dc3f0 f i PxgArrayConverter.obj
 0001:000db440       ?interleaveGpuBuffers@PxgArrayConverter@physx@@UEAAXPEBV?$PxVec4T@M@2@0IPEAV?$PxVec3T@M@2@PEAUCUstream_st@@@Z 00000001800dc440 f   PxgArrayConverter.obj
 0001:000db550       ??$launchKernelPtr@HPEAIPEAHPEAMPEAHPEAHPEAHPEAUPxgPackedNodeHalf@physx@@PEAU12@@PxgKernelLauncher@physx@@QEAA?AU?$PxCUenum@I@1@GIIIPEAUCUstream_st@@PEBHPEBQEAIPEBQEAHPEBQEAM333PEBQEAUPxgPackedNodeHalf@1@5@Z 00000001800dc550 f i PxgSDFBuilder.obj
 0001:000db6d0       ??0PxgLinearBVHBuilderGPU@physx@@QEAA@AEAVPxgKernelLauncher@1@@Z 00000001800dc6d0 f   PxgSDFBuilder.obj
 0001:000db820       ??0PxgSDFBuilder@physx@@QEAA@AEAVPxgKernelLauncher@1@@Z 00000001800dc820 f   PxgSDFBuilder.obj
 0001:000db840       ??_EPxDeformableSkinning@physx@@UEAAPEAXI@Z 00000001800dc840 f i PxgDeformableSkinning.obj
 0001:000db840       ??_GPxSDFBuilder@physx@@UEAAPEAXI@Z 00000001800dc840 f i PxgSDFBuilder.obj
 0001:000db840       ??_EPxSDFBuilder@physx@@UEAAPEAXI@Z 00000001800dc840 f i PxgSDFBuilder.obj
 0001:000db840       ??_GPxDeformableSkinning@physx@@UEAAPEAXI@Z 00000001800dc840 f i PxgDeformableSkinning.obj
 0001:000db870       ??_GPxgDeformableSkinning@physx@@UEAAPEAXI@Z 00000001800dc870 f i PxgDeformableSkinning.obj
 0001:000db870       ??_EPxgSDFBuilder@physx@@UEAAPEAXI@Z 00000001800dc870 f i PxgSDFBuilder.obj
 0001:000db870       ??_EPxgDeformableSkinning@physx@@UEAAPEAXI@Z 00000001800dc870 f i PxgDeformableSkinning.obj
 0001:000db870       ??_GPxgSDFBuilder@physx@@UEAAPEAXI@Z 00000001800dc870 f i PxgSDFBuilder.obj
 0001:000db8c0       ?allocateOrResize@PxgLinearBVHBuilderGPU@physx@@QEAAXAEAUPxgBVH@2@I@Z 00000001800dc8c0 f   PxgSDFBuilder.obj
 0001:000dbdc0       ?buildDenseSDF@PxgSDFBuilder@physx@@AEAAPEAMPEBV?$PxVec3T@M@2@IPEBIIIIIAEBV32@2_NPEAUCUstream_st@@@Z 00000001800dcdc0 f   PxgSDFBuilder.obj
 0001:000dc710       ?buildSDF@PxgSDFBuilder@physx@@UEAA_NPEBV?$PxVec3T@M@2@IPEBIIIIIAEBV32@2_NPEAMPEAUCUstream_st@@@Z 00000001800dd710 f   PxgSDFBuilder.obj
 0001:000dc950       ?buildSparseSDF@PxgSDFBuilder@physx@@UEAA_NPEBV?$PxVec3T@M@2@IPEBIIIIIAEBV32@2MIW4Enum@PxSdfBitsPerSubgridPixel@2@AEAV?$PxArray@MV?$PxReflectionAllocator@M@physx@@@2@AEAV?$PxArray@IV?$PxReflectionAllocator@I@physx@@@2@AEAV?$PxArray@EV?$PxReflectionAllocator@E@physx@@@2@AEAM7AEAI88PEAUCUstream_st@@@Z 00000001800dd950 f   PxgSDFBuilder.obj
 0001:000dcce0       ?buildTreeAndWindingClustersFromTriangles@PxgLinearBVHBuilderGPU@physx@@QEAAXAEAUPxgBVH@2@PEAUPxgWindingClusterApproximation@2@PEBV?$PxVec3T@M@2@PEBIPEBHHPEAVPxBounds3@2@PEAUCUstream_st@@M_N@Z 00000001800ddce0 f   PxgSDFBuilder.obj
 0001:000dcf90       ?compressSDF@PxgSDFBuilder@physx@@AEAAXPEAMIIIIMIMAEAM1AEAV?$PxArray@MV?$PxReflectionAllocator@M@physx@@@2@AEAV?$PxArray@IV?$PxReflectionAllocator@I@physx@@@2@AEAV?$PxArray@EV?$PxReflectionAllocator@E@physx@@@2@AEAI55PEAUCUstream_st@@@Z 00000001800ddf90 f   PxgSDFBuilder.obj
 0001:000ddf50       ?fixHoles@PxgSDFBuilder@physx@@AEAAXIIIPEAMAEBV?$PxVec3T@M@2@11AEAUGridQueryPointSampler@Gu@2@PEAUCUstream_st@@@Z 00000001800def50 f   PxgSDFBuilder.obj
 0001:000de920       ?prepareHierarchConstruction@PxgLinearBVHBuilderGPU@physx@@AEAAXAEAUPxgBVH@2@PEBV?$PxVec4T@M@2@1PEBHHPEAVPxBounds3@2@PEAUCUstream_st@@@Z 00000001800df920 f   PxgSDFBuilder.obj
 0001:000df150       ?recreate@?$PxArray@EV?$PxReflectionAllocator@E@physx@@@physx@@IEAAXI@Z 00000001800e0150 f i PxgSDFBuilder.obj
 0001:000df240       ?recreate@?$PxArray@MV?$PxReflectionAllocator@M@physx@@@physx@@IEAAXI@Z 00000001800e0240 f i PxgSDFBuilder.obj
 0001:000df370       ?release@PxgLinearBVHBuilderGPU@physx@@QEAAXXZ 00000001800e0370 f   PxgSDFBuilder.obj
 0001:000df5d0       ?release@PxgSDFBuilder@physx@@UEAAXXZ 00000001800e05d0 f   PxgSDFBuilder.obj
 0001:000df5f0       ?resize@?$PxArray@EV?$PxReflectionAllocator@E@physx@@@physx@@QEAAXIAEBE@Z 00000001800e05f0 f i PxgSDFBuilder.obj
 0001:000df6b0       ?resize@?$PxArray@MV?$PxReflectionAllocator@M@physx@@@physx@@QEAAXIAEBM@Z 00000001800e06b0 f i PxgSDFBuilder.obj
 0001:000df7c0       ??0PxgDeformableSkinning@physx@@QEAA@AEAVPxgKernelLauncher@1@@Z 00000001800e07c0 f   PxgDeformableSkinning.obj
 0001:000df7e0       ?computeNormalVectors@PxgDeformableSkinning@physx@@UEAAXPEAUPxTrimeshSkinningGpuData@2@IPEAUCUstream_st@@I@Z 00000001800e07e0 f   PxgDeformableSkinning.obj
 0001:000dfa90       ?evaluateVerticesEmbeddedIntoSurface@PxgDeformableSkinning@physx@@UEAAXPEAUPxTrimeshSkinningGpuData@2@IPEAUCUstream_st@@I@Z 00000001800e0a90 f   PxgDeformableSkinning.obj
 0001:000dfbb0       ?evaluateVerticesEmbeddedIntoVolume@PxgDeformableSkinning@physx@@UEAAXPEAUPxTetmeshSkinningGpuData@2@IPEAUCUstream_st@@I@Z 00000001800e0bb0 f   PxgDeformableSkinning.obj
 0001:000dfcf0       initSolverKernels6         00000001800e0cf0 f   solverMultiBlock.obj
 0001:000dfd00       ZeroBodies                 00000001800e0d00 f   solverMultiBlock.obj
 0001:000dfdd0       markActiveSlabPGS          00000001800e0dd0 f   solverMultiBlock.obj
 0001:000dfef0       solveBlockPartition        00000001800e0ef0 f   solverMultiBlock.obj
 0001:000e0010       writebackBlocks            00000001800e1010 f   solverMultiBlock.obj
 0001:000e0110       concludeBlocks             00000001800e1110 f   solverMultiBlock.obj
 0001:000e0210       writeBackBodies            00000001800e1210 f   solverMultiBlock.obj
 0001:000e0310       computeAverageSolverBodyVelocity 00000001800e1310 f   solverMultiBlock.obj
 0001:000e03e0       propagateSolverBodyVelocity 00000001800e13e0 f   solverMultiBlock.obj
 0001:000e04b0       dmaBackChangedElems        00000001800e14b0 f   solverMultiBlock.obj
 0001:000e0580       dmaConstraintResidual      00000001800e1580 f   solverMultiBlock.obj
 0001:000e0680       solveStaticBlock           00000001800e1680 f   solverMultiBlock.obj
 0001:000e07b0       propagateStaticSolverBodyVelocities 00000001800e17b0 f   solverMultiBlock.obj
 0001:000e0900       ?__device_stub__Z10ZeroBodiesPKN5physx17PxgSolverCoreDescEPKNS_19PxgSolverSharedDescINS_18IterativeSolveDataEEE@@YAXPEBUPxgSolverCoreDesc@physx@@PEBU?$PxgSolverSharedDesc@UIterativeSolveData@physx@@@2@@Z 00000001800e1900 f   solverMultiBlock.obj
 0001:000e09d0       ?__device_stub__Z17markActiveSlabPGSPKN5physx17PxgSolverCoreDescEPKNS_19PxgSolverSharedDescINS_18IterativeSolveDataEEEjjPKNS_23PxgArticulationCoreDescE@@YAXPEIBUPxgSolverCoreDesc@physx@@PEIBU?$PxgSolverSharedDesc@UIterativeSolveData@physx@@@2@IIQEIBUPxgArticulationCoreDesc@2@@Z 00000001800e19d0 f   solverMultiBlock.obj
 0001:000e0ae0       ?__device_stub__Z19solveBlockPartitionPN5physx17PxgSolverCoreDescEPKNS_19PxgSolverSharedDescINS_18IterativeSolveDataEEEjjb@@YAXPEIAUPxgSolverCoreDesc@physx@@PEIBU?$PxgSolverSharedDesc@UIterativeSolveData@physx@@@2@II_N@Z 00000001800e1ae0 f   solverMultiBlock.obj
 0001:000e0bf0       ?__device_stub__Z15writebackBlocksPN5physx17PxgSolverCoreDescEPNS_19PxgSolverSharedDescINS_18IterativeSolveDataEEEj@@YAXPEAUPxgSolverCoreDesc@physx@@PEAU?$PxgSolverSharedDesc@UIterativeSolveData@physx@@@2@I@Z 00000001800e1bf0 f   solverMultiBlock.obj
 0001:000e0d00       ?__device_stub__Z14concludeBlocksPN5physx17PxgSolverCoreDescEPNS_19PxgSolverSharedDescINS_18IterativeSolveDataEEEj@@YAXPEAUPxgSolverCoreDesc@physx@@PEAU?$PxgSolverSharedDesc@UIterativeSolveData@physx@@@2@I@Z 00000001800e1d00 f   solverMultiBlock.obj
 0001:000e0e10       ?__device_stub__Z15writeBackBodiesPKN5physx17PxgSolverCoreDescEPKNS_19PxgSolverSharedDescINS_18IterativeSolveDataEEEj@@YAXPEBUPxgSolverCoreDesc@physx@@PEBU?$PxgSolverSharedDesc@UIterativeSolveData@physx@@@2@I@Z 00000001800e1e10 f   solverMultiBlock.obj
 0001:000e0f20       ?__device_stub__Z32computeAverageSolverBodyVelocityPKN5physx17PxgSolverCoreDescEPKNS_19PxgSolverSharedDescINS_18IterativeSolveDataEEE@@YAXQEIBUPxgSolverCoreDesc@physx@@PEIBU?$PxgSolverSharedDesc@UIterativeSolveData@physx@@@2@@Z 00000001800e1f20 f   solverMultiBlock.obj
 0001:000e0ff0       ?__device_stub__Z27propagateSolverBodyVelocityPKN5physx17PxgSolverCoreDescEPKNS_19PxgSolverSharedDescINS_18IterativeSolveDataEEE@@YAXPEBUPxgSolverCoreDesc@physx@@PEBU?$PxgSolverSharedDesc@UIterativeSolveData@physx@@@2@@Z 00000001800e1ff0 f   solverMultiBlock.obj
 0001:000e10c0       ?__device_stub__Z19dmaBackChangedElemsPKN5physx17PxgSolverCoreDescEPNS_2Dy22ThresholdStreamElementE@@YAXPEBUPxgSolverCoreDesc@physx@@PEAUThresholdStreamElement@Dy@2@@Z 00000001800e20c0 f   solverMultiBlock.obj
 0001:000e1190       ?__device_stub__Z21dmaConstraintResidualPKN5physx22PxgConstraintWritebackEPfj@@YAXPEBUPxgConstraintWriteback@physx@@PEAMI@Z 00000001800e2190 f   solverMultiBlock.obj
 0001:000e12a0       ?__device_stub__Z16solveStaticBlockPN5physx17PxgSolverCoreDescEPKNS_19PxgSolverSharedDescINS_18IterativeSolveDataEEEjjjb@@YAXPEIAUPxgSolverCoreDesc@physx@@PEIBU?$PxgSolverSharedDesc@UIterativeSolveData@physx@@@2@III_N@Z 00000001800e22a0 f   solverMultiBlock.obj
 0001:000e13c0       ?__device_stub__Z35propagateStaticSolverBodyVelocitiesPKN5physx17PxgSolverCoreDescEPKNS_19PxgSolverSharedDescINS_18IterativeSolveDataEEEjjj@@YAXPEIBUPxgSolverCoreDesc@physx@@PEIBU?$PxgSolverSharedDesc@UIterativeSolveData@physx@@@2@III@Z 00000001800e23c0 f   solverMultiBlock.obj
 0001:000e19c0       initSolverKernels5         00000001800e29c0 f   solverMultiBlockTGS.obj
 0001:000e19d0       ZeroBodiesTGS              00000001800e29d0 f   solverMultiBlockTGS.obj
 0001:000e1aa0       writebackBlocksTGS         00000001800e2aa0 f   solverMultiBlockTGS.obj
 0001:000e1ba0       concludeBlocksTGS          00000001800e2ba0 f   solverMultiBlockTGS.obj
 0001:000e1ca0       writeBackBodiesTGS         00000001800e2ca0 f   solverMultiBlockTGS.obj
 0001:000e1da0       computeAverageSolverBodyVelocityTGS 00000001800e2da0 f   solverMultiBlockTGS.obj
 0001:000e1e70       propagateAverageSolverBodyVelocityTGS 00000001800e2e70 f   solverMultiBlockTGS.obj
 0001:000e1f90       initializeSolverVelocitiesTGS 00000001800e2f90 f   solverMultiBlockTGS.obj
 0001:000e2060       ?artiSolveBlockPartitionTGSInternal@@YAXPEIAUPxgSolverCoreDesc@physx@@PEIBU?$PxgSolverSharedDesc@UIterativeSolveDataTGS@physx@@@2@IIMMQEIBUPxgArticulationCoreDesc@2@@Z 00000001800e3060 f   solverMultiBlockTGS.obj
 0001:000e2080       ?solveBlockPartitionTGSInternal@@YAXPEIAUPxgSolverCoreDesc@physx@@PEIBU?$PxgSolverSharedDesc@UIterativeSolveDataTGS@physx@@@2@IIMMII@Z 00000001800e3080 f   solverMultiBlockTGS.obj
 0001:000e20a0       markActiveSlabTGS          00000001800e30a0 f   solverMultiBlockTGS.obj
 0001:000e21f0       solveBlockUnified          00000001800e31f0 f   solverMultiBlockTGS.obj
 0001:000e2360       solveStaticBlockTGS        00000001800e3360 f   solverMultiBlockTGS.obj
 0001:000e24b0       applyTGSSubstepGravity     00000001800e34b0 f   solverMultiBlockTGS.obj
 0001:000e25b0       solveWholeIslandTGS        00000001800e35b0 f   solverMultiBlockTGS.obj
 0001:000e26e0       propagateStaticSolverBodyVelocitiesTGS 00000001800e36e0 f   solverMultiBlockTGS.obj
 0001:000e2830       ?__device_stub__Z13ZeroBodiesTGSPKN5physx17PxgSolverCoreDescEPKNS_19PxgSolverSharedDescINS_21IterativeSolveDataTGSEEE@@YAXPEBUPxgSolverCoreDesc@physx@@PEBU?$PxgSolverSharedDesc@UIterativeSolveDataTGS@physx@@@2@@Z 00000001800e3830 f   solverMultiBlockTGS.obj
 0001:000e2900       ?__device_stub__Z18writebackBlocksTGSPN5physx17PxgSolverCoreDescEPKNS_19PxgSolverSharedDescINS_21IterativeSolveDataTGSEEEj@@YAXPEAUPxgSolverCoreDesc@physx@@PEBU?$PxgSolverSharedDesc@UIterativeSolveDataTGS@physx@@@2@I@Z 00000001800e3900 f   solverMultiBlockTGS.obj
 0001:000e2a10       ?__device_stub__Z17concludeBlocksTGSPKN5physx17PxgSolverCoreDescEPKNS_19PxgSolverSharedDescINS_21IterativeSolveDataTGSEEEj@@YAXPEBUPxgSolverCoreDesc@physx@@PEBU?$PxgSolverSharedDesc@UIterativeSolveDataTGS@physx@@@2@I@Z 00000001800e3a10 f   solverMultiBlockTGS.obj
 0001:000e2b20       ?__device_stub__Z18writeBackBodiesTGSPKN5physx17PxgSolverCoreDescEPKNS_19PxgSolverSharedDescINS_21IterativeSolveDataTGSEEEj@@YAXPEBUPxgSolverCoreDesc@physx@@PEBU?$PxgSolverSharedDesc@UIterativeSolveDataTGS@physx@@@2@I@Z 00000001800e3b20 f   solverMultiBlockTGS.obj
 0001:000e2c30       ?__device_stub__Z35computeAverageSolverBodyVelocityTGSPKN5physx17PxgSolverCoreDescEPKNS_19PxgSolverSharedDescINS_21IterativeSolveDataTGSEEE@@YAXPEBUPxgSolverCoreDesc@physx@@PEBU?$PxgSolverSharedDesc@UIterativeSolveDataTGS@physx@@@2@@Z 00000001800e3c30 f   solverMultiBlockTGS.obj
 0001:000e2d00       ?__device_stub__Z37propagateAverageSolverBodyVelocityTGSPKN5physx17PxgSolverCoreDescEPKNS_19PxgSolverSharedDescINS_21IterativeSolveDataTGSEEEbbf@@YAXPEBUPxgSolverCoreDesc@physx@@PEBU?$PxgSolverSharedDesc@UIterativeSolveDataTGS@physx@@@2@_N2M@Z 00000001800e3d00 f   solverMultiBlockTGS.obj
 0001:000e2e10       ?__device_stub__Z29initializeSolverVelocitiesTGSPKN5physx17PxgSolverCoreDescEPKNS_19PxgSolverSharedDescINS_21IterativeSolveDataTGSEEE@@YAXPEBUPxgSolverCoreDesc@physx@@PEBU?$PxgSolverSharedDesc@UIterativeSolveDataTGS@physx@@@2@@Z 00000001800e3e10 f   solverMultiBlockTGS.obj
 0001:000e2ee0       ?__device_stub__Z17markActiveSlabTGSPKN5physx17PxgSolverCoreDescEPKNS_19PxgSolverSharedDescINS_21IterativeSolveDataTGSEEEjjffPKNS_23PxgArticulationCoreDescE@@YAXPEIBUPxgSolverCoreDesc@physx@@PEIBU?$PxgSolverSharedDesc@UIterativeSolveDataTGS@physx@@@2@IIMMQEIBUPxgArticulationCoreDesc@2@@Z 00000001800e3ee0 f   solverMultiBlockTGS.obj
 0001:000e3000       ?__device_stub__Z17solveBlockUnifiedPN5physx17PxgSolverCoreDescEPKNS_19PxgSolverSharedDescINS_21IterativeSolveDataTGSEEEjjbffPKNS_23PxgArticulationCoreDescE@@YAXPEIAUPxgSolverCoreDesc@physx@@PEIBU?$PxgSolverSharedDesc@UIterativeSolveDataTGS@physx@@@2@II_NMMQEIBUPxgArticulationCoreDesc@2@@Z 00000001800e4000 f   solverMultiBlockTGS.obj
 0001:000e3130       ?__device_stub__Z19solveStaticBlockTGSPN5physx17PxgSolverCoreDescEPKNS_19PxgSolverSharedDescINS_21IterativeSolveDataTGSEEEjjjff@@YAXPEIAUPxgSolverCoreDesc@physx@@PEIBU?$PxgSolverSharedDesc@UIterativeSolveDataTGS@physx@@@2@IIIMM@Z 00000001800e4130 f   solverMultiBlockTGS.obj
 0001:000e3250       ?__device_stub__Z22applyTGSSubstepGravityPKN5physx17PxgSolverCoreDescEPKNS_19PxgSolverSharedDescINS_21IterativeSolveDataTGSEEENS_7PxVec3TIfEE@@YAXPEIBUPxgSolverCoreDesc@physx@@PEIBU?$PxgSolverSharedDesc@UIterativeSolveDataTGS@physx@@@2@AEAV?$PxVec3T@M@2@@Z 00000001800e4250 f   solverMultiBlockTGS.obj
 0001:000e3350       ?__device_stub__Z19solveWholeIslandTGSPN5physx17PxgSolverCoreDescEPKNS_19PxgSolverSharedDescINS_21IterativeSolveDataTGSEEEjbff@@YAXPEIAUPxgSolverCoreDesc@physx@@PEIBU?$PxgSolverSharedDesc@UIterativeSolveDataTGS@physx@@@2@I_NMM@Z 00000001800e4350 f   solverMultiBlockTGS.obj
 0001:000e3470       ?__device_stub__Z38propagateStaticSolverBodyVelocitiesTGSPKN5physx17PxgSolverCoreDescEPKNS_19PxgSolverSharedDescINS_21IterativeSolveDataTGSEEEjjj@@YAXPEIBUPxgSolverCoreDesc@physx@@PEIBU?$PxgSolverSharedDesc@UIterativeSolveDataTGS@physx@@@2@III@Z 00000001800e4470 f   solverMultiBlockTGS.obj
 0001:000e3ac0       initSolverKernels0         00000001800e4ac0 f   accumulateThresholdStream.obj
 0001:000e3ad0       bodyInputAndRanksSingleBlockLaunch 00000001800e4ad0 f   accumulateThresholdStream.obj
 0001:000e3bd0       bodyInputAndRanksBlocksLaunch 00000001800e4bd0 f   accumulateThresholdStream.obj
 0001:000e3cd0       initialRanksAndBodyIndexB  00000001800e4cd0 f   accumulateThresholdStream.obj
 0001:000e3da0       initialRanksAndBodyIndexA  00000001800e4da0 f   accumulateThresholdStream.obj
 0001:000e3e70       reorganizeThresholdElements 00000001800e4e70 f   accumulateThresholdStream.obj
 0001:000e3f40       computeAccumulateThresholdStream 00000001800e4f40 f   accumulateThresholdStream.obj
 0001:000e4000       outputAccumulateThresholdStream 00000001800e5000 f   accumulateThresholdStream.obj
 0001:000e40c0       writeoutAccumulatedForcePerObject 00000001800e50c0 f   accumulateThresholdStream.obj
 0001:000e4180       computeExceededForceThresholdElementIndice 00000001800e5180 f   accumulateThresholdStream.obj
 0001:000e4250       outputExceededForceThresholdElementIndice 00000001800e5250 f   accumulateThresholdStream.obj
 0001:000e4310       setThresholdElementsMask   00000001800e5310 f   accumulateThresholdStream.obj
 0001:000e43d0       ?setPersistentForceElementMask@@YAXPEAUPxgSolverCoreDesc@physx@@@Z 00000001800e53d0 f   accumulateThresholdStream.obj
 0001:000e43f0       computeThresholdElementMaskIndices 00000001800e53f0 f   accumulateThresholdStream.obj
 0001:000e44b0       outputThresholdPairsMaskIndices 00000001800e54b0 f   accumulateThresholdStream.obj
 0001:000e4570       createForceChangeThresholdElements 00000001800e5570 f   accumulateThresholdStream.obj
 0001:000e4660       ?__device_stub__Z34bodyInputAndRanksSingleBlockLaunchPKN5physx17PxgSolverCoreDescEPKNS_16PxgRadixSortDescEj@@YAXPEBUPxgSolverCoreDesc@physx@@PEBUPxgRadixSortDesc@2@I@Z 00000001800e5660 f   accumulateThresholdStream.obj
 0001:000e4770       ?__device_stub__Z29bodyInputAndRanksBlocksLaunchPKN5physx17PxgSolverCoreDescEPNS_16PxgRadixSortDescEj@@YAXPEBUPxgSolverCoreDesc@physx@@PEAUPxgRadixSortDesc@2@I@Z 00000001800e5770 f   accumulateThresholdStream.obj
 0001:000e4880       ?__device_stub__Z25initialRanksAndBodyIndexBPKN5physx17PxgSolverCoreDescEPKNS_16PxgRadixSortDescE@@YAXPEBUPxgSolverCoreDesc@physx@@PEBUPxgRadixSortDesc@2@@Z 00000001800e5880 f   accumulateThresholdStream.obj
 0001:000e4950       ?__device_stub__Z25initialRanksAndBodyIndexAPKN5physx17PxgSolverCoreDescEPKNS_16PxgRadixSortDescE@@YAXPEBUPxgSolverCoreDesc@physx@@PEBUPxgRadixSortDesc@2@@Z 00000001800e5950 f   accumulateThresholdStream.obj
 0001:000e4a20       ?__device_stub__Z27reorganizeThresholdElementsPKN5physx17PxgSolverCoreDescEPKNS_16PxgRadixSortDescE@@YAXPEBUPxgSolverCoreDesc@physx@@PEBUPxgRadixSortDesc@2@@Z 00000001800e5a20 f   accumulateThresholdStream.obj
 0001:000e4af0       ?__device_stub__Z32computeAccumulateThresholdStreamPN5physx17PxgSolverCoreDescE@@YAXPEAUPxgSolverCoreDesc@physx@@@Z 00000001800e5af0 f   accumulateThresholdStream.obj
 0001:000e4bb0       ?__device_stub__Z31outputAccumulateThresholdStreamPN5physx17PxgSolverCoreDescE@@YAXPEAUPxgSolverCoreDesc@physx@@@Z 00000001800e5bb0 f   accumulateThresholdStream.obj
 0001:000e4c70       ?__device_stub__Z33writeoutAccumulatedForcePerObjectPN5physx17PxgSolverCoreDescE@@YAXPEAUPxgSolverCoreDesc@physx@@@Z 00000001800e5c70 f   accumulateThresholdStream.obj
 0001:000e4d30       ?__device_stub__Z42computeExceededForceThresholdElementIndicePN5physx17PxgSolverCoreDescEPNS_19PxgSolverSharedDescINS_18IterativeSolveDataEEE@@YAXPEAUPxgSolverCoreDesc@physx@@PEAU?$PxgSolverSharedDesc@UIterativeSolveData@physx@@@2@@Z 00000001800e5d30 f   accumulateThresholdStream.obj
 0001:000e4e00       ?__device_stub__Z41outputExceededForceThresholdElementIndicePN5physx17PxgSolverCoreDescE@@YAXPEAUPxgSolverCoreDesc@physx@@@Z 00000001800e5e00 f   accumulateThresholdStream.obj
 0001:000e4ec0       ?__device_stub__Z24setThresholdElementsMaskPN5physx17PxgSolverCoreDescE@@YAXPEAUPxgSolverCoreDesc@physx@@@Z 00000001800e5ec0 f   accumulateThresholdStream.obj
 0001:000e4f80       ?__device_stub__Z34computeThresholdElementMaskIndicesPN5physx17PxgSolverCoreDescE@@YAXPEAUPxgSolverCoreDesc@physx@@@Z 00000001800e5f80 f   accumulateThresholdStream.obj
 0001:000e5040       ?__device_stub__Z31outputThresholdPairsMaskIndicesPN5physx17PxgSolverCoreDescE@@YAXPEAUPxgSolverCoreDesc@physx@@@Z 00000001800e6040 f   accumulateThresholdStream.obj
 0001:000e5100       ?__device_stub__Z34createForceChangeThresholdElementsPN5physx17PxgSolverCoreDescE@@YAXPEAUPxgSolverCoreDesc@physx@@@Z 00000001800e6100 f   accumulateThresholdStream.obj
 0001:000e5730       initSolverKernels1         00000001800e6730 f   constraintBlockPrep.obj
 0001:000e5740       jointConstraintBlockPrepareParallelLaunch 00000001800e6740 f   constraintBlockPrep.obj
 0001:000e5810       contactConstraintBlockPrepareParallelLaunch 00000001800e6810 f   constraintBlockPrep.obj
 0001:000e5910       ?__device_stub__Z41jointConstraintBlockPrepareParallelLaunchPN5physx24PxgConstraintPrepareDescEPNS_19PxgSolverSharedDescINS_18IterativeSolveDataEEE@@YAXPEAUPxgConstraintPrepareDesc@physx@@PEAU?$PxgSolverSharedDesc@UIterativeSolveData@physx@@@2@@Z 00000001800e6910 f   constraintBlockPrep.obj
 0001:000e59e0       ?__device_stub__Z43contactConstraintBlockPrepareParallelLaunchPN5physx24PxgConstraintPrepareDescEPNS_19PxgSolverSharedDescINS_18IterativeSolveDataEEE@@YAXPEAUPxgConstraintPrepareDesc@physx@@PEAU?$PxgSolverSharedDesc@UIterativeSolveData@physx@@@2@@Z 00000001800e69e0 f   constraintBlockPrep.obj
 0001:000e6020       initSolverKernels2         00000001800e7020 f   constraintBlockPrePrep.obj
 0001:000e6030       constraintContactBlockPrePrepLaunch 00000001800e7030 f   constraintBlockPrePrep.obj
 0001:000e6100       constraint1DPrePrepLaunch  00000001800e7100 f   constraintBlockPrePrep.obj
 0001:000e61d0       constraint1DBlockPrePrepLaunch 00000001800e71d0 f   constraintBlockPrePrep.obj
 0001:000e62a0       clearFrictionPatchCounts   00000001800e72a0 f   constraintBlockPrePrep.obj
 0001:000e63a0       rigidSumInternalContactAndJointBatches1 00000001800e73a0 f   constraintBlockPrePrep.obj
 0001:000e6470       rigidSumInternalContactAndJointBatches2 00000001800e7470 f   constraintBlockPrePrep.obj
 0001:000e65b0       ?__device_stub__Z35constraintContactBlockPrePrepLaunchPN5physx14PxgPrePrepDescEPNS_19PxgSolverSharedDescINS_18IterativeSolveDataEEE@@YAXPEAUPxgPrePrepDesc@physx@@PEAU?$PxgSolverSharedDesc@UIterativeSolveData@physx@@@2@@Z 00000001800e75b0 f   constraintBlockPrePrep.obj
 0001:000e6680       ?__device_stub__Z25constraint1DPrePrepLaunchPN5physx14PxgPrePrepDescEPNS_19PxgSolverSharedDescINS_18IterativeSolveDataEEE@@YAXPEAUPxgPrePrepDesc@physx@@PEAU?$PxgSolverSharedDesc@UIterativeSolveData@physx@@@2@@Z 00000001800e7680 f   constraintBlockPrePrep.obj
 0001:000e6750       ?__device_stub__Z30constraint1DBlockPrePrepLaunchPN5physx14PxgPrePrepDescEPNS_19PxgSolverSharedDescINS_18IterativeSolveDataEEE@@YAXPEAUPxgPrePrepDesc@physx@@PEAU?$PxgSolverSharedDesc@UIterativeSolveData@physx@@@2@@Z 00000001800e7750 f   constraintBlockPrePrep.obj
 0001:000e6820       ?__device_stub__Z24clearFrictionPatchCountsPjS_j@@YAXPEAI0I@Z 00000001800e7820 f   constraintBlockPrePrep.obj
 0001:000e6930       ?__device_stub__Z39rigidSumInternalContactAndJointBatches1PN5physx14PxgPrePrepDescEj@@YAXPEIAUPxgPrePrepDesc@physx@@I@Z 00000001800e7930 f   constraintBlockPrePrep.obj
 0001:000e6a00       ?__device_stub__Z39rigidSumInternalContactAndJointBatches2PN5physx14PxgPrePrepDescEPNS_17PxgSolverCoreDescEPNS_24PxgConstraintPrepareDescEj@@YAXPEIAUPxgPrePrepDesc@physx@@PEIAUPxgSolverCoreDesc@2@PEAUPxgConstraintPrepareDesc@2@I@Z 00000001800e7a00 f   constraintBlockPrePrep.obj
 0001:000e6e90       initSolverKernels13        00000001800e7e90 f   artiConstraintPrep2.obj
 0001:000e6ea0       artiContactConstraintBlockPrepareLaunch 00000001800e7ea0 f   artiConstraintPrep2.obj
 0001:000e6f70       artiTGSContactConstraintBlockPrepareLaunch 00000001800e7f70 f   artiConstraintPrep2.obj
 0001:000e7040       ?fillJointBlockParams@@YAXPEAU?$PxgSolverSharedDesc@UIterativeSolveData@physx@@@physx@@PEAUPxgConstraintPrepareDesc@2@AEAUPxgJointBlockParams@2@II@Z 00000001800e8040 f   artiConstraintPrep2.obj
 0001:000e7060       ?fillJointBlockParams@@YAXPEAU?$PxgSolverSharedDesc@UIterativeSolveDataTGS@physx@@@physx@@PEAUPxgConstraintPrepareDesc@2@AEAUPxgTGSJointBlockParams@2@II@Z 00000001800e8060 f   artiConstraintPrep2.obj
 0001:000e7080       artiJointConstraintBlockPrepareParallelLaunch 00000001800e8080 f   artiConstraintPrep2.obj
 0001:000e7150       artiTGSJointConstraintBlockPrepareParallelLaunch 00000001800e8150 f   artiConstraintPrep2.obj
 0001:000e7250       ?__device_stub__Z39artiContactConstraintBlockPrepareLaunchPN5physx24PxgConstraintPrepareDescEPNS_19PxgSolverSharedDescINS_18IterativeSolveDataEEE@@YAXPEAUPxgConstraintPrepareDesc@physx@@PEAU?$PxgSolverSharedDesc@UIterativeSolveData@physx@@@2@@Z 00000001800e8250 f   artiConstraintPrep2.obj
 0001:000e7320       ?__device_stub__Z42artiTGSContactConstraintBlockPrepareLaunchPN5physx24PxgConstraintPrepareDescEPNS_19PxgSolverSharedDescINS_21IterativeSolveDataTGSEEE@@YAXPEAUPxgConstraintPrepareDesc@physx@@PEAU?$PxgSolverSharedDesc@UIterativeSolveDataTGS@physx@@@2@@Z 00000001800e8320 f   artiConstraintPrep2.obj
 0001:000e73f0       ?__device_stub__Z45artiJointConstraintBlockPrepareParallelLaunchPN5physx24PxgConstraintPrepareDescEPNS_19PxgSolverSharedDescINS_18IterativeSolveDataEEE@@YAXPEAUPxgConstraintPrepareDesc@physx@@PEAU?$PxgSolverSharedDesc@UIterativeSolveData@physx@@@2@@Z 00000001800e83f0 f   artiConstraintPrep2.obj
 0001:000e74c0       ?__device_stub__Z48artiTGSJointConstraintBlockPrepareParallelLaunchPN5physx24PxgConstraintPrepareDescEPNS_19PxgSolverSharedDescINS_21IterativeSolveDataTGSEEE@@YAXPEAUPxgConstraintPrepareDesc@physx@@PEAU?$PxgSolverSharedDesc@UIterativeSolveDataTGS@physx@@@2@@Z 00000001800e84c0 f   artiConstraintPrep2.obj
 0001:000e7aa0       initSolverKernels3         00000001800e8aa0 f   integration.obj
 0001:000e7ab0       integrateCoreParallelLaunch 00000001800e8ab0 f   integration.obj
 0001:000e7c10       ?__device_stub__Z27integrateCoreParallelLaunchjPKN5physx17PxgSolverCoreDescEPKNS_19PxgSolverSharedDescINS_18IterativeSolveDataEEEPKjS9_S9_@@YAXIPEIBUPxgSolverCoreDesc@physx@@PEIBU?$PxgSolverSharedDesc@UIterativeSolveData@physx@@@2@PEIBI22@Z 00000001800e8c10 f   integration.obj
 0001:000e80e0       initSolverKernels11        00000001800e90e0 f   integrationTGS.obj
 0001:000e80f0       integrateCoreParallelLaunchTGS 00000001800e90f0 f   integrationTGS.obj
 0001:000e8250       ?__device_stub__Z30integrateCoreParallelLaunchTGSjPKN5physx17PxgSolverCoreDescEPKNS_19PxgSolverSharedDescINS_21IterativeSolveDataTGSEEEPKjS9_S9_@@YAXIPEIBUPxgSolverCoreDesc@physx@@PEIBU?$PxgSolverSharedDesc@UIterativeSolveDataTGS@physx@@@2@PEIBI22@Z 00000001800e9250 f   integrationTGS.obj
 0001:000e8720       initSolverKernels4         00000001800e9720 f   preIntegration.obj
 0001:000e8730       preIntegrationLaunch       00000001800e9730 f   preIntegration.obj
 0001:000e88f0       initStaticKinematics       00000001800e98f0 f   preIntegration.obj
 0001:000e8a80       ?__device_stub__Z20preIntegrationLaunchjjfN5physx7PxVec3TIfEEPNS_17PxgSolverBodyDataEPNS_22PxgSolverBodySleepDataEPNS_16PxgSolverTxIDataEPKNS_10PxgBodySimEPKNS_11PxNodeIndexEPNS_18PxAlignedTransformEP6float4Pj@@YAXIIMAEBV?$PxVec3T@M@physx@@PEIAUPxgSolverBodyData@2@PEIAUPxgSolverBodySleepData@2@PEIAUPxgSolverTxIData@2@PEIBUPxgBodySim@2@PEIBVPxNodeIndex@2@PEAVPxAlignedTransform@2@PEAUfloat4@@PEAI@Z 00000001800e9a80 f   preIntegration.obj
 0001:000e8be0       ?__device_stub__Z20initStaticKinematicsjjPN5physx17PxgSolverBodyDataEPNS_16PxgSolverTxIDataEPNS_18PxAlignedTransformEP6float4PNS_11PxNodeIndexEPj@@YAXIIPEIAUPxgSolverBodyData@physx@@PEIAUPxgSolverTxIData@2@PEAVPxAlignedTransform@2@PEAUfloat4@@PEAVPxNodeIndex@2@PEAI@Z 00000001800e9be0 f   preIntegration.obj
 0001:000e8f30       initSolverKernels9         00000001800e9f30 f   preIntegrationTGS.obj
 0001:000e8f40       preIntegrationLaunchTGS    00000001800e9f40 f   preIntegrationTGS.obj
 0001:000e9140       ?__device_stub__Z23preIntegrationLaunchTGSjjfN5physx7PxVec3TIfEEPNS_17PxgSolverBodyDataEPNS_22PxgSolverBodySleepDataEPNS_16PxgSolverTxIDataEPKNS_10PxgBodySimEPKNS_11PxNodeIndexEPNS_18PxAlignedTransformEP6float4Pjb@@YAXIIMAEBV?$PxVec3T@M@physx@@PEIAUPxgSolverBodyData@2@PEIAUPxgSolverBodySleepData@2@PEIAUPxgSolverTxIData@2@QEIBUPxgBodySim@2@QEIBVPxNodeIndex@2@PEAVPxAlignedTransform@2@PEAUfloat4@@PEAI_N@Z 00000001800ea140 f   preIntegrationTGS.obj
 0001:000e9430       initSolverKernels7         00000001800ea430 f   solver.obj
 0001:000e9440       artiSolveBlockPartition    00000001800ea440 f   solver.obj
 0001:000e95a0       ?__device_stub__Z23artiSolveBlockPartitionPN5physx17PxgSolverCoreDescEPKNS_19PxgSolverSharedDescINS_18IterativeSolveDataEEEjjbPKNS_23PxgArticulationCoreDescE@@YAXPEIAUPxgSolverCoreDesc@physx@@PEIBU?$PxgSolverSharedDesc@UIterativeSolveData@physx@@@2@II_NQEIBUPxgArticulationCoreDesc@2@@Z 00000001800ea5a0 f   solver.obj
 0001:000e9a70       initSolverKernels10        00000001800eaa70 f   constraintBlockPrepTGS.obj
 0001:000e9a80       jointConstraintBlockPrepareParallelLaunchTGS 00000001800eaa80 f   constraintBlockPrepTGS.obj
 0001:000e9b50       contactConstraintBlockPrepareParallelLaunchTGS 00000001800eab50 f   constraintBlockPrepTGS.obj
 0001:000e9c50       ?__device_stub__Z44jointConstraintBlockPrepareParallelLaunchTGSPN5physx24PxgConstraintPrepareDescEPNS_19PxgSolverSharedDescINS_21IterativeSolveDataTGSEEE@@YAXPEAUPxgConstraintPrepareDesc@physx@@PEAU?$PxgSolverSharedDesc@UIterativeSolveDataTGS@physx@@@2@@Z 00000001800eac50 f   constraintBlockPrepTGS.obj
 0001:000e9d20       ?__device_stub__Z46contactConstraintBlockPrepareParallelLaunchTGSPN5physx24PxgConstraintPrepareDescEPNS_19PxgSolverSharedDescINS_21IterativeSolveDataTGSEEE@@YAXPEAUPxgConstraintPrepareDesc@physx@@PEAU?$PxgSolverSharedDesc@UIterativeSolveDataTGS@physx@@@2@@Z 00000001800ead20 f   constraintBlockPrepTGS.obj
 0001:000ea200       ??0PartitionSlab@physx@@QEAA@XZ 00000001800eb200 f i PxgConstraintPartition.obj
 0001:000ea270       ??0PxgIncrementalPartition@physx@@QEAA@AEBVPxVirtualAllocator@1@I_K@Z 00000001800eb270 f   PxgConstraintPartition.obj
 0001:000ea510       ??1?$BlockArray@I$0BAAA@@Cm@physx@@QEAA@XZ 00000001800eb510 f i PxgConstraintPartition.obj
 0001:000ea5e0       ??1PartitionEdgeManager@physx@@QEAA@XZ 00000001800eb5e0 f   PxgConstraintPartition.obj
 0001:000ea6b0       ??1PxgCombinedPartitionSlab@physx@@QEAA@XZ 00000001800eb6b0 f i PxgConstraintPartition.obj
 0001:000ea720       ??1PxgIncrementalPartition@physx@@QEAA@XZ 00000001800eb720 f   PxgConstraintPartition.obj
 0001:000eada0       ?addEdgeInternal@PxgIncrementalPartition@physx@@QEAAXPEIBUPartitionEdge@2@PEIAUPartitionSlab@2@GG@Z 00000001800ebda0 f   PxgConstraintPartition.obj
 0001:000eb0a0       ?addEdge_Stage1@PxgIncrementalPartition@physx@@QEAAPEAUPartitionEdge@2@AEBVIslandSim@IG@2@IIIVPxNodeIndex@2@1@Z 00000001800ec0a0 f   PxgConstraintPartition.obj
 0001:000eb2c0       ?addEdge_Stage2@PxgIncrementalPartition@physx@@QEAAXAEAVGPUExternalData@IG@2@IPEAUPartitionEdge@2@_N22@Z 00000001800ec2c0 f   PxgConstraintPartition.obj
 0001:000eb530       ?allocate@FlushPool@Cm@physx@@QEAAPEAXII@Z 00000001800ec530 f i PxgConstraintPartition.obj
 0001:000eb660       ?allocateSlab@PartitionEdgeManager@physx@@AEAAXXZ 00000001800ec660 f   PxgConstraintPartition.obj
 0001:000eb760       ?destroyEdges@PxgIncrementalPartition@physx@@QEAAXAEBVCPUExternalData@IG@2@AEAVGPUExternalData@42@AEAVPxgBodySimManager@2@AEAVPxgJointManager@2@_N4@Z 00000001800ec760 f   PxgConstraintPartition.obj
 0001:000eb8d0       ?doCompaction@PxgIncrementalPartition@physx@@QEAAXXZ 00000001800ec8d0 f   PxgConstraintPartition.obj
 0001:000ebc50       ?growAndPushBack@?$PxArray@PEAIV?$PxReflectionAllocator@PEAI@physx@@@physx@@IEAAAEAPEAIAEBQEAI@Z 00000001800ecc50 f i PxgConstraintPartition.obj
 0001:000ebd70       ?growAndPushBack@?$PxArray@PEAUPartition@physx@@V?$PxReflectionAllocator@PEAUPartition@physx@@@2@@physx@@IEAAAEAPEAUPartition@2@AEBQEAU32@@Z 00000001800ecd70 f i PxgConstraintPartition.obj
 0001:000ebe90       ?growAndPushBack@?$PxArray@PEAUPartitionEdge@physx@@V?$PxReflectionAllocator@PEAUPartitionEdge@physx@@@2@@physx@@IEAAAEAPEAUPartitionEdge@2@AEBQEAU32@@Z 00000001800ece90 f i PxgConstraintPartition.obj
 0001:000ebfb0       ?growAndPushBack@?$PxArray@PEAUPartitionEdgeSlab@physx@@V?$PxReflectionAllocator@PEAUPartitionEdgeSlab@physx@@@2@@physx@@IEAAAEAPEAUPartitionEdgeSlab@2@AEBQEAU32@@Z 00000001800ecfb0 f i PxgConstraintPartition.obj
 0001:000ec0d0       ?growAndPushBack@?$PxArray@PEAUPartitionSlab@physx@@V?$PxReflectionAllocator@PEAUPartitionSlab@physx@@@2@@physx@@IEAAAEAPEAUPartitionSlab@2@AEBQEAU32@@Z 00000001800ed0d0 f i PxgConstraintPartition.obj
 0001:000ec5f0       ?processFoundPatches_Reference@PxgIncrementalPartition@physx@@QEAAXAEAVIslandSim@IG@2@AEAVPxgBodySimManager@2@PEAPEAVPxsContactManager@2@IPEBUPxsContactManagerOutputCounts@2@@Z 00000001800ed5f0 f   PxgConstraintPartition.obj
 0001:000ec8a0       ?processLostFoundPatches@PxgIncrementalPartition@physx@@QEAAXAEAVFlushPool@Cm@2@PEAVPxBaseTask@2@AEAVIslandSim@IG@2@AEAVPxgBodySimManager@2@AEAVPxgJointManager@2@PEAPEAVPxsContactManager@2@IPEBUPxsContactManagerOutputCounts@2@@Z 00000001800ed8a0 f   PxgConstraintPartition.obj
 0001:000eca30       ?processLostPatchesMT@PxgIncrementalPartition@physx@@QEAAXAEAVIslandSim@IG@2@AEAVFlushPool@Cm@2@PEAVPxBaseTask@2@PEAPEAVPxsContactManager@2@IPEBUPxsContactManagerOutputCounts@2@AEAVPxgBodySimManager@2@AEAVPxgJointManager@2@@Z 00000001800eda30 f   PxgConstraintPartition.obj
 0001:000ecef0       ?pullForwardConstraints@PxgIncrementalPartition@physx@@QEAAXI@Z 00000001800edef0 f   PxgConstraintPartition.obj
 0001:000ed150       ?recreate@?$PxArray@PEAIV?$PxReflectionAllocator@PEAI@physx@@@physx@@IEAAXI@Z 00000001800ee150 f i PxgConstraintPartition.obj
 0001:000ed240       ?recreate@?$PxArray@PEAUPartition@physx@@V?$PxReflectionAllocator@PEAUPartition@physx@@@2@@physx@@IEAAXI@Z 00000001800ee240 f i PxgConstraintPartition.obj
 0001:000ed330       ?recreate@?$PxArray@PEAUPartitionEdgeBatch@PxgIncrementalPartition@physx@@V?$PxReflectionAllocator@PEAUPartitionEdgeBatch@PxgIncrementalPartition@physx@@@3@@physx@@IEAAXI@Z 00000001800ee330 f i PxgConstraintPartition.obj
 0001:000ed420       ?recreate@?$PxArray@UNodeEntries@physx@@V?$PxReflectionAllocator@UNodeEntries@physx@@@2@@physx@@IEAAXI@Z 00000001800ee420 f i PxgConstraintPartition.obj
 0001:000ed550       ?recreate@?$PxArray@UPart2WorkItem@PxgIncrementalPartition@physx@@V?$PxReflectionAllocator@UPart2WorkItem@PxgIncrementalPartition@physx@@@3@@physx@@IEAAXI@Z 00000001800ee550 f i PxgConstraintPartition.obj
 0001:000ed640       ?removeEdge@PxgIncrementalPartition@physx@@QEAAXPEAUPartitionEdge@2@AEAVGPUExternalData@IG@2@AEAVPxgBodySimManager@2@@Z 00000001800ee640 f   PxgConstraintPartition.obj
 0001:000ed800       ?removeEdgeInternal@PxgIncrementalPartition@physx@@QEAAXPEIAUPartitionSlab@2@PEIBUPartitionEdge@2@I@Z 00000001800ee800 f   PxgConstraintPartition.obj
 0001:000eda80       ?removeFromPartition@Partition@physx@@QEAAXIAEAV?$PxArray@UPartitionIndexData@physx@@VPxVirtualAllocator@2@@2@@Z 00000001800eea80 f i PxgConstraintPartition.obj
 0001:000edb30       ?reserve@?$BlockArray@I$0BAAA@@Cm@physx@@QEAAXI@Z 00000001800eeb30 f i PxgConstraintPartition.obj
 0001:000edc00       ?resize@?$PxArray@PEAIV?$PxReflectionAllocator@PEAI@physx@@@physx@@QEAAXIAEBQEAI@Z 00000001800eec00 f i PxgConstraintPartition.obj
 0001:000edcc0       ?resize@?$PxArray@PEAUPartition@physx@@V?$PxReflectionAllocator@PEAUPartition@physx@@@2@@physx@@QEAAXIAEBQEAUPartition@2@@Z 00000001800eecc0 f i PxgConstraintPartition.obj
 0001:000edd80       ?resize@?$PxArray@PEAUPartitionEdgeBatch@PxgIncrementalPartition@physx@@V?$PxReflectionAllocator@PEAUPartitionEdgeBatch@PxgIncrementalPartition@physx@@@3@@physx@@QEAAXIAEBQEAUPartitionEdgeBatch@PxgIncrementalPartition@2@@Z 00000001800eed80 f i PxgConstraintPartition.obj
 0001:000ede40       ?resize@?$PxArray@UNodeEntries@physx@@V?$PxReflectionAllocator@UNodeEntries@physx@@@2@@physx@@QEAAXIAEBUNodeEntries@2@@Z 00000001800eee40 f i PxgConstraintPartition.obj
 0001:000edee0       ?resizeUninitialized@?$PxArray@IV?$PxReflectionAllocator@I@physx@@@physx@@QEAAXI@Z 00000001800eeee0 f i PxgConstraintPartition.obj
 0001:000edf20       ?resizeUninitialized@?$PxArray@UPartitionIndexData@physx@@VPxVirtualAllocator@2@@physx@@QEAAXI@Z 00000001800eef20 f i PxgConstraintPartition.obj
 0001:000edf60       ?resizeUninitialized@?$PxArray@UPartitionNodeData@physx@@VPxVirtualAllocator@2@@physx@@QEAAXI@Z 00000001800eef60 f i PxgConstraintPartition.obj
 0001:000eec10       ?updateIncrementalIslands@PxgIncrementalPartition@physx@@QEAAXAEAVIslandSim@IG@2@AEBVAuxCpuData@42@PEAVFlushPool@Cm@2@PEAVPxBaseTask@2@AEAVPxsContactManagerOutputIterator@2@AEAVPxgBodySimManager@2@AEAVPxgJointManager@2@@Z 00000001800efc10 f   PxgConstraintPartition.obj
 0001:000ef200       ?updateIncrementalIslands_Part1@PxgIncrementalPartition@physx@@QEAAXAEAVIslandSim@IG@2@AEBVAuxCpuData@42@AEAVPxsContactManagerOutputIterator@2@AEAVPxgBodySimManager@2@AEAVPxgJointManager@2@@Z 00000001800f0200 f   PxgConstraintPartition.obj
 0001:000ef840       ?updateIncrementalIslands_Part2@PxgIncrementalPartition@physx@@QEAAXAEAVIslandSim@IG@2@AEBVAuxCpuData@42@AEAVPxsContactManagerOutputIterator@2@AEAVPxgBodySimManager@2@@Z 00000001800f0840 f   PxgConstraintPartition.obj
 0001:000efb60       ?updateIncrementalIslands_Part2_0@PxgIncrementalPartition@physx@@QEAAXAEAVIslandSim@IG@2@AEBVAuxCpuData@42@AEAVPxsContactManagerOutputIterator@2@@Z 00000001800f0b60 f   PxgConstraintPartition.obj
 0001:000efe90       ?updateIncrementalIslands_Part2_1@PxgIncrementalPartition@physx@@QEAAXIIAEAVIslandSim@IG@2@AEBVAuxCpuData@42@@Z 00000001800f0e90 f   PxgConstraintPartition.obj
 0001:000f0110       ?updateIncrementalIslands_Part2_2@PxgIncrementalPartition@physx@@QEAAXAEAVIslandSim@IG@2@AEAVPxgBodySimManager@2@_N22@Z 00000001800f1110 f   PxgConstraintPartition.obj
 0001:000f02b0       ?updateIncrementalIslands_Part2_2_ProcessEdgeCases@PxgIncrementalPartition@physx@@QEAAXAEAVIslandSim@IG@2@@Z 00000001800f12b0 f   PxgConstraintPartition.obj
 0001:000f0520       ?updateIncrementalIslands_Part3@PxgIncrementalPartition@physx@@QEAAXAEAVIslandSim@IG@2@AEAVPxgJointManager@2@@Z 00000001800f1520 f   PxgConstraintPartition.obj
 0001:000f0c40       ?updateIncrementalIslands_Reference@PxgIncrementalPartition@physx@@QEAAXAEAVIslandSim@IG@2@AEBVAuxCpuData@42@AEAVPxsContactManagerOutputIterator@2@AEAVPxgBodySimManager@2@AEAVPxgJointManager@2@@Z 00000001800f1c40 f   PxgConstraintPartition.obj
 0001:000f0cc0       ??0PxgCudaSolverCore@physx@@QEAA@PEAVPxgCudaKernelWranglerManager@1@PEAVPxCudaContextManager@1@PEAVPxgGpuContext@1@PEAVPxgHeapMemoryAllocatorManager@1@AEBUPxGpuDynamicsMemoryConfig@1@_N@Z 00000001800f1cc0 f   PxgCudaSolverCore.obj
 0001:000f10c0       ??1PxgSolverCore@physx@@UEAA@XZ 00000001800f20c0 f i PxgCudaSolverCore.obj
 0001:000f1530       ??_EPxgCudaSolverCore@physx@@UEAAPEAXI@Z 00000001800f2530 f i PxgCudaSolverCore.obj
 0001:000f1530       ??_GPxgCudaSolverCore@physx@@UEAAPEAXI@Z 00000001800f2530 f i PxgCudaSolverCore.obj
 0001:000f16c0       ??_GPxgSolverCore@physx@@UEAAPEAXI@Z 00000001800f26c0 f i PxgCudaSolverCore.obj
 0001:000f16c0       ??_EPxgSolverCore@physx@@UEAAPEAXI@Z 00000001800f26c0 f i PxgCudaSolverCore.obj
 0001:000f1730       ?accumulatedForceThresholdStream@PxgCudaSolverCore@physx@@UEAAXI@Z 00000001800f2730 f   PxgCudaSolverCore.obj
 0001:000f1ef0       ?acquireContext@PxgCudaSolverCore@physx@@UEAAXXZ 00000001800f2ef0 f   PxgCudaSolverCore.obj
 0001:000f1ef0       ?acquireContext@PxgTGSCudaSolverCore@physx@@UEAAXXZ 00000001800f2ef0 f   PxgTGSCudaSolverCore.obj
 0001:000f1f00       ?allocatePinnedDescriptors@PxgCudaSolverCore@physx@@UEAAXAEAVPxgPinnedHostLinearMemoryAllocator@2@@Z 00000001800f2f00 f   PxgCudaSolverCore.obj
 0001:000f1f00       ?allocatePinnedDescriptors@PxgTGSCudaSolverCore@physx@@UEAAXAEAVPxgPinnedHostLinearMemoryAllocator@2@@Z 00000001800f2f00 f   PxgTGSCudaSolverCore.obj
 0001:000f1f90       ?allocateSolverBodyBuffers@PxgCudaSolverCore@physx@@UEAAXIAEAV?$PxArray@VPxNodeIndex@physx@@VPxVirtualAllocator@2@@2@II@Z 00000001800f2f90 f   PxgCudaSolverCore.obj
 0001:000f1fe0       ?artiContactConstraintPrepare@PxgCudaSolverCore@physx@@UEAAXI@Z 00000001800f2fe0 f   PxgCudaSolverCore.obj
 0001:000f2100       ?artiJointConstraintPrepare@PxgCudaSolverCore@physx@@UEAAXI@Z 00000001800f3100 f   PxgCudaSolverCore.obj
 0001:000f2220       ?constructConstraitPrepareDesc@PxgCudaSolverCore@physx@@QEAAXAEAUPxgConstraintPrepareDesc@2@IIIIIIIIIIIIAEBUPxgConstantData@2@III@Z 00000001800f3220 f   PxgCudaSolverCore.obj
 0001:000f2520       ?contactConstraintPrepareParallel@PxgCudaSolverCore@physx@@UEAAXI@Z 00000001800f3520 f   PxgCudaSolverCore.obj
 0001:000f2640       ?createStreams@PxgCudaSolverCore@physx@@UEAAXXZ 00000001800f3640 f   PxgCudaSolverCore.obj
 0001:000f27a0       ?getDataStreamBase@PxgTGSCudaSolverCore@physx@@UEAAXAEAPEAX00@Z 00000001800f37a0 f   PxgTGSCudaSolverCore.obj
 0001:000f27a0       ?getDataStreamBase@PxgCudaSolverCore@physx@@UEAAXAEAPEAX00@Z 00000001800f37a0 f   PxgCudaSolverCore.obj
 0001:000f27e0       ?getDescriptorsAllocationSize@PxgCudaSolverCore@physx@@UEAAIXZ 00000001800f37e0 f   PxgCudaSolverCore.obj
 0001:000f27e0       ?getDescriptorsAllocationSize@PxgTGSCudaSolverCore@physx@@UEAAIXZ 00000001800f37e0 f   PxgTGSCudaSolverCore.obj
 0001:000f27f0       ?gpuMemDMAUp@PxgCudaSolverCore@physx@@UEAAXAEAVPxgPinnedHostLinearMemoryAllocator@2@AEBUPxgConstraintPrePrepData@2@IPEAUPxgConstraintBatchHeader@2@PEAUPxgIslandContext@2@IAEBUPxgPartitionData@2@IIIIIAEBUPxgConstantData@2@IIIIIIII_NPEAE77AEAVPxsContactManagerOutputIterator@2@IIIPEAUUnAlignedSpatialVector@Cm@2@PEAIPEAUuint4@@PEAPEAVShapeInteraction@Sc@2@PEAMPEAUPxsTorsionalFrictionData@2@PEAIIPEAIIPEAIPEAIPEAIIPEAIIPEAIPEAIPEAIIPEAIIPEAIPEAIM_N@Z 00000001800f37f0 f   PxgCudaSolverCore.obj
 0001:000f3c20       ?gpuMemDMAUpContactData@PxgCudaSolverCore@physx@@UEAAXPEAVPxgPinnedHostLinearMemoryAllocator@2@II0IIIPEBUPartitionIndexData@2@PEBUPartitionNodeData@2@PEBUPxgSolverConstraintManagerConstants@2@IIPEBI444I4I4II44I4I@Z 00000001800f4c20 f   PxgCudaSolverCore.obj
 0001:000f4340       ?gpuMemDMAbackSolverData@PxgCudaSolverCore@physx@@UEAAXPEAEIIIPEAUThresholdStreamElement@Dy@2@_NPEAUConstraintWriteback@42@I2AEAPEAUErrorAccumulator@42@@Z 00000001800f5340 f   PxgCudaSolverCore.obj
 0001:000f4760       ?gpuMemDmaUpBodyData@PxgCudaSolverCore@physx@@UEAAXAEAV?$PxArray@UPxgSolverBodyData@physx@@VPxVirtualAllocator@2@@2@AEAV?$PxArray@UPxgSolverTxIData@physx@@VPxVirtualAllocator@2@@2@IIIIII@Z 00000001800f5760 f   PxgCudaSolverCore.obj
 0001:000f4930       ?integrateCoreParallel@PxgCudaSolverCore@physx@@UEAAXII@Z 00000001800f5930 f   PxgCudaSolverCore.obj
 0001:000f4ae0       ?jointConstraintBlockPrePrepParallel@PxgCudaSolverCore@physx@@UEAAXI@Z 00000001800f5ae0 f   PxgCudaSolverCore.obj
 0001:000f4bc0       ?jointConstraintPrepareParallel@PxgCudaSolverCore@physx@@UEAAXI@Z 00000001800f5bc0 f   PxgCudaSolverCore.obj
 0001:000f4cf0       ?nonRigidConstraintPrepare@PxgCudaSolverCore@physx@@UEAAXI@Z 00000001800f5cf0 f   PxgCudaSolverCore.obj
 0001:000f4e30       ?preIntegration@PxgCudaSolverCore@physx@@UEAAXIIMAEBV?$PxVec3T@M@2@@Z 00000001800f5e30 f   PxgCudaSolverCore.obj
 0001:000f51f0       ?radixSort@PxgCudaSolverCore@physx@@AEAAXI@Z 00000001800f61f0 f   PxgCudaSolverCore.obj
 0001:000f5400       ?releaseContext@PxgCudaSolverCore@physx@@UEAAXXZ 00000001800f6400 f   PxgCudaSolverCore.obj
 0001:000f5400       ?releaseContext@PxgTGSCudaSolverCore@physx@@UEAAXXZ 00000001800f6400 f   PxgTGSCudaSolverCore.obj
 0001:000f5410       ?releaseStreams@PxgTGSCudaSolverCore@physx@@UEAAXXZ 00000001800f6410 f   PxgTGSCudaSolverCore.obj
 0001:000f5410       ?releaseStreams@PxgCudaSolverCore@physx@@UEAAXXZ 00000001800f6410 f   PxgCudaSolverCore.obj
 0001:000f54d0       ?solveContactMultiBlockParallel@PxgCudaSolverCore@physx@@UEAAXPEAUPxgIslandContext@2@IIAEAV?$PxArray@IVPxVirtualAllocator@physx@@@2@1AEBV?$PxVec3T@M@2@PEAMIPEAUErrorAccumulator@Dy@2@AEAV?$PxArray@UErrorAccumulator@Dy@physx@@VPxVirtualAllocator@3@@2@5@Z 00000001800f64d0 f   PxgCudaSolverCore.obj
 0001:000f66c0       ?solvePartitions@PxgCudaSolverCore@physx@@QEAAXPEAUPxgIslandContext@2@AEAV?$PxArray@IVPxVirtualAllocator@physx@@@2@1I_N2@Z 00000001800f76c0 f   PxgCudaSolverCore.obj
 0001:000f6bc0       ?syncDmaBack@PxgTGSCudaSolverCore@physx@@UEAAXAEAI@Z 00000001800f7bc0 f   PxgTGSCudaSolverCore.obj
 0001:000f6bc0       ?syncDmaBack@PxgCudaSolverCore@physx@@UEAAXAEAI@Z 00000001800f7bc0 f   PxgCudaSolverCore.obj
 0001:000f6c90       ?syncSimulationController@PxgTGSCudaSolverCore@physx@@UEAAXXZ 00000001800f7c90 f   PxgTGSCudaSolverCore.obj
 0001:000f6c90       ?syncSimulationController@PxgCudaSolverCore@physx@@UEAAXXZ 00000001800f7c90 f   PxgCudaSolverCore.obj
 0001:000f6db0       ?writeBackBlock@PxgCudaSolverCore@physx@@QEAAXIAEAUPxgIslandContext@2@@Z 00000001800f7db0 f   PxgCudaSolverCore.obj
 0001:000f6f20       ??0PxgTGSCudaSolverCore@physx@@QEAA@PEAVPxgCudaKernelWranglerManager@1@PEAVPxCudaContextManager@1@PEAVPxgGpuContext@1@PEAVPxgHeapMemoryAllocatorManager@1@AEBUPxGpuDynamicsMemoryConfig@1@@Z 00000001800f7f20 f   PxgTGSCudaSolverCore.obj
 0001:000f7320       ??_GPxgTGSCudaSolverCore@physx@@UEAAPEAXI@Z 00000001800f8320 f i PxgTGSCudaSolverCore.obj
 0001:000f7320       ??_EPxgTGSCudaSolverCore@physx@@UEAAPEAXI@Z 00000001800f8320 f i PxgTGSCudaSolverCore.obj
 0001:000f74b0       ?accumulatedForceThresholdStream@PxgTGSCudaSolverCore@physx@@UEAAXI@Z 00000001800f84b0 f   PxgTGSCudaSolverCore.obj
 0001:000f7c70       ?allocateSolverBodyBuffers@PxgTGSCudaSolverCore@physx@@UEAAXIAEAV?$PxArray@VPxNodeIndex@physx@@VPxVirtualAllocator@2@@2@II@Z 00000001800f8c70 f   PxgTGSCudaSolverCore.obj
 0001:000f7cc0       ?artiContactConstraintPrepare@PxgTGSCudaSolverCore@physx@@UEAAXI@Z 00000001800f8cc0 f   PxgTGSCudaSolverCore.obj
 0001:000f7de0       ?artiJointConstraintPrepare@PxgTGSCudaSolverCore@physx@@UEAAXI@Z 00000001800f8de0 f   PxgTGSCudaSolverCore.obj
 0001:000f7f00       ?constructConstraitPrepareDesc@PxgTGSCudaSolverCore@physx@@QEAAXAEAUPxgConstraintPrepareDesc@2@IIIIIIIIIIIIAEBUPxgConstantData@2@III@Z 00000001800f8f00 f   PxgTGSCudaSolverCore.obj
 0001:000f8210       ?contactConstraintPrepareParallel@PxgTGSCudaSolverCore@physx@@UEAAXI@Z 00000001800f9210 f   PxgTGSCudaSolverCore.obj
 0001:000f8330       ?createStreams@PxgTGSCudaSolverCore@physx@@UEAAXXZ 00000001800f9330 f   PxgTGSCudaSolverCore.obj
 0001:000f8490       ?gpuMemDMAUp@PxgTGSCudaSolverCore@physx@@UEAAXAEAVPxgPinnedHostLinearMemoryAllocator@2@AEBUPxgConstraintPrePrepData@2@IPEAUPxgConstraintBatchHeader@2@PEAUPxgIslandContext@2@IAEBUPxgPartitionData@2@IIIIIAEBUPxgConstantData@2@IIIIIIII_NPEAE77AEAVPxsContactManagerOutputIterator@2@IIIPEAUUnAlignedSpatialVector@Cm@2@PEAIPEAUuint4@@PEAPEAVShapeInteraction@Sc@2@PEAMPEAUPxsTorsionalFrictionData@2@PEAIIPEAIIPEAIPEAIPEAIIPEAIIPEAIPEAIPEAIIPEAIIPEAIPEAIM_N@Z 00000001800f9490 f   PxgTGSCudaSolverCore.obj
 0001:000f9880       ?gpuMemDMAUpContactData@PxgTGSCudaSolverCore@physx@@UEAAXPEAVPxgPinnedHostLinearMemoryAllocator@2@II0IIIPEBUPartitionIndexData@2@PEBUPartitionNodeData@2@PEBUPxgSolverConstraintManagerConstants@2@IIPEBI444I4I4II44I4I@Z 00000001800fa880 f   PxgTGSCudaSolverCore.obj
 0001:000f9f80       ?gpuMemDMAbackSolverData@PxgTGSCudaSolverCore@physx@@UEAAXPEAEIIIPEAUThresholdStreamElement@Dy@2@_NPEAUConstraintWriteback@42@I2AEAPEAUErrorAccumulator@42@@Z 00000001800faf80 f   PxgTGSCudaSolverCore.obj
 0001:000fa3c0       ?gpuMemDmaUpBodyData@PxgTGSCudaSolverCore@physx@@UEAAXAEAV?$PxArray@UPxgSolverBodyData@physx@@VPxVirtualAllocator@2@@2@AEAV?$PxArray@UPxgSolverTxIData@physx@@VPxVirtualAllocator@2@@2@IIIIII@Z 00000001800fb3c0 f   PxgTGSCudaSolverCore.obj
 0001:000fa580       ?integrateCoreParallel@PxgTGSCudaSolverCore@physx@@UEAAXII@Z 00000001800fb580 f   PxgTGSCudaSolverCore.obj
 0001:000fa770       ?jointConstraintBlockPrePrepParallel@PxgTGSCudaSolverCore@physx@@UEAAXI@Z 00000001800fb770 f   PxgTGSCudaSolverCore.obj
 0001:000fa860       ?jointConstraintPrepareParallel@PxgTGSCudaSolverCore@physx@@UEAAXI@Z 00000001800fb860 f   PxgTGSCudaSolverCore.obj
 0001:000fa990       ?nonRigidConstraintPrepare@PxgTGSCudaSolverCore@physx@@UEAAXI@Z 00000001800fb990 f   PxgTGSCudaSolverCore.obj
