 PhysXCommon_64

 Timestamp is 68e058c9 (Fri Oct  3 16:14:17 2025)

 Preferred load address is 0000000180000000

 Start         Length     Name                   Class
 0001:00000000 00003650H .text$di                CODE
 0001:00003650 001ee570H .text$mn                CODE
 0001:001f1bc0 00000040H .text$mn$00             CODE
 0001:001f1c00 00000620H .text$x                 CODE
 0001:001f2220 0000000fH .text$yd                CODE
 0002:00000000 00000280H .idata$5                DATA
 0002:00000280 00000028H .00cfg                  DATA
 0002:000002a8 00000008H .CRT$XCA                DATA
 0002:000002b0 00001af0H .CRT$XCU                DATA
 0002:00001da0 00000008H .CRT$XCZ                DATA
 0002:00001da8 00000008H .CRT$XIA                DATA
 0002:00001db0 00000018H .CRT$XIC                DATA
 0002:00001dc8 00000008H .CRT$XIZ                DATA
 0002:00001dd0 00000008H .CRT$XPA                DATA
 0002:00001dd8 00000010H .CRT$XPX                DATA
 0002:00001de8 00000008H .CRT$XPXA               DATA
 0002:00001df0 00000008H .CRT$XPZ                DATA
 0002:00001df8 00000008H .CRT$XTA                DATA
 0002:00001e00 00000010H .CRT$XTZ                DATA
 0002:00001e08 00000000H .gehcont$y              DATA
 0002:00001e08 00000000H .gfids$y                DATA
 0002:00001e10 000114f0H .rdata                  DATA
 0002:00013300 00000000H .rdata$CastGuardVftablesA DATA
 0002:00013300 00000000H .rdata$CastGuardVftablesC DATA
 0002:00013300 0000043cH .rdata$r                DATA
 0002:0001373c 00000348H .rdata$voltmd           DATA
 0002:00013a84 00000444H .rdata$zzzdbg           DATA
 0002:00013ec8 00000008H .rtc$IAA                DATA
 0002:00013ed0 00000008H .rtc$IZZ                DATA
 0002:00013ed8 00000008H .rtc$TAA                DATA
 0002:00013ee0 00000008H .rtc$TZZ                DATA
 0002:00013ee8 00016a30H .xdata                  DATA
 0002:0002a918 00000084H .xdata$x                DATA
 0002:0002a99c 00000020H .didat$2                DATA
 0002:0002a9bc 00000024H .didat$3                DATA
 0002:0002a9e0 000000c8H .didat$4                DATA
 0002:0002aaa8 00000418H .didat$6                DATA
 0002:0002aec0 000000d0H .didat$7                DATA
 0002:0002af90 0000c638H .edata                  DATA
 0002:000375c8 00000014H .idata$2                DATA
 0002:000375dc 00000014H .idata$3                DATA
 0002:000375f0 00000280H .idata$4                DATA
 0002:00037870 000005beH .idata$6                DATA
 0003:00000000 00001c40H .data                   DATA
 0003:00001c40 00001278H .data$r                 DATA
 0003:00002eb8 000000f0H .data$rs                DATA
 0003:00002fa8 000000c8H .didat$5                DATA
 0003:00003070 0000486cH .bss                    DATA
 0004:00000000 0000d1e8H .pdata                  DATA
 0005:00000000 00002304H _RDATA                  DATA
 0006:00000000 000000a0H .rsrc$01                DATA
 0006:000000a0 000004b0H .rsrc$02                DATA

  Address         Publics by Value              Rva+Base               Lib:Object

 0000:00000000       __arm64x_extra_rfe_table   0000000000000000     <absolute>
 0000:00000000       __guard_iat_count          0000000000000000     <absolute>
 0000:00000000       __guard_longjmp_count      0000000000000000     <absolute>
 0000:00000000       __hybrid_code_map          0000000000000000     <absolute>
 0000:00000000       __arm64x_extra_rfe_table_size 0000000000000000     <absolute>
 0000:00000000       __dynamic_value_reloc_table 0000000000000000     <absolute>
 0000:00000000       __x64_code_ranges_to_entry_points_count 0000000000000000     <absolute>
 0000:00000000       ___safe_se_handler_count   0000000000000000     <absolute>
 0000:00000000       __x64_code_ranges_to_entry_points 0000000000000000     <absolute>
 0000:00000000       __hybrid_auxiliary_iat     0000000000000000     <absolute>
 0000:00000000       __hybrid_auxiliary_iat_copy 0000000000000000     <absolute>
 0000:00000000       __guard_longjmp_table      0000000000000000     <absolute>
 0000:00000000       ___safe_se_handler_table   0000000000000000     <absolute>
 0000:00000000       __AbsoluteZero             0000000000000000     <absolute>
 0000:00000000       __guard_iat_table          0000000000000000     <absolute>
 0000:00000000       __guard_check_icall_a64n_fptr 0000000000000000     <absolute>
 0000:00000000       __guard_eh_cont_count      0000000000000000     <absolute>
 0000:00000000       __guard_fids_table         0000000000000000     <absolute>
 0000:00000000       __arm64x_redirection_metadata 0000000000000000     <absolute>
 0000:00000000       __guard_fids_count         0000000000000000     <absolute>
 0000:00000000       __arm64x_redirection_metadata_count 0000000000000000     <absolute>
 0000:00000000       __enclave_config           0000000000000000     <absolute>
 0000:00000000       __guard_eh_cont_table      0000000000000000     <absolute>
 0000:00000000       __arm64x_native_entrypoint 0000000000000000     <absolute>
 0000:00000000       __hybrid_code_map_count    0000000000000000     <absolute>
 0000:00000100       __guard_flags              0000000000000100     <absolute>
 0000:00000000       __ImageBase                0000000180000000     <linker-defined>
 0001:00003650       ??0PtrTable@Cm@physx@@QEAA@W4PxEMPTY@2@@Z 0000000180004650 f i CmPtrTable.obj
 0001:00003670       ??0PtrTable@Cm@physx@@QEAA@XZ 0000000180004670 f   CmPtrTable.obj
 0001:00003680       ?merge@BucketPruner@Gu@physx@@UEAAXPEBX@Z 0000000180004680 f   GuBucketPruner.obj
 0001:00003680       ?requiresObjects@HeightField@Gu@physx@@UEAAXAEAVPxProcessPxBaseCallback@3@@Z 0000000180004680 f   GuHeightField.obj
 0001:00003680       ??1AABBTreeBuildNode@Gu@physx@@QEAA@XZ 0000000180004680 f   GuMeshFactory.obj
 0001:00003680       ?visualize@BasePruner@Gu@physx@@UEBAXAEAVPxRenderOutput@3@II@Z 0000000180004680 f   GuIncrementalAABBPruner.obj
 0001:00003680       ??1PtrTable@Cm@physx@@QEAA@XZ 0000000180004680 f   CmPtrTable.obj
 0001:00003680       ?requiresObjects@TriangleMesh@Gu@physx@@UEAAXAEAVPxProcessPxBaseCallback@3@@Z 0000000180004680 f   GuTriangleMesh.obj
 0001:00003680       ??1HeightFieldData@Gu@physx@@QEAA@XZ 0000000180004680 f   GuCCTSweepTests.obj
 0001:00003680       _guard_check_icall_nop     0000000180004680 f   LIBCMT:guard_support.obj
 0001:00003680       ?onMeshIndexFormatChange@TriangleMeshBuilder@physx@@UEAAXXZ 0000000180004680 f   GuCookingTriangleMesh.obj
 0001:00003680       ?build@CompanionPrunerIncremental@@UEAAXXZ 0000000180004680 f   GuSecondaryPruner.obj
 0001:00003680       ?execute@PxRunnable@physx@@UEAAXXZ 0000000180004680 f   GuSDF.obj
 0001:00003680       ?merge@IncrementalAABBPruner@Gu@physx@@UEAAXPEBX@Z 0000000180004680 f   GuIncrementalAABBPruner.obj
 0001:00003680       ?requiresObjects@ConvexMesh@Gu@physx@@UEAAXAEAVPxProcessPxBaseCallback@3@@Z 0000000180004680 f   GuConvexMesh.obj
 0001:00003680       ?swapIndex@CompanionPrunerBucket@@UEAAXII@Z 0000000180004680 f   GuSecondaryPruner.obj
 0001:00003680       ?checkTreeLeaf@IncrementalAABBTree@Gu@physx@@QEAAXPEAVIncrementalAABBTreeNode@23@I@Z 0000000180004680 f   GuIncrementalAABBTree.obj
 0001:00003680       ?profile@Callback@RTree@Gu@physx@@UEAAXXZ 0000000180004680 f   GuMidphaseRTree.obj
 0001:00003680       ??1Box@Gu@physx@@QEAA@XZ   0000000180004680 f   GuBox.obj
 0001:00003680       ?timeStampChange@CompanionPrunerAABBTree@@UEAAXXZ 0000000180004680 f   GuSecondaryPruner.obj
 0001:00003680       ?execute@?$PxThreadT@V?$PxReflectionAllocator@VPxThreadImpl@physx@@@physx@@@physx@@UEAAXXZ 0000000180004680 f   GuSDF.obj
 0001:00003680       ??1BigConvexDataBuilder@physx@@QEAA@XZ 0000000180004680 f   GuCookingBigConvexDataBuilder.obj
 0001:00003680       ?swapIndex@CompanionPrunerAABBTree@@UEAAXII@Z 0000000180004680 f   GuSecondaryPruner.obj
 0001:00003680       ?purge@BucketPruner@Gu@physx@@UEAAXXZ 0000000180004680 f   GuBucketPruner.obj
 0001:00003680       ?requiresObjects@DeformableVolumeMesh@Gu@physx@@UEAAXAEAVPxProcessPxBaseCallback@3@@Z 0000000180004680 f   GuTetrahedronMesh.obj
 0001:00003680       ?timeStampChange@CompanionPrunerBucket@@UEAAXXZ 0000000180004680 f   GuSecondaryPruner.obj
 0001:00003690       ??4PtrTable@Cm@physx@@QEAAAEAU012@AEBU012@@Z 0000000180004690 f i CmPtrTable.obj
 0001:00003690       ??4AABBTreeBounds@Gu@physx@@QEAAAEAV012@AEBV012@@Z 0000000180004690 f i GuMeshFactory.obj
 0001:00003690       ??4CmModuleUpdateLoader@Cm@physx@@QEAAAEAV012@AEBV012@@Z 0000000180004690 f i CmWindowsModuleUpdateLoader.obj
 0001:000036a0       ?add@PtrTable@Cm@physx@@QEAAXPEAXAEAVPtrTableStorageManager@23@@Z 00000001800046a0 f   CmPtrTable.obj
 0001:00003760       ?clear@PtrTable@Cm@physx@@QEAAXAEAVPtrTableStorageManager@23@@Z 0000000180004760 f   CmPtrTable.obj
 0001:000037d0       ?exportExtraData@PtrTable@Cm@physx@@QEAAXAEAVPxSerializationContext@3@@Z 00000001800047d0 f   CmPtrTable.obj
 0001:00003820       ?find@PtrTable@Cm@physx@@QEBAIPEBX@Z 0000000180004820 f   CmPtrTable.obj
 0001:00003850       ?getCount@PtrTable@Cm@physx@@QEBAIXZ 0000000180004850 f i CmPtrTable.obj
 0001:00003860       ?getPtrs@PtrTable@Cm@physx@@QEBAPEBQEAXXZ 0000000180004860 f i CmPtrTable.obj
 0001:00003860       ?getPtrs@PtrTable@Cm@physx@@QEAAPEAPEAXXZ 0000000180004860 f i CmPtrTable.obj
 0001:00003870       ?importExtraData@PtrTable@Cm@physx@@QEAAXAEAVPxDeserializationContext@3@@Z 0000000180004870 f   CmPtrTable.obj
 0001:000038a0       ?realloc@PtrTable@Cm@physx@@AEAAXIIAEAVPtrTableStorageManager@23@@Z 00000001800048a0 f   CmPtrTable.obj
 0001:00003930       ?replaceWithLast@PtrTable@Cm@physx@@QEAAXIAEAVPtrTableStorageManager@23@@Z 0000000180004930 f   CmPtrTable.obj
 0001:00003a30       ??_GCollection@Cm@physx@@UEAAPEAXI@Z 0000000180004a30 f i CmCollection.obj
 0001:00003a30       ??_ECollection@Cm@physx@@UEAAPEAXI@Z 0000000180004a30 f i CmCollection.obj
 0001:00003ae0       ??_GPxCollection@physx@@MEAAPEAXI@Z 0000000180004ae0 f i CmCollection.obj
 0001:00003ae0       ??_EPxCollection@physx@@MEAAPEAXI@Z 0000000180004ae0 f i CmCollection.obj
 0001:00003b10       ?add@Collection@Cm@physx@@UEAAXAEAVPxBase@3@_K@Z 0000000180004b10 f   CmCollection.obj
 0001:00003c00       ?add@Collection@Cm@physx@@UEAAXAEAVPxCollection@3@@Z 0000000180004c00 f   CmCollection.obj
 0001:00003da0       ?addId@Collection@Cm@physx@@UEAAXAEAVPxBase@3@_K@Z 0000000180004da0 f   CmCollection.obj
 0001:00003ed0       ?contains@Collection@Cm@physx@@UEBA_NAEAVPxBase@3@@Z 0000000180004ed0 f   CmCollection.obj
 0001:00003f80       ?create@?$PxHashBase@V?$PxPair@QEAVPxBase@physx@@_K@physx@@PEAVPxBase@2@U?$PxHash@PEAVPxBase@physx@@@2@UGetKey@?$PxHashMapBase@PEAVPxBase@physx@@_KU?$PxHash@PEAVPxBase@physx@@@2@VPxAllocator@2@@2@VPxAllocator@2@$00@physx@@QEAAPEAV?$PxPair@QEAVPxBase@physx@@_K@2@AEBQEAVPxBase@2@AEA_N@Z 0000000180004f80 f i CmCollection.obj
 0001:00003f80       ?create@?$PxHashBase@V?$PxPair@$$CB_KPEAVPxBase@physx@@@physx@@_KU?$PxHash@_K@2@UGetKey@?$PxHashMapBase@_KPEAVPxBase@physx@@U?$PxHash@_K@2@VPxAllocator@2@@2@VPxAllocator@2@$00@physx@@QEAAPEAV?$PxPair@$$CB_KPEAVPxBase@physx@@@2@AEB_KAEA_N@Z 0000000180004f80 f i CmCollection.obj
 0001:00004120       ?erase@?$PxHashBase@V?$PxPair@$$CB_KPEAVPxBase@physx@@@physx@@_KU?$PxHash@_K@2@UGetKey@?$PxHashMapBase@_KPEAVPxBase@physx@@U?$PxHash@_K@2@VPxAllocator@2@@2@VPxAllocator@2@$00@physx@@QEAA_NAEB_K@Z 0000000180005120 f i CmCollection.obj
 0001:00004120       ?erase@?$PxHashBase@V?$PxPair@QEAVPxBase@physx@@_K@physx@@PEAVPxBase@2@U?$PxHash@PEAVPxBase@physx@@@2@UGetKey@?$PxHashMapBase@PEAVPxBase@physx@@_KU?$PxHash@PEAVPxBase@physx@@@2@VPxAllocator@2@@2@VPxAllocator@2@$00@physx@@QEAA_NAEBQEAVPxBase@2@@Z 0000000180005120 f i CmCollection.obj
 0001:000042c0       ?find@?$PxHashMapBase@_KPEAVPxBase@physx@@U?$PxHash@_K@2@VPxAllocator@2@@physx@@QEBAPEBV?$PxPair@$$CB_KPEAVPxBase@physx@@@2@AEB_K@Z 00000001800052c0 f i CmCollection.obj
 0001:00004360       ?find@Collection@Cm@physx@@UEBAPEAVPxBase@3@_K@Z 0000000180005360 f   CmCollection.obj
 0001:00004390       ?getId@Collection@Cm@physx@@UEBA_KAEBVPxBase@3@@Z 0000000180005390 f   CmCollection.obj
 0001:00004440       ?getIds@Collection@Cm@physx@@UEBAIPEA_KII@Z 0000000180005440 f   CmCollection.obj
 0001:00004500       ?getNbIds@Collection@Cm@physx@@UEBAIXZ 0000000180005500 f   CmCollection.obj
 0001:00004510       ?getNbObjects@Collection@Cm@physx@@UEBAIXZ 0000000180005510 f   CmCollection.obj
 0001:00004520       ?getObject@Collection@Cm@physx@@UEBAAEAVPxBase@3@I@Z 0000000180005520 f   CmCollection.obj
 0001:00004530       ?getObjects@Collection@Cm@physx@@UEBAIPEAPEAVPxBase@3@II@Z 0000000180005530 f   CmCollection.obj
 0001:00004580       ?release@Collection@Cm@physx@@UEAAXXZ 0000000180005580 f i CmCollection.obj
 0001:000045a0       ?remove@Collection@Cm@physx@@UEAAXAEAVPxBase@3@@Z 00000001800055a0 f   CmCollection.obj
 0001:00004690       ?remove@Collection@Cm@physx@@UEAAXAEAVPxCollection@3@@Z 0000000180005690 f   CmCollection.obj
 0001:000047a0       ?removeId@Collection@Cm@physx@@UEAAX_K@Z 00000001800057a0 f   CmCollection.obj
 0001:00004820       ?reserveInternal@?$PxHashBase@V?$PxPair@QEAVPxBase@physx@@_K@physx@@PEAVPxBase@2@U?$PxHash@PEAVPxBase@physx@@@2@UGetKey@?$PxHashMapBase@PEAVPxBase@physx@@_KU?$PxHash@PEAVPxBase@physx@@@2@VPxAllocator@2@@2@VPxAllocator@2@$00@physx@@AEAAXI@Z 0000000180005820 f i CmCollection.obj
 0001:00004820       ?reserveInternal@?$PxHashBase@V?$PxPair@$$CB_KPEAVPxBase@physx@@@physx@@_KU?$PxHash@_K@2@UGetKey@?$PxHashMapBase@_KPEAVPxBase@physx@@U?$PxHash@_K@2@VPxAllocator@2@@2@VPxAllocator@2@$00@physx@@AEAAXI@Z 0000000180005820 f i CmCollection.obj
 0001:00004a10       PxCreateCollection         0000000180005a10 f   CmCollection.obj
 0001:00004b00       ??0RadixSort@Cm@physx@@QEAA@XZ 0000000180005b00 f   CmRadixSort.obj
 0001:00004b30       ??0RadixSortBuffered@Cm@physx@@QEAA@XZ 0000000180005b30 f   CmRadixSort.obj
 0001:00004b60       ??1RadixSort@Cm@physx@@UEAA@XZ 0000000180005b60 f   CmRadixSort.obj
 0001:00004b70       ??1RadixSortBuffered@Cm@physx@@UEAA@XZ 0000000180005b70 f   CmRadixSort.obj
 0001:00004ba0       ??_ERadixSort@Cm@physx@@UEAAPEAXI@Z 0000000180005ba0 f i CmRadixSort.obj
 0001:00004c30       ??_ERadixSortBuffered@Cm@physx@@UEAAPEAXI@Z 0000000180005c30 f i CmRadixSort.obj
 0001:00004d70       ?CheckResize@RadixSortBuffered@Cm@physx@@AEAAXI@Z 0000000180005d70 f i CmRadixSort.obj
 0001:00004db0       ?GetNbHits@RadixSort@Cm@physx@@QEBAIXZ 0000000180005db0 f i CmRadixSort.obj
 0001:00004dc0       ?GetNbTotalCalls@RadixSort@Cm@physx@@QEBAIXZ 0000000180005dc0 f i CmRadixSort.obj
 0001:00004dd0       ?GetRanks@RadixSort@Cm@physx@@QEBAPEBIXZ 0000000180005dd0 f i CmRadixSort.obj
 0001:00004dd0       ?getGridModelInvMass@DeformableVolumeAuxData@Gu@physx@@UEAAPEAMXZ 0000000180005dd0 f i GuTetrahedronMesh.obj
 0001:00004dd0       ?getHeightField@HeightFieldUtil@Gu@physx@@QEBAAEBVHeightField@23@XZ 0000000180005dd0 f i GuCCTSweepTests.obj
 0001:00004dd0       ?getSimulationMesh@DeformableVolumeMesh@Gu@physx@@UEBAPEBVPxTetrahedronMesh@3@XZ 0000000180005dd0 f i GuTetrahedronMesh.obj
 0001:00004dd0       ?getSimulationMesh@DeformableVolumeMesh@Gu@physx@@UEAAPEAVPxTetrahedronMesh@3@XZ 0000000180005dd0 f i GuTetrahedronMesh.obj
 0001:00004de0       ?GetValencies@BigConvexData@physx@@QEBAPEBUValency@Gu@2@XZ 0000000180005de0 f i GuBigConvexData.obj
 0001:00004de0       ?getCollisionMesh@DeformableVolumeMesh@Gu@physx@@UEBAPEBVPxTetrahedronMesh@3@XZ 0000000180005de0 f i GuTetrahedronMesh.obj
 0001:00004de0       ?getVertices@TetrahedronMesh@Gu@physx@@UEBAPEBV?$PxVec3T@M@3@XZ 0000000180005de0 f i GuTetrahedronMesh.obj
 0001:00004de0       ?getCollisionMesh@DeformableVolumeMesh@Gu@physx@@UEAAPEAVPxTetrahedronMesh@3@XZ 0000000180005de0 f i GuTetrahedronMesh.obj
 0001:00004de0       ?getPos@AABBTreeBuildNode@Gu@physx@@QEBAPEBV123@XZ 0000000180005de0 f i GuMeshFactory.obj
 0001:00004de0       ?getVertices@TriangleMesh@Gu@physx@@UEBAPEBV?$PxVec3T@M@3@XZ 0000000180005de0 f i GuTriangleMesh.obj
 0001:00004de0       ?getHeightFieldGeometry@HeightFieldUtil@Gu@physx@@QEBAAEBVPxHeightFieldGeometry@3@XZ 0000000180005de0 f i GuCCTSweepTests.obj
 0001:00004de0       ?getObjects@PruningPool@Gu@physx@@QEBAPEAUPrunerPayload@23@XZ 0000000180005de0 f i GuIncrementalAABBPrunerCore.obj
 0001:00004de0       ?GetRecyclable@RadixSort@Cm@physx@@QEBAPEAIXZ 0000000180005de0 f i CmRadixSort.obj
 0001:00004df0       ?Resize@RadixSortBuffered@Cm@physx@@AEAA_NI@Z 0000000180005df0 f   CmRadixSort.obj
 0001:00004ef0       ?SetBuffers@RadixSort@Cm@physx@@QEAA_NPEAI00PEAPEAI@Z 0000000180005ef0 f   CmRadixSort.obj
 0001:00004f30       ?Sort@RadixSort@Cm@physx@@QEAAAEAV123@PEBIIW4RadixHint@23@@Z 0000000180005f30 f   CmRadixSort.obj
 0001:00005580       ?Sort@RadixSort@Cm@physx@@QEAAAEAV123@PEBMI@Z 0000000180006580 f   CmRadixSort.obj
 0001:00005ce0       ?Sort@RadixSortBuffered@Cm@physx@@QEAAAEAV123@PEBIIW4RadixHint@23@@Z 0000000180006ce0 f   CmRadixSort.obj
 0001:00005d80       ?Sort@RadixSortBuffered@Cm@physx@@QEAAAEAV123@PEBMI@Z 0000000180006d80 f   CmRadixSort.obj
 0001:00005e10       ?invalidateRanks@RadixSort@Cm@physx@@QEAAXXZ 0000000180006e10 f i CmRadixSort.obj
 0001:00005e20       ?reset@RadixSortBuffered@Cm@physx@@QEAAXXZ 0000000180006e20 f   CmRadixSort.obj
 0001:00005ea0       ?ReadHeader@Cm@physx@@YA_NEEEEAEAIAEA_NAEAVPxInputStream@2@@Z 0000000180006ea0 f   CmSerialize.obj
 0001:00006000       ?ReadIndices@Cm@physx@@YAXGIPEAGAEAVPxInputStream@2@_N@Z 0000000180007000 f   CmSerialize.obj
 0001:00006150       ?StoreIndices@Cm@physx@@YAXGIPEBGAEAVPxOutputStream@2@_N@Z 0000000180007150 f   CmSerialize.obj
 0001:00006210       ?WriteHeader@Cm@physx@@YA_NEEEEI_NAEAVPxOutputStream@2@@Z 0000000180007210 f   CmSerialize.obj
 0001:00006340       ?computeMaxIndex@physx@@YAGPEBGI@Z 0000000180007340 f   CmSerialize.obj
 0001:00006370       ?computeMaxIndex@physx@@YAIPEBII@Z 0000000180007370 f   CmSerialize.obj
 0001:000063a0       ?writeByteBuffer@physx@@YAXPEBEIAEAVPxOutputStream@1@@Z 00000001800073a0 f   CmSerialize.obj
 0001:000063a0       ?readByteBuffer@physx@@YAXPEAEIAEAVPxInputStream@1@@Z 00000001800073a0 f   CmSerialize.obj
 0001:000063c0       ?readChunk@physx@@YAXAEAC000AEAVPxInputStream@1@@Z 00000001800073c0 f   CmSerialize.obj
 0001:00006440       ?readDword@physx@@YAI_NAEAVPxInputStream@1@@Z 0000000180007440 f   CmSerialize.obj
 0001:000064a0       ?readFloat@physx@@YAM_NAEAVPxInputStream@1@@Z 00000001800074a0 f   CmSerialize.obj
 0001:00006500       ?readFloatBuffer@physx@@YA_NPEAMI_NAEAVPxInputStream@1@@Z 0000000180007500 f   CmSerialize.obj
 0001:00006580       ?readHeader@physx@@YA_NCCCCAEAIAEA_NAEAVPxInputStream@1@@Z 0000000180007580 f   CmSerialize.obj
 0001:000066d0       ?readIndices@physx@@YAXIIPEAIAEAVPxInputStream@1@_N@Z 00000001800076d0 f   CmSerialize.obj
 0001:000067c0       ?readWord@physx@@YAG_NAEAVPxInputStream@1@@Z 00000001800077c0 f   CmSerialize.obj
 0001:00006800       ?readWordBuffer@physx@@YAXPEAGI_NAEAVPxInputStream@1@@Z 0000000180007800 f   CmSerialize.obj
 0001:00006870       ?storeIndices@physx@@YAXIIPEBIAEAVPxOutputStream@1@_N@Z 0000000180007870 f   CmSerialize.obj
 0001:000069d0       ?writeDword@physx@@YAXI_NAEAVPxOutputStream@1@@Z 00000001800079d0 f   CmSerialize.obj
 0001:00006a20       ?writeFloat@physx@@YAXM_NAEAVPxOutputStream@1@@Z 0000000180007a20 f   CmSerialize.obj
 0001:00006a70       ?writeFloatBuffer@physx@@YAXPEBMI_NAEAVPxOutputStream@1@@Z 0000000180007a70 f   CmSerialize.obj
 0001:00006b10       ?writeHeader@physx@@YA_NCCCCI_NAEAVPxOutputStream@1@@Z 0000000180007b10 f   CmSerialize.obj
 0001:00006c40       ?writeWord@physx@@YAXG_NAEAVPxOutputStream@1@@Z 0000000180007c40 f   CmSerialize.obj
 0001:00006c80       ?writeWordBuffer@physx@@YAXPEBGI_NAEAVPxOutputStream@1@@Z 0000000180007c80 f   CmSerialize.obj
 0001:00006d00       ??6PxRenderOutput@physx@@QEAAAEAV01@AEBV?$PxTransformT@M@1@@Z 0000000180007d00 f i CmVisualization.obj
 0001:00006e80       ??6PxRenderOutput@physx@@QEAAAEAV01@AEBV?$PxVec3T@M@1@@Z 0000000180007e80 f i CmVisualization.obj
 0001:00007180       ?renderOutputDebugArrow@Cm@physx@@YAXAEAVPxRenderOutput@2@AEBUPxDebugArrow@2@@Z 0000000180008180 f   CmVisualization.obj
 0001:00007520       ?renderOutputDebugBasis@Cm@physx@@YAXAEAVPxRenderOutput@2@AEBUPxDebugBasis@2@@Z 0000000180008520 f   CmVisualization.obj
 0001:00007a10       ?renderOutputDebugBox@Cm@physx@@YAXAEAVPxRenderOutput@2@AEBVPxBounds3@2@@Z 0000000180008a10 f   CmVisualization.obj
 0001:00007c80       ?renderOutputDebugCircle@Cm@physx@@YAXAEAVPxRenderOutput@2@IM@Z 0000000180008c80 f   CmVisualization.obj
 0001:00007d60       ?visualizeAngularLimit@Cm@physx@@YAXAEAVPxRenderOutput@2@MAEBV?$PxTransformT@M@2@MM@Z 0000000180008d60 f   CmVisualization.obj
 0001:00007ef0       ?visualizeDoubleCone@Cm@physx@@YAXAEAVPxRenderOutput@2@MAEBV?$PxTransformT@M@2@M@Z 0000000180008ef0 f   CmVisualization.obj
 0001:000080f0       ?visualizeJointFrames@Cm@physx@@YAXAEAVPxRenderOutput@2@MAEBV?$PxTransformT@M@2@1@Z 00000001800090f0 f   CmVisualization.obj
 0001:00008b00       ?visualizeLimitCone@Cm@physx@@YAXAEAVPxRenderOutput@2@MAEBV?$PxTransformT@M@2@MM@Z 0000000180009b00 f   CmVisualization.obj
 0001:00008d40       ?visualizeLinearLimit@Cm@physx@@YAXAEAVPxRenderOutput@2@MAEBV?$PxTransformT@M@2@1M@Z 0000000180009d40 f   CmVisualization.obj
 0001:00009330       ??0CmModuleUpdateLoader@Cm@physx@@QEAA@PEBD@Z 000000018000a330 f   CmWindowsModuleUpdateLoader.obj
 0001:00009370       ??1CmModuleUpdateLoader@Cm@physx@@QEAA@XZ 000000018000a370 f   CmWindowsModuleUpdateLoader.obj
 0001:000093a0       ?LoadModule@CmModuleUpdateLoader@Cm@physx@@QEAAPEAUHINSTANCE__@@PEBD0@Z 000000018000a3a0 f   CmWindowsModuleUpdateLoader.obj
 0001:00009410       __local_stdio_printf_options 000000018000a410 f i CmWindowsModuleUpdateLoader.obj
 0001:00009420       printf                     000000018000a420 f i CmWindowsModuleUpdateLoader.obj
 0001:00009480       ?commonDelayHook@@YAP6A_JXZIPEAUDelayLoadInfo@@@Z 000000018000a480 f   CmWindowsDelayLoadHook.obj
 0001:00009560       PxSetPhysXCommonDelayLoadHook 000000018000a560 f   CmWindowsDelayLoadHook.obj
 0001:00009570       ??0?$PxQuatT@M@physx@@QEAA@AEBV?$PxMat33T@M@1@@Z 000000018000a570 f i GuBox.obj
 0001:00009750       ??0Box@Gu@physx@@QEAA@AEBV012@@Z 000000018000a750 f i GuBox.obj
 0001:00009750       ??4Box@Gu@physx@@QEAAAEBV012@AEBV012@@Z 000000018000a750 f i GuBox.obj
 0001:000097b0       ??0Box@Gu@physx@@QEAA@AEBV?$PxVec3T@M@2@0AEBV?$PxMat33T@M@2@@Z 000000018000a7b0 f i GuBox.obj
 0001:00009820       ?getAABB@AABBTreeBuildNode@Gu@physx@@QEBAAEBVPxBounds3@3@XZ 000000018000a820 f i GuMeshFactory.obj
 0001:00009820       ?getPaddedBounds@HeightFieldData@Gu@physx@@QEBAAEBVCenterExtentsPadded@23@XZ 000000018000a820 f i GuCCTSweepTests.obj
 0001:00009820       ??0BigConvexData@physx@@QEAA@W4PxEMPTY@1@@Z 000000018000a820 f i GuBigConvexData.obj
 0001:00009820       ??0Box@Gu@physx@@QEAA@XZ   000000018000a820 f i GuBox.obj
 0001:00009820       ??0AABBTreeBuildNode@Gu@physx@@QEAA@XZ 000000018000a820 f i GuMeshFactory.obj
 0001:00009820       ??$forward@_K@std@@YA$$QEA_KAEA_K@Z 000000018000a820 f i libvcruntime:undname.obj
 0001:00009820       ??0HeightFieldData@Gu@physx@@QEAA@W4PxEMPTY@2@@Z 000000018000a820 f i GuCCTSweepTests.obj
 0001:00009830       ?computeAABBExtent@Box@Gu@physx@@QEBA?AV?$PxVec3T@M@3@XZ 000000018000a830 f i GuBox.obj
 0001:000098f0       ?computeBoxPoints@Box@Gu@physx@@QEBAXPEIAV?$PxVec3T@M@3@@Z 000000018000a8f0 f i GuBox.obj
 0001:00009930       ?computeOBBPoints@Gu@physx@@YAXPEIAV?$PxVec3T@M@2@AEBV32@1111@Z 000000018000a930 f   GuBox.obj
 0001:00009bb0       ?create@Box@Gu@physx@@QEAAXAEBVCapsule@23@@Z 000000018000abb0 f   GuBox.obj
 0001:00009de0       ?getBoxEdges@Gu@physx@@YAPEBEXZ 000000018000ade0 f   GuBox.obj
 0001:00009df0       ?getTransform@Box@Gu@physx@@QEBA?AV?$PxTransformT@M@3@XZ 000000018000adf0 f i GuBox.obj
 0001:00009e50       ?isValid@Box@Gu@physx@@QEBA_NXZ 000000018000ae50 f i GuBox.obj
 0001:00009e70       ?rotate@Box@Gu@physx@@QEBA?AV?$PxVec3T@M@3@AEBV43@@Z 000000018000ae70 f i GuBox.obj
 0001:00009f00       ?rotateInv@Box@Gu@physx@@QEBA?AV?$PxVec3T@M@3@AEBV43@@Z 000000018000af00 f i GuBox.obj
 0001:00009f90       ?setAxes@Box@Gu@physx@@QEAAXAEBV?$PxVec3T@M@3@00@Z 000000018000af90 f i GuBox.obj
 0001:00009fd0       ?setEmpty@Box@Gu@physx@@QEAAXXZ 000000018000afd0 f i GuBox.obj
 0001:0000a010       ?transform@Box@Gu@physx@@QEBA?AV?$PxVec3T@M@3@AEBV43@@Z 000000018000b010 f i GuBox.obj
 0001:0000a0b0       ?PxComputeBasisVectors@physx@@YAXAEBV?$PxVec3T@M@1@0AEAV21@11@Z 000000018000b0b0 f i GuCapsule.obj
 0001:0000a250       ?computeBoxAroundCapsule@Gu@physx@@YAXAEBVCapsule@12@AEAVBox@12@@Z 000000018000b250 f   GuCapsule.obj
 0001:0000a3a0       ??0HeightFieldData@Gu@physx@@QEAA@$$QEAU012@@Z 000000018000b3a0 f i GuCCTSweepTests.obj
 0001:0000a3a0       ??4HeightFieldData@Gu@physx@@QEAAAEAU012@AEBU012@@Z 000000018000b3a0 f i GuCCTSweepTests.obj
 0001:0000a3a0       ??4HeightFieldData@Gu@physx@@QEAAAEAU012@$$QEAU012@@Z 000000018000b3a0 f i GuCCTSweepTests.obj
 0001:0000a3a0       ??0HeightFieldData@Gu@physx@@QEAA@AEBU012@@Z 000000018000b3a0 f i GuCCTSweepTests.obj
 0001:0000a400       ??0HeightFieldData@Gu@physx@@QEAA@XZ 000000018000b400 f i GuCCTSweepTests.obj
 0001:0000a410       ??0HeightFieldTraceUtil@Gu@physx@@QEAA@AEBVPxHeightFieldGeometry@2@@Z 000000018000b410 f i GuCCTSweepTests.obj
 0001:0000a410       ??0HeightFieldUtil@Gu@physx@@QEAA@AEBVPxHeightFieldGeometry@2@@Z 000000018000b410 f i GuCCTSweepTests.obj
 0001:0000a450       ??4HeightFieldTraceUtil@Gu@physx@@QEAAAEAV012@AEBV012@@Z 000000018000b450 f i GuCCTSweepTests.obj
 0001:0000a450       ??4HeightFieldUtil@Gu@physx@@QEAAAEAV012@AEBV012@@Z 000000018000b450 f i GuCCTSweepTests.obj
 0001:0000a450       ??4HeightFieldTraceUtil@Gu@physx@@QEAAAEAV012@$$QEAV012@@Z 000000018000b450 f i GuCCTSweepTests.obj
 0001:0000a450       ??4AABBTreeBuildParams@Gu@physx@@QEAAAEAV012@AEBV012@@Z 000000018000b450 f i GuMeshFactory.obj
 0001:0000a470       ??4HeightFieldUtil@Gu@physx@@QEAAAEAV012@$$QEAV012@@Z 000000018000b470 f i GuCCTSweepTests.obj
 0001:0000a4d0       ??_GEntityReport@Gu@physx@@UEAAPEAXI@Z 000000018000b4d0 f i GuSweepsHF.obj
 0001:0000a4d0       ??_EOverlapReport@Gu@physx@@UEAAPEAXI@Z 000000018000b4d0 f i GuCCTSweepTests.obj
 0001:0000a4d0       ??_EOverlapCallback@PxBVH@physx@@UEAAPEAXI@Z 000000018000b4d0 f i GuQuerySystem.obj
 0001:0000a4d0       ??_GRemapCallback@RTreeCooker@physx@@UEAAPEAXI@Z 000000018000b4d0 f i GuCookingTriangleMesh.obj
 0001:0000a4d0       ??_ERemapCallback@RTreeCooker@physx@@UEAAPEAXI@Z 000000018000b4d0 f i GuCookingTriangleMesh.obj
 0001:0000a4d0       ??_GRaycastCallback@PxBVH@physx@@UEAAPEAXI@Z 000000018000b4d0 f i GuQuerySystem.obj
 0001:0000a4d0       ??_EEntityReport@Gu@physx@@UEAAPEAXI@Z 000000018000b4d0 f i GuSweepsHF.obj
 0001:0000a4d0       ??_ERaycastCallback@PxBVH@physx@@UEAAPEAXI@Z 000000018000b4d0 f i GuQuerySystem.obj
 0001:0000a4d0       ??_GOverlapCallback@PxBVH@physx@@UEAAPEAXI@Z 000000018000b4d0 f i GuQuerySystem.obj
 0001:0000a4d0       ??_GOverlapReport@Gu@physx@@UEAAPEAXI@Z 000000018000b4d0 f i GuCCTSweepTests.obj
 0001:0000a500       ??_H@YAXPEAX_K1P6APEAX0@Z@Z 000000018000b500 f i GuCCTSweepTests.obj
 0001:0000a550       ?ceilUp@HeightFieldTraceUtil@Gu@physx@@SAMM@Z 000000018000b550 f i GuCCTSweepTests.obj
 0001:0000a590       ?floorDown@HeightFieldTraceUtil@Gu@physx@@SAMM@Z 000000018000b590 f i GuCCTSweepTests.obj
 0001:0000a5d0       ?getHeightAtShapePoint@HeightFieldUtil@Gu@physx@@QEBAMMM@Z 000000018000b5d0 f i GuCCTSweepTests.obj
 0001:0000a630       ?getHeightInternal2@HeightField@Gu@physx@@QEBAMIMM@Z 000000018000b630 f i GuCCTSweepTests.obj
 0001:0000a7a0       ?getNormalAtShapePoint@HeightFieldUtil@Gu@physx@@QEBA?AV?$PxVec3T@M@3@MM@Z 000000018000b7a0 f i GuCCTSweepTests.obj
 0001:0000a860       ?getNormal_2@HeightField@Gu@physx@@QEBA?AV?$PxVec3T@M@3@IMMMMM@Z 000000018000b860 f i GuCCTSweepTests.obj
 0001:0000a980       ?getOneOverColumnScale@HeightFieldUtil@Gu@physx@@QEBAMXZ 000000018000b980 f i GuCCTSweepTests.obj
 0001:0000a990       ?getOneOverHeightScale@HeightFieldUtil@Gu@physx@@QEBAMXZ 000000018000b990 f i GuCCTSweepTests.obj
 0001:0000a9a0       ?getOneOverRowScale@HeightFieldUtil@Gu@physx@@QEBAMXZ 000000018000b9a0 f i GuCCTSweepTests.obj
 0001:0000a9b0       ?hf2shapen@HeightFieldUtil@Gu@physx@@QEBA?AV?$PxVec3T@M@3@AEBV43@@Z 000000018000b9b0 f i GuCCTSweepTests.obj
 0001:0000a9b0       ?shape2hfp@HeightFieldUtil@Gu@physx@@QEBA?AV?$PxVec3T@M@3@AEBV43@@Z 000000018000b9b0 f i GuCCTSweepTests.obj
 0001:0000a9f0       ?hf2shapep@HeightFieldUtil@Gu@physx@@QEBA?AV?$PxVec3T@M@3@AEBV43@@Z 000000018000b9f0 f i GuCCTSweepTests.obj
 0001:0000aa30       ?hf2worldn@HeightFieldUtil@Gu@physx@@QEBA?AV?$PxVec3T@M@3@AEBV?$PxTransformT@M@3@AEBV43@@Z 000000018000ba30 f i GuCCTSweepTests.obj
 0001:0000aba0       ?hf2worldp@HeightFieldUtil@Gu@physx@@QEBA?AV?$PxVec3T@M@3@AEBV?$PxTransformT@M@3@AEBV43@@Z 000000018000bba0 f i GuCCTSweepTests.obj
 0001:0000ad20       ?overlapAABBTriangles0to1@HeightFieldUtil@Gu@physx@@QEBAXAEBV?$PxTransformT@M@3@AEBVPxBounds3@3@AEAVOverlapReport@23@I@Z 000000018000bd20 f i GuCCTSweepTests.obj
 0001:0000b0a0       ?overlapAABBTriangles@HeightFieldUtil@Gu@physx@@QEBAXAEBV?$PxTransformT@M@3@0AEBVPxBounds3@3@AEAVOverlapReport@23@I@Z 000000018000c0a0 f i GuCCTSweepTests.obj
 0001:0000b6b0       ?overlapAABBTriangles@HeightFieldUtil@Gu@physx@@QEBAXAEBV?$PxTransformT@M@3@AEBVPxBounds3@3@AEAVOverlapReport@23@I@Z 000000018000c6b0 f i GuCCTSweepTests.obj
 0001:0000bd60       ?sweepBoxTriangles_Precise@Gu@physx@@YA_NIPEBVPxTriangle@2@_NAEBVPxBoxGeometry@2@AEBV?$PxTransformT@M@2@AEBV?$PxVec3T@M@2@MAEAUPxGeomSweepHit@2@PEBIMV?$PxFlags@W4Enum@PxHitFlag@physx@@G@2@@Z 000000018000cd60 f   GuCCTSweepTests.obj
 0001:0000cae0       ?sweepBox_BoxGeom_Precise@@YA_NAEBVPxGeometry@physx@@AEBV?$PxTransformT@M@2@AEBVPxBoxGeometry@2@1AEBVBox@Gu@2@AEBV?$PxVec3T@M@2@MAEAUPxGeomSweepHit@2@V?$PxFlags@W4Enum@PxHitFlag@physx@@G@2@MPEAUPxQueryThreadContext@2@@Z 000000018000dae0 f   GuCCTSweepTests.obj
 0001:0000cca0       ?sweepBox_CapsuleGeom_Precise@@YA_NAEBVPxGeometry@physx@@AEBV?$PxTransformT@M@2@AEBVPxBoxGeometry@2@1AEBVBox@Gu@2@AEBV?$PxVec3T@M@2@MAEAUPxGeomSweepHit@2@V?$PxFlags@W4Enum@PxHitFlag@physx@@G@2@MPEAUPxQueryThreadContext@2@@Z 000000018000dca0 f   GuCCTSweepTests.obj
 0001:0000d070       ?sweepBox_HeightFieldGeom_Precise@@YA_NAEBVPxGeometry@physx@@AEBV?$PxTransformT@M@2@AEBVPxBoxGeometry@2@1AEBVBox@Gu@2@AEBV?$PxVec3T@M@2@MAEAUPxGeomSweepHit@2@V?$PxFlags@W4Enum@PxHitFlag@physx@@G@2@MPEAUPxQueryThreadContext@2@@Z 000000018000e070 f   GuCCTSweepTests.obj
 0001:0000d870       ?sweepBox_SphereGeom_Precise@@YA_NAEBVPxGeometry@physx@@AEBV?$PxTransformT@M@2@AEBVPxBoxGeometry@2@1AEBVBox@Gu@2@AEBV?$PxVec3T@M@2@MAEAUPxGeomSweepHit@2@V?$PxFlags@W4Enum@PxHitFlag@physx@@G@2@MPEAUPxQueryThreadContext@2@@Z 000000018000e870 f   GuCCTSweepTests.obj
 0001:0000db50       ?sweepCapsule_BoxGeom_Precise@@YA_NAEBVPxGeometry@physx@@AEBV?$PxTransformT@M@2@AEBVPxCapsuleGeometry@2@1AEBVCapsule@Gu@2@AEBV?$PxVec3T@M@2@MAEAUPxGeomSweepHit@2@V?$PxFlags@W4Enum@PxHitFlag@physx@@G@2@MPEAUPxQueryThreadContext@2@@Z 000000018000eb50 f   GuCCTSweepTests.obj
 0001:0000e1b0       ??0?$CacheMap@UCachedEdge@Gu@physx@@$0IA@@Gu@physx@@QEAA@XZ 000000018000f1b0 f i GuGeometryQuery.obj
 0001:0000e270       ??0?$CacheMap@UCachedVertex@Gu@physx@@$0IA@@Gu@physx@@QEAA@XZ 000000018000f270 f i GuGeometryQuery.obj
 0001:0000e330       ??0MultiplePersistentContactManifold@Gu@physx@@QEAA@XZ 000000018000f330 f i GuGeometryQuery.obj
 0001:0000e380       ??0PCMMeshContactGeneration@Gu@physx@@QEAA@AEBT__m128@@0AEBVPxTransformV@aos@2@1AEAVMultiplePersistentContactManifold@12@AEAVPxContactBuffer@2@PEAV?$PxInlineArray@I$0DMA@V?$PxReflectionAllocator@I@physx@@@2@PEAVPxRenderOutput@2@@Z 000000018000f380 f i GuGeometryQuery.obj
 0001:0000ecb0       ??4MultiplePersistentContactManifold@Gu@physx@@QEAAAEAV012@$$QEAV012@@Z 000000018000fcb0 f i GuGeometryQuery.obj
 0001:0000efc0       ??4MultiplePersistentContactManifold@Gu@physx@@QEAAAEAV012@AEBV012@@Z 000000018000ffc0 f i GuGeometryQuery.obj
 0001:0000efe0       ??_G?$SupportLocalImpl@VBoxV@Gu@physx@@@Gu@physx@@UEAAPEAXI@Z 000000018000ffe0 f i GuGeometryQuery.obj
 0001:0000efe0       ??_G?$SupportLocalImpl@VConvexHullNoScaleV@Gu@physx@@@Gu@physx@@UEAAPEAXI@Z 000000018000ffe0 f i GuMTD.obj
 0001:0000efe0       ??_G?$SupportLocalImpl@VConvexHullV@Gu@physx@@@Gu@physx@@UEAAPEAXI@Z 000000018000ffe0 f i GuGeometryQuery.obj
 0001:0000efe0       ??_E?$SupportLocalImpl@VBoxV@Gu@physx@@@Gu@physx@@UEAAPEAXI@Z 000000018000ffe0 f i GuGeometryQuery.obj
 0001:0000efe0       ??_G?$SupportLocalImpl@VTriangleV@Gu@physx@@@Gu@physx@@UEAAPEAXI@Z 000000018000ffe0 f i GuPCMContactConvexCommon.obj
 0001:0000efe0       ??_E?$SupportLocalImpl@VConvexHullNoScaleV@Gu@physx@@@Gu@physx@@UEAAPEAXI@Z 000000018000ffe0 f i GuMTD.obj
 0001:0000efe0       ??_E?$SupportLocalImpl@VConvexHullV@Gu@physx@@@Gu@physx@@UEAAPEAXI@Z 000000018000ffe0 f i GuGeometryQuery.obj
 0001:0000efe0       ??_E?$SupportLocalImpl@VTriangleV@Gu@physx@@@Gu@physx@@UEAAPEAXI@Z 000000018000ffe0 f i GuPCMContactConvexCommon.obj
 0001:0000f010       ??_GSupportLocal@Gu@physx@@UEAAPEAXI@Z 0000000180010010 f i GuGeometryQuery.obj
 0001:0000f010       ??_ESupportLocal@Gu@physx@@UEAAPEAXI@Z 0000000180010010 f i GuGeometryQuery.obj
 0001:0000f040       ?clearManifold@MultiplePersistentContactManifold@Gu@physx@@QEAAXXZ 0000000180010040 f i GuGeometryQuery.obj
 0001:0000f0a0       ?computeGeomBounds@PxGeometryQuery@physx@@SAXAEAVPxBounds3@2@AEBVPxGeometry@2@AEBV?$PxTransformT@M@2@MMV?$PxFlags@W4Enum@PxGeometryQueryFlag@physx@@I@2@@Z 00000001800100a0 f   GuGeometryQuery.obj
 0001:0000f120       ?computePenetration@PxGeometryQuery@physx@@SA_NAEAV?$PxVec3T@M@2@AEAMAEBVPxGeometry@2@AEBV?$PxTransformT@M@2@23V?$PxFlags@W4Enum@PxGeometryQueryFlag@physx@@I@2@@Z 0000000180010120 f   GuGeometryQuery.obj
 0001:0000f280       ?doSupport@?$SupportLocalImpl@VBoxV@Gu@physx@@@Gu@physx@@UEBA?AT__m128@@AEBT4@@Z 0000000180010280 f i GuGeometryQuery.obj
 0001:0000f2b0       ?doSupport@?$SupportLocalImpl@VBoxV@Gu@physx@@@Gu@physx@@UEBAXAEBT__m128@@AEAT4@1@Z 00000001800102b0 f i GuGeometryQuery.obj
 0001:0000f300       ?doSupport@?$SupportLocalImpl@VConvexHullV@Gu@physx@@@Gu@physx@@UEBA?AT__m128@@AEBT4@@Z 0000000180010300 f i GuGeometryQuery.obj
 0001:0000f3e0       ?doSupport@?$SupportLocalImpl@VConvexHullV@Gu@physx@@@Gu@physx@@UEBAXAEBT__m128@@AEAT4@1@Z 00000001800103e0 f i GuGeometryQuery.obj
 0001:0000f740       ?generateTriangleContacts@PxGeometryQuery@physx@@SA_NAEBVPxGeometry@2@AEBV?$PxTransformT@M@2@QEBV?$PxVec3T@M@2@IMMMAEAVPxContactBuffer@2@@Z 0000000180010740 f   GuGeometryQuery.obj
 0001:00011050       ?getEmptyManifold@MultiplePersistentContactManifold@Gu@physx@@QEAAPEAVSinglePersistentContactManifold@23@XZ 0000000180012050 f i GuGeometryQuery.obj
 0001:00011070       ?getManifold@MultiplePersistentContactManifold@Gu@physx@@QEBAPEBVSinglePersistentContactManifold@23@I@Z 0000000180012070 f i GuGeometryQuery.obj
 0001:00011070       ?getManifold@MultiplePersistentContactManifold@Gu@physx@@QEAAPEAVSinglePersistentContactManifold@23@I@Z 0000000180012070 f i GuGeometryQuery.obj
 0001:00011090       ?getUniqueID@PxCustomGeometry@physx@@SAIXZ 0000000180012090 f   GuGeometryQuery.obj
 0001:000110b0       ?hillClimbing@ConvexHullV@Gu@physx@@QEBAIAEBT__m128@@@Z 00000001800120b0 f i GuGeometryQuery.obj
 0001:000112e0       ?initialize@MultiplePersistentContactManifold@Gu@physx@@QEAAXXZ 00000001800122e0 f i GuGeometryQuery.obj
 0001:00011340       ?invalidate@MultiplePersistentContactManifold@Gu@physx@@QEBAIAEBVPxTransformV@aos@3@AEBT__m128@@1@Z 0000000180012340 f i GuGeometryQuery.obj
 0001:000113b0       ?invalidate@MultiplePersistentContactManifold@Gu@physx@@QEBAIAEBVPxTransformV@aos@3@AEBT__m128@@@Z 00000001800123b0 f i GuGeometryQuery.obj
 0001:00011420       ?isUnit@?$PxQuatT@M@physx@@QEBA_NXZ 0000000180012420 f i GuGeometryQuery.obj
 0001:000114e0       ?isValid@PxGeometryQuery@physx@@SA_NAEBVPxGeometry@2@@Z 00000001800124e0 f   GuGeometryQuery.obj
 0001:000117e0       ?maxTransformPositionDelta@MultiplePersistentContactManifold@Gu@physx@@QEBA?AT__m128@@AEBT4@@Z 00000001800127e0 f i GuGeometryQuery.obj
 0001:00011820       ?overlap@PxGeometryQuery@physx@@SA_NAEBVPxGeometry@2@AEBV?$PxTransformT@M@2@01V?$PxFlags@W4Enum@PxGeometryQueryFlag@physx@@I@2@PEAUPxQueryThreadContext@2@@Z 0000000180012820 f   GuGeometryQuery.obj
 0001:00011900       ?pointDistance@PxGeometryQuery@physx@@SAMAEBV?$PxVec3T@M@2@AEBVPxGeometry@2@AEBV?$PxTransformT@M@2@PEAV32@PEAIV?$PxFlags@W4Enum@PxGeometryQueryFlag@physx@@I@2@@Z 0000000180012900 f   GuGeometryQuery.obj
 0001:000120a0       ?populateVerts@?$SupportLocalImpl@VBoxV@Gu@physx@@@Gu@physx@@UEBAXPEBEIPEBV?$PxVec3T@M@3@PEAT__m128@@@Z 00000001800130a0 f i GuGeometryQuery.obj
 0001:000120e0       ?populateVerts@?$SupportLocalImpl@VConvexHullV@Gu@physx@@@Gu@physx@@UEBAXPEBEIPEBV?$PxVec3T@M@3@PEAT__m128@@@Z 00000001800130e0 f i GuGeometryQuery.obj
 0001:00012140       ?raycast@PxGeometryQuery@physx@@SAIAEBV?$PxVec3T@M@2@0AEBVPxGeometry@2@AEBV?$PxTransformT@M@2@MV?$PxFlags@W4Enum@PxHitFlag@physx@@G@2@IPEIAUPxGeomRaycastHit@2@IV?$PxFlags@W4Enum@PxGeometryQueryFlag@physx@@I@2@PEAUPxQueryThreadContext@2@@Z 0000000180013140 f   GuGeometryQuery.obj
 0001:00012240       ?reduceManifoldContactsInDifferentPatches@MultiplePersistentContactManifold@Gu@physx@@QEBAIPEAPEAUPCMContactPatch@23@IPEAVMeshPersistentContact@23@IAEBT__m128@@@Z 0000000180013240 f i GuGeometryQuery.obj
 0001:000123a0       ?refineContactPatchConnective@MultiplePersistentContactManifold@Gu@physx@@QEBAXPEAPEAUPCMContactPatch@23@IPEAVMeshPersistentContact@23@AEBT__m128@@@Z 00000001800133a0 f i GuGeometryQuery.obj
 0001:00012490       ?refreshManifold@MultiplePersistentContactManifold@Gu@physx@@QEAAXAEBVPxMatTransformV@aos@3@AEBT__m128@@1@Z 0000000180013490 f i GuGeometryQuery.obj
 0001:00012590       ?setRelativeTransform@MultiplePersistentContactManifold@Gu@physx@@QEAAXAEBVPxTransformV@aos@3@@Z 0000000180013590 f i GuGeometryQuery.obj
 0001:000125a0       ?supportVertexIndex@ConvexHullV@Gu@physx@@QEBAIAEBT__m128@@@Z 00000001800135a0 f i GuGeometryQuery.obj
 0001:00012820       ?sweep@PxGeometryQuery@physx@@SA_NAEBV?$PxVec3T@M@2@MAEBVPxGeometry@2@AEBV?$PxTransformT@M@2@12AEAUPxGeomSweepHit@2@V?$PxFlags@W4Enum@PxHitFlag@physx@@G@2@MV?$PxFlags@W4Enum@PxGeometryQueryFlag@physx@@I@2@PEAUPxQueryThreadContext@2@@Z 0000000180013820 f   GuGeometryQuery.obj
 0001:00012cc0       ?computeBoxPoints@Gu@physx@@YAXAEBVPxBounds3@2@PEIAV?$PxVec3T@M@2@@Z 0000000180013cc0 f   GuInternal.obj
 0001:00012d60       ?computeSweptBox@Gu@physx@@YAXAEAVBox@12@AEBV?$PxVec3T@M@2@1AEBV?$PxMat33T@M@2@1M@Z 0000000180013d60 f   GuInternal.obj
 0001:00013290       ?getPlane@Gu@physx@@YA?AVPxPlane@2@AEBV?$PxTransformT@M@2@@Z 0000000180014290 f   GuInternal.obj
 0001:000136e0       ??_EPxInsertionCallback@physx@@MEAAPEAXI@Z 00000001800146e0 f i GuMeshFactory.obj
 0001:000136e0       ??_GCallbackRefit@RTree@Gu@physx@@UEAAPEAXI@Z 00000001800146e0 f i GuTriangleMeshRTree.obj
 0001:000136e0       ??_ECallbackRaycast@RTree@Gu@physx@@UEAAPEAXI@Z 00000001800146e0 f i GuMidphaseRTree.obj
 0001:000136e0       ??_GPxInsertionCallback@physx@@MEAAPEAXI@Z 00000001800146e0 f i GuMeshFactory.obj
 0001:000136e0       ??_GCallbackRaycast@RTree@Gu@physx@@UEAAPEAXI@Z 00000001800146e0 f i GuMidphaseRTree.obj
 0001:000136e0       ??_ECallbackRefit@RTree@Gu@physx@@UEAAPEAXI@Z 00000001800146e0 f i GuTriangleMeshRTree.obj
 0001:00013710       ??$copy@V?$PxReflectionAllocator@USlab@NodeAllocator@Gu@physx@@@physx@@@?$PxArray@USlab@NodeAllocator@Gu@physx@@V?$PxReflectionAllocator@USlab@NodeAllocator@Gu@physx@@@4@@physx@@IEAAXAEBV01@@Z 0000000180014710 f i GuMeshFactory.obj
 0001:000137d0       ??0AABBTreeBounds@Gu@physx@@QEAA@XZ 00000001800147d0 f i GuMeshFactory.obj
 0001:000137e0       ??0AABBTreeBuildNode@Gu@physx@@QEAA@AEBV012@@Z 00000001800147e0 f i GuMeshFactory.obj
 0001:000137e0       ??4AABBTreeBuildNode@Gu@physx@@QEAAAEAV012@AEBV012@@Z 00000001800147e0 f i GuMeshFactory.obj
 0001:00013820       ??0AABBTreeBuildParams@Gu@physx@@QEAA@IIPEBVAABBTreeBounds@12@W4BVHBuildStrategy@12@@Z 0000000180014820 f i GuMeshFactory.obj
 0001:00013840       ??0MeshFactory@Gu@physx@@QEAA@XZ 0000000180014840 f   GuMeshFactory.obj
 0001:00013a40       ??0NodeAllocator@Gu@physx@@QEAA@AEBV012@@Z 0000000180014a40 f i GuMeshFactory.obj
 0001:00013a80       ??0TriangleMeshData@Gu@physx@@QEAA@XZ 0000000180014a80 f i GuMeshFactory.obj
 0001:00013ba0       ??1AABBTreeBounds@Gu@physx@@QEAA@XZ 0000000180014ba0 f i GuMeshFactory.obj
 0001:00013bb0       ?reset@AABBTreeBuildParams@Gu@physx@@QEAAXXZ 0000000180014bb0 f i GuMeshFactory.obj
 0001:00013bb0       ??1AABBTreeBuildParams@Gu@physx@@QEAA@XZ 0000000180014bb0 f i GuMeshFactory.obj
 0001:00013c00       ??1CollisionMeshMappingData@Gu@physx@@UEAA@XZ 0000000180014c00 f i GuMeshFactory.obj
 0001:00013d50       ??1DeformableVolumeCollisionData@Gu@physx@@UEAA@XZ 0000000180014d50 f i GuMeshFactory.obj
 0001:00013e90       ??1DeformableVolumeSimulationData@Gu@physx@@UEAA@XZ 0000000180014e90 f i GuMeshFactory.obj
 0001:00013fb0       ??1MeshDataBase@Gu@physx@@UEAA@XZ 0000000180014fb0 f i GuMeshFactory.obj
 0001:000140f0       ??1MeshFactory@Gu@physx@@MEAA@XZ 00000001800150f0 f   GuMeshFactory.obj
 0001:00014230       ??1RTreeTriangleData@Gu@physx@@UEAA@XZ 0000000180015230 f i GuMeshFactory.obj
 0001:000142a0       ??1TetrahedronMeshData@Gu@physx@@QEAA@XZ 00000001800152a0 f i GuMeshFactory.obj
 0001:00014330       ??1TriangleMeshData@Gu@physx@@UEAA@XZ 0000000180015330 f i GuMeshFactory.obj
 0001:00014460       ??4NodeAllocator@Gu@physx@@QEAAAEAV012@AEBV012@@Z 0000000180015460 f i GuMeshFactory.obj
 0001:00014510       ??_EMeshFactory@Gu@physx@@MEAAPEAXI@Z 0000000180015510 f i GuMeshFactory.obj
 0001:00014630       ??_FAABBTreeBuildParams@Gu@physx@@QEAAXXZ 0000000180015630 f i GuMeshFactory.obj
 0001:00014650       ??_GBV4TriangleData@Gu@physx@@UEAAPEAXI@Z 0000000180015650 f i GuMeshFactory.obj
 0001:00014650       ??_EBV4TriangleData@Gu@physx@@UEAAPEAXI@Z 0000000180015650 f i GuMeshFactory.obj
 0001:000146e0       ??_ECollisionMeshMappingData@Gu@physx@@UEAAPEAXI@Z 00000001800156e0 f i GuMeshFactory.obj
 0001:000146e0       ??_GCollisionMeshMappingData@Gu@physx@@UEAAPEAXI@Z 00000001800156e0 f i GuMeshFactory.obj
 0001:00014750       ??_EDeformableVolumeCollisionData@Gu@physx@@UEAAPEAXI@Z 0000000180015750 f i GuMeshFactory.obj
 0001:00014750       ??_GDeformableVolumeCollisionData@Gu@physx@@UEAAPEAXI@Z 0000000180015750 f i GuMeshFactory.obj
 0001:000147c0       ??_EDeformableVolumeSimulationData@Gu@physx@@UEAAPEAXI@Z 00000001800157c0 f i GuMeshFactory.obj
 0001:000147c0       ??_GDeformableVolumeSimulationData@Gu@physx@@UEAAPEAXI@Z 00000001800157c0 f i GuMeshFactory.obj
 0001:00014830       ??_EMeshDataBase@Gu@physx@@UEAAPEAXI@Z 0000000180015830 f i GuMeshFactory.obj
 0001:00014830       ??_GMeshDataBase@Gu@physx@@UEAAPEAXI@Z 0000000180015830 f i GuMeshFactory.obj
 0001:000148a0       ??_EPxCollisionMeshMappingData@physx@@UEAAPEAXI@Z 00000001800158a0 f i GuMeshFactory.obj
 0001:000148a0       ??_GPxCollisionMeshMappingData@physx@@UEAAPEAXI@Z 00000001800158a0 f i GuMeshFactory.obj
 0001:000148f0       ??_ERTreeTriangleData@Gu@physx@@UEAAPEAXI@Z 00000001800158f0 f i GuMeshFactory.obj
 0001:000148f0       ??_GRTreeTriangleData@Gu@physx@@UEAAPEAXI@Z 00000001800158f0 f i GuMeshFactory.obj
 0001:000149a0       ??_ETriangleMeshData@Gu@physx@@UEAAPEAXI@Z 00000001800159a0 f i GuMeshFactory.obj
 0001:000149a0       ??_GTriangleMeshData@Gu@physx@@UEAAPEAXI@Z 00000001800159a0 f i GuMeshFactory.obj
 0001:00014a10       ??_V@YAXPEAX_K@Z           0000000180015a10 f i LIBCMT:delete_array_size.obj
 0001:00014a10       ?__global_delete@@YAXPEAX_K@Z 0000000180015a10 f i GuMeshFactory.obj
 0001:00014a20       ?addBVH@MeshFactory@Gu@physx@@QEAAXPEAVBVH@23@_N@Z 0000000180015a20 f   GuMeshFactory.obj
 0001:00014aa0       ?addConvexMesh@MeshFactory@Gu@physx@@QEAAXPEAVConvexMesh@23@_N@Z 0000000180015aa0 f   GuMeshFactory.obj
 0001:00014b20       ?addDeformableVolumeMesh@MeshFactory@Gu@physx@@QEAAXPEAVDeformableVolumeMesh@23@_N@Z 0000000180015b20 f   GuMeshFactory.obj
 0001:00014ba0       ?addFactoryListener@MeshFactory@Gu@physx@@QEAAXAEAVMeshFactoryListener@23@@Z 0000000180015ba0 f   GuMeshFactory.obj
 0001:00014c10       ?addHeightField@MeshFactory@Gu@physx@@QEAAXPEAVHeightField@23@_N@Z 0000000180015c10 f   GuMeshFactory.obj
 0001:00014c90       ?addTetrahedronMesh@MeshFactory@Gu@physx@@QEAAXPEAVTetrahedronMesh@23@_N@Z 0000000180015c90 f   GuMeshFactory.obj
 0001:00014d10       ?addTriangleMesh@MeshFactory@Gu@physx@@QEAAXPEAVTriangleMesh@23@_N@Z 0000000180015d10 f   GuMeshFactory.obj
 0001:00014d90       ?allocate@?$PxArray@USlab@NodeAllocator@Gu@physx@@V?$PxReflectionAllocator@USlab@NodeAllocator@Gu@physx@@@4@@physx@@IEAAPEAUSlab@NodeAllocator@Gu@2@IPEAI@Z 0000000180015d90 f i GuMeshFactory.obj
 0001:00014e20       ?allocateAdjacencies@TriangleMeshData@Gu@physx@@QEAAPEAIXZ 0000000180015e20 f i GuMeshFactory.obj
 0001:00014e90       ?allocateExtraTrigData@TriangleMeshData@Gu@physx@@QEAAPEAEXZ 0000000180015e90 f i GuMeshFactory.obj
 0001:00014f00       ?allocateFaceRemap@TriangleMeshData@Gu@physx@@QEAAPEAIXZ 0000000180015f00 f i GuMeshFactory.obj
 0001:00014f70       ?allocateGridModelData@DeformableVolumeSimulationData@Gu@physx@@QEAAXIIIIIII@Z 0000000180015f70 f i GuMeshFactory.obj
 0001:000151e0       ?allocateMaterials@TetrahedronMeshData@Gu@physx@@QEAAPEAGXZ 00000001800161e0 f i GuMeshFactory.obj
 0001:00015250       ?allocateMaterials@TriangleMeshData@Gu@physx@@QEAAPEAGXZ 0000000180016250 f i GuMeshFactory.obj
 0001:000152c0       ?allocateTetrahedrons@TetrahedronMeshData@Gu@physx@@QEAAXII@Z 00000001800162c0 f i GuMeshFactory.obj
 0001:00015350       ?allocateTriangles@TriangleMeshData@Gu@physx@@QEAAPEAXI_NI@Z 0000000180016350 f i GuMeshFactory.obj
 0001:00015440       ?allocateVertices@MeshDataBase@Gu@physx@@QEAAPEAV?$PxVec3T@M@3@I@Z 0000000180016440 f i GuMeshFactory.obj
 0001:000154b0       ?allocateVertices@TetrahedronMeshData@Gu@physx@@QEAAPEAV?$PxVec3T@M@3@II@Z 00000001800164b0 f i GuMeshFactory.obj
 0001:00015550       ?allocatemappingData@CollisionMeshMappingData@Gu@physx@@QEAAXIIII@Z 0000000180016550 f i GuMeshFactory.obj
 0001:00015730       ?create@?$PxHashBase@PEAVTriangleMesh@Gu@physx@@PEAV123@U?$PxHash@PEAVTriangleMesh@Gu@physx@@@3@UGetKey@?$PxHashSetBase@PEAVTriangleMesh@Gu@physx@@U?$PxHash@PEAVTriangleMesh@Gu@physx@@@3@VPxAllocator@3@$00@3@VPxAllocator@3@$00@physx@@QEAAPEAPEAVTriangleMesh@Gu@2@AEBQEAV342@AEA_N@Z 0000000180016730 f i GuMeshFactory.obj
 0001:00015730       ?create@?$PxHashBase@PEAVConvexMesh@Gu@physx@@PEAV123@U?$PxHash@PEAVConvexMesh@Gu@physx@@@3@UGetKey@?$PxHashSetBase@PEAVConvexMesh@Gu@physx@@U?$PxHash@PEAVConvexMesh@Gu@physx@@@3@VPxAllocator@3@$00@3@VPxAllocator@3@$00@physx@@QEAAPEAPEAVConvexMesh@Gu@2@AEBQEAV342@AEA_N@Z 0000000180016730 f i GuMeshFactory.obj
 0001:00015730       ?create@?$PxHashBase@PEAVBVH@Gu@physx@@PEAV123@U?$PxHash@PEAVBVH@Gu@physx@@@3@UGetKey@?$PxHashSetBase@PEAVBVH@Gu@physx@@U?$PxHash@PEAVBVH@Gu@physx@@@3@VPxAllocator@3@$00@3@VPxAllocator@3@$00@physx@@QEAAPEAPEAVBVH@Gu@2@AEBQEAV342@AEA_N@Z 0000000180016730 f i GuMeshFactory.obj
 0001:00015730       ?create@?$PxHashBase@PEAVHeightField@Gu@physx@@PEAV123@U?$PxHash@PEAVHeightField@Gu@physx@@@3@UGetKey@?$PxHashSetBase@PEAVHeightField@Gu@physx@@U?$PxHash@PEAVHeightField@Gu@physx@@@3@VPxAllocator@3@$00@3@VPxAllocator@3@$00@physx@@QEAAPEAPEAVHeightField@Gu@2@AEBQEAV342@AEA_N@Z 0000000180016730 f i GuMeshFactory.obj
 0001:00015730       ?create@?$PxHashBase@PEAVTetrahedronMesh@Gu@physx@@PEAV123@U?$PxHash@PEAVTetrahedronMesh@Gu@physx@@@3@UGetKey@?$PxHashSetBase@PEAVTetrahedronMesh@Gu@physx@@U?$PxHash@PEAVTetrahedronMesh@Gu@physx@@@3@VPxAllocator@3@$00@3@VPxAllocator@3@$00@physx@@QEAAPEAPEAVTetrahedronMesh@Gu@2@AEBQEAV342@AEA_N@Z 0000000180016730 f i GuMeshFactory.obj
 0001:00015730       ?create@?$PxHashBase@PEAVDeformableVolumeMesh@Gu@physx@@PEAV123@U?$PxHash@PEAVDeformableVolumeMesh@Gu@physx@@@3@UGetKey@?$PxHashSetBase@PEAVDeformableVolumeMesh@Gu@physx@@U?$PxHash@PEAVDeformableVolumeMesh@Gu@physx@@@3@VPxAllocator@3@$00@3@VPxAllocator@3@$00@physx@@QEAAPEAPEAVDeformableVolumeMesh@Gu@2@AEBQEAV342@AEA_N@Z 0000000180016730 f i GuMeshFactory.obj
 0001:000158d0       ?createBVH@MeshFactory@Gu@physx@@IEAAPEAVPxBVH@3@AEAVBVHData@23@@Z 00000001800168d0 f   GuMeshFactory.obj
 0001:000159c0       ?createBVH@MeshFactory@Gu@physx@@QEAAPEAVPxBVH@3@AEAVPxInputStream@3@@Z 00000001800169c0 f   GuMeshFactory.obj
 0001:00015ad0       ?createBVH@MeshFactory@Gu@physx@@QEAAPEAVPxBVH@3@PEAX@Z 0000000180016ad0 f   GuMeshFactory.obj
 0001:00015ae0       ?createConvexMesh@MeshFactory@Gu@physx@@IEAAPEAVPxConvexMesh@3@AEAUConvexHullInitData@23@@Z 0000000180016ae0 f   GuMeshFactory.obj
 0001:00015bd0       ?createConvexMesh@MeshFactory@Gu@physx@@QEAAPEAVPxConvexMesh@3@AEAVPxInputStream@3@@Z 0000000180016bd0 f   GuMeshFactory.obj
 0001:00015ce0       ?createConvexMesh@MeshFactory@Gu@physx@@QEAAPEAVPxConvexMesh@3@PEAX@Z 0000000180016ce0 f   GuMeshFactory.obj
 0001:00015cf0       ?createDeformableVolumeMesh@MeshFactory@Gu@physx@@IEAAPEAVPxDeformableVolumeMesh@3@AEAVDeformableVolumeMeshData@23@@Z 0000000180016cf0 f   GuMeshFactory.obj
 0001:00015de0       ?createDeformableVolumeMesh@MeshFactory@Gu@physx@@QEAAPEAVPxDeformableVolumeMesh@3@AEAVPxInputStream@3@@Z 0000000180016de0 f   GuMeshFactory.obj
 0001:000163e0       ?createDeformableVolumeMesh@MeshFactory@Gu@physx@@QEAAPEAVPxDeformableVolumeMesh@3@PEAX@Z 00000001800173e0 f   GuMeshFactory.obj
 0001:000163f0       ?createHeightField@MeshFactory@Gu@physx@@QEAAPEAVPxHeightField@3@AEAVPxInputStream@3@@Z 00000001800173f0 f   GuMeshFactory.obj
 0001:00016500       ?createHeightField@MeshFactory@Gu@physx@@QEAAPEAVPxHeightField@3@PEAX@Z 0000000180017500 f   GuMeshFactory.obj
 0001:000165f0       ?createTetrahedronMesh@MeshFactory@Gu@physx@@IEAAPEAVPxTetrahedronMesh@3@AEAVTetrahedronMeshData@23@@Z 00000001800175f0 f   GuMeshFactory.obj
 0001:000166e0       ?createTetrahedronMesh@MeshFactory@Gu@physx@@QEAAPEAVPxTetrahedronMesh@3@AEAVPxInputStream@3@@Z 00000001800176e0 f   GuMeshFactory.obj
 0001:00016750       ?createTetrahedronMesh@MeshFactory@Gu@physx@@QEAAPEAVPxTetrahedronMesh@3@PEAX@Z 0000000180017750 f   GuMeshFactory.obj
 0001:00016760       ?createTriangleMesh@MeshFactory@Gu@physx@@IEAAPEAVPxTriangleMesh@3@AEAVTriangleMeshData@23@@Z 0000000180017760 f   GuMeshFactory.obj
 0001:000168e0       ?createTriangleMesh@MeshFactory@Gu@physx@@QEAAPEAVPxTriangleMesh@3@AEAVPxInputStream@3@@Z 00000001800178e0 f   GuMeshFactory.obj
 0001:00016940       ?createTriangleMesh@MeshFactory@Gu@physx@@QEAAPEAVPxTriangleMesh@3@PEAX@Z 0000000180017940 f   GuMeshFactory.obj
 0001:00016950       ?erase@?$PxHashBase@PEAVConvexMesh@Gu@physx@@PEAV123@U?$PxHash@PEAVConvexMesh@Gu@physx@@@3@UGetKey@?$PxHashSetBase@PEAVConvexMesh@Gu@physx@@U?$PxHash@PEAVConvexMesh@Gu@physx@@@3@VPxAllocator@3@$00@3@VPxAllocator@3@$00@physx@@QEAA_NAEBQEAVConvexMesh@Gu@2@@Z 0000000180017950 f i GuMeshFactory.obj
 0001:00016950       ?erase@?$PxHashBase@PEAVDeformableVolumeMesh@Gu@physx@@PEAV123@U?$PxHash@PEAVDeformableVolumeMesh@Gu@physx@@@3@UGetKey@?$PxHashSetBase@PEAVDeformableVolumeMesh@Gu@physx@@U?$PxHash@PEAVDeformableVolumeMesh@Gu@physx@@@3@VPxAllocator@3@$00@3@VPxAllocator@3@$00@physx@@QEAA_NAEBQEAVDeformableVolumeMesh@Gu@2@@Z 0000000180017950 f i GuMeshFactory.obj
 0001:00016950       ?erase@?$PxHashBase@PEAVTriangleMesh@Gu@physx@@PEAV123@U?$PxHash@PEAVTriangleMesh@Gu@physx@@@3@UGetKey@?$PxHashSetBase@PEAVTriangleMesh@Gu@physx@@U?$PxHash@PEAVTriangleMesh@Gu@physx@@@3@VPxAllocator@3@$00@3@VPxAllocator@3@$00@physx@@QEAA_NAEBQEAVTriangleMesh@Gu@2@@Z 0000000180017950 f i GuMeshFactory.obj
 0001:00016950       ?erase@?$PxHashBase@PEAVBVH@Gu@physx@@PEAV123@U?$PxHash@PEAVBVH@Gu@physx@@@3@UGetKey@?$PxHashSetBase@PEAVBVH@Gu@physx@@U?$PxHash@PEAVBVH@Gu@physx@@@3@VPxAllocator@3@$00@3@VPxAllocator@3@$00@physx@@QEAA_NAEBQEAVBVH@Gu@2@@Z 0000000180017950 f i GuMeshFactory.obj
 0001:00016950       ?erase@?$PxHashBase@PEAVTetrahedronMesh@Gu@physx@@PEAV123@U?$PxHash@PEAVTetrahedronMesh@Gu@physx@@@3@UGetKey@?$PxHashSetBase@PEAVTetrahedronMesh@Gu@physx@@U?$PxHash@PEAVTetrahedronMesh@Gu@physx@@@3@VPxAllocator@3@$00@3@VPxAllocator@3@$00@physx@@QEAA_NAEBQEAVTetrahedronMesh@Gu@2@@Z 0000000180017950 f i GuMeshFactory.obj
 0001:00016950       ?erase@?$PxHashBase@PEAVHeightField@Gu@physx@@PEAV123@U?$PxHash@PEAVHeightField@Gu@physx@@@3@UGetKey@?$PxHashSetBase@PEAVHeightField@Gu@physx@@U?$PxHash@PEAVHeightField@Gu@physx@@@3@VPxAllocator@3@$00@3@VPxAllocator@3@$00@physx@@QEAA_NAEBQEAVHeightField@Gu@2@@Z 0000000180017950 f i GuMeshFactory.obj
 0001:00016ac0       ?getBVHs@MeshFactory@Gu@physx@@QEBAIPEAPEAVPxBVH@3@II@Z 0000000180017ac0 f   GuMeshFactory.obj
 0001:00016b60       ?getBounds@AABBTreeBounds@Gu@physx@@QEAAPEAVPxBounds3@3@XZ 0000000180017b60 f i GuMeshFactory.obj
 0001:00016b60       ?getBounds@AABBTreeBounds@Gu@physx@@QEBAPEBVPxBounds3@3@XZ 0000000180017b60 f i GuMeshFactory.obj
 0001:00016b70       ?getConvexMeshes@MeshFactory@Gu@physx@@QEBAIPEAPEAVPxConvexMesh@3@II@Z 0000000180017b70 f   GuMeshFactory.obj
 0001:00016c10       ?getDeformableVolumeMeshes@MeshFactory@Gu@physx@@QEBAIPEAPEAVPxDeformableVolumeMesh@3@II@Z 0000000180017c10 f   GuMeshFactory.obj
 0001:00016cb0       ?getHeightFields@MeshFactory@Gu@physx@@QEBAIPEAPEAVPxHeightField@3@II@Z 0000000180017cb0 f   GuMeshFactory.obj
 0001:00016d50       ?getNbBVHs@MeshFactory@Gu@physx@@QEBAIXZ 0000000180017d50 f   GuMeshFactory.obj
 0001:00016d90       ?getNbConvexMeshes@MeshFactory@Gu@physx@@QEBAIXZ 0000000180017d90 f   GuMeshFactory.obj
 0001:00016dd0       ?getNbDeformableVolumeMeshes@MeshFactory@Gu@physx@@QEBAIXZ 0000000180017dd0 f   GuMeshFactory.obj
 0001:00016e10       ?getNbHeightFields@MeshFactory@Gu@physx@@QEBAIXZ 0000000180017e10 f   GuMeshFactory.obj
 0001:00016e50       ?getNbRuntimePrimitives@AABBTreeBuildNode@Gu@physx@@QEBAIXZ 0000000180017e50 f i GuMeshFactory.obj
 0001:00016e50       ?getNbPrimitives@AABBTreeBuildNode@Gu@physx@@QEBAIXZ 0000000180017e50 f i GuMeshFactory.obj
 0001:00016e60       ?getNbTetrahedronMeshes@MeshFactory@Gu@physx@@QEBAIXZ 0000000180017e60 f   GuMeshFactory.obj
 0001:00016ea0       ?getNbTriangleMeshes@MeshFactory@Gu@physx@@QEBAIXZ 0000000180017ea0 f   GuMeshFactory.obj
 0001:00016ee0       ?getNeg@AABBTreeBuildNode@Gu@physx@@QEBAPEBV123@XZ 0000000180017ee0 f i GuMeshFactory.obj
 0001:00016f00       ?getPrimitives@AABBTreeBuildNode@Gu@physx@@QEAAPEAIPEAI@Z 0000000180017f00 f i GuMeshFactory.obj
 0001:00016f00       ?getPrimitives@AABBTreeBuildNode@Gu@physx@@QEBAPEBIPEBI@Z 0000000180017f00 f i GuMeshFactory.obj
 0001:00016f10       ?getTetrahedronMeshes@MeshFactory@Gu@physx@@QEBAIPEAPEAVPxTetrahedronMesh@3@II@Z 0000000180017f10 f   GuMeshFactory.obj
 0001:00016fa0       ?getTriangleMeshes@MeshFactory@Gu@physx@@QEBAIPEAPEAVPxTriangleMesh@3@II@Z 0000000180017fa0 f   GuMeshFactory.obj
 0001:00017030       ?growAndPushBack@?$PxArray@PEAVMeshFactoryListener@Gu@physx@@V?$PxReflectionAllocator@PEAVMeshFactoryListener@Gu@physx@@@3@@physx@@IEAAAEAPEAVMeshFactoryListener@Gu@2@AEBQEAV342@@Z 0000000180018030 f i GuMeshFactory.obj
 0001:00017150       ?isLeaf@AABBTreeBuildNode@Gu@physx@@QEBA_NXZ 0000000180018150 f i GuMeshFactory.obj
 0001:00018c20       ?moveFrom@AABBTreeBounds@Gu@physx@@QEAAXAEAV123@@Z 0000000180019c20 f i GuMeshFactory.obj
 0001:00018c30       ?notifyFactoryListener@MeshFactory@Gu@physx@@QEAAXPEBVPxBase@3@G@Z 0000000180019c30 f   GuMeshFactory.obj
 0001:00018ca0       ?ownsMemory@AABBTreeBounds@Gu@physx@@QEBA_NXZ 0000000180019ca0 f i GuMeshFactory.obj
 0001:00018f20       ?recreate@?$PxArray@USlab@NodeAllocator@Gu@physx@@V?$PxReflectionAllocator@USlab@NodeAllocator@Gu@physx@@@4@@physx@@IEAAXI@Z 0000000180019f20 f i GuMeshFactory.obj
 0001:00019010       ?release@CollisionMeshMappingData@Gu@physx@@UEAAXXZ 000000018001a010 f i GuMeshFactory.obj
 0001:00019030       ?release@MeshFactory@Gu@physx@@QEAAXXZ 000000018001a030 f   GuMeshFactory.obj
 0001:00019120       ?remove@MeshFactory@Gu@physx@@QEAA_NAEAVPxBase@3@@Z 000000018001a120 f   GuMeshFactory.obj
 0001:00019220       ?removeBVH@MeshFactory@Gu@physx@@QEAA_NAEAVPxBVH@3@@Z 000000018001a220 f   GuMeshFactory.obj
 0001:00019270       ?removeConvexMesh@MeshFactory@Gu@physx@@QEAA_NAEAVPxConvexMesh@3@@Z 000000018001a270 f   GuMeshFactory.obj
 0001:000192c0       ?removeDeformableVolumeMesh@MeshFactory@Gu@physx@@QEAA_NAEAVPxDeformableVolumeMesh@3@@Z 000000018001a2c0 f   GuMeshFactory.obj
 0001:00019310       ?removeFactoryListener@MeshFactory@Gu@physx@@QEAAXAEAVMeshFactoryListener@23@@Z 000000018001a310 f   GuMeshFactory.obj
 0001:000193a0       ?removeHeightField@MeshFactory@Gu@physx@@QEAA_NAEAVPxHeightField@3@@Z 000000018001a3a0 f   GuMeshFactory.obj
 0001:000193f0       ?removeTetrahedronMesh@MeshFactory@Gu@physx@@QEAA_NAEAVPxTetrahedronMesh@3@@Z 000000018001a3f0 f   GuMeshFactory.obj
 0001:00019440       ?removeTriangleMesh@MeshFactory@Gu@physx@@QEAA_NAEAVPxTriangleMesh@3@@Z 000000018001a440 f   GuMeshFactory.obj
 0001:00019490       ?reserveInternal@?$PxHashBase@PEAVConvexMesh@Gu@physx@@PEAV123@U?$PxHash@PEAVConvexMesh@Gu@physx@@@3@UGetKey@?$PxHashSetBase@PEAVConvexMesh@Gu@physx@@U?$PxHash@PEAVConvexMesh@Gu@physx@@@3@VPxAllocator@3@$00@3@VPxAllocator@3@$00@physx@@AEAAXI@Z 000000018001a490 f i GuMeshFactory.obj
 0001:00019490       ?reserveInternal@?$PxHashBase@PEAVTriangleMesh@Gu@physx@@PEAV123@U?$PxHash@PEAVTriangleMesh@Gu@physx@@@3@UGetKey@?$PxHashSetBase@PEAVTriangleMesh@Gu@physx@@U?$PxHash@PEAVTriangleMesh@Gu@physx@@@3@VPxAllocator@3@$00@3@VPxAllocator@3@$00@physx@@AEAAXI@Z 000000018001a490 f i GuMeshFactory.obj
 0001:00019490       ?reserveInternal@?$PxHashBase@PEAVBVH@Gu@physx@@PEAV123@U?$PxHash@PEAVBVH@Gu@physx@@@3@UGetKey@?$PxHashSetBase@PEAVBVH@Gu@physx@@U?$PxHash@PEAVBVH@Gu@physx@@@3@VPxAllocator@3@$00@3@VPxAllocator@3@$00@physx@@AEAAXI@Z 000000018001a490 f i GuMeshFactory.obj
 0001:00019490       ?reserveInternal@?$PxHashBase@PEAVTetrahedronMesh@Gu@physx@@PEAV123@U?$PxHash@PEAVTetrahedronMesh@Gu@physx@@@3@UGetKey@?$PxHashSetBase@PEAVTetrahedronMesh@Gu@physx@@U?$PxHash@PEAVTetrahedronMesh@Gu@physx@@@3@VPxAllocator@3@$00@3@VPxAllocator@3@$00@physx@@AEAAXI@Z 000000018001a490 f i GuMeshFactory.obj
 0001:00019490       ?reserveInternal@?$PxHashBase@PEAVHeightField@Gu@physx@@PEAV123@U?$PxHash@PEAVHeightField@Gu@physx@@@3@UGetKey@?$PxHashSetBase@PEAVHeightField@Gu@physx@@U?$PxHash@PEAVHeightField@Gu@physx@@@3@VPxAllocator@3@$00@3@VPxAllocator@3@$00@physx@@AEAAXI@Z 000000018001a490 f i GuMeshFactory.obj
 0001:00019490       ?reserveInternal@?$PxHashBase@PEAVDeformableVolumeMesh@Gu@physx@@PEAV123@U?$PxHash@PEAVDeformableVolumeMesh@Gu@physx@@@3@UGetKey@?$PxHashSetBase@PEAVDeformableVolumeMesh@Gu@physx@@U?$PxHash@PEAVDeformableVolumeMesh@Gu@physx@@@3@VPxAllocator@3@$00@3@VPxAllocator@3@$00@physx@@AEAAXI@Z 000000018001a490 f i GuMeshFactory.obj
 0001:00019660       ?setBounds@AABBTreeBounds@Gu@physx@@QEAAXPEAVPxBounds3@3@@Z 000000018001a660 f i GuMeshFactory.obj
 0001:00019670       ?setNbRunTimePrimitives@AABBTreeBuildNode@Gu@physx@@QEAAXI@Z 000000018001a670 f i GuMeshFactory.obj
 0001:00019680       ?takeOwnership@AABBTreeBounds@Gu@physx@@QEAAXXZ 000000018001a680 f i GuMeshFactory.obj
 0001:00019690       getInsertionCallback       000000018001a690 f   GuMeshFactory.obj
 0001:000196a0       ?doSupport@?$SupportLocalImpl@VConvexHullNoScaleV@Gu@physx@@@Gu@physx@@UEBA?AT__m128@@AEBT4@@Z 000000018001a6a0 f i GuMTD.obj
 0001:000196f0       ?doSupport@?$SupportLocalImpl@VConvexHullNoScaleV@Gu@physx@@@Gu@physx@@UEBAXAEBT__m128@@AEAT4@1@Z 000000018001a6f0 f i GuMTD.obj
 0001:00019870       ?populateVerts@?$SupportLocalImpl@VConvexHullNoScaleV@Gu@physx@@@Gu@physx@@UEBAXPEBEIPEBV?$PxVec3T@M@3@PEAT__m128@@@Z 000000018001a870 f i GuMTD.obj
 0001:000198b0       ?getInternalData@TriangleMesh@Gu@physx@@UEBA_NAEAUPxTriangleMeshInternalData@3@_N@Z 000000018001a8b0 f   GuTriangleMesh.obj
 0001:000198b0       ?isDynamic@Pruner@Gu@physx@@UEBA_NXZ 000000018001a8b0 f   GuIncrementalAABBPruner.obj
 0001:0001add0       ??$gjk@U?$LocalConvex@VCapsuleV@Gu@physx@@@Gu@physx@@U?$LocalConvex@VConvexHullV@Gu@physx@@@23@@Gu@physx@@YA?AW4GjkStatus@01@AEBU?$LocalConvex@VCapsuleV@Gu@physx@@@01@AEBU?$LocalConvex@VConvexHullV@Gu@physx@@@01@AEBT__m128@@2AEAT5@333@Z 000000018001bdd0 f i GuMTD.obj
 0001:0001bb40       ??_E?$LocalConvex@VBoxV@Gu@physx@@@Gu@physx@@UEAAPEAXI@Z 000000018001cb40 f i GuSweepTests.obj
 0001:0001bb40       ??_G?$LocalConvex@VTetrahedronV@Gu@physx@@@Gu@physx@@UEAAPEAXI@Z 000000018001cb40 f i GuCookingTetrahedronMesh.obj
 0001:0001bb40       ??_G?$LocalConvex@VConvexHullNoScaleV@Gu@physx@@@Gu@physx@@UEAAPEAXI@Z 000000018001cb40 f i GuPCMContactBoxConvex.obj
 0001:0001bb40       ??_E?$LocalConvex@UPointConvexV@@@Gu@physx@@UEAAPEAXI@Z 000000018001cb40 f i GuGjkQuery.obj
 0001:0001bb40       ??_G?$LocalConvex@VTriangleV@Gu@physx@@@Gu@physx@@UEAAPEAXI@Z 000000018001cb40 f i GuSweepTests.obj
 0001:0001bb40       ??_G?$LocalConvex@UCustomConvexV@@@Gu@physx@@UEAAPEAXI@Z 000000018001cb40 f i GuGjkQuery.obj
 0001:0001bb40       ??_E?$LocalConvex@UCustomConvexV@@@Gu@physx@@UEAAPEAXI@Z 000000018001cb40 f i GuGjkQuery.obj
 0001:0001bb40       ??_E?$LocalConvex@VConvexHullNoScaleV@Gu@physx@@@Gu@physx@@UEAAPEAXI@Z 000000018001cb40 f i GuPCMContactBoxConvex.obj
 0001:0001bb40       ??_G?$LocalConvex@VCapsuleV@Gu@physx@@@Gu@physx@@UEAAPEAXI@Z 000000018001cb40 f i GuMTD.obj
 0001:0001bb40       ??_E?$LocalConvex@VConvexHullV@Gu@physx@@@Gu@physx@@UEAAPEAXI@Z 000000018001cb40 f i GuMTD.obj
 0001:0001bb40       ??_E?$LocalConvex@VCapsuleV@Gu@physx@@@Gu@physx@@UEAAPEAXI@Z 000000018001cb40 f i GuMTD.obj
 0001:0001bb40       ??_G?$LocalConvex@VBoxV@Gu@physx@@@Gu@physx@@UEAAPEAXI@Z 000000018001cb40 f i GuSweepTests.obj
 0001:0001bb40       ??_E?$LocalConvex@VTriangleV@Gu@physx@@@Gu@physx@@UEAAPEAXI@Z 000000018001cb40 f i GuSweepTests.obj
 0001:0001bb40       ??_EGjkConvex@Gu@physx@@UEAAPEAXI@Z 000000018001cb40 f i GuMTD.obj
 0001:0001bb40       ??_GGjkConvex@Gu@physx@@UEAAPEAXI@Z 000000018001cb40 f i GuMTD.obj
 0001:0001bb40       ??_G?$LocalConvex@VConvexHullV@Gu@physx@@@Gu@physx@@UEAAPEAXI@Z 000000018001cb40 f i GuMTD.obj
 0001:0001bb40       ??_G?$LocalConvex@UPointConvexV@@@Gu@physx@@UEAAPEAXI@Z 000000018001cb40 f i GuGjkQuery.obj
 0001:0001bb40       ??_E?$LocalConvex@VTetrahedronV@Gu@physx@@@Gu@physx@@UEAAPEAXI@Z 000000018001cb40 f i GuCookingTetrahedronMesh.obj
 0001:00020840       ?getCenter@?$LocalConvex@VCapsuleV@Gu@physx@@@Gu@physx@@UEBA?AT__m128@@XZ 0000000180021840 f i GuMTD.obj
 0001:00020840       ?getCenter@?$LocalConvex@VTetrahedronV@Gu@physx@@@Gu@physx@@UEBA?AT__m128@@XZ 0000000180021840 f i GuCookingTetrahedronMesh.obj
 0001:00020840       ?getCenter@?$LocalConvex@UPointConvexV@@@Gu@physx@@UEBA?AT__m128@@XZ 0000000180021840 f i GuGjkQuery.obj
 0001:00020840       ?getCenter@?$LocalConvex@VConvexHullNoScaleV@Gu@physx@@@Gu@physx@@UEBA?AT__m128@@XZ 0000000180021840 f i GuPCMContactBoxConvex.obj
 0001:00020840       ?getCenter@?$LocalConvex@VBoxV@Gu@physx@@@Gu@physx@@UEBA?AT__m128@@XZ 0000000180021840 f i GuSweepTests.obj
 0001:00020840       ?getCenter@?$LocalConvex@UCustomConvexV@@@Gu@physx@@UEBA?AT__m128@@XZ 0000000180021840 f i GuGjkQuery.obj
 0001:00020840       ?getCenter@?$LocalConvex@VTriangleV@Gu@physx@@@Gu@physx@@UEBA?AT__m128@@XZ 0000000180021840 f i GuSweepTests.obj
 0001:00020840       ?getCenter@?$LocalConvex@VConvexHullV@Gu@physx@@@Gu@physx@@UEBA?AT__m128@@XZ 0000000180021840 f i GuMTD.obj
 0001:00020850       ?getSweepMargin@?$RelativeConvex@VCapsuleV@Gu@physx@@@Gu@physx@@UEBA?AT__m128@@XZ 0000000180021850 f i GuCCDSweepPrimitives.obj
 0001:00020850       ?getSweepMargin@?$LocalConvex@VCapsuleV@Gu@physx@@@Gu@physx@@UEBA?AT__m128@@XZ 0000000180021850 f i GuMTD.obj
 0001:00020860       ?getSweepMargin@?$RelativeConvex@VConvexHullV@Gu@physx@@@Gu@physx@@UEBA?AT__m128@@XZ 0000000180021860 f i GuOverlapTests.obj
 0001:00020860       ?getSweepMargin@?$LocalConvex@VConvexHullNoScaleV@Gu@physx@@@Gu@physx@@UEBA?AT__m128@@XZ 0000000180021860 f i GuPCMContactBoxConvex.obj
 0001:00020860       ?getSweepMargin@?$LocalConvex@UCustomConvexV@@@Gu@physx@@UEBA?AT__m128@@XZ 0000000180021860 f i GuGjkQuery.obj
 0001:00020860       ?getSweepMargin@?$RelativeConvex@UCustomConvexV@@@Gu@physx@@UEBA?AT__m128@@XZ 0000000180021860 f i GuGjkQuery.obj
 0001:00020860       ?getSweepMargin@?$LocalConvex@UPointConvexV@@@Gu@physx@@UEBA?AT__m128@@XZ 0000000180021860 f i GuGjkQuery.obj
 0001:00020860       ?getSweepMargin@?$LocalConvex@VBoxV@Gu@physx@@@Gu@physx@@UEBA?AT__m128@@XZ 0000000180021860 f i GuSweepTests.obj
 0001:00020860       ?getSweepMargin@?$RelativeConvex@VConvexHullNoScaleV@Gu@physx@@@Gu@physx@@UEBA?AT__m128@@XZ 0000000180021860 f i GuPCMContactConvexConvex.obj
 0001:00020860       ?getSweepMargin@?$LocalConvex@VConvexHullV@Gu@physx@@@Gu@physx@@UEBA?AT__m128@@XZ 0000000180021860 f i GuMTD.obj
 0001:00020860       ?getSweepMargin@?$RelativeConvex@VBoxV@Gu@physx@@@Gu@physx@@UEBA?AT__m128@@XZ 0000000180021860 f i GuOverlapTests.obj
 0001:00020880       ?getSweepMargin@GjkConvex@Gu@physx@@UEBA?AT__m128@@XZ 0000000180021880 f i GuMTD.obj
 0001:000208a0       ?pointConvexDistance@@YA_NAEAV?$PxVec3T@M@physx@@0AEAMAEBV12@PEBVConvexMesh@Gu@2@AEBVPxMeshScale@2@AEBUPxTransformPadded@2@@Z 00000001800218a0 f   GuMTD.obj
 0001:00021600       ?support@?$LocalConvex@VCapsuleV@Gu@physx@@@Gu@physx@@UEBA?AT__m128@@AEBT4@@Z 0000000180022600 f i GuMTD.obj
 0001:00021660       ?support@?$LocalConvex@VCapsuleV@Gu@physx@@@Gu@physx@@UEBA?AT__m128@@AEBT4@AEAH@Z 0000000180022660 f i GuMTD.obj
 0001:000216d0       ?support@?$LocalConvex@VConvexHullV@Gu@physx@@@Gu@physx@@UEBA?AT__m128@@AEBT4@@Z 00000001800226d0 f i GuMTD.obj
 0001:000217b0       ?support@?$LocalConvex@VConvexHullV@Gu@physx@@@Gu@physx@@UEBA?AT__m128@@AEBT4@AEAH@Z 00000001800227b0 f i GuMTD.obj
 0001:00021880       ?support@GjkConvex@Gu@physx@@UEBA?AT__m128@@AEBT4@@Z 0000000180022880 f i GuMTD.obj
 0001:000218a0       ?support@GjkConvex@Gu@physx@@UEBA?AT__m128@@AEBT4@AEAH@Z 00000001800228a0 f i GuMTD.obj
 0001:000218c0       ?supportPoint@?$LocalConvex@VCapsuleV@Gu@physx@@@Gu@physx@@UEBA?AT__m128@@H@Z 00000001800228c0 f i GuMTD.obj
 0001:000218f0       ?supportPoint@?$LocalConvex@VConvexHullV@Gu@physx@@@Gu@physx@@UEBA?AT__m128@@H@Z 00000001800228f0 f i GuMTD.obj
 0001:00021940       ?supportPoint@GjkConvex@Gu@physx@@UEBA?AT__m128@@H@Z 0000000180022940 f i GuMTD.obj
 0001:00021960       ?supportPoint@?$RelativeConvex@VBoxV@Gu@physx@@@Gu@physx@@UEBA?AT__m128@@H@Z 0000000180022960 f i GuOverlapTests.obj
 0001:000219d0       ?support@?$RelativeConvex@VBoxV@Gu@physx@@@Gu@physx@@UEBA?AT__m128@@AEBT4@@Z 00000001800229d0 f i GuOverlapTests.obj
 0001:00021a50       ?support@?$RelativeConvex@VBoxV@Gu@physx@@@Gu@physx@@UEBA?AT__m128@@AEBT4@AEAH@Z 0000000180022a50 f i GuOverlapTests.obj
 0001:00021ae0       ?getCenter@?$RelativeConvex@VBoxV@Gu@physx@@@Gu@physx@@UEBA?AT__m128@@XZ 0000000180022ae0 f i GuOverlapTests.obj
 0001:00021ae0       ?getCenter@?$RelativeConvex@VCapsuleV@Gu@physx@@@Gu@physx@@UEBA?AT__m128@@XZ 0000000180022ae0 f i GuCCDSweepPrimitives.obj
 0001:00021ae0       ?getCenter@?$RelativeConvex@VTriangleV@Gu@physx@@@Gu@physx@@UEBA?AT__m128@@XZ 0000000180022ae0 f i GuCCDSweepPrimitives.obj
 0001:00021ae0       ?getCenter@?$RelativeConvex@VConvexHullNoScaleV@Gu@physx@@@Gu@physx@@UEBA?AT__m128@@XZ 0000000180022ae0 f i GuPCMContactConvexConvex.obj
 0001:00021ae0       ?getCenter@?$RelativeConvex@UCustomConvexV@@@Gu@physx@@UEBA?AT__m128@@XZ 0000000180022ae0 f i GuGjkQuery.obj
 0001:00021ae0       ?getCenter@?$RelativeConvex@VConvexHullV@Gu@physx@@@Gu@physx@@UEBA?AT__m128@@XZ 0000000180022ae0 f i GuOverlapTests.obj
 0001:00021b20       ??_G?$RelativeConvex@VConvexHullV@Gu@physx@@@Gu@physx@@UEAAPEAXI@Z 0000000180022b20 f i GuOverlapTests.obj
 0001:00021b20       ??_G?$RelativeConvex@VTriangleV@Gu@physx@@@Gu@physx@@UEAAPEAXI@Z 0000000180022b20 f i GuCCDSweepPrimitives.obj
 0001:00021b20       ??_G?$RelativeConvex@UCustomConvexV@@@Gu@physx@@UEAAPEAXI@Z 0000000180022b20 f i GuGjkQuery.obj
 0001:00021b20       ??_G?$RelativeConvex@VBoxV@Gu@physx@@@Gu@physx@@UEAAPEAXI@Z 0000000180022b20 f i GuOverlapTests.obj
 0001:00021b20       ??_E?$RelativeConvex@VConvexHullV@Gu@physx@@@Gu@physx@@UEAAPEAXI@Z 0000000180022b20 f i GuOverlapTests.obj
 0001:00021b20       ??_G?$RelativeConvex@VConvexHullNoScaleV@Gu@physx@@@Gu@physx@@UEAAPEAXI@Z 0000000180022b20 f i GuPCMContactConvexConvex.obj
 0001:00021b20       ??_E?$RelativeConvex@VBoxV@Gu@physx@@@Gu@physx@@UEAAPEAXI@Z 0000000180022b20 f i GuOverlapTests.obj
 0001:00021b20       ??_E?$RelativeConvex@VTriangleV@Gu@physx@@@Gu@physx@@UEAAPEAXI@Z 0000000180022b20 f i GuCCDSweepPrimitives.obj
 0001:00021b20       ??_G?$RelativeConvex@VCapsuleV@Gu@physx@@@Gu@physx@@UEAAPEAXI@Z 0000000180022b20 f i GuCCDSweepPrimitives.obj
 0001:00021b20       ??_E?$RelativeConvex@VCapsuleV@Gu@physx@@@Gu@physx@@UEAAPEAXI@Z 0000000180022b20 f i GuCCDSweepPrimitives.obj
 0001:00021b20       ??_E?$RelativeConvex@VConvexHullNoScaleV@Gu@physx@@@Gu@physx@@UEAAPEAXI@Z 0000000180022b20 f i GuPCMContactConvexConvex.obj
 0001:00021b20       ??_E?$RelativeConvex@UCustomConvexV@@@Gu@physx@@UEAAPEAXI@Z 0000000180022b20 f i GuGjkQuery.obj
 0001:00023c90       ?supportPoint@?$RelativeConvex@VConvexHullV@Gu@physx@@@Gu@physx@@UEBA?AT__m128@@H@Z 0000000180024c90 f i GuOverlapTests.obj
 0001:00023d10       ?support@?$RelativeConvex@VConvexHullV@Gu@physx@@@Gu@physx@@UEBA?AT__m128@@AEBT4@@Z 0000000180024d10 f i GuOverlapTests.obj
 0001:00023e40       ?support@?$RelativeConvex@VConvexHullV@Gu@physx@@@Gu@physx@@UEBA?AT__m128@@AEBT4@AEAH@Z 0000000180024e40 f i GuOverlapTests.obj
 0001:00024490       ??$gjk@U?$RelativeConvex@VBoxV@Gu@physx@@@Gu@physx@@U?$LocalConvex@VConvexHullV@Gu@physx@@@23@@Gu@physx@@YA?AW4GjkStatus@01@AEBU?$RelativeConvex@VBoxV@Gu@physx@@@01@AEBU?$LocalConvex@VConvexHullV@Gu@physx@@@01@AEBT__m128@@2AEAT5@333@Z 0000000180025490 f i GuOverlapTests.obj
 0001:00025250       ??$gjk@U?$RelativeConvex@VConvexHullV@Gu@physx@@@Gu@physx@@U?$LocalConvex@VConvexHullV@Gu@physx@@@23@@Gu@physx@@YA?AW4GjkStatus@01@AEBU?$RelativeConvex@VConvexHullV@Gu@physx@@@01@AEBU?$LocalConvex@VConvexHullV@Gu@physx@@@01@AEBT__m128@@2AEAT5@333@Z 0000000180026250 f i GuOverlapTests.obj
 0001:00026b40       ??0?$Convex@UConvexShape@Gu@physx@@@RefGjkEpa@Gu@physx@@QEAA@AEBUConvexShape@23@AEBV?$PxTransformT@M@3@@Z 0000000180027b40 f i GuOverlapTests.obj
 0001:00026fe0       ??0?$GjkDistance@UConvexShape@Gu@physx@@@RefGjkEpa@Gu@physx@@QEAA@AEAU?$Convex@UConvexShape@Gu@physx@@@123@0@Z 0000000180027fe0 f i GuOverlapTests.obj
 0001:000271c0       ?ComputeCubemapNearestOffset@physx@@YAIAEBV?$PxVec3T@M@1@I@Z 00000001800281c0 f i GuOverlapTests.obj
 0001:000272c0       ?addPoint@?$GjkDistance@UConvexShape@Gu@physx@@@RefGjkEpa@Gu@physx@@QEAAMAEBV?$PxVec3T@M@4@@Z 00000001800282c0 f i GuOverlapTests.obj
 0001:00027400       ?computeClosest@?$GjkDistance@UConvexShape@Gu@physx@@@RefGjkEpa@Gu@physx@@QEAAXXZ 0000000180028400 f i GuOverlapTests.obj
 0001:00028a10       ?computePoints@?$GjkDistance@UConvexShape@Gu@physx@@@RefGjkEpa@Gu@physx@@QEAAXAEAV?$PxVec3T@M@4@0@Z 0000000180029a10 f i GuOverlapTests.obj
 0001:00028e40       ?getBounds@?$Convex@UConvexShape@Gu@physx@@@RefGjkEpa@Gu@physx@@QEBA?AVPxBounds3@4@XZ 0000000180029e40 f i GuOverlapTests.obj
 0001:00029700       ?getOverlapFuncTable@Gu@physx@@YAPEAY0L@Q6A_NAEBVPxGeometry@2@AEBV?$PxTransformT@M@2@01PEAUTriggerCache@12@PEAUPxQueryThreadContext@2@@ZXZ 000000018002a700 f   GuOverlapTests.obj
 0001:0002b280       ?supportIndex@?$Convex@UConvexShape@Gu@physx@@@RefGjkEpa@Gu@physx@@QEAAEAEBV?$PxVec3T@M@4@@Z 000000018002c280 f i GuOverlapTests.obj
 0001:0002b640       ??_GSupport@PxGjkQuery@physx@@UEAAPEAXI@Z 000000018002c640 f i GuRaycastTests.obj
 0001:0002b640       ??_ESupport@PxGjkQuery@physx@@UEAAPEAXI@Z 000000018002c640 f i GuRaycastTests.obj
 0001:0002b670       ?raycast_box@@YAIAEBVPxGeometry@physx@@AEBV?$PxTransformT@M@2@AEBV?$PxVec3T@M@2@2MV?$PxFlags@W4Enum@PxHitFlag@physx@@G@2@IPEIAUPxGeomRaycastHit@2@IPEAUPxQueryThreadContext@2@@Z 000000018002c670 f   GuRaycastTests.obj
 0001:0002bca0       ?raycast_sphere@@YAIAEBVPxGeometry@physx@@AEBV?$PxTransformT@M@2@AEBV?$PxVec3T@M@2@2MV?$PxFlags@W4Enum@PxHitFlag@physx@@G@2@IPEIAUPxGeomRaycastHit@2@IPEAUPxQueryThreadContext@2@@Z 000000018002cca0 f   GuRaycastTests.obj
 0001:0002be30       ?raycast_capsule@@YAIAEBVPxGeometry@physx@@AEBV?$PxTransformT@M@2@AEBV?$PxVec3T@M@2@2MV?$PxFlags@W4Enum@PxHitFlag@physx@@G@2@IPEIAUPxGeomRaycastHit@2@IPEAUPxQueryThreadContext@2@@Z 000000018002ce30 f   GuRaycastTests.obj
 0001:0002c390       ?raycast_plane@@YAIAEBVPxGeometry@physx@@AEBV?$PxTransformT@M@2@AEBV?$PxVec3T@M@2@2MV?$PxFlags@W4Enum@PxHitFlag@physx@@G@2@IPEIAUPxGeomRaycastHit@2@IPEAUPxQueryThreadContext@2@@Z 000000018002d390 f   GuRaycastTests.obj
 0001:0002c500       ?raycast_convexMesh@@YAIAEBVPxGeometry@physx@@AEBV?$PxTransformT@M@2@AEBV?$PxVec3T@M@2@2MV?$PxFlags@W4Enum@PxHitFlag@physx@@G@2@IPEIAUPxGeomRaycastHit@2@IPEAUPxQueryThreadContext@2@@Z 000000018002d500 f   GuRaycastTests.obj
 0001:0002d010       ?getMidphaseID@RTreeTriangleMesh@Gu@physx@@UEBA?AW4Enum@PxMeshMidPhase@3@XZ 000000018002e010 f   GuTriangleMeshRTree.obj
 0001:0002d010       ?getTetrahedraRemap@TetrahedronMesh@Gu@physx@@UEBAPEBIXZ 000000018002e010 f   GuTetrahedronMesh.obj
 0001:0002d010       ?getMidphaseID@RTreeTriangleMeshBuilder@physx@@UEBA?AW4Enum@PxMeshMidPhase@2@XZ 000000018002e010 f   GuCookingTriangleMesh.obj
 0001:0002d010       ?raycast_particlesystem@@YAIAEBVPxGeometry@physx@@AEBV?$PxTransformT@M@2@AEBV?$PxVec3T@M@2@2MV?$PxFlags@W4Enum@PxHitFlag@physx@@G@2@IPEIAUPxGeomRaycastHit@2@IPEAUPxQueryThreadContext@2@@Z 000000018002e010 f   GuRaycastTests.obj
 0001:0002d010       ?raycast_softbody@@YAIAEBVPxGeometry@physx@@AEBV?$PxTransformT@M@2@AEBV?$PxVec3T@M@2@2MV?$PxFlags@W4Enum@PxHitFlag@physx@@G@2@IPEIAUPxGeomRaycastHit@2@IPEAUPxQueryThreadContext@2@@Z 000000018002e010 f   GuRaycastTests.obj
 0001:0002d020       ?raycast_triangleMesh@@YAIAEBVPxGeometry@physx@@AEBV?$PxTransformT@M@2@AEBV?$PxVec3T@M@2@2MV?$PxFlags@W4Enum@PxHitFlag@physx@@G@2@IPEIAUPxGeomRaycastHit@2@IPEAUPxQueryThreadContext@2@@Z 000000018002e020 f   GuRaycastTests.obj
 0001:0002d0b0       ?raycast_heightField@@YAIAEBVPxGeometry@physx@@AEBV?$PxTransformT@M@2@AEBV?$PxVec3T@M@2@2MV?$PxFlags@W4Enum@PxHitFlag@physx@@G@2@IPEIAUPxGeomRaycastHit@2@IPEAUPxQueryThreadContext@2@@Z 000000018002e0b0 f   GuRaycastTests.obj
 0001:0002ed60       ??Dphysx@@YA?AV?$PxMat34T@M@0@AEBVPxMeshScale@0@AEBV?$PxTransformT@M@0@@Z 000000018002fd60 f i GuRaycastTests.obj
 0001:0002f840       ?getRaycastFuncTable@Gu@physx@@YAAEAY0L@Q6AIAEBVPxGeometry@2@AEBV?$PxTransformT@M@2@AEBV?$PxVec3T@M@2@2MV?$PxFlags@W4Enum@PxHitFlag@physx@@G@2@IPEIAUPxGeomRaycastHit@2@IPEAUPxQueryThreadContext@2@@ZXZ 0000000180030840 f   GuRaycastTests.obj
 0001:0002f850       ?supportLocal@ConvexShape@Gu@physx@@QEBA?AV?$PxVec3T@M@3@AEBV43@@Z 0000000180030850 f i GuRaycastTests.obj
 0001:0002f900       ??Dphysx@@YA?AV?$PxMat34T@M@0@AEBV?$PxTransformT@M@0@AEBVPxMeshScale@0@@Z 0000000180030900 f i GuSweepMTD.obj
 0001:0002fe40       ??_G?$MeshHitCallback@UPxGeomRaycastHit@physx@@@Gu@physx@@UEAAPEAXI@Z 0000000180030e40 f i GuSweepMTD.obj
 0001:0002fe40       ??_E?$MeshHitCallback@UPxGeomRaycastHit@physx@@@Gu@physx@@UEAAPEAXI@Z 0000000180030e40 f i GuSweepMTD.obj
 0001:0002fe70       ??_EMeshMTDGenerationCallback@@UEAAPEAXI@Z 0000000180030e70 f i GuSweepMTD.obj
 0001:0002fe70       ??_GMeshMTDGenerationCallback@@UEAAPEAXI@Z 0000000180030e70 f i GuSweepMTD.obj
 0001:0002fea0       ??_GMidPhaseQueryLocalReport@@UEAAPEAXI@Z 0000000180030ea0 f i GuSweepMTD.obj
 0001:0002fea0       ??_ERTreeCookerRemap@@UEAAPEAXI@Z 0000000180030ea0 f i GuCookingTriangleMesh.obj
 0001:0002fea0       ??_EMidPhaseQueryLocalReport@@UEAAPEAXI@Z 0000000180030ea0 f i GuSweepMTD.obj
 0001:0002fea0       ??_GRTreeCookerRemap@@UEAAPEAXI@Z 0000000180030ea0 f i GuCookingTriangleMesh.obj
 0001:0002fed0       ?computeBox_HeightFieldMTD@Gu@physx@@YA_NAEBVPxHeightFieldGeometry@2@AEBV?$PxTransformT@M@2@AEBVBox@12@1M_NAEAUPxGeomSweepHit@2@@Z 0000000180030ed0 f   GuSweepMTD.obj
 0001:00030c60       ?computeBox_TriangleMeshMTD@Gu@physx@@YA_NAEBVPxTriangleMeshGeometry@2@AEBV?$PxTransformT@M@2@AEBVBox@12@1M_NAEAUPxGeomSweepHit@2@@Z 0000000180031c60 f   GuSweepMTD.obj
 0001:00031c20       ?computeCapsule_CapsuleMTD@Gu@physx@@YA_NAEBVCapsule@12@0AEAUPxGeomSweepHit@2@@Z 0000000180032c20 f   GuSweepMTD.obj
 0001:00031e60       ?computeCapsule_HeightFieldMTD@Gu@physx@@YA_NAEBVPxHeightFieldGeometry@2@AEBV?$PxTransformT@M@2@AEAVCapsuleV@12@M_NAEAUPxGeomSweepHit@2@@Z 0000000180032e60 f   GuSweepMTD.obj
 0001:00032640       ?computeCapsule_TriangleMeshMTD@Gu@physx@@YA_NAEBVPxTriangleMeshGeometry@2@AEBV?$PxTransformT@M@2@AEAVCapsuleV@12@M_NAEAUPxGeomSweepHit@2@@Z 0000000180033640 f   GuSweepMTD.obj
 0001:00032f00       ?computeConvex_HeightFieldMTD@Gu@physx@@YA_NAEBVPxHeightFieldGeometry@2@AEBV?$PxTransformT@M@2@AEBVPxConvexMeshGeometry@2@1M_NAEAUPxGeomSweepHit@2@@Z 0000000180033f00 f   GuSweepMTD.obj
 0001:000341d0       ?computeConvex_TriangleMeshMTD@Gu@physx@@YA_NAEBVPxTriangleMeshGeometry@2@AEBV?$PxTransformT@M@2@AEBVPxConvexMeshGeometry@2@1M_NAEAUPxGeomSweepHit@2@@Z 00000001800351d0 f   GuSweepMTD.obj
 0001:00035750       ?computePlane_BoxMTD@Gu@physx@@YA_NAEBVPxPlane@2@AEBVBox@12@AEAUPxGeomSweepHit@2@@Z 0000000180036750 f   GuSweepMTD.obj
 0001:00035a80       ?computePlane_CapsuleMTD@Gu@physx@@YA_NAEBVPxPlane@2@AEBVCapsule@12@AEAUPxGeomSweepHit@2@@Z 0000000180036a80 f   GuSweepMTD.obj
 0001:00035ba0       ?computePlane_ConvexMTD@Gu@physx@@YA_NAEBVPxPlane@2@AEBVPxConvexMeshGeometry@2@AEBV?$PxTransformT@M@2@AEAUPxGeomSweepHit@2@@Z 0000000180036ba0 f   GuSweepMTD.obj
 0001:00036710       ?computeSphere_CapsuleMTD@Gu@physx@@YA_NAEBVSphere@12@AEBVCapsule@12@AEAUPxGeomSweepHit@2@@Z 0000000180037710 f   GuSweepMTD.obj
 0001:000368c0       ?computeSphere_SphereMTD@Gu@physx@@YA_NAEBVSphere@12@0AEAUPxGeomSweepHit@2@@Z 00000001800378c0 f   GuSweepMTD.obj
 0001:000369b0       ?getInverse@?$PxMat33T@M@physx@@QEBA?BV12@XZ 00000001800379b0 f i GuSweepMTD.obj
 0001:00036c00       ?growAndPushBack@?$PxArray@IV?$PxReflectionAllocator@I@physx@@@physx@@IEAAAEAIAEBI@Z 0000000180037c00 f i GuSweepMTD.obj
 0001:00036d20       ?init@FastVertex2ShapeScaling@Cm@physx@@QEAAXAEBV?$PxVec3T@M@3@AEBV?$PxQuatT@M@3@@Z 0000000180037d20 f i GuSweepMTD.obj
 0001:000375f0       ?processHit@MeshMTDGenerationCallback@@UEAA_NAEBUPxGeomRaycastHit@physx@@AEBV?$PxVec3T@M@3@11AEAMPEBI@Z 00000001800385f0 f i GuSweepMTD.obj
 0001:00037640       ?recreate@?$PxArray@IV?$PxReflectionAllocator@I@physx@@@physx@@IEAAXI@Z 0000000180038640 f i GuSweepMTD.obj
 0001:00037730       ?reportTouchedTris@MidPhaseQueryLocalReport@@UEAA_NIPEBI@Z 0000000180038730 f i GuSweepMTD.obj
 0001:000377a0       ??$gjkPenetration@U?$LocalConvex@VCapsuleV@Gu@physx@@@Gu@physx@@U?$LocalConvex@VConvexHullV@Gu@physx@@@23@@Gu@physx@@YA?AW4GjkStatus@01@AEBU?$LocalConvex@VCapsuleV@Gu@physx@@@01@AEBU?$LocalConvex@VConvexHullV@Gu@physx@@@01@AEBT__m128@@2_NPEIAE4AEAEAEAUGjkOutput@01@@Z 00000001800387a0 f i GuSweepSharedTests.obj
 0001:00037810       ??$gjkPenetration@U?$LocalConvex@VCapsuleV@Gu@physx@@@Gu@physx@@U?$LocalConvex@VConvexHullV@Gu@physx@@@23@@Gu@physx@@YA?AW4GjkStatus@01@AEBU?$LocalConvex@VCapsuleV@Gu@physx@@@01@AEBU?$LocalConvex@VConvexHullV@Gu@physx@@@01@AEBT__m128@@2_NPEIAE4PEIAT5@5AEAEAEAUGjkOutput@01@@Z 0000000180038810 f i GuSweepSharedTests.obj
 0001:00038d40       ??$gjkPenetration@U?$RelativeConvex@VBoxV@Gu@physx@@@Gu@physx@@U?$LocalConvex@VConvexHullV@Gu@physx@@@23@@Gu@physx@@YA?AW4GjkStatus@01@AEBU?$RelativeConvex@VBoxV@Gu@physx@@@01@AEBU?$LocalConvex@VConvexHullV@Gu@physx@@@01@AEBT__m128@@2_NPEIAE4AEAEAEAUGjkOutput@01@@Z 0000000180039d40 f i GuSweepSharedTests.obj
 0001:00038db0       ??$gjkPenetration@U?$RelativeConvex@VBoxV@Gu@physx@@@Gu@physx@@U?$LocalConvex@VConvexHullV@Gu@physx@@@23@@Gu@physx@@YA?AW4GjkStatus@01@AEBU?$RelativeConvex@VBoxV@Gu@physx@@@01@AEBU?$LocalConvex@VConvexHullV@Gu@physx@@@01@AEBT__m128@@2_NPEIAE4PEIAT5@5AEAEAEAUGjkOutput@01@@Z 0000000180039db0 f i GuSweepSharedTests.obj
 0001:0003a320       ??$gjkPenetration@U?$RelativeConvex@VConvexHullV@Gu@physx@@@Gu@physx@@U?$LocalConvex@VConvexHullV@Gu@physx@@@23@@Gu@physx@@YA?AW4GjkStatus@01@AEBU?$RelativeConvex@VConvexHullV@Gu@physx@@@01@AEBU?$LocalConvex@VConvexHullV@Gu@physx@@@01@AEBT__m128@@2_NPEIAE4AEAEAEAUGjkOutput@01@@Z 000000018003b320 f i GuSweepSharedTests.obj
 0001:0003a390       ??$gjkPenetration@U?$RelativeConvex@VConvexHullV@Gu@physx@@@Gu@physx@@U?$LocalConvex@VConvexHullV@Gu@physx@@@23@@Gu@physx@@YA?AW4GjkStatus@01@AEBU?$RelativeConvex@VConvexHullV@Gu@physx@@@01@AEBU?$LocalConvex@VConvexHullV@Gu@physx@@@01@AEBT__m128@@2_NPEIAE4PEIAT5@5AEAEAEAUGjkOutput@01@@Z 000000018003b390 f i GuSweepSharedTests.obj
 0001:0003b9b0       ??$gjkRaycast@U?$LocalConvex@VCapsuleV@Gu@physx@@@Gu@physx@@U?$LocalConvex@VConvexHullV@Gu@physx@@@23@@Gu@physx@@YA_NAEBU?$LocalConvex@VCapsuleV@Gu@physx@@@01@AEBU?$LocalConvex@VConvexHullV@Gu@physx@@@01@AEBT__m128@@222AEAT4@33M@Z 000000018003c9b0 f i GuSweepSharedTests.obj
 0001:0003c6e0       ??$gjkRaycast@U?$RelativeConvex@VBoxV@Gu@physx@@@Gu@physx@@U?$LocalConvex@VConvexHullV@Gu@physx@@@23@@Gu@physx@@YA_NAEBU?$RelativeConvex@VBoxV@Gu@physx@@@01@AEBU?$LocalConvex@VConvexHullV@Gu@physx@@@01@AEBT__m128@@222AEAT4@33M@Z 000000018003d6e0 f i GuSweepSharedTests.obj
 0001:0003d4a0       ??$gjkRaycast@U?$RelativeConvex@VConvexHullV@Gu@physx@@@Gu@physx@@U?$LocalConvex@VConvexHullV@Gu@physx@@@23@@Gu@physx@@YA_NAEBU?$RelativeConvex@VConvexHullV@Gu@physx@@@01@AEBU?$LocalConvex@VConvexHullV@Gu@physx@@@01@AEBT__m128@@222AEAT4@33M@Z 000000018003e4a0 f i GuSweepSharedTests.obj
 0001:0003e320       ??$gjkRaycastPenetration@U?$RelativeConvex@VConvexHullV@Gu@physx@@@Gu@physx@@U?$LocalConvex@VConvexHullV@Gu@physx@@@23@@Gu@physx@@YA_NAEBU?$RelativeConvex@VConvexHullV@Gu@physx@@@01@AEBU?$LocalConvex@VConvexHullV@Gu@physx@@@01@AEBT__m128@@222AEAT4@33M_N@Z 000000018003f320 f i GuSweepSharedTests.obj
 0001:0003ef50       ?sweepBox_ConvexGeom@@YA_NAEBVPxGeometry@physx@@AEBV?$PxTransformT@M@2@AEBVPxBoxGeometry@2@1AEBVBox@Gu@2@AEBV?$PxVec3T@M@2@MAEAUPxGeomSweepHit@2@V?$PxFlags@W4Enum@PxHitFlag@physx@@G@2@MPEAUPxQueryThreadContext@2@@Z 000000018003ff50 f   GuSweepSharedTests.obj
 0001:0003fd60       ?sweepBox_PlaneGeom@@YA_NAEBVPxGeometry@physx@@AEBV?$PxTransformT@M@2@AEBVPxBoxGeometry@2@1AEBVBox@Gu@2@AEBV?$PxVec3T@M@2@MAEAUPxGeomSweepHit@2@V?$PxFlags@W4Enum@PxHitFlag@physx@@G@2@MPEAUPxQueryThreadContext@2@@Z 0000000180040d60 f   GuSweepSharedTests.obj
 0001:00040200       ?sweepCapsuleTriangles@Gu@physx@@YA_NIPEBVPxTriangle@2@_NAEBVPxCapsuleGeometry@2@AEBV?$PxTransformT@M@2@AEBV?$PxVec3T@M@2@MAEAUPxGeomSweepHit@2@PEBIMV?$PxFlags@W4Enum@PxHitFlag@physx@@G@2@@Z 0000000180041200 f   GuSweepSharedTests.obj
 0001:000403f0       ?sweepCapsule_CapsuleGeom@@YA_NAEBVPxGeometry@physx@@AEBV?$PxTransformT@M@2@AEBVPxCapsuleGeometry@2@1AEBVCapsule@Gu@2@AEBV?$PxVec3T@M@2@MAEAUPxGeomSweepHit@2@V?$PxFlags@W4Enum@PxHitFlag@physx@@G@2@MPEAUPxQueryThreadContext@2@@Z 00000001800413f0 f   GuSweepSharedTests.obj
 0001:000405d0       ?sweepCapsule_ConvexGeom@@YA_NAEBVPxGeometry@physx@@AEBV?$PxTransformT@M@2@AEBVPxCapsuleGeometry@2@1AEBVCapsule@Gu@2@AEBV?$PxVec3T@M@2@MAEAUPxGeomSweepHit@2@V?$PxFlags@W4Enum@PxHitFlag@physx@@G@2@MPEAUPxQueryThreadContext@2@@Z 00000001800415d0 f   GuSweepSharedTests.obj
 0001:00041320       ?sweepCapsule_PlaneGeom@@YA_NAEBVPxGeometry@physx@@AEBV?$PxTransformT@M@2@AEBVPxCapsuleGeometry@2@1AEBVCapsule@Gu@2@AEBV?$PxVec3T@M@2@MAEAUPxGeomSweepHit@2@V?$PxFlags@W4Enum@PxHitFlag@physx@@G@2@MPEAUPxQueryThreadContext@2@@Z 0000000180042320 f   GuSweepSharedTests.obj
 0001:00041610       ?sweepCapsule_SphereGeom@@YA_NAEBVPxGeometry@physx@@AEBV?$PxTransformT@M@2@AEBVPxCapsuleGeometry@2@1AEBVCapsule@Gu@2@AEBV?$PxVec3T@M@2@MAEAUPxGeomSweepHit@2@V?$PxFlags@W4Enum@PxHitFlag@physx@@G@2@MPEAUPxQueryThreadContext@2@@Z 0000000180042610 f   GuSweepSharedTests.obj
 0001:000417a0       ?sweepConvex_BoxGeom@@YA_NAEBVPxGeometry@physx@@AEBV?$PxTransformT@M@2@AEBVPxConvexMeshGeometry@2@1AEBV?$PxVec3T@M@2@MAEAUPxGeomSweepHit@2@V?$PxFlags@W4Enum@PxHitFlag@physx@@G@2@MPEAUPxQueryThreadContext@2@@Z 00000001800427a0 f   GuSweepSharedTests.obj
 0001:000419c0       ?sweepConvex_CapsuleGeom@@YA_NAEBVPxGeometry@physx@@AEBV?$PxTransformT@M@2@AEBVPxConvexMeshGeometry@2@1AEBV?$PxVec3T@M@2@MAEAUPxGeomSweepHit@2@V?$PxFlags@W4Enum@PxHitFlag@physx@@G@2@MPEAUPxQueryThreadContext@2@@Z 00000001800429c0 f   GuSweepSharedTests.obj
 0001:00041bf0       ?sweepConvex_ConvexGeom@@YA_NAEBVPxGeometry@physx@@AEBV?$PxTransformT@M@2@AEBVPxConvexMeshGeometry@2@1AEBV?$PxVec3T@M@2@MAEAUPxGeomSweepHit@2@V?$PxFlags@W4Enum@PxHitFlag@physx@@G@2@MPEAUPxQueryThreadContext@2@@Z 0000000180042bf0 f   GuSweepSharedTests.obj
 0001:00042b30       ?sweepConvex_PlaneGeom@@YA_NAEBVPxGeometry@physx@@AEBV?$PxTransformT@M@2@AEBVPxConvexMeshGeometry@2@1AEBV?$PxVec3T@M@2@MAEAUPxGeomSweepHit@2@V?$PxFlags@W4Enum@PxHitFlag@physx@@G@2@MPEAUPxQueryThreadContext@2@@Z 0000000180043b30 f   GuSweepSharedTests.obj
 0001:00042f80       ?sweepConvex_SphereGeom@@YA_NAEBVPxGeometry@physx@@AEBV?$PxTransformT@M@2@AEBVPxConvexMeshGeometry@2@1AEBV?$PxVec3T@M@2@MAEAUPxGeomSweepHit@2@V?$PxFlags@W4Enum@PxHitFlag@physx@@G@2@MPEAUPxQueryThreadContext@2@@Z 0000000180043f80 f   GuSweepSharedTests.obj
 0001:00043b50       ?sweepCapsule_BoxGeom@@YA_NAEBVPxGeometry@physx@@AEBV?$PxTransformT@M@2@AEBVPxCapsuleGeometry@2@1AEBVCapsule@Gu@2@AEBV?$PxVec3T@M@2@MAEAUPxGeomSweepHit@2@V?$PxFlags@W4Enum@PxHitFlag@physx@@G@2@MPEAUPxQueryThreadContext@2@@Z 0000000180044b50 f   GuSweepTests.obj
 0001:00044410       ?sweepBox_SphereGeom@@YA_NAEBVPxGeometry@physx@@AEBV?$PxTransformT@M@2@AEBVPxBoxGeometry@2@1AEBVBox@Gu@2@AEBV?$PxVec3T@M@2@MAEAUPxGeomSweepHit@2@V?$PxFlags@W4Enum@PxHitFlag@physx@@G@2@MPEAUPxQueryThreadContext@2@@Z 0000000180045410 f   GuSweepTests.obj
 0001:00044af0       ?sweepBox_CapsuleGeom@@YA_NAEBVPxGeometry@physx@@AEBV?$PxTransformT@M@2@AEBVPxBoxGeometry@2@1AEBVBox@Gu@2@AEBV?$PxVec3T@M@2@MAEAUPxGeomSweepHit@2@V?$PxFlags@W4Enum@PxHitFlag@physx@@G@2@MPEAUPxQueryThreadContext@2@@Z 0000000180045af0 f   GuSweepTests.obj
 0001:000453b0       ?sweepBox_BoxGeom@@YA_NAEBVPxGeometry@physx@@AEBV?$PxTransformT@M@2@AEBVPxBoxGeometry@2@1AEBVBox@Gu@2@AEBV?$PxVec3T@M@2@MAEAUPxGeomSweepHit@2@V?$PxFlags@W4Enum@PxHitFlag@physx@@G@2@MPEAUPxQueryThreadContext@2@@Z 00000001800463b0 f   GuSweepTests.obj
 0001:00046d00       ??$gjkPenetration@U?$LocalConvex@VCapsuleV@Gu@physx@@@Gu@physx@@U?$LocalConvex@VBoxV@Gu@physx@@@23@@Gu@physx@@YA?AW4GjkStatus@01@AEBU?$LocalConvex@VCapsuleV@Gu@physx@@@01@AEBU?$LocalConvex@VBoxV@Gu@physx@@@01@AEBT__m128@@2_NPEIAE4AEAEAEAUGjkOutput@01@@Z 0000000180047d00 f i GuSweepTests.obj
 0001:00046d70       ??$gjkPenetration@U?$LocalConvex@VCapsuleV@Gu@physx@@@Gu@physx@@U?$LocalConvex@VBoxV@Gu@physx@@@23@@Gu@physx@@YA?AW4GjkStatus@01@AEBU?$LocalConvex@VCapsuleV@Gu@physx@@@01@AEBU?$LocalConvex@VBoxV@Gu@physx@@@01@AEBT__m128@@2_NPEIAE4PEIAT5@5AEAEAEAUGjkOutput@01@@Z 0000000180047d70 f i GuSweepTests.obj
 0001:000481b0       ??$gjkPenetration@U?$RelativeConvex@VBoxV@Gu@physx@@@Gu@physx@@U?$LocalConvex@VBoxV@Gu@physx@@@23@@Gu@physx@@YA?AW4GjkStatus@01@AEBU?$RelativeConvex@VBoxV@Gu@physx@@@01@AEBU?$LocalConvex@VBoxV@Gu@physx@@@01@AEBT__m128@@2_NPEIAE4AEAEAEAUGjkOutput@01@@Z 00000001800491b0 f i GuSweepTests.obj
 0001:00048220       ??$gjkPenetration@U?$RelativeConvex@VBoxV@Gu@physx@@@Gu@physx@@U?$LocalConvex@VBoxV@Gu@physx@@@23@@Gu@physx@@YA?AW4GjkStatus@01@AEBU?$RelativeConvex@VBoxV@Gu@physx@@@01@AEBU?$LocalConvex@VBoxV@Gu@physx@@@01@AEBT__m128@@2_NPEIAE4PEIAT5@5AEAEAEAUGjkOutput@01@@Z 0000000180049220 f i GuSweepTests.obj
 0001:000496c0       ??$gjkRaycast@U?$LocalConvex@VCapsuleV@Gu@physx@@@Gu@physx@@U?$LocalConvex@VBoxV@Gu@physx@@@23@@Gu@physx@@YA_NAEBU?$LocalConvex@VCapsuleV@Gu@physx@@@01@AEBU?$LocalConvex@VBoxV@Gu@physx@@@01@AEBT__m128@@222AEAT4@33M@Z 000000018004a6c0 f i GuSweepTests.obj
 0001:0004a270       ??$gjkRaycast@U?$LocalConvex@VTriangleV@Gu@physx@@@Gu@physx@@U?$LocalConvex@VBoxV@Gu@physx@@@23@@Gu@physx@@YA_NAEBU?$LocalConvex@VTriangleV@Gu@physx@@@01@AEBU?$LocalConvex@VBoxV@Gu@physx@@@01@AEBT__m128@@222AEAT4@33M@Z 000000018004b270 f i GuSweepTests.obj
 0001:0004aee0       ??$gjkRaycast@U?$RelativeConvex@VBoxV@Gu@physx@@@Gu@physx@@U?$LocalConvex@VBoxV@Gu@physx@@@23@@Gu@physx@@YA_NAEBU?$RelativeConvex@VBoxV@Gu@physx@@@01@AEBU?$LocalConvex@VBoxV@Gu@physx@@@01@AEBT__m128@@222AEAT4@33M@Z 000000018004bee0 f i GuSweepTests.obj
 0001:0004bb10       ?getSweepFuncTable@Gu@physx@@YAAEBUGeomSweepFuncs@12@XZ 000000018004cb10 f   GuSweepTests.obj
 0001:0004bb20       ?getSweepMargin@?$RelativeConvex@VTriangleV@Gu@physx@@@Gu@physx@@UEBA?AT__m128@@XZ 000000018004cb20 f i GuCCDSweepPrimitives.obj
 0001:0004bb20       ?getSweepMargin@?$LocalConvex@VTetrahedronV@Gu@physx@@@Gu@physx@@UEBA?AT__m128@@XZ 000000018004cb20 f i GuCookingTetrahedronMesh.obj
 0001:0004bb20       ?getSweepMargin@?$LocalConvex@VTriangleV@Gu@physx@@@Gu@physx@@UEBA?AT__m128@@XZ 000000018004cb20 f i GuSweepTests.obj
 0001:0004bb30       ?support@?$LocalConvex@VBoxV@Gu@physx@@@Gu@physx@@UEBA?AT__m128@@AEBT4@@Z 000000018004cb30 f i GuSweepTests.obj
 0001:0004bb60       ?support@?$LocalConvex@VBoxV@Gu@physx@@@Gu@physx@@UEBA?AT__m128@@AEBT4@AEAH@Z 000000018004cb60 f i GuSweepTests.obj
 0001:0004bba0       ?support@?$LocalConvex@VTriangleV@Gu@physx@@@Gu@physx@@UEBA?AT__m128@@AEBT4@@Z 000000018004cba0 f i GuSweepTests.obj
 0001:0004bc30       ?support@?$LocalConvex@VTriangleV@Gu@physx@@@Gu@physx@@UEBA?AT__m128@@AEBT4@AEAH@Z 000000018004cc30 f i GuSweepTests.obj
 0001:0004bd10       ?supportPoint@?$LocalConvex@VBoxV@Gu@physx@@@Gu@physx@@UEBA?AT__m128@@H@Z 000000018004cd10 f i GuSweepTests.obj
 0001:0004bd50       ?supportPoint@?$LocalConvex@VTriangleV@Gu@physx@@@Gu@physx@@UEBA?AT__m128@@H@Z 000000018004cd50 f i GuSweepTests.obj
 0001:0004bd50       ?supportPoint@?$LocalConvex@VTetrahedronV@Gu@physx@@@Gu@physx@@UEBA?AT__m128@@H@Z 000000018004cd50 f i GuCookingTetrahedronMesh.obj
 0001:0004bd70       ?sweepBoxTriangles@Gu@physx@@YA_NIPEBVPxTriangle@2@_NAEBVPxBoxGeometry@2@AEBV?$PxTransformT@M@2@AEBV?$PxVec3T@M@2@MAEAUPxGeomSweepHit@2@PEBIMV?$PxFlags@W4Enum@PxHitFlag@physx@@G@2@@Z 000000018004cd70 f   GuSweepTests.obj
 0001:0004c7e0       ??$PxSmallSort@H$$CBU?$Comparer@V?$PxVec3T@M@physx@@@MeshAnalyzer@Gu@physx@@@physx@@YAXPEAHHHAEBU?$Comparer@V?$PxVec3T@M@physx@@@MeshAnalyzer@Gu@0@@Z 000000018004d7e0 f i GuSDF.obj
 0001:0004c9f0       ??$PxSort@HU?$Comparer@V?$PxVec3T@M@physx@@@MeshAnalyzer@Gu@physx@@V?$PxReflectionAllocator@H@4@@physx@@YAXPEAHIAEBU?$Comparer@V?$PxVec3T@M@physx@@@MeshAnalyzer@Gu@0@AEBV?$PxReflectionAllocator@H@0@I@Z 000000018004d9f0 f i GuSDF.obj
 0001:0004cec0       ??$PxSort@HU?$PxLess@H@physx@@V?$PxReflectionAllocator@H@2@@physx@@YAXPEAHIAEBU?$PxLess@H@0@AEBV?$PxReflectionAllocator@H@0@I@Z 000000018004dec0 f i GuSDF.obj
 0001:0004d310       ??$copy@V?$PxReflectionAllocator@I@physx@@@?$PxArray@IV?$PxReflectionAllocator@I@physx@@@physx@@IEAAXAEBV01@@Z 000000018004e310 f i GuSDF.obj
 0001:0004d380       ??$copy@V?$PxReflectionAllocator@M@physx@@@?$PxArray@MV?$PxReflectionAllocator@M@physx@@@physx@@IEAAXAEBV01@@Z 000000018004e380 f i GuSDF.obj
 0001:0004d3e0       ??$copy@V?$PxReflectionAllocator@V?$PxVec3T@M@physx@@@physx@@@?$PxArray@V?$PxVec3T@M@physx@@V?$PxReflectionAllocator@V?$PxVec3T@M@physx@@@2@@physx@@IEAAXAEBV01@@Z 000000018004e3e0 f i GuSDF.obj
 0001:0004d440       ??$mapDuplicatePoints@V?$PxVec3T@M@physx@@M@MeshAnalyzer@Gu@physx@@SAXPEBV?$PxVec3T@M@2@IAEAV?$PxArray@HV?$PxReflectionAllocator@H@physx@@@2@M@Z 000000018004e440 f i GuSDF.obj
 0001:0004d7c0       ??$splitRanges@V?$PxVec3T@M@physx@@M@MeshAnalyzer@Gu@physx@@CAXAEAV?$PxArray@URange@MeshAnalyzer@Gu@physx@@V?$PxReflectionAllocator@URange@MeshAnalyzer@Gu@physx@@@4@@2@AEBV?$PxArray@HV?$PxReflectionAllocator@H@physx@@@2@PEBV?$PxVec3T@M@2@HM@Z 000000018004e7c0 f i GuSDF.obj
 0001:0004da30       ??$traverseBVH@VClosestDistanceToTrimeshTraversalController@Gu@physx@@@Gu@physx@@YAXPEBUBVHNode@01@AEAVClosestDistanceToTrimeshTraversalController@01@H@Z 000000018004ea30 f i GuSDF.obj
 0001:0004de30       ??$traverseBVH@VLineSegmentTrimeshIntersectionTraversalController@Gu@physx@@@Gu@physx@@YAXPEBUBVHNode@01@AEAVLineSegmentTrimeshIntersectionTraversalController@01@H@Z 000000018004ee30 f i GuSDF.obj
 0001:0004e330       ??0CellToPoint@Gu@physx@@QEAA@I@Z 000000018004f330 f i GuSDF.obj
 0001:0004e430       ??0IsosurfaceThreadData@Gu@physx@@QEAA@AEBU012@@Z 000000018004f430 f i GuSDF.obj
 0001:0004e4b0       ??1CellToPoint@Gu@physx@@QEAA@XZ 000000018004f4b0 f i GuSDF.obj
 0001:0004e590       ??1IsosurfaceThreadData@Gu@physx@@QEAA@XZ 000000018004f590 f i GuSDF.obj
 0001:0004e640       ??1SDF@Gu@physx@@QEAA@XZ   000000018004f640 f   GuSDF.obj
 0001:0004e6e0       ??_G?$PxThreadT@V?$PxReflectionAllocator@VPxThreadImpl@physx@@@physx@@@physx@@UEAAPEAXI@Z 000000018004f6e0 f i GuSDF.obj
 0001:0004e6e0       ??_E?$PxThreadT@V?$PxReflectionAllocator@VPxThreadImpl@physx@@@physx@@@physx@@UEAAPEAXI@Z 000000018004f6e0 f i GuSDF.obj
 0001:0004e790       ??_EPxRunnable@physx@@UEAAPEAXI@Z 000000018004f790 f i GuSDF.obj
 0001:0004e790       ??_GPxRunnable@physx@@UEAAPEAXI@Z 000000018004f790 f i GuSDF.obj
 0001:0004e7c0       ?PxCreatePointOntoTriangleMeshProjector@Gu@physx@@YAPEAVPxPointOntoTriangleMeshProjector@12@PEBV?$PxVec3T@M@2@PEBII@Z 000000018004f7c0 f   GuSDF.obj
 0001:0004e8c0       ?SDFUsingWindingNumbers@Gu@physx@@YAXAEAV?$PxArray@UBVHNode@Gu@physx@@V?$PxReflectionAllocator@UBVHNode@Gu@physx@@@3@@2@AEAV?$PxHashMap@IU?$ClusterApproximationT@MV?$PxVec3T@M@physx@@@Gu@physx@@U?$PxHash@I@3@VPxAllocator@3@@2@PEBV?$PxVec3T@M@2@PEBIIIIIPEAMAEAUGridQueryPointSampler@12@PEAV52@I_N7@Z 000000018004f8c0 f   GuSDF.obj
 0001:0004edb0       ?SDFUsingWindingNumbers@Gu@physx@@YAXPEBV?$PxVec3T@M@2@PEBIIIIIPEAMV32@3PEAV32@_NIPEAVPxSDFBuilder@2@@Z 000000018004fdb0 f   GuSDF.obj
 0001:0004f280       ?SDFUsingWindingNumbersSparse@Gu@physx@@YAXPEBV?$PxVec3T@M@2@PEBIIIIIAEBV32@2MIAEAV?$PxArray@MV?$PxReflectionAllocator@M@physx@@@2@AEAV?$PxArray@IV?$PxReflectionAllocator@I@physx@@@2@33AEAM5IPEAVPxSDFBuilder@2@@Z 0000000180050280 f   GuSDF.obj
 0001:0004fd00       ?allocate@?$PxArray@HV?$PxInlineAllocator@$0EAA@V?$PxReflectionAllocator@H@physx@@@physx@@@physx@@IEAAPEAHIPEAI@Z 0000000180050d00 f i GuSDF.obj
 0001:0004fdc0       ?allocate@?$PxArray@IV?$PxReflectionAllocator@I@physx@@@physx@@IEAAPEAIIPEAI@Z 0000000180050dc0 f i GuSDF.obj
 0001:0004fe50       ?allocate@?$PxArray@MV?$PxReflectionAllocator@M@physx@@@physx@@IEAAPEAMIPEAI@Z 0000000180050e50 f i GuSDF.obj
 0001:0004fee0       ?allocate@?$PxArray@V?$PxVec3T@M@physx@@V?$PxReflectionAllocator@V?$PxVec3T@M@physx@@@2@@physx@@IEAAPEAV?$PxVec3T@M@2@IPEAI@Z 0000000180050ee0 f i GuSDF.obj
 0001:0004ff80       ?allocateSdfs@SDF@Gu@physx@@QEAAPEAMAEBV?$PxVec3T@M@3@AEBMIIIIIIIMMI@Z 0000000180050f80 f   GuSDF.obj
 0001:00050190       ?analyzeAndFixMesh@Gu@physx@@YAXPEBV?$PxVec3T@M@2@PEBIIAEAV?$PxArray@IV?$PxReflectionAllocator@I@physx@@@2@@Z 0000000180051190 f   GuSDF.obj
 0001:00050b60       ?buildTree@Gu@physx@@YAXPEBIIPEBV?$PxVec3T@M@2@AEAV?$PxArray@UBVHNode@Gu@physx@@V?$PxReflectionAllocator@UBVHNode@Gu@physx@@@3@@2@M@Z 0000000180051b60 f   GuSDF.obj
 0001:00050d90       ?computeIsosurfaceTrianglesThreadJob@Gu@physx@@YAPEAXPEAX@Z 0000000180051d90 f   GuSDF.obj
 0001:00051410       ?computeIsosurfaceVerticesThreadJob@Gu@physx@@YAPEAXPEAX@Z 0000000180052410 f   GuSDF.obj
 0001:00051ba0       ?computeSDFThreadJob@Gu@physx@@YAPEAXPEAX@Z 0000000180052ba0 f   GuSDF.obj
 0001:00052670       ?convertSparseSDFTo3DTextureLayout@Gu@physx@@YAXIIIIPEAIPEBMIAEAV?$PxArray@MV?$PxReflectionAllocator@M@physx@@@2@AEAI33@Z 0000000180053670 f   GuSDF.obj
 0001:000529e0       ?copy@?$PxArray@MV?$PxReflectionAllocator@M@physx@@@physx@@KAXPEAM0PEBM@Z 00000001800539e0 f i GuSDF.obj
 0001:00052a40       ?copy@?$PxArray@V?$PxVec3T@M@physx@@V?$PxReflectionAllocator@V?$PxVec3T@M@physx@@@2@@physx@@KAXPEAV?$PxVec3T@M@2@0PEBV32@@Z 0000000180053a40 f i GuSDF.obj
 0001:00052b10       ?create@?$PxHashBase@V?$PxPair@$$CB_KI@physx@@_KU?$PxHash@_K@2@UGetKey@?$PxHashMapBase@_KIU?$PxHash@_K@physx@@VPxAllocator@2@@2@VPxAllocator@2@$00@physx@@QEAAPEAV?$PxPair@$$CB_KI@2@AEB_KAEA_N@Z 0000000180053b10 f i GuSDF.obj
 0001:00052b10       ?create@?$PxHashBase@V?$PxPair@$$CB_KH@physx@@_KU?$PxHash@_K@2@UGetKey@?$PxHashMapBase@_KHU?$PxHash@_K@physx@@VPxAllocator@2@@2@VPxAllocator@2@$00@physx@@QEAAPEAV?$PxPair@$$CB_KH@2@AEB_KAEA_N@Z 0000000180053b10 f i GuMeshAnalysis.obj
 0001:00052cb0       ?createTriangles@Gu@physx@@YAXHHHMQEAMAEBUCellToPoint@12@AEBV?$PxArray@V?$PxVec3T@M@physx@@V?$PxReflectionAllocator@V?$PxVec3T@M@physx@@@2@@2@AEAV?$PxArray@IV?$PxReflectionAllocator@I@physx@@@2@@Z 0000000180053cb0 f i GuSDF.obj
 0001:00053520       ?decodeDense@SDF@Gu@physx@@QEBAMHHH@Z 0000000180054520 f   GuSDF.obj
 0001:00053820       ?decodeSparse@SDF@Gu@physx@@QEBAMHHH@Z 0000000180054820 f   GuSDF.obj
 0001:00053830       ?exportExtraData@SDF@Gu@physx@@QEAAXAEAVPxSerializationContext@3@@Z 0000000180054830 f   GuSDF.obj
 0001:000538d0       ?extractIsosurfaceFromSDF@Gu@physx@@YAXAEBVSDF@12@AEAV?$PxArray@V?$PxVec3T@M@physx@@V?$PxReflectionAllocator@V?$PxVec3T@M@physx@@@2@@2@AEAV?$PxArray@IV?$PxReflectionAllocator@I@physx@@@2@I@Z 00000001800548d0 f   GuSDF.obj
 0001:00054280       ?extractIsosurfaceFromSDFSerial@Gu@physx@@YAXAEBVSDF@12@AEAV?$PxArray@V?$PxVec3T@M@physx@@V?$PxReflectionAllocator@V?$PxVec3T@M@physx@@@2@@2@AEAV?$PxArray@IV?$PxReflectionAllocator@I@physx@@@2@@Z 0000000180055280 f   GuSDF.obj
 0001:00055440       ?find@CellToPoint@Gu@physx@@QEBAPEBV?$PxPair@$$CB_KI@3@HHH@Z 0000000180056440 f i GuSDF.obj
 0001:00055550       ?fixSdfForNonClosedGeometry@Gu@physx@@YAXIIIPEAMAEBV?$PxVec3T@M@2@@Z 0000000180056550 f   GuSDF.obj
 0001:00056600       ?generatePointInCell@Gu@physx@@YA_NAEBVSDF@12@HHHAEAV?$PxVec3T@M@2@QEAY111M@Z 0000000180057600 f   GuSDF.obj
 0001:00056a60       ?growAndPushBack@?$PxArray@HV?$PxInlineAllocator@$0EAA@V?$PxReflectionAllocator@H@physx@@@physx@@@physx@@IEAAAEAHAEBH@Z 0000000180057a60 f i GuSDF.obj
 0001:00056b50       ?growAndPushBack@?$PxArray@MV?$PxReflectionAllocator@M@physx@@@physx@@IEAAAEAMAEBM@Z 0000000180057b50 f i GuSDF.obj
 0001:00056c90       ?growAndPushBack@?$PxArray@PEAV?$PxThreadT@V?$PxReflectionAllocator@VPxThreadImpl@physx@@@physx@@@physx@@V?$PxReflectionAllocator@PEAV?$PxThreadT@V?$PxReflectionAllocator@VPxThreadImpl@physx@@@physx@@@physx@@@2@@physx@@IEAAAEAPEAV?$PxThreadT@V?$PxReflectionAllocator@VPxThreadImpl@physx@@@physx@@@2@AEBQEAV32@@Z 0000000180057c90 f i GuSDF.obj
 0001:00056db0       ?growAndPushBack@?$PxArray@UIsosurfaceThreadData@Gu@physx@@V?$PxReflectionAllocator@UIsosurfaceThreadData@Gu@physx@@@3@@physx@@IEAAAEAUIsosurfaceThreadData@Gu@2@AEBU342@@Z 0000000180057db0 f i GuSDF.obj
 0001:00056f80       ?growAndPushBack@?$PxArray@UMutation@Gu@physx@@V?$PxReflectionAllocator@UMutation@Gu@physx@@@3@@physx@@IEAAAEAUMutation@Gu@2@AEBU342@@Z 0000000180057f80 f i GuSDF.obj
 0001:000570a0       ?growAndPushBack@?$PxArray@URange@Gu@physx@@V?$PxReflectionAllocator@URange@Gu@physx@@@3@@physx@@IEAAAEAURange@Gu@2@AEBU342@@Z 00000001800580a0 f i GuSDF.obj
 0001:000571d0       ?growAndPushBack@?$PxArray@URange@MeshAnalyzer@Gu@physx@@V?$PxReflectionAllocator@URange@MeshAnalyzer@Gu@physx@@@4@@physx@@IEAAAEAURange@MeshAnalyzer@Gu@2@AEBU3452@@Z 00000001800581d0 f i GuSDF.obj
 0001:000572f0       ?growAndPushBack@?$PxArray@USDFCalculationData@Gu@physx@@V?$PxReflectionAllocator@USDFCalculationData@Gu@physx@@@3@@physx@@IEAAAEAUSDFCalculationData@Gu@2@AEBU342@@Z 00000001800582f0 f i GuSDF.obj
 0001:00057470       ?growAndPushBack@?$PxArray@V?$PxVec3T@M@physx@@V?$PxReflectionAllocator@V?$PxVec3T@M@physx@@@2@@physx@@IEAAAEAV?$PxVec3T@M@2@AEBV32@@Z 0000000180058470 f i GuSDF.obj
 0001:00057590       ?importExtraData@SDF@Gu@physx@@QEAAXAEAVPxDeserializationContext@3@@Z 0000000180058590 f   GuSDF.obj
 0001:00057600       ?populateSubgridCache@Gu@physx@@YAXAEBVSDF@12@AEAV?$PxArray@MV?$PxReflectionAllocator@M@physx@@@2@HHH@Z 0000000180058600 f i GuSDF.obj
 0001:000579a0       ?projectPoint@PointOntoTriangleMeshProjector@Gu@physx@@UEAA?AV?$PxVec3T@M@3@AEBV43@@Z 00000001800589a0 f i GuSDF.obj
 0001:00057a10       ?projectPoint@PointOntoTriangleMeshProjector@Gu@physx@@UEAA?AV?$PxVec3T@M@3@AEBV43@AEAI@Z 0000000180058a10 f i GuSDF.obj
 0001:00057a90       ?recreate@?$PxArray@HV?$PxReflectionAllocator@H@physx@@@physx@@IEAAXI@Z 0000000180058a90 f i GuSDF.obj
 0001:00057b80       ?recreate@?$PxArray@MV?$PxReflectionAllocator@M@physx@@@physx@@IEAAXI@Z 0000000180058b80 f i GuSDF.obj
 0001:00057cb0       ?recreate@?$PxArray@PEAUMap@Gu@physx@@V?$PxReflectionAllocator@PEAUMap@Gu@physx@@@3@@physx@@IEAAXI@Z 0000000180058cb0 f i GuSDF.obj
 0001:00057da0       ?recreate@?$PxArray@UBVHNode@Gu@physx@@V?$PxReflectionAllocator@UBVHNode@Gu@physx@@@3@@physx@@IEAAXI@Z 0000000180058da0 f i GuSDF.obj
 0001:00057fe0       ?recreate@?$PxArray@V?$PxVec3T@M@physx@@V?$PxReflectionAllocator@V?$PxVec3T@M@physx@@@2@@physx@@IEAAXI@Z 0000000180058fe0 f i GuSDF.obj
 0001:000580c0       ?release@PointOntoTriangleMeshProjector@Gu@physx@@UEAAXXZ 00000001800590c0 f i GuSDF.obj
 0001:00058110       ?reserveInternal@?$PxHashBase@V?$PxPair@$$CBIU?$ClusterApproximationT@MV?$PxVec3T@M@physx@@@Gu@physx@@@physx@@IU?$PxHash@I@2@UGetKey@?$PxHashMapBase@IU?$ClusterApproximationT@MV?$PxVec3T@M@physx@@@Gu@physx@@U?$PxHash@I@3@VPxAllocator@3@@2@VPxAllocator@2@$00@physx@@AEAAXI@Z 0000000180059110 f i GuSDF.obj
 0001:00058320       ?reserveInternal@?$PxHashBase@V?$PxPair@$$CBUSortedTriangle@Gu@physx@@H@physx@@USortedTriangle@Gu@2@UTriangleHash@42@UGetKey@?$PxHashMapBase@USortedTriangle@Gu@physx@@HUTriangleHash@23@VPxAllocator@3@@2@VPxAllocator@2@$00@physx@@AEAAXI@Z 0000000180059320 f i GuSDF.obj
 0001:000584d0       ?reserveInternal@?$PxHashBase@V?$PxPair@$$CB_KI@physx@@_KU?$PxHash@_K@2@UGetKey@?$PxHashMapBase@_KIU?$PxHash@_K@physx@@VPxAllocator@2@@2@VPxAllocator@2@$00@physx@@AEAAXI@Z 00000001800594d0 f i GuSDF.obj
 0001:000584d0       ?reserveInternal@?$PxHashBase@V?$PxPair@$$CB_KH@physx@@_KU?$PxHash@_K@2@UGetKey@?$PxHashMapBase@_KHU?$PxHash@_K@physx@@VPxAllocator@2@@2@VPxAllocator@2@$00@physx@@AEAAXI@Z 00000001800594d0 f i GuSDF.obj
 0001:000586c0       ?resize@?$PxArray@IV?$PxReflectionAllocator@I@physx@@@physx@@QEAAXIAEBI@Z 00000001800596c0 f i GuSDF.obj
 0001:00058780       ?resize@?$PxArray@MV?$PxReflectionAllocator@M@physx@@@physx@@QEAAXIAEBM@Z 0000000180059780 f i GuSDF.obj
 0001:00058890       ?resize@?$PxArray@PEAUMap@Gu@physx@@V?$PxReflectionAllocator@PEAUMap@Gu@physx@@@3@@physx@@QEAAXIAEBQEAUMap@Gu@2@@Z 0000000180059890 f i GuSDF.obj
 0001:00058950       ?resize@?$PxArray@UBVHNode@Gu@physx@@V?$PxReflectionAllocator@UBVHNode@Gu@physx@@@3@@physx@@QEAAXIAEBUBVHNode@Gu@2@@Z 0000000180059950 f i GuSDF.obj
 0001:00058ad0       ?sampleSDFDirect@DenseSDF@Gu@physx@@QEAAMAEBV?$PxVec3T@M@3@@Z 0000000180059ad0 f i GuSDF.obj
 0001:00058c70       ?signedVolume@Gu@physx@@YAMPEBV?$PxVec3T@M@2@PEBII1I@Z 0000000180059c70 f   GuSDF.obj
 0001:00059070       ?windingNumbers@Gu@physx@@YAXPEBV?$PxVec3T@M@2@PEBIIIIIPEAMV32@3PEAV32@@Z 000000018005a070 f   GuSDF.obj
 0001:00059410       ?windingNumbersInsideCheck@Gu@physx@@YAXPEBV?$PxVec3T@M@2@PEBIIIIIPEA_NV32@3PEAV32@@Z 000000018005a410 f   GuSDF.obj
 0001:00059d60       ??$gjk@U?$RelativeConvex@UCustomConvexV@@@Gu@physx@@U?$LocalConvex@UCustomConvexV@@@23@@Gu@physx@@YA?AW4GjkStatus@01@AEBU?$RelativeConvex@UCustomConvexV@@@01@AEBU?$LocalConvex@UCustomConvexV@@@01@AEBT__m128@@2AEAT5@333@Z 000000018005ad60 f i GuGjkQuery.obj
 0001:0005aaf0       ??$gjkPenetration@U?$RelativeConvex@UCustomConvexV@@@Gu@physx@@U?$LocalConvex@UCustomConvexV@@@23@@Gu@physx@@YA?AW4GjkStatus@01@AEBU?$RelativeConvex@UCustomConvexV@@@01@AEBU?$LocalConvex@UCustomConvexV@@@01@AEBT__m128@@2_NPEIAE4PEIAT5@5AEAEAEAUGjkOutput@01@@Z 000000018005baf0 f i GuGjkQuery.obj
 0001:0005c040       ??$gjkPenetration@U?$RelativeConvex@UCustomConvexV@@@Gu@physx@@U?$LocalConvex@UCustomConvexV@@@23@@Gu@physx@@YA?AW4GjkStatus@01@AEBU?$RelativeConvex@UCustomConvexV@@@01@AEBU?$LocalConvex@UCustomConvexV@@@01@AEBT__m128@@2_NPEIAT5@4AEAEAEAUGjkOutput@01@@Z 000000018005d040 f i GuGjkQuery.obj
 0001:0005c0a0       ??$gjkRaycast@U?$RelativeConvex@UCustomConvexV@@@Gu@physx@@U?$LocalConvex@UCustomConvexV@@@23@@Gu@physx@@YA_NAEBU?$RelativeConvex@UCustomConvexV@@@01@AEBU?$LocalConvex@UCustomConvexV@@@01@AEBT__m128@@222AEAT4@33M@Z 000000018005d0a0 f i GuGjkQuery.obj
 0001:0005ce00       ??$gjkRaycast@U?$RelativeConvex@UCustomConvexV@@@Gu@physx@@U?$LocalConvex@UPointConvexV@@@23@@Gu@physx@@YA_NAEBU?$RelativeConvex@UCustomConvexV@@@01@AEBU?$LocalConvex@UPointConvexV@@@01@AEBT__m128@@222AEAT4@33M@Z 000000018005de00 f i GuGjkQuery.obj
 0001:0005da50       ?overlap@PxGjkQuery@physx@@SA_NAEBUSupport@12@0AEBV?$PxTransformT@M@2@1@Z 000000018005ea50 f   GuGjkQuery.obj
 0001:0005dde0       ?proximityInfo@PxGjkQuery@physx@@SA_NAEBUSupport@12@0AEBV?$PxTransformT@M@2@1MMAEAV?$PxVec3T@M@2@22AEAM@Z 000000018005ede0 f   GuGjkQuery.obj
 0001:0005ea00       ?raycast@PxGjkQuery@physx@@SA_NAEBUSupport@12@AEBV?$PxTransformT@M@2@AEBV?$PxVec3T@M@2@2MAEAMAEAV52@4@Z 000000018005fa00 f   GuGjkQuery.obj
 0001:0005eeb0       ?support@?$LocalConvex@UCustomConvexV@@@Gu@physx@@UEBA?AT__m128@@AEBT4@@Z 000000018005feb0 f i GuGjkQuery.obj
 0001:0005ef30       ?support@?$LocalConvex@UCustomConvexV@@@Gu@physx@@UEBA?AT__m128@@AEBT4@AEAH@Z 000000018005ff30 f i GuGjkQuery.obj
 0001:0005efb0       ?support@?$LocalConvex@UPointConvexV@@@Gu@physx@@UEBA?AT__m128@@AEBT4@@Z 000000018005ffb0 f i GuGjkQuery.obj
 0001:0005efb0       ?supportPoint@?$LocalConvex@UPointConvexV@@@Gu@physx@@UEBA?AT__m128@@H@Z 000000018005ffb0 f i GuGjkQuery.obj
 0001:0005efc0       ?support@?$LocalConvex@UPointConvexV@@@Gu@physx@@UEBA?AT__m128@@AEBT4@AEAH@Z 000000018005ffc0 f i GuGjkQuery.obj
 0001:0005efe0       ?support@?$RelativeConvex@UCustomConvexV@@@Gu@physx@@UEBA?AT__m128@@AEBT4@@Z 000000018005ffe0 f i GuGjkQuery.obj
 0001:0005f0b0       ?support@?$RelativeConvex@UCustomConvexV@@@Gu@physx@@UEBA?AT__m128@@AEBT4@AEAH@Z 00000001800600b0 f i GuGjkQuery.obj
 0001:0005f190       ?supportPoint@?$LocalConvex@UCustomConvexV@@@Gu@physx@@UEBA?AT__m128@@H@Z 0000000180060190 f i GuGjkQuery.obj
 0001:0005f200       ?supportPoint@?$RelativeConvex@UCustomConvexV@@@Gu@physx@@UEBA?AT__m128@@H@Z 0000000180060200 f i GuGjkQuery.obj
 0001:0005f2a0       ?sweep@PxGjkQuery@physx@@SA_NAEBUSupport@12@0AEBV?$PxTransformT@M@2@1AEBV?$PxVec3T@M@2@MAEAMAEAV52@4@Z 00000001800602a0 f   GuGjkQuery.obj
 0001:0005fa60       ??$approximateCluster@MV?$PxVec3T@M@physx@@@Gu@physx@@YAXAEBV?$PxArray@HV?$PxReflectionAllocator@H@physx@@@1@IIPEBIPEBV?$PxVec3T@M@1@AEBV?$PxArray@MV?$PxReflectionAllocator@M@physx@@@1@AEBV?$PxArray@V?$PxVec3T@M@physx@@V?$PxReflectionAllocator@V?$PxVec3T@M@physx@@@2@@1@4AEAU?$ClusterApproximationT@MV?$PxVec3T@M@physx@@@01@@Z 0000000180060a60 f i GuWindingNumber.obj
 0001:000602a0       ??$precomputeClusterInformation@MV?$PxVec3T@M@physx@@@Gu@physx@@YAXHPEBUBVHNode@01@PEBIIPEBV?$PxVec3T@M@1@AEAV?$PxHashMap@IU?$ClusterApproximationT@MV?$PxVec3T@M@physx@@@Gu@physx@@U?$PxHash@I@3@VPxAllocator@3@@1@V?$PxArray@MV?$PxReflectionAllocator@M@physx@@@1@AEBV?$PxArray@V?$PxVec3T@M@physx@@V?$PxReflectionAllocator@V?$PxVec3T@M@physx@@@2@@1@5@Z 00000001800612a0 f i GuWindingNumber.obj
 0001:00060670       ??$precomputeClusterInformation@MV?$PxVec3T@M@physx@@@Gu@physx@@YAXPEBUBVHNode@01@PEBIIPEBV?$PxVec3T@M@1@AEAV?$PxHashMap@IU?$ClusterApproximationT@MV?$PxVec3T@M@physx@@@Gu@physx@@U?$PxHash@I@3@VPxAllocator@3@@1@H@Z 0000000180061670 f i GuWindingNumber.obj
 0001:00060a80       ??$traverseBVH@V?$WindingNumberTraversalController@MV?$PxVec3T@M@physx@@@Gu@physx@@@Gu@physx@@YAXPEBUBVHNode@01@AEAV?$WindingNumberTraversalController@MV?$PxVec3T@M@physx@@@01@H@Z 0000000180061a80 f i GuWindingNumber.obj
 0001:00060fd0       ?computeWindingNumber@Gu@physx@@YAMAEBV?$PxVec3T@M@2@PEBIIPEBV32@@Z 0000000180061fd0 f   GuWindingNumber.obj
 0001:00061300       ?computeWindingNumber@Gu@physx@@YAMPEBUBVHNode@12@AEBV?$PxVec3T@M@2@AEBV?$PxHashMap@IU?$ClusterApproximationT@MV?$PxVec3T@M@physx@@@Gu@physx@@U?$PxHash@I@3@VPxAllocator@3@@2@PEBIPEBV42@@Z 0000000180062300 f   GuWindingNumber.obj
 0001:00061370       ?computeWindingNumber@Gu@physx@@YAMPEBUBVHNode@12@AEBV?$PxVec3T@M@2@MAEBV?$PxHashMap@IU?$ClusterApproximationT@MV?$PxVec3T@M@physx@@@Gu@physx@@U?$PxHash@I@3@VPxAllocator@3@@2@PEBIPEBV42@@Z 0000000180062370 f   GuWindingNumber.obj
 0001:000613e0       ?create@?$PxHashBase@V?$PxPair@$$CBIU?$ClusterApproximationT@MV?$PxVec3T@M@physx@@@Gu@physx@@@physx@@IU?$PxHash@I@2@UGetKey@?$PxHashMapBase@IU?$ClusterApproximationT@MV?$PxVec3T@M@physx@@@Gu@physx@@U?$PxHash@I@3@VPxAllocator@3@@2@VPxAllocator@2@$00@physx@@QEAAPEAV?$PxPair@$$CBIU?$ClusterApproximationT@MV?$PxVec3T@M@physx@@@Gu@physx@@@2@AEBIAEA_N@Z 00000001800623e0 f i GuWindingNumber.obj
 0001:00061540       ?growAndPushBack@?$PxArray@HV?$PxReflectionAllocator@H@physx@@@physx@@IEAAAEAHAEBH@Z 0000000180062540 f i GuWindingNumber.obj
 0001:00061660       ?growAndPushBack@?$PxArray@USection@Gu@physx@@V?$PxReflectionAllocator@USection@Gu@physx@@@3@@physx@@IEAAAEAUSection@Gu@2@AEBU342@@Z 0000000180062660 f i GuWindingNumber.obj
 0001:00061780       ?precomputeClusterInformation@Gu@physx@@YAXPEBUBVHNode@12@PEBIIPEBV?$PxVec3T@M@2@AEAV?$PxHashMap@IU?$ClusterApproximationT@MV?$PxVec3T@M@physx@@@Gu@physx@@U?$PxHash@I@3@VPxAllocator@3@@2@H@Z 0000000180062780 f   GuWindingNumber.obj
 0001:00061790       ?resize@?$PxArray@V?$PxVec3T@M@physx@@V?$PxReflectionAllocator@V?$PxVec3T@M@physx@@@2@@physx@@QEAAXIAEBV?$PxVec3T@M@2@@Z 0000000180062790 f i GuWindingNumber.obj
 0001:00061880       ?computeMassInfo@Gu@physx@@YAXAEBVPxConvexCoreGeometry@2@AEAMAEAV?$PxMat33T@M@2@AEAV?$PxVec3T@M@2@@Z 0000000180062880 f   GuConvexGeometry.obj
 0001:000622b0       ?coneRadiusAtHeight@aux@@YAMMMMM@Z 00000001800632b0 f   GuConvexGeometry.obj
 0001:00064960       ?isGPUCompatible@Gu@physx@@YA_NAEBVPxConvexCoreGeometry@2@@Z 0000000180065960 f   GuConvexGeometry.obj
 0001:000649a0       ?isValid@PxConvexCoreGeometry@physx@@QEBA_NXZ 00000001800659a0 f   GuConvexGeometry.obj
 0001:00064a70       ?makeConvexShape@Gu@physx@@YA_NAEBVPxGeometry@2@AEBV?$PxTransformT@M@2@AEAUConvexShape@12@@Z 0000000180065a70 f   GuConvexGeometry.obj
 0001:00064c00       ?visualize@Gu@physx@@YAXAEBVPxConvexCoreGeometry@2@AEBV?$PxTransformT@M@2@_NAEBVPxBounds3@2@AEAVPxRenderOutput@2@@Z 0000000180065c00 f   GuConvexGeometry.obj
 0001:000651d0       ?SweepAnyShapeHeightfield@Gu@physx@@YAMAEBUCCDShape@12@0AEBUPxTransformPadded@2@111MAEAV?$PxVec3T@M@2@2MAEAIM@Z 00000001800661d0 f   GuCCDSweepConvexMesh.obj
 0001:00066760       ?SweepAnyShapeMesh@Gu@physx@@YAMAEBUCCDShape@12@0AEBUPxTransformPadded@2@111MAEAV?$PxVec3T@M@2@2MAEAIM@Z 0000000180067760 f   GuCCDSweepConvexMesh.obj
 0001:00067d20       ?SweepEstimateAnyShapeHeightfield@Gu@physx@@YAMAEBUCCDShape@12@0MM@Z 0000000180068d20 f   GuCCDSweepConvexMesh.obj
 0001:00068990       ?SweepEstimateAnyShapeMesh@Gu@physx@@YAMAEBUCCDShape@12@0MM@Z 0000000180069990 f   GuCCDSweepConvexMesh.obj
 0001:00068c30       ?allocate@?$PxArray@IV?$PxInlineAllocator@$0BAA@V?$PxReflectionAllocator@I@physx@@@physx@@@physx@@IEAAPEAIIPEAI@Z 0000000180069c30 f i GuCCDSweepConvexMesh.obj
 0001:00069700       ?growAndPushBack@?$PxArray@IV?$PxInlineAllocator@$0BAA@V?$PxReflectionAllocator@I@physx@@@physx@@@physx@@IEAAAEAIAEBI@Z 000000018006a700 f i GuCCDSweepConvexMesh.obj
 0001:00069d40       ?recreate@?$PxArray@IV?$PxInlineAllocator@$0BAA@V?$PxReflectionAllocator@I@physx@@@physx@@@physx@@IEAAXI@Z 000000018006ad40 f i GuCCDSweepConvexMesh.obj
 0001:00069e80       ?resize@?$PxArray@IV?$PxInlineAllocator@$0BAA@V?$PxReflectionAllocator@I@physx@@@physx@@@physx@@QEAAXIAEBI@Z 000000018006ae80 f i GuCCDSweepConvexMesh.obj
 0001:00069f50       ?transformBoxOrthonormal@physx@@YA?AVBox@Gu@1@AEBV231@AEBV?$PxTransformT@M@1@@Z 000000018006af50 f i GuCCDSweepConvexMesh.obj
 0001:0006a3e0       ?UnimplementedSweep@Gu@physx@@YAMAEBUCCDShape@12@0AEBUPxTransformPadded@2@111MAEAV?$PxVec3T@M@2@2MAEAIM@Z 000000018006b3e0 f   GuCCDSweepPrimitives.obj
 0001:0006e0e0       ?UnimplementedTriangleSweep@Gu@physx@@YAMAEBVPxGeometry@2@0AEBUPxTransformPadded@2@111MAEAV?$PxVec3T@M@2@2AEBVFastVertex2ShapeScaling@Cm@2@AEAVTriangleV@12@M@Z 000000018006f0e0 f   GuCCDSweepPrimitives.obj
 0001:0006e0f0       ??$SweepGeomTriangles@VCapsuleV@Gu@physx@@@Gu@physx@@YAMAEBVPxGeometry@1@0AEBUPxTransformPadded@1@111MAEAV?$PxVec3T@M@1@2AEBVFastVertex2ShapeScaling@Cm@1@AEAVTriangleV@01@M@Z 000000018006f0f0 f i GuCCDSweepPrimitives.obj
 0001:0006e820       ??$SweepGeomTriangles@VBoxV@Gu@physx@@@Gu@physx@@YAMAEBVPxGeometry@1@0AEBUPxTransformPadded@1@111MAEAV?$PxVec3T@M@1@2AEBVFastVertex2ShapeScaling@Cm@1@AEAVTriangleV@01@M@Z 000000018006f820 f i GuCCDSweepPrimitives.obj
 0001:0006ef70       ??$SweepGeomTriangles@VConvexHullV@Gu@physx@@@Gu@physx@@YAMAEBVPxGeometry@1@0AEBUPxTransformPadded@1@111MAEAV?$PxVec3T@M@1@2AEBVFastVertex2ShapeScaling@Cm@1@AEAVTriangleV@01@M@Z 000000018006ff70 f i GuCCDSweepPrimitives.obj
 0001:0006fa60       ?supportPoint@?$RelativeConvex@VCapsuleV@Gu@physx@@@Gu@physx@@UEBA?AT__m128@@H@Z 0000000180070a60 f i GuCCDSweepPrimitives.obj
 0001:0006fac0       ?support@?$RelativeConvex@VCapsuleV@Gu@physx@@@Gu@physx@@UEBA?AT__m128@@AEBT4@@Z 0000000180070ac0 f i GuCCDSweepPrimitives.obj
 0001:0006fb70       ?support@?$RelativeConvex@VCapsuleV@Gu@physx@@@Gu@physx@@UEBA?AT__m128@@AEBT4@AEAH@Z 0000000180070b70 f i GuCCDSweepPrimitives.obj
 0001:0006fc30       ?supportPoint@?$RelativeConvex@VTriangleV@Gu@physx@@@Gu@physx@@UEBA?AT__m128@@H@Z 0000000180070c30 f i GuCCDSweepPrimitives.obj
 0001:0006fc80       ?support@?$RelativeConvex@VTriangleV@Gu@physx@@@Gu@physx@@UEBA?AT__m128@@AEBT4@@Z 0000000180070c80 f i GuCCDSweepPrimitives.obj
 0001:0006fd80       ?support@?$RelativeConvex@VTriangleV@Gu@physx@@@Gu@physx@@UEBA?AT__m128@@AEBT4@AEAH@Z 0000000180070d80 f i GuCCDSweepPrimitives.obj
 0001:0006fec0       ??$gjkPenetration@U?$RelativeConvex@VCapsuleV@Gu@physx@@@Gu@physx@@U?$LocalConvex@VBoxV@Gu@physx@@@23@@Gu@physx@@YA?AW4GjkStatus@01@AEBU?$RelativeConvex@VCapsuleV@Gu@physx@@@01@AEBU?$LocalConvex@VBoxV@Gu@physx@@@01@AEBT__m128@@2_NPEIAE4AEAEAEAUGjkOutput@01@@Z 0000000180070ec0 f i GuCCDSweepPrimitives.obj
 0001:0006ff30       ??$gjkPenetration@U?$RelativeConvex@VCapsuleV@Gu@physx@@@Gu@physx@@U?$LocalConvex@VBoxV@Gu@physx@@@23@@Gu@physx@@YA?AW4GjkStatus@01@AEBU?$RelativeConvex@VCapsuleV@Gu@physx@@@01@AEBU?$LocalConvex@VBoxV@Gu@physx@@@01@AEBT__m128@@2_NPEIAE4PEIAT5@5AEAEAEAUGjkOutput@01@@Z 0000000180070f30 f i GuCCDSweepPrimitives.obj
 0001:00071400       ??$gjkPenetration@U?$RelativeConvex@VCapsuleV@Gu@physx@@@Gu@physx@@U?$LocalConvex@VCapsuleV@Gu@physx@@@23@@Gu@physx@@YA?AW4GjkStatus@01@AEBU?$RelativeConvex@VCapsuleV@Gu@physx@@@01@AEBU?$LocalConvex@VCapsuleV@Gu@physx@@@01@AEBT__m128@@2_NPEIAE4AEAEAEAUGjkOutput@01@@Z 0000000180072400 f i GuCCDSweepPrimitives.obj
 0001:00071470       ??$gjkPenetration@U?$RelativeConvex@VCapsuleV@Gu@physx@@@Gu@physx@@U?$LocalConvex@VCapsuleV@Gu@physx@@@23@@Gu@physx@@YA?AW4GjkStatus@01@AEBU?$RelativeConvex@VCapsuleV@Gu@physx@@@01@AEBU?$LocalConvex@VCapsuleV@Gu@physx@@@01@AEBT__m128@@2_NPEIAE4PEIAT5@5AEAEAEAUGjkOutput@01@@Z 0000000180072470 f i GuCCDSweepPrimitives.obj
 0001:00072930       ??$gjkPenetration@U?$RelativeConvex@VCapsuleV@Gu@physx@@@Gu@physx@@U?$LocalConvex@VConvexHullV@Gu@physx@@@23@@Gu@physx@@YA?AW4GjkStatus@01@AEBU?$RelativeConvex@VCapsuleV@Gu@physx@@@01@AEBU?$LocalConvex@VConvexHullV@Gu@physx@@@01@AEBT__m128@@2_NPEIAE4AEAEAEAUGjkOutput@01@@Z 0000000180073930 f i GuCCDSweepPrimitives.obj
 0001:000729a0       ??$gjkPenetration@U?$RelativeConvex@VCapsuleV@Gu@physx@@@Gu@physx@@U?$LocalConvex@VConvexHullV@Gu@physx@@@23@@Gu@physx@@YA?AW4GjkStatus@01@AEBU?$RelativeConvex@VCapsuleV@Gu@physx@@@01@AEBU?$LocalConvex@VConvexHullV@Gu@physx@@@01@AEBT__m128@@2_NPEIAE4PEIAT5@5AEAEAEAUGjkOutput@01@@Z 00000001800739a0 f i GuCCDSweepPrimitives.obj
 0001:00073f40       ??$gjkPenetration@U?$RelativeConvex@VTriangleV@Gu@physx@@@Gu@physx@@U?$LocalConvex@VBoxV@Gu@physx@@@23@@Gu@physx@@YA?AW4GjkStatus@01@AEBU?$RelativeConvex@VTriangleV@Gu@physx@@@01@AEBU?$LocalConvex@VBoxV@Gu@physx@@@01@AEBT__m128@@2_NPEIAE4AEAEAEAUGjkOutput@01@@Z 0000000180074f40 f i GuCCDSweepPrimitives.obj
 0001:00073fb0       ??$gjkPenetration@U?$RelativeConvex@VTriangleV@Gu@physx@@@Gu@physx@@U?$LocalConvex@VBoxV@Gu@physx@@@23@@Gu@physx@@YA?AW4GjkStatus@01@AEBU?$RelativeConvex@VTriangleV@Gu@physx@@@01@AEBU?$LocalConvex@VBoxV@Gu@physx@@@01@AEBT__m128@@2_NPEIAE4PEIAT5@5AEAEAEAUGjkOutput@01@@Z 0000000180074fb0 f i GuCCDSweepPrimitives.obj
 0001:000754c0       ??$gjkPenetration@U?$RelativeConvex@VTriangleV@Gu@physx@@@Gu@physx@@U?$LocalConvex@VCapsuleV@Gu@physx@@@23@@Gu@physx@@YA?AW4GjkStatus@01@AEBU?$RelativeConvex@VTriangleV@Gu@physx@@@01@AEBU?$LocalConvex@VCapsuleV@Gu@physx@@@01@AEBT__m128@@2_NPEIAE4AEAEAEAUGjkOutput@01@@Z 00000001800764c0 f i GuCCDSweepPrimitives.obj
 0001:00075530       ??$gjkPenetration@U?$RelativeConvex@VTriangleV@Gu@physx@@@Gu@physx@@U?$LocalConvex@VCapsuleV@Gu@physx@@@23@@Gu@physx@@YA?AW4GjkStatus@01@AEBU?$RelativeConvex@VTriangleV@Gu@physx@@@01@AEBU?$LocalConvex@VCapsuleV@Gu@physx@@@01@AEBT__m128@@2_NPEIAE4PEIAT5@5AEAEAEAUGjkOutput@01@@Z 0000000180076530 f i GuCCDSweepPrimitives.obj
 0001:00076a40       ??$gjkPenetration@U?$RelativeConvex@VTriangleV@Gu@physx@@@Gu@physx@@U?$LocalConvex@VConvexHullV@Gu@physx@@@23@@Gu@physx@@YA?AW4GjkStatus@01@AEBU?$RelativeConvex@VTriangleV@Gu@physx@@@01@AEBU?$LocalConvex@VConvexHullV@Gu@physx@@@01@AEBT__m128@@2_NPEIAE4AEAEAEAUGjkOutput@01@@Z 0000000180077a40 f i GuCCDSweepPrimitives.obj
 0001:00076ab0       ??$gjkPenetration@U?$RelativeConvex@VTriangleV@Gu@physx@@@Gu@physx@@U?$LocalConvex@VConvexHullV@Gu@physx@@@23@@Gu@physx@@YA?AW4GjkStatus@01@AEBU?$RelativeConvex@VTriangleV@Gu@physx@@@01@AEBU?$LocalConvex@VConvexHullV@Gu@physx@@@01@AEBT__m128@@2_NPEIAE4PEIAT5@5AEAEAEAUGjkOutput@01@@Z 0000000180077ab0 f i GuCCDSweepPrimitives.obj
 0001:00078060       ??$gjkRaycast@U?$RelativeConvex@VCapsuleV@Gu@physx@@@Gu@physx@@U?$LocalConvex@VBoxV@Gu@physx@@@23@@Gu@physx@@YA_NAEBU?$RelativeConvex@VCapsuleV@Gu@physx@@@01@AEBU?$LocalConvex@VBoxV@Gu@physx@@@01@AEBT__m128@@222AEAT4@33M@Z 0000000180079060 f i GuCCDSweepPrimitives.obj
 0001:00078cd0       ??$gjkRaycast@U?$RelativeConvex@VCapsuleV@Gu@physx@@@Gu@physx@@U?$LocalConvex@VCapsuleV@Gu@physx@@@23@@Gu@physx@@YA_NAEBU?$RelativeConvex@VCapsuleV@Gu@physx@@@01@AEBU?$LocalConvex@VCapsuleV@Gu@physx@@@01@AEBT__m128@@222AEAT4@33M@Z 0000000180079cd0 f i GuCCDSweepPrimitives.obj
 0001:000799c0       ??$gjkRaycast@U?$RelativeConvex@VCapsuleV@Gu@physx@@@Gu@physx@@U?$LocalConvex@VConvexHullV@Gu@physx@@@23@@Gu@physx@@YA_NAEBU?$RelativeConvex@VCapsuleV@Gu@physx@@@01@AEBU?$LocalConvex@VConvexHullV@Gu@physx@@@01@AEBT__m128@@222AEAT4@33M@Z 000000018007a9c0 f i GuCCDSweepPrimitives.obj
 0001:0007a7d0       ??$gjkRaycast@U?$RelativeConvex@VTriangleV@Gu@physx@@@Gu@physx@@U?$LocalConvex@VBoxV@Gu@physx@@@23@@Gu@physx@@YA_NAEBU?$RelativeConvex@VTriangleV@Gu@physx@@@01@AEBU?$LocalConvex@VBoxV@Gu@physx@@@01@AEBT__m128@@222AEAT4@33M@Z 000000018007b7d0 f i GuCCDSweepPrimitives.obj
 0001:0007b4d0       ??$gjkRaycast@U?$RelativeConvex@VTriangleV@Gu@physx@@@Gu@physx@@U?$LocalConvex@VCapsuleV@Gu@physx@@@23@@Gu@physx@@YA_NAEBU?$RelativeConvex@VTriangleV@Gu@physx@@@01@AEBU?$LocalConvex@VCapsuleV@Gu@physx@@@01@AEBT__m128@@222AEAT4@33M@Z 000000018007c4d0 f i GuCCDSweepPrimitives.obj
 0001:0007c240       ??$gjkRaycast@U?$RelativeConvex@VTriangleV@Gu@physx@@@Gu@physx@@U?$LocalConvex@VConvexHullV@Gu@physx@@@23@@Gu@physx@@YA_NAEBU?$RelativeConvex@VTriangleV@Gu@physx@@@01@AEBU?$LocalConvex@VConvexHullV@Gu@physx@@@01@AEBT__m128@@222AEAT4@33M@Z 000000018007d240 f i GuCCDSweepPrimitives.obj
 0001:0007d0c0       ?SweepShapeShape@Gu@physx@@YAMAEBUCCDShape@12@0AEBUPxTransformPadded@2@111MAEAV?$PxVec3T@M@2@2MAEAIM@Z 000000018007e0c0 f   GuCCDSweepPrimitives.obj
 0001:0007d0e0       ?SweepShapeTriangle@Gu@physx@@YAMAEBVPxGeometry@2@0AEBUPxTransformPadded@2@111MAEAV?$PxVec3T@M@2@2AEBVFastVertex2ShapeScaling@Cm@2@AEAVTriangleV@12@M@Z 000000018007e0e0 f   GuCCDSweepPrimitives.obj
 0001:0007d100       ?barycentricCoordinates@Gu@physx@@YAXAEBT__m128@@000AEAT3@1@Z 000000018007e100 f   GuBarycentricCoordinates.obj
 0001:0007d240       ?barycentricCoordinates@Gu@physx@@YAXAEBT__m128@@00AEAT3@@Z 000000018007e240 f   GuBarycentricCoordinates.obj
 0001:0007d2b0       ??$?_UV?$PxReflectionAllocator@VAdjTriangle@Gu@physx@@@physx@@@PxUserAllocated@physx@@SAPEAX_KV?$PxReflectionAllocator@VAdjTriangle@Gu@physx@@@1@PEBDH@Z 000000018007e2b0 f i GuAdjacencies.obj
 0001:0007d390       ??0AdjacenciesBuilder@Gu@physx@@QEAA@XZ 000000018007e390 f   GuAdjacencies.obj
 0001:0007d3a0       ??1AdjacenciesBuilder@Gu@physx@@QEAA@XZ 000000018007e3a0 f   GuAdjacencies.obj
 0001:0007d3f0       ?ComputeNbBoundaryEdges@Adjacencies@Gu@physx@@QEBAIXZ 000000018007e3f0 f   GuAdjacencies.obj
 0001:0007d680       ?Init@AdjacenciesBuilder@Gu@physx@@QEAA_NAEBUADJACENCIESCREATE@23@@Z 000000018007e680 f   GuAdjacencies.obj
 0001:0007dc50       ??0EdgeList@Gu@physx@@QEAA@XZ 000000018007ec50 f   GuEdgeList.obj
 0001:0007dc70       ??1EdgeList@Gu@physx@@QEAA@XZ 000000018007ec70 f   GuEdgeList.obj
 0001:0007dd20       ?computeActiveEdges@EdgeList@Gu@physx@@AEAA_NIPEBIPEBGPEBV?$PxVec3T@M@3@M@Z 000000018007ed20 f   GuEdgeList.obj
 0001:0007f0c0       ?createEdgesToFaces@EdgeList@Gu@physx@@AEAA_NIPEBIPEBG@Z 00000001800800c0 f   GuEdgeList.obj
 0001:0007f330       ?createFacesToEdges@EdgeList@Gu@physx@@AEAA_NIPEBIPEBG@Z 0000000180080330 f   GuEdgeList.obj
 0001:0007f770       ?init@EdgeList@Gu@physx@@QEAA_NAEBUEDGELISTCREATE@23@@Z 0000000180080770 f   GuEdgeList.obj
 0001:0007f8b0       ?addAxis@SeparatingAxes@Gu@physx@@QEAA_NAEBV?$PxVec3T@M@3@@Z 00000001800808b0 f   GuSeparatingAxes.obj
 0001:0007f970       ??$kmeans_cluster@V?$PxVec3T@M@physx@@M@@YAIPEBV?$PxVec3T@M@physx@@IIPEAV01@PEAIMM@Z 0000000180080970 f i GuQuantizer.obj
 0001:000802d0       ??_GQuantizer@Gu@physx@@MEAAPEAXI@Z 00000001800812d0 f i GuQuantizer.obj
 0001:000802d0       ??_EQuantizer@Gu@physx@@MEAAPEAXI@Z 00000001800812d0 f i GuQuantizer.obj
 0001:00080300       ??_GQuantizerImpl@@EEAAPEAXI@Z 0000000180081300 f i GuQuantizer.obj
 0001:00080300       ??_EQuantizerImpl@@EEAAPEAXI@Z 0000000180081300 f i GuQuantizer.obj
 0001:000803d0       ?createQuantizer@Gu@physx@@YAPEAVQuantizer@12@XZ 00000001800813d0 f   GuQuantizer.obj
 0001:00080480       ?getDenormalizeCenter@QuantizerImpl@@UEBAAEBV?$PxVec3T@M@physx@@XZ 0000000180081480 f i GuQuantizer.obj
 0001:00080490       ?getCurrentAABBTreeBounds@PruningPool@Gu@physx@@QEBAAEBVAABBTreeBounds@23@XZ 0000000180081490 f i GuIncrementalAABBPrunerCore.obj
 0001:00080490       ?getDenormalizeScale@QuantizerImpl@@UEBAAEBV?$PxVec3T@M@physx@@XZ 0000000180081490 f i GuQuantizer.obj
 0001:000804a0       ?kmeansQuantize3D@QuantizerImpl@@UEAAPEBV?$PxVec3T@M@physx@@IPEBV23@I_NIAEAI@Z 00000001800814a0 f i GuQuantizer.obj
 0001:00080700       ?normalizeInput@QuantizerImpl@@AEAAXIPEBV?$PxVec3T@M@physx@@I@Z 0000000180081700 f i GuQuantizer.obj
 0001:00080b30       ?release@QuantizerImpl@@UEAAXXZ 0000000180081b30 f i GuQuantizer.obj
 0001:00080b50       ??0MeshCleaner@Gu@physx@@QEAA@IPEBV?$PxVec3T@M@2@IPEBIMM@Z 0000000180081b50 f   GuMeshCleaner.obj
 0001:00081540       ??1MeshCleaner@Gu@physx@@QEAA@XZ 0000000180082540 f   GuMeshCleaner.obj
 0001:000815d0       ??0ReducedVertexCloud@Gu@physx@@QEAA@PEBV?$PxVec3T@M@2@I@Z 00000001800825d0 f   GuVertexReducer.obj
 0001:000815f0       ??1ReducedVertexCloud@Gu@physx@@QEAA@XZ 00000001800825f0 f   GuVertexReducer.obj
 0001:00081600       ?clean@ReducedVertexCloud@Gu@physx@@QEAAAEAV123@XZ 0000000180082600 f   GuVertexReducer.obj
 0001:00081670       ?reduce@ReducedVertexCloud@Gu@physx@@QEAA_NPEAUREDUCEDCLOUD@23@@Z 0000000180082670 f   GuVertexReducer.obj
 0001:00081920       ?buildConsistentTriangleOrientationMap@MeshAnalyzer@Gu@physx@@SA_NPEBU?$IndexedTriangleT@H@23@IAEAV?$PxArray@_NV?$PxReflectionAllocator@_N@physx@@@3@AEAV?$PxHashMap@_KHU?$PxHash@_K@physx@@VPxAllocator@2@@3@AEAV?$PxArray@V?$PxArray@IV?$PxReflectionAllocator@I@physx@@@physx@@V?$PxReflectionAllocator@V?$PxArray@IV?$PxReflectionAllocator@I@physx@@@physx@@@2@@3@@Z 0000000180082920 f   GuMeshAnalysis.obj
 0001:00081cd0       ?buildTriangleAdjacency@MeshAnalyzer@Gu@physx@@SA_NPEBU?$IndexedTriangleT@H@23@IAEAV?$PxArray@HV?$PxReflectionAllocator@H@physx@@@3@AEAV?$PxHashMap@_KHU?$PxHash@_K@physx@@VPxAllocator@2@@3@@Z 0000000180082cd0 f   GuMeshAnalysis.obj
 0001:00082190       ?checkConsistentTriangleOrientation@MeshAnalyzer@Gu@physx@@SA_NPEBU?$IndexedTriangleT@H@23@I@Z 0000000180083190 f   GuMeshAnalysis.obj
 0001:00082340       ?checkMeshWatertightness@MeshAnalyzer@Gu@physx@@SA_NPEBU?$IndexedTriangleT@H@23@I_N@Z 0000000180083340 f   GuMeshAnalysis.obj
 0001:00082550       ?destroy@?$PxArray@V?$PxArray@IV?$PxReflectionAllocator@I@physx@@@physx@@V?$PxReflectionAllocator@V?$PxArray@IV?$PxReflectionAllocator@I@physx@@@physx@@@2@@physx@@KAXPEAV?$PxArray@IV?$PxReflectionAllocator@I@physx@@@2@0@Z 0000000180083550 f i GuMeshAnalysis.obj
 0001:000825c0       ?growAndPushBack@?$PxArray@V?$PxArray@IV?$PxReflectionAllocator@I@physx@@@physx@@V?$PxReflectionAllocator@V?$PxArray@IV?$PxReflectionAllocator@I@physx@@@physx@@@2@@physx@@IEAAAEAV?$PxArray@IV?$PxReflectionAllocator@I@physx@@@2@AEBV32@@Z 00000001800835c0 f i GuMeshAnalysis.obj
 0001:00082710       ?makeTriOrientationConsistent@MeshAnalyzer@Gu@physx@@SA_NPEAU?$IndexedTriangleT@H@23@I_N@Z 0000000180083710 f   GuMeshAnalysis.obj
 0001:000828c0       ?recreate@?$PxArray@_NV?$PxReflectionAllocator@_N@physx@@@physx@@IEAAXI@Z 00000001800838c0 f i GuMeshAnalysis.obj
 0001:000829b0       ?resize@?$PxArray@HV?$PxReflectionAllocator@H@physx@@@physx@@QEAAXIAEBH@Z 00000001800839b0 f i GuMeshAnalysis.obj
 0001:00082a70       ?resize@?$PxArray@_NV?$PxReflectionAllocator@_N@physx@@@physx@@QEAAXIAEB_N@Z 0000000180083a70 f i GuMeshAnalysis.obj
 0001:00082b30       ?contactBoxBox@Gu@physx@@YA_NAEBVPxGeometry@2@0AEBUPxTransformPadded@2@1AEBUNarrowPhaseParams@12@AEAUCache@12@AEAVPxContactBuffer@2@PEAVPxRenderOutput@2@@Z 0000000180083b30 f   GuContactBoxBox.obj
 0001:00086f90       ?contactCapsuleBox@Gu@physx@@YA_NAEBVPxGeometry@2@0AEBUPxTransformPadded@2@1AEBUNarrowPhaseParams@12@AEAUCache@12@AEAVPxContactBuffer@2@PEAVPxRenderOutput@2@@Z 0000000180087f90 f   GuContactCapsuleBox.obj
 0001:00087530       ?contactCapsuleCapsule@Gu@physx@@YA_NAEBVPxGeometry@2@0AEBUPxTransformPadded@2@1AEBUNarrowPhaseParams@12@AEAUCache@12@AEAVPxContactBuffer@2@PEAVPxRenderOutput@2@@Z 0000000180088530 f   GuContactCapsuleCapsule.obj
 0001:00089e10       ?contactCapsuleConvex@Gu@physx@@YA_NAEBVPxGeometry@2@0AEBUPxTransformPadded@2@1AEBUNarrowPhaseParams@12@AEAUCache@12@AEAVPxContactBuffer@2@PEAVPxRenderOutput@2@@Z 000000018008ae10 f   GuContactCapsuleConvex.obj
 0001:0008c320       ?contactCapsuleHeightfield@Gu@physx@@YA_NAEBVPxGeometry@2@0AEBUPxTransformPadded@2@1AEBUNarrowPhaseParams@12@AEAUCache@12@AEAVPxContactBuffer@2@PEAVPxRenderOutput@2@@Z 000000018008d320 f   GuContactCapsuleMesh.obj
 0001:0008cb30       ?contactCapsuleMesh@Gu@physx@@YA_NAEBVPxGeometry@2@0AEBUPxTransformPadded@2@1AEBUNarrowPhaseParams@12@AEAUCache@12@AEAVPxContactBuffer@2@PEAVPxRenderOutput@2@@Z 000000018008db30 f   GuContactCapsuleMesh.obj
 0001:0008dcb0       ?transformQueryBounds@FastVertex2ShapeScaling@Cm@physx@@QEBAXAEAV?$PxVec3T@M@3@0AEAV?$PxMat33T@M@3@@Z 000000018008ecb0 f i GuContactCapsuleMesh.obj
 0001:00091fe0       ?contactBoxConvex@Gu@physx@@YA_NAEBVPxGeometry@2@0AEBUPxTransformPadded@2@1AEBUNarrowPhaseParams@12@AEAUCache@12@AEAVPxContactBuffer@2@PEAVPxRenderOutput@2@@Z 0000000180092fe0 f   GuContactConvexConvex.obj
 0001:000921b0       ?contactConvexConvex@Gu@physx@@YA_NAEBVPxGeometry@2@0AEBUPxTransformPadded@2@1AEBUNarrowPhaseParams@12@AEAUCache@12@AEAVPxContactBuffer@2@PEAVPxRenderOutput@2@@Z 00000001800931b0 f   GuContactConvexConvex.obj
 0001:00092630       ?transformPlaneToShapeSpace@FastVertex2ShapeScaling@Cm@physx@@QEBAXAEBV?$PxVec3T@M@3@MAEAV43@AEAM@Z 0000000180093630 f i GuContactConvexConvex.obj
 0001:00092ae0       ??_GConvexMeshContactGenerationCallback@@UEAAPEAXI@Z 0000000180093ae0 f i GuContactConvexMesh.obj
 0001:00092ae0       ??_EConvexMeshContactGenerationCallback@@UEAAPEAXI@Z 0000000180093ae0 f i GuContactConvexMesh.obj
 0001:00092b40       ?addData@?$CacheMap@UCachedEdge@Gu@physx@@$0IA@@Gu@physx@@QEAA_NAEBUCachedEdge@23@@Z 0000000180093b40 f i GuContactConvexMesh.obj
 0001:00092c20       ?addData@?$CacheMap@UCachedVertex@Gu@physx@@$0IA@@Gu@physx@@QEAA_NAEBUCachedVertex@23@@Z 0000000180093c20 f i GuContactConvexMesh.obj
 0001:00092cb0       ?allocate@?$PxArray@IV?$PxInlineAllocator@$0BBAA@V?$PxReflectionAllocator@I@physx@@@physx@@@physx@@IEAAPEAIIPEAI@Z 0000000180093cb0 f i GuContactConvexMesh.obj
 0001:000930b0       ?contactBoxHeightfield@Gu@physx@@YA_NAEBVPxGeometry@2@0AEBUPxTransformPadded@2@1AEBUNarrowPhaseParams@12@AEAUCache@12@AEAVPxContactBuffer@2@PEAVPxRenderOutput@2@@Z 00000001800940b0 f   GuContactConvexMesh.obj
 0001:00093230       ?contactBoxMesh@Gu@physx@@YA_NAEBVPxGeometry@2@0AEBUPxTransformPadded@2@1AEBUNarrowPhaseParams@12@AEAUCache@12@AEAVPxContactBuffer@2@PEAVPxRenderOutput@2@@Z 0000000180094230 f   GuContactConvexMesh.obj
 0001:00093400       ?contactConvexHeightfield@Gu@physx@@YA_NAEBVPxGeometry@2@0AEBUPxTransformPadded@2@1AEBUNarrowPhaseParams@12@AEAUCache@12@AEAVPxContactBuffer@2@PEAVPxRenderOutput@2@@Z 0000000180094400 f   GuContactConvexMesh.obj
 0001:00093550       ?contactConvexMesh@Gu@physx@@YA_NAEBVPxGeometry@2@0AEBUPxTransformPadded@2@1AEBUNarrowPhaseParams@12@AEAUCache@12@AEAVPxContactBuffer@2@PEAVPxRenderOutput@2@@Z 0000000180094550 f   GuContactConvexMesh.obj
 0001:00096cb0       ?processHit@ConvexMeshContactGenerationCallback@@UEAA_NAEBUPxGeomRaycastHit@physx@@AEBV?$PxVec3T@M@3@11AEAMPEBI@Z 0000000180097cb0 f i GuContactConvexMesh.obj
 0001:00097620       ?recreate@?$PxArray@IV?$PxInlineAllocator@$0BBAA@V?$PxReflectionAllocator@I@physx@@@physx@@@physx@@IEAAXI@Z 0000000180098620 f i GuContactConvexMesh.obj
 0001:0009b7d0       ??0?$EpaDepth@UConvexShape@Gu@physx@@@RefGjkEpa@Gu@physx@@QEAA@AEAU?$Convex@UConvexShape@Gu@physx@@@123@0@Z 000000018009c7d0 f i GuContactConvexCoreMesh.obj
 0001:0009bc30       ?PxComputeBasisVectors@physx@@YAXAEBV?$PxVec3T@M@1@AEAV21@1@Z 000000018009cc30 f i GuContactConvexCoreMesh.obj
 0001:0009bd50       ?addPatch@Contact@Gu@physx@@IEAAXAEBV?$PxVec3T@M@3@AEBUPoint@123@@Z 000000018009cd50 f i GuContactConvexCoreMesh.obj
 0001:0009c170       ?addPatchPoint@Contact@Gu@physx@@IEAAXIAEBUPoint@123@@Z 000000018009d170 f i GuContactConvexCoreMesh.obj
 0001:0009c430       ?addPoint@?$EpaDepth@UConvexShape@Gu@physx@@@RefGjkEpa@Gu@physx@@QEAAMAEBV?$PxVec3T@M@4@@Z 000000018009d430 f i GuContactConvexCoreMesh.obj
 0001:0009c940       ?clip2x2@FaceClipper@Gu@physx@@AEAAXXZ 000000018009d940 f i GuContactConvexCoreMesh.obj
 0001:0009d510       ?clipNone@FaceClipper@Gu@physx@@AEAAXXZ 000000018009e510 f i GuContactConvexCoreMesh.obj
 0001:0009d5d0       ?clipNxN@FaceClipper@Gu@physx@@AEAAXXZ 000000018009e5d0 f i GuContactConvexCoreMesh.obj
 0001:0009ddf0       ?computePoints@?$EpaDepth@UConvexShape@Gu@physx@@@RefGjkEpa@Gu@physx@@QEAAXAEAV?$PxVec3T@M@4@0@Z 000000018009edf0 f i GuContactConvexCoreMesh.obj
 0001:0009e330       ?contactConvexCoreHeightfield@Gu@physx@@YA_NAEBVPxGeometry@2@0AEBUPxTransformPadded@2@1AEBUNarrowPhaseParams@12@AEAUCache@12@AEAVPxContactBuffer@2@PEAVPxRenderOutput@2@@Z 000000018009f330 f   GuContactConvexCoreMesh.obj
 0001:0009eb20       ?contactConvexCoreTrimesh@Gu@physx@@YA_NAEBVPxGeometry@2@0AEBUPxTransformPadded@2@1AEBUNarrowPhaseParams@12@AEAUCache@12@AEAVPxContactBuffer@2@PEAVPxRenderOutput@2@@Z 000000018009fb20 f   GuContactConvexCoreMesh.obj
 0001:0009f290       ?contactFace@ConvexShape@Gu@physx@@QEBAIAEBV?$PxVec3T@M@3@0AEAV43@QEAV43@@Z 00000001800a0290 f i GuContactConvexCoreMesh.obj
 0001:0009ff20       ?getTriangleVertexIndices@HeightField@Gu@physx@@QEBAXIAEAI00@Z 00000001800a0f20 f i GuContactConvexCoreMesh.obj
 0001:000a02d0       ?makePlane@?$EpaDepth@UConvexShape@Gu@physx@@@RefGjkEpa@Gu@physx@@QEAA_NEEEAEAV?$PxVec4T@M@4@@Z 00000001800a12d0 f i GuContactConvexCoreMesh.obj
 0001:000a0690       ?makePlanes@FaceClipper@Gu@physx@@AEAAXPEBV?$PxVec3T@M@3@IPEAV?$PxVec4T@M@3@AEAI@Z 00000001800a1690 f i GuContactConvexCoreMesh.obj
 0001:000a0920       ?makePolygon@FaceClipper@Gu@physx@@AEAAXPEAV?$PxVec3T@M@3@AEAI@Z 00000001800a1920 f i GuContactConvexCoreMesh.obj
 0001:000a3030       ?contactConvexCoreConvex@Gu@physx@@YA_NAEBVPxGeometry@2@0AEBUPxTransformPadded@2@1AEBUNarrowPhaseParams@12@AEAUCache@12@AEAVPxContactBuffer@2@PEAVPxRenderOutput@2@@Z 00000001800a4030 f   GuContactConvexCoreConvex.obj
 0001:000a3480       ?contactPlaneConvexCore@Gu@physx@@YA_NAEBVPxGeometry@2@0AEBUPxTransformPadded@2@1AEBUNarrowPhaseParams@12@AEAUCache@12@AEAVPxContactBuffer@2@PEAVPxRenderOutput@2@@Z 00000001800a4480 f   GuContactPlaneConvexCore.obj
 0001:000a3c90       ?support@ConvexShape@Gu@physx@@QEBA?AV?$PxVec3T@M@3@AEBV43@@Z 00000001800a4c90 f i GuContactPlaneConvexCore.obj
 0001:000a3ff0       ?contactPlaneBox@Gu@physx@@YA_NAEBVPxGeometry@2@0AEBUPxTransformPadded@2@1AEBUNarrowPhaseParams@12@AEAUCache@12@AEAVPxContactBuffer@2@PEAVPxRenderOutput@2@@Z 00000001800a4ff0 f   GuContactPlaneBox.obj
 0001:000a4cb0       ?contactPlaneCapsule@Gu@physx@@YA_NAEBVPxGeometry@2@0AEBUPxTransformPadded@2@1AEBUNarrowPhaseParams@12@AEAUCache@12@AEAVPxContactBuffer@2@PEAVPxRenderOutput@2@@Z 00000001800a5cb0 f   GuContactPlaneCapsule.obj
 0001:000a5360       ?contactPlaneConvex@Gu@physx@@YA_NAEBVPxGeometry@2@0AEBUPxTransformPadded@2@1AEBUNarrowPhaseParams@12@AEAUCache@12@AEAVPxContactBuffer@2@PEAVPxRenderOutput@2@@Z 00000001800a6360 f   GuContactPlaneConvex.obj
 0001:000a5c10       ?contactPlaneMesh@Gu@physx@@YA_NAEBVPxGeometry@2@0AEBUPxTransformPadded@2@1AEBUNarrowPhaseParams@12@AEAUCache@12@AEAVPxContactBuffer@2@PEAVPxRenderOutput@2@@Z 00000001800a6c10 f   GuContactPlaneMesh.obj
 0001:000a6dd0       ?reduce@?$BufferedPatch@$05$0EA@$00@Gu@physx@@QEAAXXZ 00000001800a7dd0 f i GuContactPlaneMesh.obj
 0001:000a8ef0       ?contactPolygonPolygonExt@Gu@physx@@YA_NIPEBV?$PxVec3T@M@2@PEBEAEBV?$PxMat34T@M@2@AEBVPxPlane@2@AEBV?$PxMat33T@M@2@I01234AEBV32@22IIAEAVPxContactBuffer@2@_N5M@Z 00000001800a9ef0 f   GuContactPolygonPolygon.obj
 0001:000aa670       ?findRotationMatrixFromZ@Gu@physx@@YA?AV?$PxMat33T@M@2@AEBV?$PxVec3T@M@2@@Z 00000001800ab670 f   GuContactPolygonPolygon.obj
 0001:000ab0a0       ??$PxSort@PEAV?$BufferedPatch@$04$0CA@$00@Gu@physx@@UPatchPenetrationPredicate@?$SDFContactReduction@$04$0CHBA@$0CA@@23@V?$PxReflectionAllocator@PEAV?$BufferedPatch@$04$0CA@$00@Gu@physx@@@3@@physx@@YAXPEAPEAV?$BufferedPatch@$04$0CA@$00@Gu@0@IAEBUPatchPenetrationPredicate@?$SDFContactReduction@$04$0CHBA@$0CA@@20@AEBV?$PxReflectionAllocator@PEAV?$BufferedPatch@$04$0CA@$00@Gu@physx@@@0@I@Z 00000001800ac0a0 f i GuContactMeshMesh.obj
 0001:000ab600       ??$copy@V?$PxReflectionAllocator@V?$BufferedPatch@$04$0CA@$00@Gu@physx@@@physx@@@?$PxArray@V?$BufferedPatch@$04$0CA@$00@Gu@physx@@V?$PxReflectionAllocator@V?$BufferedPatch@$04$0CA@$00@Gu@physx@@@3@@physx@@IEAAXAEBV01@@Z 00000001800ac600 f i GuContactMeshMesh.obj
 0001:000ab660       ??$sdfTriangleCollision@$0A@$0CA@$00@Gu@physx@@YAMAEIBUCollisionSDF@01@AEIBV?$PxVec3T@M@1@11AEAV31@2M@Z 00000001800ac660 f i GuContactMeshMesh.obj
 0001:000abdb0       ??0?$BufferedPatch@$04$0CA@$00@Gu@physx@@QEAA@AEBV012@@Z 00000001800acdb0 f i GuContactMeshMesh.obj
 0001:000abe80       ??0CollisionSDF@Gu@physx@@QEAA@AEBVSDF@12@@Z 00000001800ace80 f i GuContactMeshMesh.obj
 0001:000ac050       ?TriLerpWithGradient@CollisionSDF@Gu@physx@@SAMMMMMMMMMMMMPEAV?$PxVec3T@M@3@@Z 00000001800ad050 f i GuContactMeshMesh.obj
 0001:000ac230       ?addContact@?$BufferedPatch@$04$0CA@$00@Gu@physx@@QEAAXAEBUTinyContact@23@@Z 00000001800ad230 f i GuContactMeshMesh.obj
 0001:000ac2e0       ?allocate@?$PxArray@V?$BufferedPatch@$04$0CA@$00@Gu@physx@@V?$PxReflectionAllocator@V?$BufferedPatch@$04$0CA@$00@Gu@physx@@@3@@physx@@IEAAPEAV?$BufferedPatch@$04$0CA@$00@Gu@2@IPEAI@Z 00000001800ad2e0 f i GuContactMeshMesh.obj
 0001:000ac380       ?clampToBox@CollisionSDF@Gu@physx@@QEBA?AV?$PxVec3T@M@3@AEBV43@@Z 00000001800ad380 f i GuContactMeshMesh.obj
 0001:000ac440       ?contactMeshMesh@Gu@physx@@YA_NAEBVPxGeometry@2@0AEBUPxTransformPadded@2@1AEBUNarrowPhaseParams@12@AEAUCache@12@AEAVPxContactBuffer@2@PEAVPxRenderOutput@2@@Z 00000001800ad440 f   GuContactMeshMesh.obj
 0001:000ac6f0       ?copy@?$PxArray@V?$BufferedPatch@$04$0CA@$00@Gu@physx@@V?$PxReflectionAllocator@V?$BufferedPatch@$04$0CA@$00@Gu@physx@@@3@@physx@@KAXPEAV?$BufferedPatch@$04$0CA@$00@Gu@2@0PEBV342@@Z 00000001800ad6f0 f i GuContactMeshMesh.obj
 0001:000ac7e0       ?cullPatches@?$SDFContactReduction@$04$0CHBA@$0CA@@Gu@physx@@QEAAXM@Z 00000001800ad7e0 f i GuContactMeshMesh.obj
 0001:000acbb0       ?dist@CollisionSDF@Gu@physx@@QEBAMAEBV?$PxVec3T@M@3@PEAV43@@Z 00000001800adbb0 f i GuContactMeshMesh.obj
 0001:000acd60       ?distUsingGradient@CollisionSDF@Gu@physx@@QEBAMAEBV?$PxVec3T@M@3@AEAV43@AEBM@Z 00000001800add60 f i GuContactMeshMesh.obj
 0001:000ad010       ?evaluateCoarse@CollisionSDF@Gu@physx@@QEBAMAEBV?$PxVec3T@M@3@PEAV43@@Z 00000001800ae010 f i GuContactMeshMesh.obj
 0001:000ad160       ?evaluateSubgrid@CollisionSDF@Gu@physx@@QEBAMIAEBV?$PxVec3T@M@3@PEAV43@@Z 00000001800ae160 f i GuContactMeshMesh.obj
 0001:000ad510       ?flushToContactBuffer@?$SDFContactReduction@$04$0CHBA@$0CA@@Gu@physx@@QEAAIAEAVPxContactBuffer@3@@Z 00000001800ae510 f i GuContactMeshMesh.obj
 0001:000ada60       ?grad@CollisionSDF@Gu@physx@@QEBA?AV?$PxVec3T@M@3@AEBV43@@Z 00000001800aea60 f i GuContactMeshMesh.obj
 0001:000addf0       ?growAndPushBack@?$PxArray@PEAV?$BufferedPatch@$04$0CA@$00@Gu@physx@@V?$PxReflectionAllocator@PEAV?$BufferedPatch@$04$0CA@$00@Gu@physx@@@3@@physx@@IEAAAEAPEAV?$BufferedPatch@$04$0CA@$00@Gu@2@AEBQEAV342@@Z 00000001800aedf0 f i GuContactMeshMesh.obj
 0001:000adf10       ?growAndPushBack@?$PxArray@V?$BufferedPatch@$04$0CA@$00@Gu@physx@@V?$PxReflectionAllocator@V?$BufferedPatch@$04$0CA@$00@Gu@physx@@@3@@physx@@IEAAAEAV?$BufferedPatch@$04$0CA@$00@Gu@2@AEBV342@@Z 00000001800aef10 f i GuContactMeshMesh.obj
 0001:000ae020       ?recreate@?$PxArray@PEAV?$BufferedPatch@$04$0CA@$00@Gu@physx@@V?$PxReflectionAllocator@PEAV?$BufferedPatch@$04$0CA@$00@Gu@physx@@@3@@physx@@IEAAXI@Z 00000001800af020 f i GuContactMeshMesh.obj
 0001:000ae110       ?recreate@?$PxArray@V?$BufferedPatch@$04$0CA@$00@Gu@physx@@V?$PxReflectionAllocator@V?$BufferedPatch@$04$0CA@$00@Gu@physx@@@3@@physx@@IEAAXI@Z 00000001800af110 f i GuContactMeshMesh.obj
 0001:000ae1f0       ?reduce@?$BufferedPatch@$04$0CA@$00@Gu@physx@@QEAAXXZ 00000001800af1f0 f i GuContactMeshMesh.obj
 0001:000aecb0       ?sample@CollisionSDF@Gu@physx@@QEBAMV?$PxVec3T@M@3@PEAV43@@Z 00000001800afcb0 f i GuContactMeshMesh.obj
 0001:000aee70       ?sdfMeshCollision@@YAIAEIBUPxTransformPadded@physx@@AEIBVPxTriangleMeshGeometry@2@01AEAV?$SDFContactReduction@$04$0CHBA@$0CA@@Gu@2@M_N@Z 00000001800afe70 f i GuContactMeshMesh.obj
 0001:000b1680       ?contactSphereBox@Gu@physx@@YA_NAEBVPxGeometry@2@0AEBUPxTransformPadded@2@1AEBUNarrowPhaseParams@12@AEAUCache@12@AEAVPxContactBuffer@2@PEAVPxRenderOutput@2@@Z 00000001800b2680 f   GuContactSphereBox.obj
 0001:000b1c60       ?contactSphereCapsule@Gu@physx@@YA_NAEBVPxGeometry@2@0AEBUPxTransformPadded@2@1AEBUNarrowPhaseParams@12@AEAUCache@12@AEAVPxContactBuffer@2@PEAVPxRenderOutput@2@@Z 00000001800b2c60 f   GuContactSphereCapsule.obj
 0001:000b2a40       ?contactSphereHeightfield@Gu@physx@@YA_NAEBVPxGeometry@2@0AEBUPxTransformPadded@2@1AEBUNarrowPhaseParams@12@AEAUCache@12@AEAVPxContactBuffer@2@PEAVPxRenderOutput@2@@Z 00000001800b3a40 f   GuContactSphereMesh.obj
 0001:000b3430       ?contactSphereMesh@Gu@physx@@YA_NAEBVPxGeometry@2@0AEBUPxTransformPadded@2@1AEBUNarrowPhaseParams@12@AEAUCache@12@AEAVPxContactBuffer@2@PEAVPxRenderOutput@2@@Z 00000001800b4430 f   GuContactSphereMesh.obj
 0001:000b5710       ?contactSpherePlane@Gu@physx@@YA_NAEBVPxGeometry@2@0AEBUPxTransformPadded@2@1AEBUNarrowPhaseParams@12@AEAUCache@12@AEAVPxContactBuffer@2@PEAVPxRenderOutput@2@@Z 00000001800b6710 f   GuContactSpherePlane.obj
 0001:000b5920       ?contactSphereSphere@Gu@physx@@YA_NAEBVPxGeometry@2@0AEBUPxTransformPadded@2@1AEBUNarrowPhaseParams@12@AEAUCache@12@AEAVPxContactBuffer@2@PEAVPxRenderOutput@2@@Z 00000001800b6920 f   GuContactSphereSphere.obj
 0001:000b5aa0       ?contactCustomGeometryGeometry@Gu@physx@@YA_NAEBVPxGeometry@2@0AEBUPxTransformPadded@2@1AEBUNarrowPhaseParams@12@AEAUCache@12@AEAVPxContactBuffer@2@PEAVPxRenderOutput@2@@Z 00000001800b6aa0 f   GuContactCustomGeometry.obj
 0001:000b5b00       ?contactGeometryCustomGeometry@Gu@physx@@YA_NAEBVPxGeometry@2@0AEBUPxTransformPadded@2@1AEBUNarrowPhaseParams@12@AEAUCache@12@AEAVPxContactBuffer@2@PEAVPxRenderOutput@2@@Z 00000001800b6b00 f   GuContactCustomGeometry.obj
 0001:000b5bc0       ?selectNormal@Gu@physx@@YA_NEMM@Z 00000001800b6bc0 f   GuFeatureCode.obj
 0001:000b5c40       ??0BigConvexData@physx@@QEAA@XZ 00000001800b6c40 f   GuBigConvexData.obj
 0001:000b5c60       ??1BigConvexData@physx@@QEAA@XZ 00000001800b6c60 f   GuBigConvexData.obj
 0001:000b5d20       ??4BigConvexData@physx@@QEAAAEAV01@AEBV01@@Z 00000001800b6d20 f i GuBigConvexData.obj
 0001:000b5d40       ?ComputeNearestOffset@BigConvexData@physx@@QEBAIAEBV?$PxVec3T@M@2@@Z 00000001800b6d40 f   GuBigConvexData.obj
 0001:000b5e40       ?ComputeOffset@BigConvexData@physx@@QEBAIAEBV?$PxVec3T@M@2@@Z 00000001800b6e40 f   GuBigConvexData.obj
 0001:000b5f40       ?CreateOffsets@BigConvexData@physx@@IEAAXXZ 00000001800b6f40 f   GuBigConvexData.obj
 0001:000b5f90       ?getDeformableVolumeAuxData@DeformableVolumeMesh@Gu@physx@@UEBAPEBVPxDeformableVolumeAuxData@3@XZ 00000001800b6f90 f i GuTetrahedronMesh.obj
 0001:000b5f90       ?getTriangles@TriangleMesh@Gu@physx@@UEBAPEBXXZ 00000001800b6f90 f i GuTriangleMesh.obj
 0001:000b5f90       ?getTransforms@PruningPool@Gu@physx@@QEBAPEBV?$PxTransformT@M@3@XZ 00000001800b6f90 f i GuIncrementalAABBPrunerCore.obj
 0001:000b5f90       ?GetAdjacentVerts@BigConvexData@physx@@QEBAPEBEXZ 00000001800b6f90 f i GuBigConvexData.obj
 0001:000b5f90       ?getTransforms@PruningPool@Gu@physx@@QEAAPEAV?$PxTransformT@M@3@XZ 00000001800b6f90 f i GuIncrementalAABBPrunerCore.obj
 0001:000b5f90       ?getDeformableVolumeAuxData@DeformableVolumeMesh@Gu@physx@@UEAAPEAVPxDeformableVolumeAuxData@3@XZ 00000001800b6f90 f i GuTetrahedronMesh.obj
 0001:000b5fa0       ?GetNbNeighbors@BigConvexData@physx@@QEBAGI@Z 00000001800b6fa0 f i GuBigConvexData.obj
 0001:000b5fa0       ?GetValency@BigConvexData@physx@@QEBAGI@Z 00000001800b6fa0 f i GuBigConvexData.obj
 0001:000b5fb0       ?GetNbSamples@BigConvexData@physx@@QEBAIXZ 00000001800b6fb0 f i GuBigConvexData.obj
 0001:000b5fc0       ?getNbVertices@TriangleMesh@Gu@physx@@UEBAIXZ 00000001800b6fc0 f i GuTriangleMesh.obj
 0001:000b5fc0       ?length@pcharNode@@UEBAHXZ 00000001800b6fc0 f i libvcruntime:undname.obj
 0001:000b5fc0       ?getNbVertices@TetrahedronMesh@Gu@physx@@UEBAIXZ 00000001800b6fc0 f i GuTetrahedronMesh.obj
 0001:000b5fc0       ?raw_length@pcharNode@@UEBAHXZ 00000001800b6fc0 f i libvcruntime:undname.obj
 0001:000b5fc0       ?GetNbVerts@BigConvexData@physx@@QEBAIXZ 00000001800b6fc0 f i GuBigConvexData.obj
 0001:000b5fd0       ?GetNeighbors@BigConvexData@physx@@QEBAPEBEI@Z 00000001800b6fd0 f i GuBigConvexData.obj
 0001:000b5fe0       ?GetOffset@BigConvexData@physx@@QEBAGI@Z 00000001800b6fe0 f i GuBigConvexData.obj
 0001:000b5ff0       ?GetSubdiv@BigConvexData@physx@@QEBAIXZ 00000001800b6ff0 f i GuBigConvexData.obj
 0001:000b6000       ?Load@BigConvexData@physx@@QEAA_NAEAVPxInputStream@2@@Z 00000001800b7000 f   GuBigConvexData.obj
 0001:000b6120       ?VLoad@BigConvexData@physx@@IEAA_NAEAVPxInputStream@2@@Z 00000001800b7120 f   GuBigConvexData.obj
 0001:000b62c0       ?exportExtraData@BigConvexData@physx@@QEAAXAEAVPxSerializationContext@2@@Z 00000001800b72c0 f   GuBigConvexData.obj
 0001:000b6340       ?importExtraData@BigConvexData@physx@@QEAAXAEAVPxDeserializationContext@2@@Z 00000001800b7340 f   GuBigConvexData.obj
 0001:000b63b0       ?findUniqueConvexEdges@Gu@physx@@YAIIPEIAUConvexEdge@12@IPEIBUHullPolygonData@12@PEIBE@Z 00000001800b73b0 f   GuConvexHelper.obj
 0001:000b64f0       ?getConvexData@Gu@physx@@YA_NAEBVPxConvexMeshGeometry@2@AEAVFastVertex2ShapeScaling@Cm@2@AEAVPxBounds3@2@AEAUPolygonalData@12@@Z 00000001800b74f0 f   GuConvexHelper.obj
 0001:000b6770       ?getScaledConvex@Gu@physx@@YAXAEAPEAV?$PxVec3T@M@2@AEAPEAEPEAV32@PEAE_NPEBV32@PEBEIAEBVFastVertex2ShapeScaling@Cm@2@@Z 00000001800b7770 f   GuConvexHelper.obj
 0001:000b68a0       ??0ConvexMesh@Gu@physx@@QEAA@PEAVMeshFactory@12@@Z 00000001800b78a0 f   GuConvexMesh.obj
 0001:000b6930       ??0ConvexMesh@Gu@physx@@QEAA@PEAVMeshFactory@12@AEAUConvexHullInitData@12@@Z 00000001800b7930 f   GuConvexMesh.obj
 0001:000b6a70       ??_GConvexMesh@Gu@physx@@UEAAPEAXI@Z 00000001800b7a70 f i GuConvexMesh.obj
 0001:000b6a70       ??_EConvexMesh@Gu@physx@@UEAAPEAXI@Z 00000001800b7a70 f i GuConvexMesh.obj
 0001:000b6b80       ??_GPxBVH@physx@@MEAAPEAXI@Z 00000001800b7b80 f i GuBVH.obj
 0001:000b6b80       ??_GPxBase@physx@@MEAAPEAXI@Z 00000001800b7b80 f i GuConvexMesh.obj
 0001:000b6b80       ??_EPxBVH@physx@@MEAAPEAXI@Z 00000001800b7b80 f i GuBVH.obj
 0001:000b6b80       ??_EPxBase@physx@@MEAAPEAXI@Z 00000001800b7b80 f i GuConvexMesh.obj
 0001:000b6bb0       ?acquireReference@DeformableVolumeAuxData@Gu@physx@@UEAAXXZ 00000001800b7bb0 f   GuTetrahedronMesh.obj
 0001:000b6bb0       ?acquireReference@DeformableVolumeMesh@Gu@physx@@UEAAXXZ 00000001800b7bb0 f   GuTetrahedronMesh.obj
 0001:000b6bb0       ?acquireReference@ConvexMesh@Gu@physx@@UEAAXXZ 00000001800b7bb0 f   GuConvexMesh.obj
 0001:000b6bb0       ?acquireReference@HeightField@Gu@physx@@UEAAXXZ 00000001800b7bb0 f   GuHeightField.obj
 0001:000b6bb0       ?acquireReference@TriangleMesh@Gu@physx@@UEAAXXZ 00000001800b7bb0 f   GuTriangleMesh.obj
 0001:000b6bb0       ?acquireReference@TetrahedronMesh@Gu@physx@@UEAAXXZ 00000001800b7bb0 f   GuTetrahedronMesh.obj
 0001:000b7080       ?createObject@ConvexMesh@Gu@physx@@SAPEAV123@AEAPEAEAEAVPxDeserializationContext@3@@Z 00000001800b8080 f   GuConvexMesh.obj
 0001:000b71a0       ?exportExtraData@ConvexMesh@Gu@physx@@UEAAXAEAVPxSerializationContext@3@@Z 00000001800b81a0 f   GuConvexMesh.obj
 0001:000b72a0       ?getConcreteTypeName@PxConvexMesh@physx@@UEBAPEBDXZ 00000001800b82a0 f i GuConvexMesh.obj
 0001:000b72b0       ?getIndexBuffer@ConvexMesh@Gu@physx@@UEBAPEBEXZ 00000001800b82b0 f i GuConvexMesh.obj
 0001:000b72f0       ?getLocalBounds@ConvexMesh@Gu@physx@@UEBA?AVPxBounds3@3@XZ 00000001800b82f0 f   GuConvexMesh.obj
 0001:000b7380       ?getMassInformation@ConvexMesh@Gu@physx@@UEBAXAEAMAEAV?$PxMat33T@M@3@AEAV?$PxVec3T@M@3@@Z 00000001800b8380 f   GuConvexMesh.obj
 0001:000b73f0       ?getNbPolygons@ConvexMesh@Gu@physx@@UEBAIXZ 00000001800b83f0 f i GuConvexMesh.obj
 0001:000b7400       ?getNbVertices@ConvexMesh@Gu@physx@@UEBAIXZ 00000001800b8400 f i GuConvexMesh.obj
 0001:000b7410       ?getPolygonData@ConvexMesh@Gu@physx@@UEBA_NIAEAUPxHullPolygon@3@@Z 00000001800b8410 f   GuConvexMesh.obj
 0001:000b7460       ?getReferenceCount@DeformableVolumeMesh@Gu@physx@@UEBAIXZ 00000001800b8460 f   GuTetrahedronMesh.obj
 0001:000b7460       ?getReferenceCount@TetrahedronMesh@Gu@physx@@UEBAIXZ 00000001800b8460 f   GuTetrahedronMesh.obj
 0001:000b7460       ?length@DNameStatusNode@@UEBAHXZ 00000001800b8460 f   libvcruntime:undname.obj
 0001:000b7460       ?getReferenceCount@HeightField@Gu@physx@@UEBAIXZ 00000001800b8460 f   GuHeightField.obj
 0001:000b7460       ?getReferenceCount@DeformableVolumeAuxData@Gu@physx@@UEBAIXZ 00000001800b8460 f   GuTetrahedronMesh.obj
 0001:000b7460       ?getReferenceCount@TriangleMesh@Gu@physx@@UEBAIXZ 00000001800b8460 f   GuTriangleMesh.obj
 0001:000b7460       ?getReferenceCount@ConvexMesh@Gu@physx@@UEBAIXZ 00000001800b8460 f   GuConvexMesh.obj
 0001:000b7460       ?raw_length@DNameStatusNode@@UEBAHXZ 00000001800b8460 f   libvcruntime:undname.obj
 0001:000b7470       ?getSDF@ConvexMesh@Gu@physx@@UEBAPEBMXZ 00000001800b8470 f   GuConvexMesh.obj
 0001:000b7480       ?getVertices@ConvexMesh@Gu@physx@@UEBAPEBV?$PxVec3T@M@3@XZ 00000001800b8480 f i GuConvexMesh.obj
 0001:000b74a0       ?isGpuCompatible@ConvexMesh@Gu@physx@@UEBA_NXZ 00000001800b84a0 f   GuConvexMesh.obj
 0001:000b74e0       ?isKindOf@PxBase@physx@@MEBA_NPEBD@Z 00000001800b84e0 f i GuConvexMesh.obj
 0001:000b7500       ?isKindOf@PxConvexMesh@physx@@MEBA_NPEBD@Z 00000001800b8500 f i GuConvexMesh.obj
 0001:000b7590       ?isReleasable@PxBase@physx@@UEBA_NXZ 00000001800b8590 f i GuConvexMesh.obj
 0001:000b75a0       ?load@ConvexMesh@Gu@physx@@QEAA_NAEAVPxInputStream@3@@Z 00000001800b85a0 f   GuConvexMesh.obj
 0001:000b7b20       ?onRefCountZero@ConvexMesh@Gu@physx@@UEAAXXZ 00000001800b8b20 f   GuConvexMesh.obj
 0001:000b7c50       ?release@DeformableVolumeMesh@Gu@physx@@UEAAXXZ 00000001800b8c50 f   GuTetrahedronMesh.obj
 0001:000b7c50       ?release@TetrahedronMesh@Gu@physx@@UEAAXXZ 00000001800b8c50 f   GuTetrahedronMesh.obj
 0001:000b7c50       ?release@HeightField@Gu@physx@@UEAAXXZ 00000001800b8c50 f   GuHeightField.obj
 0001:000b7c50       ?release@DeformableVolumeAuxData@Gu@physx@@UEAAXXZ 00000001800b8c50 f   GuTetrahedronMesh.obj
 0001:000b7c50       ?release@TriangleMesh@Gu@physx@@UEAAXXZ 00000001800b8c50 f   GuTriangleMesh.obj
 0001:000b7c50       ?release@ConvexMesh@Gu@physx@@UEAAXXZ 00000001800b8c50 f   GuConvexMesh.obj
 0001:000b7c80       ??Dphysx@@YA?AV?$PxMat34T@M@0@AEBVPxMeshScale@0@AEBV10@@Z 00000001800b8c80 f i GuConvexUtilsInternal.obj
 0001:000b81f0       ?computeHullOBB@Gu@physx@@YAXAEAVBox@12@AEBVPxBounds3@2@MAEBV?$PxMat34T@M@2@2AEBVFastVertex2ShapeScaling@Cm@2@_N@Z 00000001800b91f0 f   GuConvexUtilsInternal.obj
 0001:000b86a0       ?computeOBBAroundConvex@Gu@physx@@YAXAEAVBox@12@AEBVPxConvexMeshGeometry@2@PEBVPxConvexMesh@2@AEBV?$PxTransformT@M@2@@Z 00000001800b96a0 f   GuConvexUtilsInternal.obj
 0001:000b8f00       ?computeVertexSpaceOBB@Gu@physx@@YAXAEAVBox@12@AEBV312@AEBV?$PxTransformT@M@2@AEBVPxMeshScale@2@@Z 00000001800b9f00 f   GuConvexUtilsInternal.obj
 0001:000b9230       ?transform@physx@@YA?AVBox@Gu@1@AEBV?$PxMat34T@M@1@AEBV231@@Z 00000001800ba230 f i GuConvexUtilsInternal.obj
 0001:000b9480       ?localSearch@physx@@YAXAEAIAEBV?$PxVec3T@M@1@PEBV21@PEBUBigConvexRawData@Gu@1@@Z 00000001800ba480 f   GuHillClimbing.obj
 0001:000b95b0       ??0PCMPolygonalBox@Gu@physx@@QEAA@AEBV?$PxVec3T@M@2@@Z 00000001800ba5b0 f   GuPCMShapeConvex.obj
 0001:000b95b0       ??0PolygonalBox@Gu@physx@@QEAA@AEBV?$PxVec3T@M@2@@Z 00000001800ba5b0 f   GuShapeConvex.obj
 0001:000baa70       ?getPolygonalData@PolygonalBox@Gu@physx@@QEBAXPEIAUPolygonalData@23@@Z 00000001800bba70 f   GuShapeConvex.obj
 0001:000baae0       ?getPolygonalData_Convex@Gu@physx@@YAXPEIAUPolygonalData@12@PEIBUConvexHullData@12@AEBVFastVertex2ShapeScaling@Cm@2@@Z 00000001800bbae0 f   GuShapeConvex.obj
 0001:000bac50       ?distancePointBoxSquared@Gu@physx@@YAMAEBV?$PxVec3T@M@2@00AEBV?$PxMat33T@M@2@PEAV32@@Z 00000001800bbc50 f   GuDistancePointBox.obj
 0001:000bada0       ?closestPtPointTriangle@Gu@physx@@YA?AV?$PxVec3T@M@2@AEBV32@000AEAM1@Z 00000001800bbda0 f   GuDistancePointTriangle.obj
 0001:000bb2c0       ?distancePointTriangleSquared2UnitBox@Gu@physx@@YA?AT__m128@@AEBT3@000AEAT3@11@Z 00000001800bc2c0 f   GuDistancePointTriangle.obj
 0001:000bb3e0       ?distancePointTriangleSquared@Gu@physx@@YA?AT__m128@@AEBT3@000AEAT3@11@Z 00000001800bc3e0 f   GuDistancePointTriangle.obj
 0001:000bc130       ?distanceSegmentBoxSquared@Gu@physx@@YAMAEBV?$PxVec3T@M@2@000AEBV?$PxMat33T@M@2@PEAMPEAV32@@Z 00000001800bd130 f   GuDistanceSegmentBox.obj
 0001:000bc9a0       ?distanceSegmentSegmentSquared4@Gu@physx@@YA?AT__m128@@AEBT3@000000000AEAT3@1@Z 00000001800bd9a0 f   GuDistanceSegmentSegment.obj
 0001:000bccc0       ?distanceSegmentSegmentSquared@Gu@physx@@YA?AT__m128@@AEBT3@000AEAT3@1@Z 00000001800bdcc0 f   GuDistanceSegmentSegment.obj
 0001:000bce80       ?distanceSegmentSegmentSquared@Gu@physx@@YAMAEBV?$PxVec3T@M@2@000PEAM1@Z 00000001800bde80 f   GuDistanceSegmentSegment.obj
 0001:000bd110       ?distanceSegmentSegmentSquared@Gu@physx@@YAMAEBV?$PxVec3T@M@2@0M00MPEAM1@Z 00000001800be110 f   GuDistanceSegmentSegment.obj
 0001:000bd860       ?distanceSegmentTriangleSquared@Gu@physx@@YA?AT__m128@@AEBT3@0000AEAT3@1@Z 00000001800be860 f   GuDistanceSegmentTriangle.obj
 0001:000bdfa0       ?distanceSegmentTriangleSquared@Gu@physx@@YAMAEBV?$PxVec3T@M@2@0000PEAM11@Z 00000001800befa0 f   GuDistanceSegmentTriangle.obj
 0001:000bf630       ?distanceTriangleTriangleSquared@Gu@physx@@YAMAEAV?$PxVec3T@M@2@0QEBVPxVec3Padded@2@1@Z 00000001800c0630 f   GuDistanceTriangleTriangle.obj
 0001:000c0140       ?closestPtPointTetrahedron@Gu@physx@@YA?AV?$PxVec3T@M@2@AEBV32@0000AEBV?$PxVec4T@M@2@@Z 00000001800c1140 f   GuDistancePointTetrahedron.obj
 0001:000c1230       ?PenetrationDepth@EPA@Gu@physx@@QEAA?AW4GjkStatus@23@AEBUGjkConvex@23@0PEIBT__m128@@1E_NT6@AEAUGjkOutput@23@@Z 00000001800c2230 f   GuEPA.obj
 0001:000c1d10       ?addFacet@EPA@Gu@physx@@QEAAPEAVFacet@23@IIIAEBT__m128@@@Z 00000001800c2d10 f   GuEPA.obj
 0001:000c2150       ?epaPenetration@Gu@physx@@YA?AW4GjkStatus@12@AEBUGjkConvex@12@0PEIBE1E_NT__m128@@AEAUGjkOutput@12@@Z 00000001800c3150 f   GuEPA.obj
 0001:000c22c0       ?epaPenetration@Gu@physx@@YA?AW4GjkStatus@12@AEBUGjkConvex@12@0PEIBT__m128@@1E_NT5@AEAUGjkOutput@12@@Z 00000001800c32c0 f   GuEPA.obj
 0001:000c2370       ?silhouette@Facet@Gu@physx@@QEAAXAEBT__m128@@PEIBT4@1AEAVEdgeBuffer@23@AEAV?$InlineDeferredIDPool@$0EA@@Cm@3@@Z 00000001800c3370 f   GuEPA.obj
 0001:000c2540       ?closestPtPointTetrahedron@Gu@physx@@YA?AT__m128@@PEIAT3@00AEAI@Z 00000001800c3540 f   GuGJKSimplex.obj
 0001:000c2cc0       ?closestPtPointTetrahedron@Gu@physx@@YA?AT__m128@@PEIAT3@00PEIAH1AEAI@Z 00000001800c3cc0 f   GuGJKSimplex.obj
 0001:000c4760       ??$gjk@UGjkConvex@Gu@physx@@U123@@Gu@physx@@YA?AW4GjkStatus@01@AEBUGjkConvex@01@0AEBT__m128@@1AEAT4@222@Z 00000001800c5760 f i GuGJKTest.obj
 0001:000c5380       ??$gjkPenetration@UGjkConvex@Gu@physx@@U123@@Gu@physx@@YA?AW4GjkStatus@01@AEBUGjkConvex@01@0AEBT__m128@@1_NPEIAE3AEAEAEAUGjkOutput@01@@Z 00000001800c6380 f i GuGJKTest.obj
 0001:000c53f0       ??$gjkPenetration@UGjkConvex@Gu@physx@@U123@@Gu@physx@@YA?AW4GjkStatus@01@AEBUGjkConvex@01@0AEBT__m128@@1_NPEIAE3PEIAT4@4AEAEAEAUGjkOutput@01@@Z 00000001800c63f0 f i GuGJKTest.obj
 0001:000c6830       ??$gjkRaycast@UGjkConvex@Gu@physx@@U123@@Gu@physx@@YA_NAEBUGjkConvex@01@0AEBT__m128@@111AEAT3@22M@Z 00000001800c7830 f i GuGJKTest.obj
 0001:000c73d0       ?testEpaPenetration@Gu@physx@@YA?AW4GjkStatus@12@AEBUGjkConvex@12@0PEBE1EAEAUGjkOutput@12@@Z 00000001800c83d0 f   GuGJKTest.obj
 0001:000c7420       ?testGjk@Gu@physx@@YA?AW4GjkStatus@12@AEBUGjkConvex@12@0AEBT__m128@@1AEAT5@222@Z 00000001800c8420 f   GuGJKTest.obj
 0001:000c7430       ?testGjkPenetration@Gu@physx@@YA?AW4GjkStatus@12@AEBUGjkConvex@12@0AEBT__m128@@1PEAE2AEAEAEAUGjkOutput@12@@Z 00000001800c8430 f   GuGJKTest.obj
 0001:000c7480       ?testGjkRaycast@Gu@physx@@YA_NAEBUGjkConvex@12@0AEBT__m128@@111AEAT4@22M@Z 00000001800c8480 f   GuGJKTest.obj
 0001:000c7490       ??0HeightField@Gu@physx@@QEAA@PEAVMeshFactory@12@@Z 00000001800c8490 f   GuHeightField.obj
 0001:000c74e0       ??0HeightField@Gu@physx@@QEAA@PEAVMeshFactory@12@AEAUHeightFieldData@12@@Z 00000001800c84e0 f   GuHeightField.obj
 0001:000c7590       ??1HeightField@Gu@physx@@UEAA@XZ 00000001800c8590 f   GuHeightField.obj
 0001:000c7610       ??_EHeightField@Gu@physx@@UEAAPEAXI@Z 00000001800c8610 f i GuHeightField.obj
 0001:000c7610       ??_GHeightField@Gu@physx@@UEAAPEAXI@Z 00000001800c8610 f i GuHeightField.obj
 0001:000c76c0       ?computeCellCoordinates@HeightField@Gu@physx@@QEBAIMMAEAM0@Z 00000001800c86c0 f   GuHeightField.obj
 0001:000c77e0       ?createObject@HeightField@Gu@physx@@SAPEAV123@AEAPEAEAEAVPxDeserializationContext@3@@Z 00000001800c87e0 f   GuHeightField.obj
 0001:000c7840       ?exportExtraData@HeightField@Gu@physx@@UEAAXAEAVPxSerializationContext@3@@Z 00000001800c8840 f   GuHeightField.obj
 0001:000c7890       ?getConcreteTypeName@PxHeightField@physx@@UEBAPEBDXZ 00000001800c8890 f i GuHeightField.obj
 0001:000c78a0       ?getConvexEdgeThreshold@HeightField@Gu@physx@@UEBAMXZ 00000001800c88a0 f i GuHeightField.obj
 0001:000c78b0       ?getFlags@HeightField@Gu@physx@@UEBA?AV?$PxFlags@W4Enum@PxHeightFieldFlag@physx@@G@3@XZ 00000001800c88b0 f i GuHeightField.obj
 0001:000c78c0       ?getFormat@HeightField@Gu@physx@@UEBA?AW4Enum@PxHeightFieldFormat@3@XZ 00000001800c88c0 f i GuHeightField.obj
 0001:000c78d0       ?getHeight@HeightField@Gu@physx@@UEBAMMM@Z 00000001800c88d0 f i GuHeightField.obj
 0001:000c79f0       ?getNbColumns@HeightField@Gu@physx@@UEBAIXZ 00000001800c89f0 f i GuHeightField.obj
 0001:000c7a00       ?getNbPrimitives@TetrahedronSourceMesh@Gu@physx@@UEBAIXZ 00000001800c8a00 f i GuBV4.obj
 0001:000c7a00       ?getNbBounds@BVH@Gu@physx@@UEBAIXZ 00000001800c8a00 f i GuBVH.obj
 0001:000c7a00       ?getNbPrimitives@SourceMesh@Gu@physx@@UEBAIXZ 00000001800c8a00 f i GuBV4.obj
 0001:000c7a00       ?getNbRows@HeightField@Gu@physx@@UEBAIXZ 00000001800c8a00 f i GuHeightField.obj
 0001:000c7a10       ?getSample@HeightField@Gu@physx@@UEBAAEBUPxHeightFieldSample@3@II@Z 00000001800c8a10 f i GuHeightField.obj
 0001:000c7a20       ?getSampleStride@HeightField@Gu@physx@@UEBAIXZ 00000001800c8a20 f i GuHeightField.obj
 0001:000c7a30       ?getTimestamp@HeightField@Gu@physx@@UEBAIXZ 00000001800c8a30 f i GuHeightField.obj
 0001:000c7a40       ?getTriangleMaterialIndex@HeightField@Gu@physx@@UEBAGI@Z 00000001800c8a40 f i GuHeightField.obj
 0001:000c7a70       ?getTriangleNormal@HeightField@Gu@physx@@UEBA?AV?$PxVec3T@M@3@I@Z 00000001800c8a70 f i GuHeightField.obj
 0001:000c7b70       ?isKindOf@PxHeightField@physx@@MEBA_NPEBD@Z 00000001800c8b70 f i GuHeightField.obj
 0001:000c7c00       ?load@HeightField@Gu@physx@@QEAA_NAEAVPxInputStream@3@@Z 00000001800c8c00 f   GuHeightField.obj
 0001:000c7f60       ?loadFromDesc@HeightField@Gu@physx@@QEAA_NAEBVPxHeightFieldDesc@3@@Z 00000001800c8f60 f   GuHeightField.obj
 0001:000c8160       ?modifySamples@HeightField@Gu@physx@@UEAA_NHHAEBVPxHeightFieldDesc@3@_N@Z 00000001800c9160 f   GuHeightField.obj
 0001:000c8510       ?onRefCountZero@HeightField@Gu@physx@@UEAAXXZ 00000001800c9510 f   GuHeightField.obj
 0001:000c85e0       ?releaseMemory@HeightField@Gu@physx@@QEAAXXZ 00000001800c95e0 f   GuHeightField.obj
 0001:000c8630       ?save@HeightField@Gu@physx@@QEAA_NAEAVPxOutputStream@3@_N@Z 00000001800c9630 f   GuHeightField.obj
 0001:000c8870       ?saveCells@HeightField@Gu@physx@@UEBAIPEAXI@Z 00000001800c9870 f   GuHeightField.obj
 0001:000c88b0       ?computeLocalBounds@HeightFieldUtil@Gu@physx@@QEBAXAEAVPxBounds3@3@@Z 00000001800c98b0 f   GuHeightFieldUtil.obj
 0001:000c8d70       ?getTriangle@HeightFieldUtil@Gu@physx@@QEBAIAEBV?$PxTransformT@M@3@AEAVPxTriangle@3@PEAI2I_N3@Z 00000001800c9d70 f   GuHeightFieldUtil.obj
 0001:000c9850       ?getTriangleAdjacencyIndices@HeightField@Gu@physx@@QEBAXIIIIAEAI00@Z 00000001800ca850 f i GuHeightFieldUtil.obj
 0001:000c9a30       ?overlapAABBTriangles@HeightFieldUtil@Gu@physx@@QEBAXAEBVPxBounds3@3@AEAVOverlapReport@23@I@Z 00000001800caa30 f   GuHeightFieldUtil.obj
 0001:000c9e90       ??$gjk@U?$RelativeConvex@VTriangleV@Gu@physx@@@Gu@physx@@U?$LocalConvex@VConvexHullV@Gu@physx@@@23@@Gu@physx@@YA?AW4GjkStatus@01@AEBU?$RelativeConvex@VTriangleV@Gu@physx@@@01@AEBU?$LocalConvex@VConvexHullV@Gu@physx@@@01@AEBT__m128@@2AEAT5@333@Z 00000001800cae90 f i GuOverlapTestsHF.obj
 0001:000cadd0       ?GeomOverlapCallback_BoxHeightfield@@YA_NAEBVPxGeometry@physx@@AEBV?$PxTransformT@M@2@01PEAUTriggerCache@Gu@2@PEAUPxQueryThreadContext@2@@Z 00000001800cbdd0 f   GuOverlapTestsHF.obj
 0001:000cb330       ?GeomOverlapCallback_CapsuleHeightfield@@YA_NAEBVPxGeometry@physx@@AEBV?$PxTransformT@M@2@01PEAUTriggerCache@Gu@2@PEAUPxQueryThreadContext@2@@Z 00000001800cc330 f   GuOverlapTestsHF.obj
 0001:000cb930       ?GeomOverlapCallback_ConvexHeightfield@@YA_NAEBVPxGeometry@physx@@AEBV?$PxTransformT@M@2@01PEAUTriggerCache@Gu@2@PEAUPxQueryThreadContext@2@@Z 00000001800cc930 f   GuOverlapTestsHF.obj
 0001:000cc390       ?GeomOverlapCallback_SphereHeightfield@@YA_NAEBVPxGeometry@physx@@AEBV?$PxTransformT@M@2@01PEAUTriggerCache@Gu@2@PEAUPxQueryThreadContext@2@@Z 00000001800cd390 f   GuOverlapTestsHF.obj
 0001:000ccf50       ??$gjkRaycast@U?$LocalConvex@VTriangleV@Gu@physx@@@Gu@physx@@U?$LocalConvex@VConvexHullV@Gu@physx@@@23@@Gu@physx@@YA_NAEBU?$LocalConvex@VTriangleV@Gu@physx@@@01@AEBU?$LocalConvex@VConvexHullV@Gu@physx@@@01@AEBT__m128@@222AEAT4@33M@Z 00000001800cdf50 f i GuSweepsHF.obj
 0001:000cdd10       ??$traceSegment@VCapsuleTraceSegmentReport@@$0A@$00@HeightFieldTraceUtil@Gu@physx@@QEBAXAEBV?$PxVec3T@M@2@0MPEAVCapsuleTraceSegmentReport@@AEBVPxBounds3@2@_NPEBV32@@Z 00000001800ced10 f i GuSweepsHF.obj
 0001:000cdd10       ??$traceSegment@VConvexTraceSegmentReport@@$0A@$00@HeightFieldTraceUtil@Gu@physx@@QEBAXAEBV?$PxVec3T@M@2@0MPEAVConvexTraceSegmentReport@@AEBVPxBounds3@2@_NPEBV32@@Z 00000001800ced10 f i GuSweepsHF.obj
 0001:000cdd10       ??$traceSegment@VBoxTraceSegmentReport@@$0A@$00@HeightFieldTraceUtil@Gu@physx@@QEBAXAEBV?$PxVec3T@M@2@0MPEAVBoxTraceSegmentReport@@AEBVPxBounds3@2@_NPEBV32@@Z 00000001800ced10 f i GuSweepsHF.obj
 0001:000ce6e0       ??0ConvexTraceSegmentReport@@QEAA@AEBVHeightFieldUtil@Gu@physx@@AEBUConvexHullData@23@AEBVPxMeshScale@3@AEBV?$PxTransformT@M@3@3AEBV?$PxVec3T@M@3@MV?$PxFlags@W4Enum@PxHitFlag@physx@@G@3@M@Z 00000001800cf6e0 f i GuSweepsHF.obj
 0001:000cf050       ??_GBoxTraceSegmentReport@@UEAAPEAXI@Z 00000001800d0050 f i GuSweepsHF.obj
 0001:000cf050       ??_EBoxTraceSegmentReport@@UEAAPEAXI@Z 00000001800d0050 f i GuSweepsHF.obj
 0001:000cf080       ??_ECapsuleTraceSegmentReport@@UEAAPEAXI@Z 00000001800d0080 f i GuSweepsHF.obj
 0001:000cf080       ??_GCapsuleTraceSegmentReport@@UEAAPEAXI@Z 00000001800d0080 f i GuSweepsHF.obj
 0001:000cf0b0       ??_GConvexTraceSegmentReport@@UEAAPEAXI@Z 00000001800d00b0 f i GuSweepsHF.obj
 0001:000cf0b0       ??_EConvexTraceSegmentReport@@UEAAPEAXI@Z 00000001800d00b0 f i GuSweepsHF.obj
 0001:000cf0e0       ??_EHeightFieldTraceSegmentReport@@UEAAPEAXI@Z 00000001800d00e0 f i GuSweepsHF.obj
 0001:000cf0e0       ??_GHeightFieldTraceSegmentReport@@UEAAPEAXI@Z 00000001800d00e0 f i GuSweepsHF.obj
 0001:000cf110       ?finalizeHit@ConvexTraceSegmentReport@@QEAA_NAEAUPxGeomSweepHit@physx@@AEBVPxHeightFieldGeometry@3@AEBV?$PxTransformT@M@3@AEBVPxConvexMeshGeometry@3@2AEBV?$PxVec3T@M@3@M@Z 00000001800d0110 f i GuSweepsHF.obj
 0001:000cf340       ?onEvent@BoxTraceSegmentReport@@UEAA_NIPEBI@Z 00000001800d0340 f i GuSweepsHF.obj
 0001:000cf790       ?onEvent@CapsuleTraceSegmentReport@@UEAA_NIPEBI@Z 00000001800d0790 f i GuSweepsHF.obj
 0001:000cf9a0       ?onEvent@ConvexTraceSegmentReport@@UEAA_NIPEBI@Z 00000001800d09a0 f i GuSweepsHF.obj
 0001:000cff60       ?prepare@?$OverlapTraceSegment@VCapsuleTraceSegmentReport@@@HeightFieldTraceUtil@Gu@physx@@QEAAXAEBV?$PxVec3T@M@4@00AEAM1@Z 00000001800d0f60 f i GuSweepsHF.obj
 0001:000cff60       ?prepare@?$OverlapTraceSegment@VBoxTraceSegmentReport@@@HeightFieldTraceUtil@Gu@physx@@QEAAXAEBV?$PxVec3T@M@4@00AEAM1@Z 00000001800d0f60 f i GuSweepsHF.obj
 0001:000cff60       ?prepare@?$OverlapTraceSegment@VConvexTraceSegmentReport@@@HeightFieldTraceUtil@Gu@physx@@QEAAXAEBV?$PxVec3T@M@4@00AEAM1@Z 00000001800d0f60 f i GuSweepsHF.obj
 0001:000d0200       ?sweepBox_HeightFieldGeom@@YA_NAEBVPxGeometry@physx@@AEBV?$PxTransformT@M@2@AEBVPxBoxGeometry@2@1AEBVBox@Gu@2@AEBV?$PxVec3T@M@2@MAEAUPxGeomSweepHit@2@V?$PxFlags@W4Enum@PxHitFlag@physx@@G@2@MPEAUPxQueryThreadContext@2@@Z 00000001800d1200 f   GuSweepsHF.obj
 0001:000d1040       ?sweepCapsule_HeightFieldGeom@@YA_NAEBVPxGeometry@physx@@AEBV?$PxTransformT@M@2@AEBVPxCapsuleGeometry@2@1AEBVCapsule@Gu@2@AEBV?$PxVec3T@M@2@MAEAUPxGeomSweepHit@2@V?$PxFlags@W4Enum@PxHitFlag@physx@@G@2@MPEAUPxQueryThreadContext@2@@Z 00000001800d2040 f   GuSweepsHF.obj
 0001:000d1990       ?sweepConvex_HeightFieldGeom@@YA_NAEBVPxGeometry@physx@@AEBV?$PxTransformT@M@2@AEBVPxConvexMeshGeometry@2@1AEBV?$PxVec3T@M@2@MAEAUPxGeomSweepHit@2@V?$PxFlags@W4Enum@PxHitFlag@physx@@G@2@MPEAUPxQueryThreadContext@2@@Z 00000001800d2990 f   GuSweepsHF.obj
 0001:000d2350       ?testVertexIndex@?$OverlapTraceSegment@VBoxTraceSegmentReport@@@HeightFieldTraceUtil@Gu@physx@@QEAA_NI@Z 00000001800d3350 f i GuSweepsHF.obj
 0001:000d2350       ?testVertexIndex@?$OverlapTraceSegment@VConvexTraceSegmentReport@@@HeightFieldTraceUtil@Gu@physx@@QEAA_NI@Z 00000001800d3350 f i GuSweepsHF.obj
 0001:000d2350       ?testVertexIndex@?$OverlapTraceSegment@VCapsuleTraceSegmentReport@@@HeightFieldTraceUtil@Gu@physx@@QEAA_NI@Z 00000001800d3350 f i GuSweepsHF.obj
 0001:000d24a0       ?transformFast@PxBounds3@physx@@SA?AV12@AEBV?$PxTransformT@M@2@AEBV12@@Z 00000001800d34a0 f i GuSweepsHF.obj
 0001:000d2880       ?intersectOBBOBB@Gu@physx@@YA_NAEBV?$PxVec3T@M@2@0AEBV?$PxMat33T@M@2@001_N@Z 00000001800d3880 f   GuIntersectionBoxBox.obj
 0001:000d2ee0       ?intersectCapsuleTriangle@Gu@physx@@YA_NAEBV?$PxVec3T@M@2@000AEBVCapsule@12@AEBUCapsuleTriangleOverlapData@12@@Z 00000001800d3ee0 f   GuIntersectionCapsuleTriangle.obj
 0001:000d3a70       ?intersectEdgeEdge@Gu@physx@@YA_NAEBV?$PxVec3T@M@2@0000AEAMAEAV32@@Z 00000001800d4a70 f   GuIntersectionEdgeEdge.obj
 0001:000d3da0       ?intersectRayAABB2@Gu@physx@@YA_NAEBT__m128@@0000AEAT3@1@Z 00000001800d4da0 f   GuIntersectionRayBox.obj
 0001:000d3e60       ?intersectRayAABB2@Gu@physx@@YA_NAEBV?$PxVec3T@M@2@000MAEAM1@Z 00000001800d4e60 f   GuIntersectionRayBox.obj
 0001:000d4010       ?intersectRayAABB@Gu@physx@@YAHAEBV?$PxVec3T@M@2@000AEAM1@Z 00000001800d5010 f   GuIntersectionRayBox.obj
 0001:000d4130       ?rayAABBIntersect2@Gu@physx@@YAIAEBV?$PxVec3T@M@2@000AEAV32@AEAM@Z 00000001800d5130 f   GuIntersectionRayBox.obj
 0001:000d4340       ?intersectRayCapsuleInternal@Gu@physx@@YAIAEBV?$PxVec3T@M@2@000MQEAM@Z 00000001800d5340 f   GuIntersectionRayCapsule.obj
 0001:000d4810       ?intersectRaySphere@Gu@physx@@YA_NAEBV?$PxVec3T@M@2@0M0MAEAMPEAV32@@Z 00000001800d5810 f   GuIntersectionRaySphere.obj
 0001:000d4900       ?intersectRaySphereBasic@Gu@physx@@YA_NAEBV?$PxVec3T@M@2@0M0MAEAMPEAV32@@Z 00000001800d5900 f   GuIntersectionRaySphere.obj
 0001:000d4a60       ?intersectSphereBox@Gu@physx@@YA_NAEBVSphere@12@AEBVBox@12@@Z 00000001800d5a60 f   GuIntersectionSphereBox.obj
 0001:000d4c90       ?intersectTetrahedronBox@Gu@physx@@YA_NAEBV?$PxVec3T@M@2@000AEBVPxBounds3@2@@Z 00000001800d5c90 f   GuIntersectionTetrahedronBox.obj
 0001:000d5070       ?intersectTriangleBox@Gu@physx@@YAHAEBVBoxPadded@12@AEBV?$PxVec3T@M@2@11@Z 00000001800d6070 f   GuIntersectionTriangleBox.obj
 0001:000d5640       ?intersectTriangleBoxBV4@@YAHAEBV?$PxVec3T@M@physx@@00AEBV?$PxMat33T@M@2@00@Z 00000001800d6640 f   GuIntersectionTriangleBox.obj
 0001:000d5a80       ?intersectTriangleBox_ReferenceCode@Gu@physx@@YAHAEBV?$PxVec3T@M@2@0000@Z 00000001800d6a80 f   GuIntersectionTriangleBox.obj
 0001:000d62b0       ?intersectTriangleBox_Unsafe@Gu@physx@@YAHAEBV?$PxVec3T@M@2@0000@Z 00000001800d72b0 f   GuIntersectionTriangleBox.obj
 0001:000d6670       ?intersectTriangleTriangle@Gu@physx@@YA_NAEBV?$PxVec3T@M@2@00000_N@Z 00000001800d7670 f   GuIntersectionTriangleTriangle.obj
 0001:000d7ab0       ??0BV4Tree@Gu@physx@@QEAA@W4PxEMPTY@2@@Z 00000001800d8ab0 f   GuBV4.obj
 0001:000d7ac0       ??0BV4Tree@Gu@physx@@QEAA@XZ 00000001800d8ac0 f   GuBV4.obj
 0001:000d7af0       ??0SourceMesh@Gu@physx@@QEAA@XZ 00000001800d8af0 f   GuBV4.obj
 0001:000d7b20       ??0TetrahedronSourceMesh@Gu@physx@@QEAA@XZ 00000001800d8b20 f   GuBV4.obj
 0001:000d7b50       ??1BV4Tree@Gu@physx@@QEAA@XZ 00000001800d8b50 f   GuBV4.obj
 0001:000d7bb0       ??1SourceMesh@Gu@physx@@UEAA@XZ 00000001800d8bb0 f   GuBV4.obj
 0001:000d7bb0       ??1TetrahedronSourceMesh@Gu@physx@@UEAA@XZ 00000001800d8bb0 f   GuBV4.obj
 0001:000d7c00       ??4BV4Tree@Gu@physx@@QEAAXAEAV012@@Z 00000001800d8c00 f   GuBV4.obj
 0001:000d7c90       ??4SourceMesh@Gu@physx@@QEAAXAEAV012@@Z 00000001800d8c90 f   GuBV4.obj
 0001:000d7ce0       ??_ESourceMesh@Gu@physx@@UEAAPEAXI@Z 00000001800d8ce0 f i GuBV4.obj
 0001:000d7ce0       ??_ETetrahedronSourceMesh@Gu@physx@@UEAAPEAXI@Z 00000001800d8ce0 f i GuBV4.obj
 0001:000d7ce0       ??_GSourceMesh@Gu@physx@@UEAAPEAXI@Z 00000001800d8ce0 f i GuBV4.obj
 0001:000d7ce0       ??_GTetrahedronSourceMesh@Gu@physx@@UEAAPEAXI@Z 00000001800d8ce0 f i GuBV4.obj
 0001:000d7d80       ??_ESourceMeshBase@Gu@physx@@UEAAPEAXI@Z 00000001800d8d80 f i GuBV4.obj
 0001:000d7d80       ??_GSourceMeshBase@Gu@physx@@UEAAPEAXI@Z 00000001800d8d80 f i GuBV4.obj
 0001:000d7e20       ?exportExtraData@BV4Tree@Gu@physx@@QEAAXAEAVPxSerializationContext@3@@Z 00000001800d8e20 f   GuBV4.obj
 0001:000d7e80       ?getPrimitiveBox@SourceMesh@Gu@physx@@UEAAXIAEAT__m128@@0@Z 00000001800d8e80 f   GuBV4.obj
 0001:000d7f20       ?getPrimitiveBox@TetrahedronSourceMesh@Gu@physx@@UEAAXIAEAT__m128@@0@Z 00000001800d8f20 f   GuBV4.obj
 0001:000d7fe0       ?importExtraData@BV4Tree@Gu@physx@@QEAAXAEAVPxDeserializationContext@3@@Z 00000001800d8fe0 f   GuBV4.obj
 0001:000d8020       ?init@BV32Tree@Gu@physx@@QEAA_NPEAVSourceMeshBase@23@AEBVPxBounds3@3@@Z 00000001800d9020 f   GuBV32.obj
 0001:000d8020       ?init@BV4Tree@Gu@physx@@QEAA_NPEAVSourceMeshBase@23@AEBVPxBounds3@3@@Z 00000001800d9020 f   GuBV4.obj
 0001:000d80c0       ?load@BV4Tree@Gu@physx@@QEAA_NAEAVPxInputStream@3@_N@Z 00000001800d90c0 f   GuBV4.obj
 0001:000d8300       ?refit@BV4Tree@Gu@physx@@QEAA_NAEAVPxBounds3@3@M@Z 00000001800d9300 f   GuBV4.obj
 0001:000d8a50       ?refit@SourceMesh@Gu@physx@@UEAAXIAEAVPxBounds3@3@@Z 00000001800d9a50 f   GuBV4.obj
 0001:000d8bf0       ?refit@TetrahedronSourceMesh@Gu@physx@@UEAAXIAEAVPxBounds3@3@@Z 00000001800d9bf0 f   GuBV4.obj
 0001:000d8e10       ?remapTopology@SourceMesh@Gu@physx@@UEAAXPEBI@Z 00000001800d9e10 f   GuBV4.obj
 0001:000d90b0       ?remapTopology@TetrahedronSourceMesh@Gu@physx@@UEAAXPEBI@Z 00000001800da0b0 f   GuBV4.obj
 0001:000d9360       ??0BV4_AABBTree@Gu@physx@@QEAA@XZ 00000001800da360 f   GuBV4Build.obj
 0001:000d9370       ??0BVData@@QEAA@XZ         00000001800da370 f   GuBV4Build.obj
 0001:000d93a0       ??0BuildStats@Gu@physx@@QEAA@XZ 00000001800da3a0 f i GuBV4Build.obj
 0001:000d93b0       ??1BV4_AABBTree@Gu@physx@@QEAA@XZ 00000001800da3b0 f   GuBV4Build.obj
 0001:000d93c0       ??4BuildStats@Gu@physx@@QEAAAEAU012@$$QEAU012@@Z 00000001800da3c0 f i GuBV4Build.obj
 0001:000d93d0       ??4BuildStats@Gu@physx@@QEAAAEAU012@AEBU012@@Z 00000001800da3d0 f i GuBV4Build.obj
 0001:000d93e0       ?BuildBV4Ex@Gu@physx@@YA_NAEAVBV4Tree@12@AEAVSourceMeshBase@12@MI_NW4BV4_BuildStrategy@12@@Z 00000001800da3e0 f   GuBV4Build.obj
 0001:000da320       ?allocateNode@BV4BuildParams@@QEAAPEAUBV4Node@@XZ 00000001800db320 f   GuBV4Build.obj
 0001:000da790       ?buildFromMesh@BV4_AABBTree@Gu@physx@@QEAA_NAEAVSourceMeshBase@23@IW4BV4_BuildStrategy@23@@Z 00000001800db790 f   GuBV4Build.obj
 0001:000db520       ?getNbActiveObjects@PruningPool@Gu@physx@@QEBAIXZ 00000001800dc520 f i GuIncrementalAABBPrunerCore.obj
 0001:000db520       ?getCount@BuildStats@Gu@physx@@QEBAIXZ 00000001800dc520 f i GuBV4Build.obj
 0001:000db600       ?increaseCount@BuildStats@Gu@physx@@QEAAXI@Z 00000001800dc600 f i GuBV4Build.obj
 0001:000dc090       ?release@BV4_AABBTree@Gu@physx@@QEAAXXZ 00000001800dd090 f   GuBV4Build.obj
 0001:000dc140       ?releaseNodes@BV4BuildParams@@QEAAXXZ 00000001800dd140 f   GuBV4Build.obj
 0001:000dc1b0       ?reset@BuildStats@Gu@physx@@QEAAXXZ 00000001800dd1b0 f i GuBV4Build.obj
 0001:000dc1c0       ?setCount@BuildStats@Gu@physx@@QEAAXI@Z 00000001800dd1c0 f i GuBV4Build.obj
 0001:000dc840       ?walk@BV4_AABBTree@Gu@physx@@QEBAIP6A_NPEBVAABBTreeNode@23@IPEAX@Z1@Z 00000001800dd840 f   GuBV4Build.obj
 0001:000dc900       ?walkDistance@BV4_AABBTree@Gu@physx@@QEBAIP6A_NPEBVAABBTreeNode@23@IPEAX@ZP6A_N01@Z1@Z 00000001800dd900 f   GuBV4Build.obj
 0001:000e0960       ?GenericSweep_AABB_CB@@YAXAEBVBox@Gu@physx@@AEBV?$PxVec3T@M@3@MAEBVBV4Tree@23@P6A_NPEAX111IAEAM@Z3I@Z 00000001800e1960 f   GuBV4_AABBSweep.obj
 0001:000e0ac0       ?Sweep_AABB_BV4@@YAHAEBVBox@Gu@physx@@AEBV?$PxVec3T@M@3@MAEBVBV4Tree@23@PEIAVSweepHit@23@I@Z 00000001800e1ac0 f   GuBV4_AABBSweep.obj
 0001:000e9640       ?BV4_OverlapBoxAll@@YAIAEBVBox@Gu@physx@@AEBVBV4Tree@23@PEIBV?$PxMat44T@M@3@PEAIIAEA_N@Z 00000001800ea640 f   GuBV4_BoxOverlap.obj
 0001:000e9e60       ?BV4_OverlapBoxAny@@YAHAEBVBox@Gu@physx@@AEBVBV4Tree@23@PEIBV?$PxMat44T@M@3@@Z 00000001800eae60 f   GuBV4_BoxOverlap.obj
 0001:000ea620       ?BV4_OverlapBoxCB@@YAXAEBVBox@Gu@physx@@AEBVBV4Tree@23@P6A_NPEAXAEBV?$PxVec3T@M@3@333IPEBI@Z2@Z 00000001800eb620 f   GuBV4_BoxOverlap.obj
 0001:000eace0       ?BV4_OverlapBoxCB@@YAXAEBVBox@Gu@physx@@AEBVBV4Tree@23@P6A_NPEAXAEBV?$PxVec3T@M@3@33IPEBI@Z2@Z 00000001800ebce0 f   GuBV4_BoxOverlap.obj
 0001:000eb190       ?BV4_OverlapCapsuleAll@@YAIAEBVCapsule@Gu@physx@@AEBVBV4Tree@23@PEIBV?$PxMat44T@M@3@PEAIIAEA_N@Z 00000001800ec190 f   GuBV4_BoxOverlap.obj
 0001:000eb8b0       ?BV4_OverlapCapsuleAny@@YAHAEBVCapsule@Gu@physx@@AEBVBV4Tree@23@PEIBV?$PxMat44T@M@3@@Z 00000001800ec8b0 f   GuBV4_BoxOverlap.obj
 0001:000ee690       ?BV4_CapsuleSweepSingle@@YAHAEBVCapsule@Gu@physx@@AEBV?$PxVec3T@M@3@MAEBVBV4Tree@23@PEIAVSweepHit@23@I@Z 00000001800ef690 f   GuBV4_CapsuleSweep.obj
 0001:000f27b0       ?BV4_CapsuleSweepSingleAA@@YAHAEBVCapsule@Gu@physx@@AEBV?$PxVec3T@M@3@MAEBVBV4Tree@23@PEIAVSweepHit@23@I@Z 00000001800f37b0 f   GuBV4_CapsuleSweepAA.obj
 0001:00103bb0       ?BV4_OverlapMeshVsMesh@@YA_NAEAV?$PxReportCallback@UPxGeomIndexPair@physx@@@physx@@AEBVBV4Tree@Gu@2@1PEBV?$PxMat44T@M@2@2AEBV?$PxTransformT@M@2@3AEBVPxMeshScale@2@4V?$PxFlags@W4Enum@PxMeshMeshQueryFlag@physx@@I@2@M@Z 0000000180104bb0 f   GuBV4_MeshMeshOverlap.obj
 0001:00103c30       ?BV4_OverlapMeshVsMeshDistance@@YA_NAEAV?$PxReportCallback@UPxGeomIndexClosePair@physx@@@physx@@AEBVBV4Tree@Gu@2@1PEBV?$PxMat44T@M@2@2AEBV?$PxTransformT@M@2@3AEBVPxMeshScale@2@4V?$PxFlags@W4Enum@PxMeshMeshQueryFlag@physx@@I@2@M@Z 0000000180104c30 f   GuBV4_MeshMeshOverlap.obj
 0001:0010cd30       ??D?$PxMat33T@M@physx@@QEBA?BV?$PxVec3T@M@1@AEBV21@@Z 000000018010dd30 f i GuBV4_OBBSweep.obj
 0001:0010cdc0       ?BV4_BoxSweepSingle@@YAHAEBVBox@Gu@physx@@AEBV?$PxVec3T@M@3@MAEBVBV4Tree@23@PEIBV?$PxMat44T@M@3@PEIAVSweepHit@23@I@Z 000000018010ddc0 f   GuBV4_OBBSweep.obj
 0001:0010d4f0       ?BV4_GenericSweepCB@@YAXAEBVBox@Gu@physx@@AEBV?$PxVec3T@M@3@MAEBVBV4Tree@23@P6A_NPEAX111IAEAM@Z3_N@Z 000000018010e4f0 f   GuBV4_OBBSweep.obj
 0001:0010d710       ?Sweep_OBB_BV4@@YAHAEBVBox@Gu@physx@@AEBV?$PxVec3T@M@3@MAEBVBV4Tree@23@PEIAVSweepHit@23@I@Z 000000018010e710 f   GuBV4_OBBSweep.obj
 0001:00110270       ?BV4_RaycastCB@@YAXAEBV?$PxVec3T@M@physx@@0AEBVBV4Tree@Gu@2@PEIBV?$PxMat44T@M@2@MMIP6A?AW4HitCode@42@PEAX000IMMM@Z3@Z 0000000180111270 f   GuBV4_Raycast.obj
 0001:001106b0       ?BV4_RaycastSingle@@YAHAEBV?$PxVec3T@M@physx@@0AEBVBV4Tree@Gu@2@PEIBV?$PxMat44T@M@2@PEIAUPxGeomRaycastHit@2@MMIV?$PxFlags@W4Enum@PxHitFlag@physx@@G@2@@Z 00000001801116b0 f   GuBV4_Raycast.obj
 0001:00112be0       ?BV4_OverlapSphereAll@@YAIAEBVSphere@Gu@physx@@AEBVBV4Tree@23@PEIBV?$PxMat44T@M@3@PEAIIAEA_N@Z 0000000180113be0 f   GuBV4_SphereOverlap.obj
 0001:00112f00       ?BV4_OverlapSphereAny@@YAHAEBVSphere@Gu@physx@@AEBVBV4Tree@23@PEIBV?$PxMat44T@M@3@@Z 0000000180113f00 f   GuBV4_SphereOverlap.obj
 0001:001131e0       ?BV4_PointDistance@@YAXAEBV?$PxVec3T@M@physx@@AEBVBV4Tree@Gu@2@MAEAIAEAMAEAV12@@Z 00000001801141e0 f   GuBV4_SphereOverlap.obj
 0001:00119b90       ?BV4_GenericSweepCB_Old@@YAXAEBV?$PxVec3T@M@physx@@00MAEBVBV4Tree@Gu@2@PEIBV?$PxMat44T@M@2@P6A_NPEAX000IAEAM@Z3@Z 000000018011ab90 f   GuBV4_SphereSweep.obj
 0001:00119fa0       ?BV4_SphereSweepSingle@@YAHAEBVSphere@Gu@physx@@AEBV?$PxVec3T@M@3@MAEBVBV4Tree@23@PEIBV?$PxMat44T@M@3@PEIAVSweepHit@23@I@Z 000000018011afa0 f   GuBV4_SphereSweep.obj
 0001:0011b2b0       ?computeSweepData@physx@@YAMAEBVPxTriangleMeshGeometry@1@AEAV?$PxVec3T@M@1@11M@Z 000000018011c2b0 f i GuMidphaseBV4.obj
 0001:0011b640       ?distanceMeshVsMesh_BV4@Gu@physx@@YA_NAEAV?$PxReportCallback@UPxGeomIndexClosePair@physx@@@2@AEBVTriangleMesh@12@AEBV?$PxTransformT@M@2@AEBVPxMeshScale@2@123V?$PxFlags@W4Enum@PxMeshMeshQueryFlag@physx@@I@2@M@Z 000000018011c640 f   GuMidphaseBV4.obj
 0001:0011cfd0       ?intersectBoxVsMesh_BV4@Gu@physx@@YA_NAEBVBox@12@AEBVTriangleMesh@12@AEBV?$PxTransformT@M@2@AEBVPxMeshScale@2@PEAULimitedResults@12@@Z 000000018011dfd0 f   GuMidphaseBV4.obj
 0001:0011da70       ?intersectCapsuleVsMesh_BV4@Gu@physx@@YA_NAEBVCapsule@12@AEBVTriangleMesh@12@AEBV?$PxTransformT@M@2@AEBVPxMeshScale@2@PEAULimitedResults@12@@Z 000000018011ea70 f   GuMidphaseBV4.obj
 0001:0011e280       ?intersectMeshVsMesh_BV4@Gu@physx@@YA_NAEAV?$PxReportCallback@UPxGeomIndexPair@physx@@@2@AEBVTriangleMesh@12@AEBV?$PxTransformT@M@2@AEBVPxMeshScale@2@123V?$PxFlags@W4Enum@PxMeshMeshQueryFlag@physx@@I@2@M@Z 000000018011f280 f   GuMidphaseBV4.obj
 0001:0011eb60       ?intersectOBB_BV4@Gu@physx@@YAXPEBVTetrahedronMesh@12@AEBVBox@12@AEAU?$TetMeshHitCallback@UPxGeomRaycastHit@physx@@@12@@Z 000000018011fb60 f   GuMidphaseBV4.obj
 0001:0011eb80       ?intersectOBB_BV4@Gu@physx@@YAXPEBVTriangleMesh@12@AEBVBox@12@AEAU?$MeshHitCallback@UPxGeomRaycastHit@physx@@@12@_N3@Z 000000018011fb80 f   GuMidphaseBV4.obj
 0001:0011eba0       ?intersectSphereVsMesh_BV4@Gu@physx@@YA_NAEBVSphere@12@AEBVTriangleMesh@12@AEBV?$PxTransformT@M@2@AEBVPxMeshScale@2@PEAULimitedResults@12@@Z 000000018011fba0 f   GuMidphaseBV4.obj
 0001:0011f2a0       ?pointMeshDistance_BV4@Gu@physx@@YAXPEBVTriangleMesh@12@AEBVPxTriangleMeshGeometry@2@AEBV?$PxTransformT@M@2@AEBV?$PxVec3T@M@2@MAEAIAEAMAEAV62@@Z 00000001801202a0 f   GuMidphaseBV4.obj
 0001:0011f950       ?raycast_triangleMesh_BV4@Gu@physx@@YAIPEBVTriangleMesh@12@AEBVPxTriangleMeshGeometry@2@AEBV?$PxTransformT@M@2@AEBV?$PxVec3T@M@2@3MV?$PxFlags@W4Enum@PxHitFlag@physx@@G@2@IPEIAUPxGeomRaycastHit@2@I@Z 0000000180120950 f   GuMidphaseBV4.obj
 0001:00120760       ?sweepBox_MeshGeom_BV4@Gu@physx@@YA_NPEBVTriangleMesh@12@AEBVPxTriangleMeshGeometry@2@AEBV?$PxTransformT@M@2@AEBVBox@12@AEBV?$PxVec3T@M@2@MAEAUPxGeomSweepHit@2@V?$PxFlags@W4Enum@PxHitFlag@physx@@G@2@M@Z 0000000180121760 f   GuMidphaseBV4.obj
 0001:00121ec0       ?sweepCapsule_MeshGeom_BV4@Gu@physx@@YA_NPEBVTriangleMesh@12@AEBVPxTriangleMeshGeometry@2@AEBV?$PxTransformT@M@2@AEBVCapsule@12@AEBV?$PxVec3T@M@2@MAEAUPxGeomSweepHit@2@V?$PxFlags@W4Enum@PxHitFlag@physx@@G@2@M@Z 0000000180122ec0 f   GuMidphaseBV4.obj
 0001:001229c0       ?sweepConvex_MeshGeom_BV4@Gu@physx@@YAXPEBVTriangleMesh@12@AEBVBox@12@AEBV?$PxVec3T@M@2@MAEAUSweepConvexMeshHitCallback@12@_N@Z 00000001801239c0 f   GuMidphaseBV4.obj
 0001:00122a00       ?transform@PxMeshScale@physx@@QEBA?AV?$PxVec3T@M@2@AEBV32@@Z 0000000180123a00 f i GuMidphaseBV4.obj
 0001:00122c40       ?findOverlapHeightField@PxMeshQuery@physx@@SAIAEBVPxGeometry@2@AEBV?$PxTransformT@M@2@AEBVPxHeightFieldGeometry@2@1PEAIIIAEA_NV?$PxFlags@W4Enum@PxGeometryQueryFlag@physx@@I@2@@Z 0000000180123c40 f   GuMeshQuery.obj
 0001:001233a0       ?findOverlapTriangleMesh@PxMeshQuery@physx@@SAIAEBVPxGeometry@2@AEBV?$PxTransformT@M@2@AEBVPxTriangleMeshGeometry@2@1PEAIIIAEA_NV?$PxFlags@W4Enum@PxGeometryQueryFlag@physx@@I@2@@Z 00000001801243a0 f   GuMeshQuery.obj
 0001:001236e0       ?findOverlapTriangleMesh@PxMeshQuery@physx@@SA_NAEAV?$PxReportCallback@UPxGeomIndexClosePair@physx@@@2@AEBVPxTriangleMeshGeometry@2@AEBV?$PxTransformT@M@2@12V?$PxFlags@W4Enum@PxGeometryQueryFlag@physx@@I@2@V?$PxFlags@W4Enum@PxMeshMeshQueryFlag@physx@@I@2@M@Z 00000001801246e0 f   GuMeshQuery.obj
 0001:00123810       ?findOverlapTriangleMesh@PxMeshQuery@physx@@SA_NAEAV?$PxReportCallback@UPxGeomIndexPair@physx@@@2@AEBVPxTriangleMeshGeometry@2@AEBV?$PxTransformT@M@2@12V?$PxFlags@W4Enum@PxGeometryQueryFlag@physx@@I@2@V?$PxFlags@W4Enum@PxMeshMeshQueryFlag@physx@@I@2@M@Z 0000000180124810 f   GuMeshQuery.obj
 0001:00123940       ?getTriangle@PxMeshQuery@physx@@SAXAEBVPxHeightFieldGeometry@2@AEBV?$PxTransformT@M@2@IAEAVPxTriangle@2@PEAI3@Z 0000000180124940 f   GuMeshQuery.obj
 0001:001239c0       ?getTriangle@PxMeshQuery@physx@@SAXAEBVPxTriangleMeshGeometry@2@AEBV?$PxTransformT@M@2@IAEAVPxTriangle@2@PEAI3@Z 00000001801249c0 f   GuMeshQuery.obj
 0001:00123eb0       ?sweep@PxMeshQuery@physx@@SA_NAEBV?$PxVec3T@M@2@MAEBVPxGeometry@2@AEBV?$PxTransformT@M@2@IPEBVPxTriangle@2@AEAUPxGeomSweepHit@2@V?$PxFlags@W4Enum@PxHitFlag@physx@@G@2@PEBIM_NV?$PxFlags@W4Enum@PxGeometryQueryFlag@physx@@I@2@@Z 0000000180124eb0 f   GuMeshQuery.obj
 0001:00124130       ??$collide@$00$00@MeshRayCollider@@SAXAEBV?$PxVec3T@M@physx@@0M_NPEBVRTreeTriangleMesh@Gu@2@AEAU?$MeshHitCallback@UPxGeomRaycastHit@physx@@@42@PEBV12@@Z 0000000180125130 f i GuMidphaseRTree.obj
 0001:001244a0       ??$collide@$00$0A@@MeshRayCollider@@SAXAEBV?$PxVec3T@M@physx@@0M_NPEBVRTreeTriangleMesh@Gu@2@AEAU?$MeshHitCallback@UPxGeomRaycastHit@physx@@@42@PEBV12@@Z 00000001801254a0 f i GuMidphaseRTree.obj
 0001:001246e0       ??$collide@$0A@$00@MeshRayCollider@@SAXAEBV?$PxVec3T@M@physx@@0M_NPEBVRTreeTriangleMesh@Gu@2@AEAU?$MeshHitCallback@UPxGeomRaycastHit@physx@@@42@PEBV12@@Z 00000001801256e0 f i GuMidphaseRTree.obj
 0001:00126a30       ??0?$RayRTreeCallback@$00$0A@@@QEAA@MAEAU?$MeshHitCallback@UPxGeomRaycastHit@physx@@@Gu@physx@@HPEBXPEBV?$PxVec3T@M@3@AEBV43@3M_N2@Z 0000000180127a30 f i GuMidphaseRTree.obj
 0001:00126b50       ??1?$RayRTreeCallback@$00$00@@UEAA@XZ 0000000180127b50 f i GuMidphaseRTree.obj
 0001:00126be0       ??1?$RayRTreeCallback@$0A@$0A@@@UEAA@XZ 0000000180127be0 f i GuMidphaseRTree.obj
 0001:00126be0       ??1?$RayRTreeCallback@$00$0A@@@UEAA@XZ 0000000180127be0 f i GuMidphaseRTree.obj
 0001:00126c70       ??1?$RayRTreeCallback@$0A@$00@@UEAA@XZ 0000000180127c70 f i GuMidphaseRTree.obj
 0001:00126cf8       ??_E?$RayRTreeCallback@$00$00@@W7EAAPEAXI@Z 0000000180127cf8 f i GuMidphaseRTree.obj
 0001:00126d04       ??_E?$RayRTreeCallback@$00$0A@@@W7EAAPEAXI@Z 0000000180127d04 f i GuMidphaseRTree.obj
 0001:00126d04       ??_E?$RayRTreeCallback@$0A@$0A@@@W7EAAPEAXI@Z 0000000180127d04 f i GuMidphaseRTree.obj
 0001:00126d10       ??_E?$RayRTreeCallback@$0A@$00@@W7EAAPEAXI@Z 0000000180127d10 f i GuMidphaseRTree.obj
 0001:00126d80       ??_G?$RayRTreeCallback@$00$00@@UEAAPEAXI@Z 0000000180127d80 f i GuMidphaseRTree.obj
 0001:00126d80       ??_E?$RayRTreeCallback@$00$00@@UEAAPEAXI@Z 0000000180127d80 f i GuMidphaseRTree.obj
 0001:00126dc0       ??_G?$RayRTreeCallback@$00$0A@@@UEAAPEAXI@Z 0000000180127dc0 f i GuMidphaseRTree.obj
 0001:00126dc0       ??_G?$RayRTreeCallback@$0A@$0A@@@UEAAPEAXI@Z 0000000180127dc0 f i GuMidphaseRTree.obj
 0001:00126dc0       ??_E?$RayRTreeCallback@$0A@$0A@@@UEAAPEAXI@Z 0000000180127dc0 f i GuMidphaseRTree.obj
 0001:00126dc0       ??_E?$RayRTreeCallback@$00$0A@@@UEAAPEAXI@Z 0000000180127dc0 f i GuMidphaseRTree.obj
 0001:00126e00       ??_E?$RayRTreeCallback@$0A@$00@@UEAAPEAXI@Z 0000000180127e00 f i GuMidphaseRTree.obj
 0001:00126e00       ??_G?$RayRTreeCallback@$0A@$00@@UEAAPEAXI@Z 0000000180127e00 f i GuMidphaseRTree.obj
 0001:00126e40       ??_ECallback@RTree@Gu@physx@@UEAAPEAXI@Z 0000000180127e40 f i GuMidphaseRTree.obj
 0001:00126e40       ??_GCallback@RTree@Gu@physx@@UEAAPEAXI@Z 0000000180127e40 f i GuMidphaseRTree.obj
 0001:00126e70       ??_ESweepCapsuleMeshHitCallback@Gu@physx@@UEAAPEAXI@Z 0000000180127e70 f i GuSweepsMesh.obj
 0001:00126e70       ??_ERayMeshColliderCallback@@UEAAPEAXI@Z 0000000180127e70 f i GuMidphaseRTree.obj
 0001:00126e70       ??_GSweepCapsuleMeshHitCallback@Gu@physx@@UEAAPEAXI@Z 0000000180127e70 f i GuSweepsMesh.obj
 0001:00126e70       ??_GRayMeshColliderCallback@@UEAAPEAXI@Z 0000000180127e70 f i GuMidphaseRTree.obj
 0001:00126ea0       ?collideOBB@MeshRayCollider@@SAXAEBVBox@Gu@physx@@_NPEBVRTreeTriangleMesh@34@AEAU?$MeshHitCallback@UPxGeomRaycastHit@physx@@@34@1@Z 0000000180127ea0 f   GuMidphaseRTree.obj
 0001:00127370       ?intersectBoxVsMesh_RTREE@Gu@physx@@YA_NAEBVBox@12@AEBVTriangleMesh@12@AEBV?$PxTransformT@M@2@AEBVPxMeshScale@2@PEAULimitedResults@12@@Z 0000000180128370 f   GuMidphaseRTree.obj
 0001:001273e0       ?intersectCapsuleVsMesh_RTREE@Gu@physx@@YA_NAEBVCapsule@12@AEBVTriangleMesh@12@AEBV?$PxTransformT@M@2@AEBVPxMeshScale@2@PEAULimitedResults@12@@Z 00000001801283e0 f   GuMidphaseRTree.obj
 0001:00127460       ?intersectOBB_RTREE@Gu@physx@@YAXPEBVTriangleMesh@12@AEBVBox@12@AEAU?$MeshHitCallback@UPxGeomRaycastHit@physx@@@12@_N3@Z 0000000180128460 f   GuMidphaseRTree.obj
 0001:00127490       ?intersectSphereVsMesh_RTREE@Gu@physx@@YA_NAEBVSphere@12@AEBVTriangleMesh@12@AEBV?$PxTransformT@M@2@AEBVPxMeshScale@2@PEAULimitedResults@12@@Z 0000000180128490 f   GuMidphaseRTree.obj
 0001:001274c0       ?pointMeshDistance_RTREE@Gu@physx@@YAXPEBVTriangleMesh@12@AEBVPxTriangleMeshGeometry@2@AEBV?$PxTransformT@M@2@AEBV?$PxVec3T@M@2@MAEAIAEAMAEAV62@@Z 00000001801284c0 f   GuMidphaseRTree.obj
 0001:001282c0       ?processHit@RayMeshColliderCallback@@UEAA_NAEBUPxGeomRaycastHit@physx@@AEBV?$PxVec3T@M@3@11AEAMPEBI@Z 00000001801292c0 f i GuMidphaseRTree.obj
 0001:00128a70       ?processResults@?$RayRTreeCallback@$00$00@@UEAA_NIPEAI@Z 0000000180129a70 f i GuMidphaseRTree.obj
 0001:00128de0       ?processResults@?$RayRTreeCallback@$00$00@@UEAA_NIPEAIAEAM@Z 0000000180129de0 f i GuMidphaseRTree.obj
 0001:00129150       ?processResults@?$RayRTreeCallback@$0A@$0A@@@UEAA_NIPEAI@Z 000000018012a150 f i GuMidphaseRTree.obj
 0001:00129150       ?processResults@?$RayRTreeCallback@$00$0A@@@UEAA_NIPEAI@Z 000000018012a150 f i GuMidphaseRTree.obj
 0001:001293c0       ?processResults@?$RayRTreeCallback@$0A@$0A@@@UEAA_NIPEAIAEAM@Z 000000018012a3c0 f i GuMidphaseRTree.obj
 0001:001293c0       ?processResults@?$RayRTreeCallback@$00$0A@@@UEAA_NIPEAIAEAM@Z 000000018012a3c0 f i GuMidphaseRTree.obj
 0001:00129630       ?processResults@?$RayRTreeCallback@$0A@$00@@UEAA_NIPEAI@Z 000000018012a630 f i GuMidphaseRTree.obj
 0001:00129c60       ?processResults@?$RayRTreeCallback@$0A@$00@@UEAA_NIPEAIAEAM@Z 000000018012ac60 f i GuMidphaseRTree.obj
 0001:0012a2b0       ?raycast_triangleMesh_RTREE@Gu@physx@@YAIPEBVTriangleMesh@12@AEBVPxTriangleMeshGeometry@2@AEBV?$PxTransformT@M@2@AEBV?$PxVec3T@M@2@3MV?$PxFlags@W4Enum@PxHitFlag@physx@@G@2@IPEIAUPxGeomRaycastHit@2@I@Z 000000018012b2b0 f   GuMidphaseRTree.obj
 0001:0012aa30       ?sweepBox_MeshGeom_RTREE@Gu@physx@@YA_NPEBVTriangleMesh@12@AEBVPxTriangleMeshGeometry@2@AEBV?$PxTransformT@M@2@AEBVBox@12@AEBV?$PxVec3T@M@2@MAEAUPxGeomSweepHit@2@V?$PxFlags@W4Enum@PxHitFlag@physx@@G@2@M@Z 000000018012ba30 f   GuMidphaseRTree.obj
 0001:0012bf10       ?sweepCapsule_MeshGeom_RTREE@Gu@physx@@YA_NPEBVTriangleMesh@12@AEBVPxTriangleMeshGeometry@2@AEBV?$PxTransformT@M@2@AEBVCapsule@12@AEBV?$PxVec3T@M@2@MAEAUPxGeomSweepHit@2@V?$PxFlags@W4Enum@PxHitFlag@physx@@G@2@M@Z 000000018012cf10 f   GuMidphaseRTree.obj
 0001:0012c6c0       ?sweepConvex_MeshGeom_RTREE@Gu@physx@@YAXPEBVTriangleMesh@12@AEBVBox@12@AEBV?$PxVec3T@M@2@MAEAUSweepConvexMeshHitCallback@12@_N@Z 000000018012d6c0 f   GuMidphaseRTree.obj
 0001:0012d0d0       ??_EPxReportCallbackBase@physx@@UEAAPEAXI@Z 000000018012e0d0 f i GuOverlapTestsMesh.obj
 0001:0012d0d0       ??_GPxReportCallbackBase@physx@@UEAAPEAXI@Z 000000018012e0d0 f i GuOverlapTestsMesh.obj
 0001:0012d100       ?GeomOverlapCallback_BoxMesh@@YA_NAEBVPxGeometry@physx@@AEBV?$PxTransformT@M@2@01PEAUTriggerCache@Gu@2@PEAUPxQueryThreadContext@2@@Z 000000018012e100 f   GuOverlapTestsMesh.obj
 0001:0012d210       ?GeomOverlapCallback_CapsuleMesh@@YA_NAEBVPxGeometry@physx@@AEBV?$PxTransformT@M@2@01PEAUTriggerCache@Gu@2@PEAUPxQueryThreadContext@2@@Z 000000018012e210 f   GuOverlapTestsMesh.obj
 0001:0012d320       ?GeomOverlapCallback_ConvexMesh@@YA_NAEBVPxGeometry@physx@@AEBV?$PxTransformT@M@2@01PEAUTriggerCache@Gu@2@PEAUPxQueryThreadContext@2@@Z 000000018012e320 f   GuOverlapTestsMesh.obj
 0001:0012d820       ?GeomOverlapCallback_MeshMesh@@YA_NAEBVPxGeometry@physx@@AEBV?$PxTransformT@M@2@01PEAUTriggerCache@Gu@2@PEAUPxQueryThreadContext@2@@Z 000000018012e820 f   GuOverlapTestsMesh.obj
 0001:0012d8f0       ?GeomOverlapCallback_SphereMesh@@YA_NAEBVPxGeometry@physx@@AEBV?$PxTransformT@M@2@01PEAUTriggerCache@Gu@2@PEAUPxQueryThreadContext@2@@Z 000000018012e8f0 f   GuOverlapTestsMesh.obj
 0001:0012dce0       ??0RTree@Gu@physx@@QEAA@W4PxEMPTY@2@@Z 000000018012ece0 f   GuRTree.obj
 0001:0012dcf0       ?exportExtraData@RTree@Gu@physx@@QEAAXAEAVPxSerializationContext@3@@Z 000000018012ecf0 f   GuRTree.obj
 0001:0012dd30       ?importExtraData@RTree@Gu@physx@@QEAAXAEAVPxDeserializationContext@3@@Z 000000018012ed30 f   GuRTree.obj
 0001:0012dd60       ?load@RTree@Gu@physx@@QEAA_NAEAVPxInputStream@3@I_N@Z 000000018012ed60 f   GuRTree.obj
 0001:0012e060       ?refitAllStaticTree@RTree@Gu@physx@@QEAAXAEAUCallbackRefit@123@PEAVPxBounds3@3@@Z 000000018012f060 f   GuRTree.obj
 0001:0012e5c0       ?validate@RTree@Gu@physx@@QEAAXPEAUCallbackRefit@123@@Z 000000018012f5c0 f   GuRTree.obj
 0001:0012e720       ?validateRecursive@RTree@Gu@physx@@IEAAXIURTreeNodeQ@23@PEAURTreePage@23@PEAUCallbackRefit@123@@Z 000000018012f720 f   GuRTree.obj
 0001:0012e850       ??$traverseRay@$00@RTree@Gu@physx@@QEBAXAEBV?$PxVec3T@M@2@0IPEAIPEAUCallbackRaycast@012@PEBV32@M@Z 000000018012f850 f i GuRTreeQueries.obj
 0001:0012ebf0       ??$traverseRay@$0A@@RTree@Gu@physx@@QEBAXAEBV?$PxVec3T@M@2@0IPEAIPEAUCallbackRaycast@012@PEBV32@M@Z 000000018012fbf0 f i GuRTreeQueries.obj
 0001:0012ef40       ?traverseAABB@RTree@Gu@physx@@QEBAXAEBV?$PxVec3T@M@3@0IPEAIPEAUCallback@123@@Z 000000018012ff40 f   GuRTreeQueries.obj
 0001:0012f100       ?traverseOBB@RTree@Gu@physx@@QEBAXAEBVBox@23@IPEAIPEAUCallback@123@@Z 0000000180130100 f   GuRTreeQueries.obj
 0001:0012f9e0       ??0SweepBoxMeshHitCallback@Gu@physx@@QEAA@W4Enum@CallbackMode@12@AEBVPxMat34Padded@2@M_NAEBVBox@12@AEBV?$PxVec3T@M@2@44AEBV?$PxFlags@W4Enum@PxHitFlag@physx@@G@2@M2M@Z 00000001801309e0 f   GuSweepsMesh.obj
 0001:0012faf0       ??0SweepCapsuleMeshHitCallback@Gu@physx@@QEAA@AEAUPxGeomSweepHit@2@AEBV?$PxMat34T@M@2@M_NAEBVCapsule@12@AEBV?$PxVec3T@M@2@AEBV?$PxFlags@W4Enum@PxHitFlag@physx@@G@2@2M@Z 0000000180130af0 f   GuSweepsMesh.obj
 0001:0012fbc0       ??0SweepConvexMeshHitCallback@Gu@physx@@QEAA@AEBUConvexHullData@12@AEBVPxMeshScale@2@AEBVFastVertex2ShapeScaling@Cm@2@AEBV?$PxTransformT@M@2@3AEBV?$PxVec3T@M@2@MV?$PxFlags@W4Enum@PxHitFlag@physx@@G@2@_NM6M@Z 0000000180130bc0 f   GuSweepsMesh.obj
 0001:00130510       ??_GSweepBoxMeshHitCallback@Gu@physx@@UEAAPEAXI@Z 0000000180131510 f i GuSweepsMesh.obj
 0001:00130510       ??_ESweepBoxMeshHitCallback@Gu@physx@@UEAAPEAXI@Z 0000000180131510 f i GuSweepsMesh.obj
 0001:00130540       ??_ESweepConvexMeshHitCallback@Gu@physx@@UEAAPEAXI@Z 0000000180131540 f i GuSweepsMesh.obj
 0001:00130540       ??_GSweepConvexMeshHitCallback@Gu@physx@@UEAAPEAXI@Z 0000000180131540 f i GuSweepsMesh.obj
 0001:00130570       ??_GSweepShapeMeshHitCallback@Gu@physx@@UEAAPEAXI@Z 0000000180131570 f i GuSweepsMesh.obj
 0001:00130570       ??_ESweepShapeMeshHitCallback@Gu@physx@@UEAAPEAXI@Z 0000000180131570 f i GuSweepsMesh.obj
 0001:001305a0       ?finalizeHit@SweepBoxMeshHitCallback@Gu@physx@@QEBA_NAEAUPxGeomSweepHit@3@AEBVPxTriangleMeshGeometry@3@AEBV?$PxTransformT@M@3@2AEBV?$PxVec3T@M@3@_N4@Z 00000001801315a0 f   GuSweepsMesh.obj
 0001:00130c60       ?finalizeHit@SweepCapsuleMeshHitCallback@Gu@physx@@QEBA_NAEAUPxGeomSweepHit@3@AEBVCapsule@23@AEBVPxTriangleMeshGeometry@3@AEBV?$PxTransformT@M@3@_N@Z 0000000180131c60 f   GuSweepsMesh.obj
 0001:00130e10       ?finalizeHit@SweepConvexMeshHitCallback@Gu@physx@@QEAA_NAEAUPxGeomSweepHit@3@AEBVPxTriangleMeshGeometry@3@AEBV?$PxTransformT@M@3@AEBVPxConvexMeshGeometry@3@2AEBV?$PxVec3T@M@3@M_N555@Z 0000000180131e10 f   GuSweepsMesh.obj
 0001:001312f0       ?processHit@SweepBoxMeshHitCallback@Gu@physx@@UEAA_NAEBUPxGeomRaycastHit@3@AEBV?$PxVec3T@M@3@11AEAMPEBI@Z 00000001801322f0 f   GuSweepsMesh.obj
 0001:00131af0       ?processHit@SweepCapsuleMeshHitCallback@Gu@physx@@UEAA_NAEBUPxGeomRaycastHit@3@AEBV?$PxVec3T@M@3@11AEAMPEBI@Z 0000000180132af0 f   GuSweepsMesh.obj
 0001:00132050       ?processHit@SweepConvexMeshHitCallback@Gu@physx@@UEAA_NAEBUPxGeomRaycastHit@3@AEBV?$PxVec3T@M@3@11AEAMPEBI@Z 0000000180133050 f   GuSweepsMesh.obj
 0001:00132790       ?sweepBox_MeshGeom@@YA_NAEBVPxGeometry@physx@@AEBV?$PxTransformT@M@2@AEBVPxBoxGeometry@2@1AEBVBox@Gu@2@AEBV?$PxVec3T@M@2@MAEAUPxGeomSweepHit@2@V?$PxFlags@W4Enum@PxHitFlag@physx@@G@2@MPEAUPxQueryThreadContext@2@@Z 0000000180133790 f   GuSweepsMesh.obj
 0001:00132820       ?sweepCapsule_MeshGeom@@YA_NAEBVPxGeometry@physx@@AEBV?$PxTransformT@M@2@AEBVPxCapsuleGeometry@2@1AEBVCapsule@Gu@2@AEBV?$PxVec3T@M@2@MAEAUPxGeomSweepHit@2@V?$PxFlags@W4Enum@PxHitFlag@physx@@G@2@MPEAUPxQueryThreadContext@2@@Z 0000000180133820 f   GuSweepsMesh.obj
 0001:001328b0       ?sweepConvex_MeshGeom@@YA_NAEBVPxGeometry@physx@@AEBV?$PxTransformT@M@2@AEBVPxConvexMeshGeometry@2@1AEBV?$PxVec3T@M@2@MAEAUPxGeomSweepHit@2@V?$PxFlags@W4Enum@PxHitFlag@physx@@G@2@MPEAUPxQueryThreadContext@2@@Z 00000001801338b0 f   GuSweepsMesh.obj
 0001:001333f0       ??0TriangleMesh@Gu@physx@@QEAA@AEBUPxTriangleMeshInternalData@2@@Z 00000001801343f0 f   GuTriangleMesh.obj
 0001:001334d0       ??0TriangleMesh@Gu@physx@@QEAA@PEAVMeshFactory@12@AEAVTriangleMeshData@12@@Z 00000001801344d0 f   GuTriangleMesh.obj
 0001:00133850       ??1TriangleMesh@Gu@physx@@UEAA@XZ 0000000180134850 f   GuTriangleMesh.obj
 0001:00133ac0       ??_ETriangleMesh@Gu@physx@@UEAAPEAXI@Z 0000000180134ac0 f i GuTriangleMesh.obj
 0001:00133ac0       ??_GTriangleMesh@Gu@physx@@UEAAPEAXI@Z 0000000180134ac0 f i GuTriangleMesh.obj
 0001:00133b30       ?exportExtraData@TriangleMesh@Gu@physx@@UEAAXAEAVPxSerializationContext@3@@Z 0000000180134b30 f   GuTriangleMesh.obj
 0001:00133d90       ?getLocalBounds@TriangleMesh@Gu@physx@@UEBA?AVPxBounds3@3@XZ 0000000180134d90 f i GuTriangleMesh.obj
 0001:00133e20       ?getMassInformation@TriangleMesh@Gu@physx@@UEBAXAEAMAEAV?$PxMat33T@M@3@AEAV?$PxVec3T@M@3@@Z 0000000180134e20 f i GuTriangleMesh.obj
 0001:00133ea0       ?getNbTriangles@TriangleMesh@Gu@physx@@UEBAIXZ 0000000180134ea0 f i GuTriangleMesh.obj
 0001:00133eb0       ?getPreferSDFProjection@TriangleMesh@Gu@physx@@UEBA_NXZ 0000000180134eb0 f i GuTriangleMesh.obj
 0001:00133ec0       ?getSDF@TriangleMesh@Gu@physx@@UEBAPEBMXZ 0000000180134ec0 f i GuTriangleMesh.obj
 0001:00133ed0       ?getSDFDimensions@TriangleMesh@Gu@physx@@UEBAXAEAI00@Z 0000000180134ed0 f i GuTriangleMesh.obj
 0001:00133f00       ?getTriangleMaterialIndex@TriangleMesh@Gu@physx@@UEBAGI@Z 0000000180134f00 f i GuTriangleMesh.obj
 0001:00133f20       ?getTriangleMeshFlags@TriangleMesh@Gu@physx@@UEBA?AV?$PxFlags@W4Enum@PxTriangleMeshFlag@physx@@E@3@XZ 0000000180134f20 f i GuTriangleMesh.obj
 0001:00133f30       ?getTrianglesRemap@TriangleMesh@Gu@physx@@UEBAPEBIXZ 0000000180134f30 f i GuTriangleMesh.obj
 0001:00133f40       ?getVerticesForModification@TriangleMesh@Gu@physx@@UEAAPEAV?$PxVec3T@M@3@XZ 0000000180134f40 f   GuTriangleMesh.obj
 0001:00133f80       ?importExtraData@TriangleMesh@Gu@physx@@QEAAXAEAVPxDeserializationContext@3@@Z 0000000180134f80 f   GuTriangleMesh.obj
 0001:00134180       ?isKindOf@PxTriangleMesh@physx@@MEBA_NPEBD@Z 0000000180135180 f i GuTriangleMesh.obj
 0001:00134210       ?onRefCountZero@TriangleMesh@Gu@physx@@UEAAXXZ 0000000180135210 f   GuTriangleMesh.obj
 0001:001342e0       ?refitBVH@TriangleMesh@Gu@physx@@UEAA?AVPxBounds3@3@XZ 00000001801352e0 f   GuTriangleMesh.obj
 0001:001343b0       ?requestEdgeList@TriangleMesh@Gu@physx@@QEBAPEBVEdgeList@23@XZ 00000001801353b0 f   GuTriangleMesh.obj
 0001:00134490       ?setAllEdgesActive@TriangleMesh@Gu@physx@@QEAAXXZ 0000000180135490 f   GuTriangleMesh.obj
 0001:00134580       ?setPreferSDFProjection@TriangleMesh@Gu@physx@@UEAAX_N@Z 0000000180135580 f i GuTriangleMesh.obj
 0001:001345b0       ??0BV4TriangleMesh@Gu@physx@@QEAA@AEBUPxTriangleMeshInternalData@2@@Z 00000001801355b0 f   GuTriangleMeshBV4.obj
 0001:00134720       ??0BV4TriangleMesh@Gu@physx@@QEAA@PEAVMeshFactory@12@AEAVTriangleMeshData@12@@Z 0000000180135720 f   GuTriangleMeshBV4.obj
 0001:001347b0       ??_EBV4TriangleMesh@Gu@physx@@UEAAPEAXI@Z 00000001801357b0 f i GuTriangleMeshBV4.obj
 0001:001347b0       ??_GBV4TriangleMesh@Gu@physx@@UEAAPEAXI@Z 00000001801357b0 f i GuTriangleMeshBV4.obj
 0001:00134840       ?createObject@BV4TriangleMesh@Gu@physx@@SAPEAVTriangleMesh@23@AEAPEAEAEAVPxDeserializationContext@3@@Z 0000000180135840 f   GuTriangleMeshBV4.obj
 0001:00134930       ?exportExtraData@BV4TriangleMesh@Gu@physx@@UEAAXAEAVPxSerializationContext@3@@Z 0000000180135930 f   GuTriangleMeshBV4.obj
 0001:00134970       ?getConcreteTypeName@BV4TriangleMesh@Gu@physx@@UEBAPEBDXZ 0000000180135970 f i GuTriangleMeshBV4.obj
 0001:00134980       ?getInternalData@BV4TriangleMesh@Gu@physx@@UEBA_NAEAUPxTriangleMeshInternalData@3@_N@Z 0000000180135980 f   GuTriangleMeshBV4.obj
 0001:00134a70       ?getMidphaseID@BV4TriangleMesh@Gu@physx@@UEBA?AW4Enum@PxMeshMidPhase@3@XZ 0000000180135a70 f i GuTriangleMeshBV4.obj
 0001:00134a70       ?length@charNode@@UEBAHXZ  0000000180135a70 f i libvcruntime:undname.obj
 0001:00134a70       ?raw_length@charNode@@UEBAHXZ 0000000180135a70 f i libvcruntime:undname.obj
 0001:00134a70       ?getMidphaseID@BV4TriangleMeshBuilder@physx@@UEBA?AW4Enum@PxMeshMidPhase@2@XZ 0000000180135a70 f i GuCookingTriangleMesh.obj
 0001:00134a70       _get_startup_argv_mode     0000000180135a70 f i LIBCMT:argv_mode.obj
 0001:00134a70       DllMain                    0000000180135a70 f i LIBCMT:dll_dllmain_stub.obj
 0001:00134a80       ?getVerticesForModification@BV4TriangleMesh@Gu@physx@@UEAAPEAV?$PxVec3T@M@3@XZ 0000000180135a80 f   GuTriangleMeshBV4.obj
 0001:00134a80       ?getVerticesForModification@RTreeTriangleMesh@Gu@physx@@UEAAPEAV?$PxVec3T@M@3@XZ 0000000180135a80 f   GuTriangleMeshRTree.obj
 0001:00134a90       ?refitBVH@BV4TriangleMesh@Gu@physx@@UEAA?AVPxBounds3@3@XZ 0000000180135a90 f   GuTriangleMeshBV4.obj
 0001:00134c00       PxGetTriangleMeshInternalData 0000000180135c00 f   GuTriangleMeshBV4.obj
 0001:00134c20       ??0RTreeTriangleMesh@Gu@physx@@QEAA@PEAVMeshFactory@12@AEAVTriangleMeshData@12@@Z 0000000180135c20 f   GuTriangleMeshRTree.obj
 0001:00134d90       ??_E?$RefitCallback@G@physx@@UEAAPEAXI@Z 0000000180135d90 f i GuTriangleMeshRTree.obj
 0001:00134d90       ??_G?$RefitCallback@G@physx@@UEAAPEAXI@Z 0000000180135d90 f i GuTriangleMeshRTree.obj
 0001:00134d90       ??_E?$RefitCallback@I@physx@@UEAAPEAXI@Z 0000000180135d90 f i GuTriangleMeshRTree.obj
 0001:00134d90       ??_G?$RefitCallback@I@physx@@UEAAPEAXI@Z 0000000180135d90 f i GuTriangleMeshRTree.obj
 0001:00134dc0       ??_GRTreeTriangleMesh@Gu@physx@@UEAAPEAXI@Z 0000000180135dc0 f i GuTriangleMeshRTree.obj
 0001:00134dc0       ??_ERTreeTriangleMesh@Gu@physx@@UEAAPEAXI@Z 0000000180135dc0 f i GuTriangleMeshRTree.obj
 0001:00134e70       ?createObject@RTreeTriangleMesh@Gu@physx@@SAPEAVTriangleMesh@23@AEAPEAEAEAVPxDeserializationContext@3@@Z 0000000180135e70 f   GuTriangleMeshRTree.obj
 0001:00134f00       ?exportExtraData@RTreeTriangleMesh@Gu@physx@@UEAAXAEAVPxSerializationContext@3@@Z 0000000180135f00 f   GuTriangleMeshRTree.obj
 0001:00134f40       ?getConcreteTypeName@RTreeTriangleMesh@Gu@physx@@UEBAPEBDXZ 0000000180135f40 f i GuTriangleMeshRTree.obj
 0001:00134f50       ?recomputeBounds@?$RefitCallback@G@physx@@UEAAXIAEAT__m128@@0@Z 0000000180135f50 f i GuTriangleMeshRTree.obj
 0001:00135280       ?recomputeBounds@?$RefitCallback@I@physx@@UEAAXIAEAT__m128@@0@Z 0000000180136280 f i GuTriangleMeshRTree.obj
 0001:001355a0       ?refitBVH@RTreeTriangleMesh@Gu@physx@@UEAA?AVPxBounds3@3@XZ 00000001801365a0 f   GuTriangleMeshRTree.obj
 0001:001356c0       ??0BV32Tree@Gu@physx@@QEAA@W4PxEMPTY@2@@Z 00000001801366c0 f   GuBV32.obj
 0001:001356e0       ??0BV32Tree@Gu@physx@@QEAA@XZ 00000001801366e0 f   GuBV32.obj
 0001:00135710       ??1BV32Tree@Gu@physx@@QEAA@XZ 0000000180136710 f   GuBV32.obj
 0001:00135720       ?createSOAformatNode@BV32Tree@Gu@physx@@QEAAXAEAUBV32DataPacked@23@AEBUBV32Data@23@IAEAI2@Z 0000000180136720 f   GuBV32.obj
 0001:00135b80       ?exportExtraData@BV32Tree@Gu@physx@@QEAAXAEAVPxSerializationContext@3@@Z 0000000180136b80 f   GuBV32.obj
 0001:00135bc0       ?importExtraData@BV32Tree@Gu@physx@@QEAAXAEAVPxDeserializationContext@3@@Z 0000000180136bc0 f   GuBV32.obj
 0001:00135bf0       ?load@BV32Tree@Gu@physx@@QEAA_NAEAVPxInputStream@3@_N@Z 0000000180136bf0 f   GuBV32.obj
 0001:00135f30       ?release@BV32Tree@Gu@physx@@QEAAXXZ 0000000180136f30 f   GuBV32.obj
 0001:00135ff0       ??0BV32Node@@QEAA@XZ       0000000180136ff0 f i GuBV32Build.obj
 0001:00136470       ?BuildBV32Ex@Gu@physx@@YA_NAEAVBV32Tree@12@AEAVSourceMeshBase@12@MI@Z 0000000180137470 f   GuBV32Build.obj
 0001:00137480       ??0BVTetrahedronMesh@Gu@physx@@QEAA@AEAVTetrahedronMeshData@12@AEAVDeformableVolumeCollisionData@12@PEAVMeshFactory@12@@Z 0000000180138480 f   GuTetrahedronMesh.obj
 0001:001376e0       ??0DeformableVolumeMesh@Gu@physx@@QEAA@PEAVMeshFactory@12@AEAVDeformableVolumeMeshData@12@@Z 00000001801386e0 f   GuTetrahedronMesh.obj
 0001:00137a80       ??0TetrahedronMesh@Gu@physx@@QEAA@PEAVMeshFactory@12@AEAVTetrahedronMeshData@12@@Z 0000000180138a80 f   GuTetrahedronMesh.obj
 0001:00137b70       ??1DeformableVolumeAuxData@Gu@physx@@UEAA@XZ 0000000180138b70 f   GuTetrahedronMesh.obj
 0001:00137df0       ??1TetrahedronMesh@Gu@physx@@UEAA@XZ 0000000180138df0 f   GuTetrahedronMesh.obj
 0001:00137e90       ??_GBVTetrahedronMesh@Gu@physx@@UEAAPEAXI@Z 0000000180138e90 f i GuTetrahedronMesh.obj
 0001:00137e90       ??_EBVTetrahedronMesh@Gu@physx@@UEAAPEAXI@Z 0000000180138e90 f i GuTetrahedronMesh.obj
 0001:00138010       ??_EDeformableVolumeAuxData@Gu@physx@@UEAAPEAXI@Z 0000000180139010 f i GuTetrahedronMesh.obj
 0001:00138010       ??_GDeformableVolumeAuxData@Gu@physx@@UEAAPEAXI@Z 0000000180139010 f i GuTetrahedronMesh.obj
 0001:00138080       ??_GDeformableVolumeMesh@Gu@physx@@UEAAPEAXI@Z 0000000180139080 f i GuTetrahedronMesh.obj
 0001:00138080       ??_EDeformableVolumeMesh@Gu@physx@@UEAAPEAXI@Z 0000000180139080 f i GuTetrahedronMesh.obj
 0001:00138150       ??_ETetrahedronMesh@Gu@physx@@UEAAPEAXI@Z 0000000180139150 f i GuTetrahedronMesh.obj
 0001:00138150       ??_GTetrahedronMesh@Gu@physx@@UEAAPEAXI@Z 0000000180139150 f i GuTetrahedronMesh.obj
 0001:001381c0       ?exportExtraData@DeformableVolumeMesh@Gu@physx@@UEAAXAEAVPxSerializationContext@3@@Z 00000001801391c0 f   GuTetrahedronMesh.obj
 0001:001382b0       ?getConcreteTypeName@DeformableVolumeAuxData@Gu@physx@@UEBAPEBDXZ 00000001801392b0 f i GuTetrahedronMesh.obj
 0001:001382c0       ?getConcreteTypeName@DeformableVolumeMesh@Gu@physx@@UEBAPEBDXZ 00000001801392c0 f i GuTetrahedronMesh.obj
 0001:001382d0       ?getConcreteTypeName@TetrahedronMesh@Gu@physx@@UEBAPEBDXZ 00000001801392d0 f i GuTetrahedronMesh.obj
 0001:001382e0       ?getLocalBounds@TetrahedronMesh@Gu@physx@@UEBA?AVPxBounds3@3@XZ 00000001801392e0 f i GuTetrahedronMesh.obj
 0001:00138370       ?getNbTetrahedrons@TetrahedronMesh@Gu@physx@@UEBAIXZ 0000000180139370 f i GuTetrahedronMesh.obj
 0001:00138380       ?getBounds@BVH@Gu@physx@@UEBAPEBVPxBounds3@3@XZ 0000000180139380 f i GuBVH.obj
 0001:00138380       ?getTetrahedraRemap@BVTetrahedronMesh@Gu@physx@@UEBAPEBIXZ 0000000180139380 f i GuTetrahedronMesh.obj
 0001:00138390       ?getTetrahedronMeshFlags@TetrahedronMesh@Gu@physx@@UEBA?AV?$PxFlags@W4Enum@PxTetrahedronMeshFlag@physx@@E@3@XZ 0000000180139390 f i GuTetrahedronMesh.obj
 0001:001383a0       ?getTetrahedrons@TetrahedronMesh@Gu@physx@@UEBAPEBXXZ 00000001801393a0 f i GuTetrahedronMesh.obj
 0001:001383b0       ?isKindOf@PxDeformableVolumeAuxData@physx@@MEBA_NPEBD@Z 00000001801393b0 f i GuTetrahedronMesh.obj
 0001:00138440       ?isKindOf@PxDeformableVolumeMesh@physx@@MEBA_NPEBD@Z 0000000180139440 f i GuTetrahedronMesh.obj
 0001:001384d0       ?isKindOf@PxTetrahedronMesh@physx@@MEBA_NPEBD@Z 00000001801394d0 f i GuTetrahedronMesh.obj
 0001:00138560       ?release@SimulationTetrahedronMeshData@Gu@physx@@UEAAXXZ 0000000180139560 f i GuCookingTetrahedronMesh.obj
 0001:00138560       ?onRefCountZero@DeformableVolumeAuxData@Gu@physx@@UEAAXXZ 0000000180139560 f i GuTetrahedronMesh.obj
 0001:00138580       ?onRefCountZero@DeformableVolumeMesh@Gu@physx@@UEAAXXZ 0000000180139580 f   GuTetrahedronMesh.obj
 0001:00138620       ?onRefCountZero@TetrahedronMesh@Gu@physx@@UEAAXXZ 0000000180139620 f   GuTetrahedronMesh.obj
 0001:001386c0       ?PxComputeBarycentric@physx@@YAXAEBV?$PxVec3T@M@1@0000AEAV?$PxVec4T@M@1@@Z 00000001801396c0 f i GuTetrahedronMeshUtils.obj
 0001:00138970       ?addAxisToSimMeshBarycentric@Gu@physx@@YA?AV?$PxVec4T@M@2@AEBVPxTetrahedronMesh@2@IAEBV32@AEBV?$PxVec3T@M@2@@Z 0000000180139970 f   GuTetrahedronMeshUtils.obj
 0001:00138c30       ?closestPtPointTetrahedron@Gu@physx@@YA?AV?$PxVec3T@M@2@AEBV32@0000@Z 0000000180139c30 f i GuTetrahedronMeshUtils.obj
 0001:00139d60       ?convertDeformableVolumeCollisionToSimMeshTets@Gu@physx@@YAXAEBVPxTetrahedronMesh@2@AEBVDeformableVolumeAuxData@12@AEBVBVTetrahedronMesh@12@IAEBV?$PxVec4T@M@2@AEAIAEAV62@_N@Z 000000018013ad60 f   GuTetrahedronMeshUtils.obj
 0001:0013c7d0       ?pcmContactBoxBox@Gu@physx@@YA_NAEBVPxGeometry@2@0AEBUPxTransformPadded@2@1AEBUNarrowPhaseParams@12@AEAUCache@12@AEAVPxContactBuffer@2@PEAVPxRenderOutput@2@@Z 000000018013d7d0 f   GuPCMContactBoxBox.obj
 0001:0013d680       ??$gjkPenetration@U?$RelativeConvex@VBoxV@Gu@physx@@@Gu@physx@@U?$LocalConvex@VConvexHullNoScaleV@Gu@physx@@@23@@Gu@physx@@YA?AW4GjkStatus@01@AEBU?$RelativeConvex@VBoxV@Gu@physx@@@01@AEBU?$LocalConvex@VConvexHullNoScaleV@Gu@physx@@@01@AEBT__m128@@2_NPEIAE4AEAEAEAUGjkOutput@01@@Z 000000018013e680 f i GuPCMContactBoxConvex.obj
 0001:0013d6f0       ??$gjkPenetration@U?$RelativeConvex@VBoxV@Gu@physx@@@Gu@physx@@U?$LocalConvex@VConvexHullNoScaleV@Gu@physx@@@23@@Gu@physx@@YA?AW4GjkStatus@01@AEBU?$RelativeConvex@VBoxV@Gu@physx@@@01@AEBU?$LocalConvex@VConvexHullNoScaleV@Gu@physx@@@01@AEBT__m128@@2_NPEIAE4PEIAT5@5AEAEAEAUGjkOutput@01@@Z 000000018013e6f0 f i GuPCMContactBoxConvex.obj
 0001:0013f290       ?pcmContactBoxConvex@Gu@physx@@YA_NAEBVPxGeometry@2@0AEBUPxTransformPadded@2@1AEBUNarrowPhaseParams@12@AEAUCache@12@AEAVPxContactBuffer@2@PEAVPxRenderOutput@2@@Z 0000000180140290 f   GuPCMContactBoxConvex.obj
 0001:001400c0       ?support@?$LocalConvex@VConvexHullNoScaleV@Gu@physx@@@Gu@physx@@UEBA?AT__m128@@AEBT4@@Z 00000001801410c0 f i GuPCMContactBoxConvex.obj
 0001:00140110       ?support@?$LocalConvex@VConvexHullNoScaleV@Gu@physx@@@Gu@physx@@UEBA?AT__m128@@AEBT4@AEAH@Z 0000000180141110 f i GuPCMContactBoxConvex.obj
 0001:00140170       ?supportPoint@?$LocalConvex@VConvexHullNoScaleV@Gu@physx@@@Gu@physx@@UEBA?AT__m128@@H@Z 0000000180141170 f i GuPCMContactBoxConvex.obj
 0001:001401a0       ?pcmContactCapsuleBox@Gu@physx@@YA_NAEBVPxGeometry@2@0AEBUPxTransformPadded@2@1AEBUNarrowPhaseParams@12@AEAUCache@12@AEAVPxContactBuffer@2@PEAVPxRenderOutput@2@@Z 00000001801411a0 f   GuPCMContactCapsuleBox.obj
 0001:001410c0       ?pcmContactCapsuleCapsule@Gu@physx@@YA_NAEBVPxGeometry@2@0AEBUPxTransformPadded@2@1AEBUNarrowPhaseParams@12@AEAUCache@12@AEAVPxContactBuffer@2@PEAVPxRenderOutput@2@@Z 00000001801420c0 f   GuPCMContactCapsuleCapsule.obj
 0001:00141860       ??$gjkPenetration@U?$LocalConvex@VCapsuleV@Gu@physx@@@Gu@physx@@U?$LocalConvex@VConvexHullNoScaleV@Gu@physx@@@23@@Gu@physx@@YA?AW4GjkStatus@01@AEBU?$LocalConvex@VCapsuleV@Gu@physx@@@01@AEBU?$LocalConvex@VConvexHullNoScaleV@Gu@physx@@@01@AEBT__m128@@2_NPEIAE4AEAEAEAUGjkOutput@01@@Z 0000000180142860 f i GuPCMContactCapsuleConvex.obj
 0001:001418d0       ??$gjkPenetration@U?$LocalConvex@VCapsuleV@Gu@physx@@@Gu@physx@@U?$LocalConvex@VConvexHullNoScaleV@Gu@physx@@@23@@Gu@physx@@YA?AW4GjkStatus@01@AEBU?$LocalConvex@VCapsuleV@Gu@physx@@@01@AEBU?$LocalConvex@VConvexHullNoScaleV@Gu@physx@@@01@AEBT__m128@@2_NPEIAE4PEIAT5@5AEAEAEAUGjkOutput@01@@Z 00000001801428d0 f i GuPCMContactCapsuleConvex.obj
 0001:00142fa0       ?pcmContactCapsuleConvex@Gu@physx@@YA_NAEBVPxGeometry@2@0AEBUPxTransformPadded@2@1AEBUNarrowPhaseParams@12@AEAUCache@12@AEAVPxContactBuffer@2@PEAVPxRenderOutput@2@@Z 0000000180143fa0 f   GuPCMContactCapsuleConvex.obj
 0001:00144180       ??_EPCMCapsuleVsHeightfieldContactGenerationCallback@@UEAAPEAXI@Z 0000000180145180 f i GuPCMContactCapsuleHeightField.obj
 0001:00144180       ??_GPCMCapsuleVsHeightfieldContactGenerationCallback@@UEAAPEAXI@Z 0000000180145180 f i GuPCMContactCapsuleHeightField.obj
 0001:001441b0       ?pcmContactCapsuleHeightField@Gu@physx@@YA_NAEBVPxGeometry@2@0AEBUPxTransformPadded@2@1AEBUNarrowPhaseParams@12@AEAUCache@12@AEAVPxContactBuffer@2@PEAVPxRenderOutput@2@@Z 00000001801451b0 f   GuPCMContactCapsuleHeightField.obj
 0001:001450b0       ?reportTouchedTris@?$PCMHeightfieldContactGenerationCallback@UPCMCapsuleVsHeightfieldContactGenerationCallback@@@Gu@physx@@UEAA_NIPEBI@Z 00000001801460b0 f i GuPCMContactCapsuleHeightField.obj
 0001:00145730       ?generateContacts@PCMCapsuleVsMeshContactGeneration@Gu@physx@@SAXAEBT__m128@@0000I000PEAVMeshPersistentContact@23@AEAI@Z 0000000180146730 f   GuPCMContactCapsuleMesh.obj
 0001:00145bb0       ?generateEE@PCMCapsuleVsMeshContactGeneration@Gu@physx@@QEAAXAEBT__m128@@000I00PEAVMeshPersistentContact@23@AEAI@Z 0000000180146bb0 f   GuPCMContactCapsuleMesh.obj
 0001:00145e20       ?generateEEMTD@PCMCapsuleVsMeshContactGeneration@Gu@physx@@SAXAEBT__m128@@000I00PEAVMeshPersistentContact@23@AEAI@Z 0000000180146e20 f   GuPCMContactCapsuleMesh.obj
 0001:00146050       ?pcmContactCapsuleMesh@Gu@physx@@YA_NAEBVPxGeometry@2@0AEBUPxTransformPadded@2@1AEBUNarrowPhaseParams@12@AEAUCache@12@AEAVPxContactBuffer@2@PEAVPxRenderOutput@2@@Z 0000000180147050 f   GuPCMContactCapsuleMesh.obj
 0001:00147890       ?pcmDistanceSegmentTriangleSquaredExported@@YA?AT__m128@@AEBT1@0000AEAT1@11@Z 0000000180148890 f   GuPCMContactCapsuleMesh.obj
 0001:00147cf0       ?processTriangle@PCMCapsuleVsMeshContactGeneration@Gu@physx@@QEAA_NPEBV?$PxVec3T@M@3@IEPEBI@Z 0000000180148cf0 f   GuPCMContactCapsuleMesh.obj
 0001:001488a0       ?processTriangle@PCMCapsuleVsMeshContactGeneration@Gu@physx@@SA_NAEBVTriangleV@23@IAEBVCapsuleV@23@AEBT__m128@@EPEAVMeshPersistentContact@23@AEAI@Z 00000001801498a0 f   GuPCMContactCapsuleMesh.obj
 0001:00148bd0       ?addContactsToPatch@PCMConvexVsMeshContactGeneration@Gu@physx@@QEAAXAEBT__m128@@I@Z 0000000180149bd0 f   GuPCMContactConvexCommon.obj
 0001:001494f0       ?doSupport@?$SupportLocalImpl@VTriangleV@Gu@physx@@@Gu@physx@@UEBA?AT__m128@@AEBT4@@Z 000000018014a4f0 f i GuPCMContactConvexCommon.obj
 0001:00149580       ?doSupport@?$SupportLocalImpl@VTriangleV@Gu@physx@@@Gu@physx@@UEBAXAEBT__m128@@AEAT4@1@Z 000000018014a580 f i GuPCMContactConvexCommon.obj
 0001:001495f0       ?generateLastContacts@PCMConvexVsMeshContactGeneration@Gu@physx@@QEAAXXZ 000000018014a5f0 f   GuPCMContactConvexCommon.obj
 0001:00149b30       ?populateVerts@?$SupportLocalImpl@VTriangleV@Gu@physx@@@Gu@physx@@UEBAXPEBEIPEBV?$PxVec3T@M@3@PEAT__m128@@@Z 000000018014ab30 f i GuPCMContactConvexCommon.obj
 0001:00149c70       ?processTriangle@PCMConvexVsMeshContactGeneration@Gu@physx@@QEAA_NPEBV?$PxVec3T@M@3@IEPEBI@Z 000000018014ac70 f   GuPCMContactConvexCommon.obj
 0001:0014a1e0       ?processTriangle@PCMConvexVsMeshContactGeneration@Gu@physx@@SA_NAEBUPolygonalData@23@PEBVSupportLocal@23@PEBV?$PxVec3T@M@3@IEAEBT__m128@@_NAEBVPxTransformV@aos@3@AEBVPxMatTransformV@93@PEAVMeshPersistentContact@23@AEAI@Z 000000018014b1e0 f   GuPCMContactConvexCommon.obj
 0001:0014a460       ??$gjkPenetration@U?$RelativeConvex@VConvexHullNoScaleV@Gu@physx@@@Gu@physx@@U?$LocalConvex@VConvexHullNoScaleV@Gu@physx@@@23@@Gu@physx@@YA?AW4GjkStatus@01@AEBU?$RelativeConvex@VConvexHullNoScaleV@Gu@physx@@@01@AEBU?$LocalConvex@VConvexHullNoScaleV@Gu@physx@@@01@AEBT__m128@@2_NPEIAE4AEAEAEAUGjkOutput@01@@Z 000000018014b460 f i GuPCMContactConvexConvex.obj
 0001:0014a4d0       ??$gjkPenetration@U?$RelativeConvex@VConvexHullNoScaleV@Gu@physx@@@Gu@physx@@U?$LocalConvex@VConvexHullNoScaleV@Gu@physx@@@23@@Gu@physx@@YA?AW4GjkStatus@01@AEBU?$RelativeConvex@VConvexHullNoScaleV@Gu@physx@@@01@AEBU?$LocalConvex@VConvexHullNoScaleV@Gu@physx@@@01@AEBT__m128@@2_NPEIAE4PEIAT5@5AEAEAEAUGjkOutput@01@@Z 000000018014b4d0 f i GuPCMContactConvexConvex.obj
 0001:0014b9e0       ??$gjkPenetration@U?$RelativeConvex@VConvexHullNoScaleV@Gu@physx@@@Gu@physx@@U?$LocalConvex@VConvexHullV@Gu@physx@@@23@@Gu@physx@@YA?AW4GjkStatus@01@AEBU?$RelativeConvex@VConvexHullNoScaleV@Gu@physx@@@01@AEBU?$LocalConvex@VConvexHullV@Gu@physx@@@01@AEBT__m128@@2_NPEIAE4AEAEAEAUGjkOutput@01@@Z 000000018014c9e0 f i GuPCMContactConvexConvex.obj
 0001:0014ba50       ??$gjkPenetration@U?$RelativeConvex@VConvexHullNoScaleV@Gu@physx@@@Gu@physx@@U?$LocalConvex@VConvexHullV@Gu@physx@@@23@@Gu@physx@@YA?AW4GjkStatus@01@AEBU?$RelativeConvex@VConvexHullNoScaleV@Gu@physx@@@01@AEBU?$LocalConvex@VConvexHullV@Gu@physx@@@01@AEBT__m128@@2_NPEIAE4PEIAT5@5AEAEAEAUGjkOutput@01@@Z 000000018014ca50 f i GuPCMContactConvexConvex.obj
 0001:0014cfe0       ??$gjkPenetration@U?$RelativeConvex@VConvexHullV@Gu@physx@@@Gu@physx@@U?$LocalConvex@VConvexHullNoScaleV@Gu@physx@@@23@@Gu@physx@@YA?AW4GjkStatus@01@AEBU?$RelativeConvex@VConvexHullV@Gu@physx@@@01@AEBU?$LocalConvex@VConvexHullNoScaleV@Gu@physx@@@01@AEBT__m128@@2_NPEIAE4AEAEAEAUGjkOutput@01@@Z 000000018014dfe0 f i GuPCMContactConvexConvex.obj
 0001:0014d050       ??$gjkPenetration@U?$RelativeConvex@VConvexHullV@Gu@physx@@@Gu@physx@@U?$LocalConvex@VConvexHullNoScaleV@Gu@physx@@@23@@Gu@physx@@YA?AW4GjkStatus@01@AEBU?$RelativeConvex@VConvexHullV@Gu@physx@@@01@AEBU?$LocalConvex@VConvexHullNoScaleV@Gu@physx@@@01@AEBT__m128@@2_NPEIAE4PEIAT5@5AEAEAEAUGjkOutput@01@@Z 000000018014e050 f i GuPCMContactConvexConvex.obj
 0001:0014f000       ?pcmContactConvexConvex@Gu@physx@@YA_NAEBVPxGeometry@2@0AEBUPxTransformPadded@2@1AEBUNarrowPhaseParams@12@AEAUCache@12@AEAVPxContactBuffer@2@PEAVPxRenderOutput@2@@Z 0000000180150000 f   GuPCMContactConvexConvex.obj
 0001:001500e0       ?support@?$RelativeConvex@VConvexHullNoScaleV@Gu@physx@@@Gu@physx@@UEBA?AT__m128@@AEBT4@@Z 00000001801510e0 f i GuPCMContactConvexConvex.obj
 0001:00150190       ?support@?$RelativeConvex@VConvexHullNoScaleV@Gu@physx@@@Gu@physx@@UEBA?AT__m128@@AEBT4@AEAH@Z 0000000180151190 f i GuPCMContactConvexConvex.obj
 0001:00150250       ?supportPoint@?$RelativeConvex@VConvexHullNoScaleV@Gu@physx@@@Gu@physx@@UEBA?AT__m128@@H@Z 0000000180151250 f i GuPCMContactConvexConvex.obj
 0001:001502e0       ?PCMContactConvexHeightfield@Gu@physx@@YA_NAEBUPolygonalData@12@PEBVSupportLocal@12@AEBT__m128@@AEBVPxBounds3@2@AEBVPxHeightFieldGeometry@2@AEBV?$PxTransformT@M@2@5MAEAVPxContactBuffer@2@AEBVFastVertex2ShapeScaling@Cm@2@_NAEAVMultiplePersistentContactManifold@12@PEAVPxRenderOutput@2@@Z 00000001801512e0 f   GuPCMContactConvexHeightField.obj
 0001:00151130       ?pcmContactBoxHeightField@Gu@physx@@YA_NAEBVPxGeometry@2@0AEBUPxTransformPadded@2@1AEBUNarrowPhaseParams@12@AEAUCache@12@AEAVPxContactBuffer@2@PEAVPxRenderOutput@2@@Z 0000000180152130 f   GuPCMContactConvexHeightField.obj
 0001:001513d0       ?pcmContactConvexHeightField@Gu@physx@@YA_NAEBVPxGeometry@2@0AEBUPxTransformPadded@2@1AEBUNarrowPhaseParams@12@AEAUCache@12@AEAVPxContactBuffer@2@PEAVPxRenderOutput@2@@Z 00000001801523d0 f   GuPCMContactConvexHeightField.obj
 0001:00152120       ?PCMContactConvexMesh@Gu@physx@@YA_NAEBUPolygonalData@12@PEBVSupportLocal@12@AEBT__m128@@AEBVPxBounds3@2@AEBVPxTriangleMeshGeometry@2@AEBV?$PxTransformT@M@2@5MAEAVPxContactBuffer@2@AEBVFastVertex2ShapeScaling@Cm@2@7_N8AEAVMultiplePersistentContactManifold@12@PEAVPxRenderOutput@2@@Z 0000000180153120 f   GuPCMContactConvexMesh.obj
 0001:00152bf0       ?pcmContactBoxMesh@Gu@physx@@YA_NAEBVPxGeometry@2@0AEBUPxTransformPadded@2@1AEBUNarrowPhaseParams@12@AEAUCache@12@AEAVPxContactBuffer@2@PEAVPxRenderOutput@2@@Z 0000000180153bf0 f   GuPCMContactConvexMesh.obj
 0001:00152f40       ?pcmContactConvexMesh@Gu@physx@@YA_NAEBVPxGeometry@2@0AEBUPxTransformPadded@2@1AEBUNarrowPhaseParams@12@AEAUCache@12@AEAVPxContactBuffer@2@PEAVPxRenderOutput@2@@Z 0000000180153f40 f   GuPCMContactConvexMesh.obj
 0001:00153be0       ?addGJKEPAContacts@Gu@physx@@YA_NPEBUGjkConvex@12@0AEBVPxMatTransformV@aos@2@W4GjkStatus@12@PEAVPersistentContact@12@T__m128@@4AEAUGjkOutput@12@AEAVPersistentContactManifold@12@@Z 0000000180154be0 f   GuPCMContactGenBoxConvex.obj
 0001:00154090       ?computeMTD@Gu@physx@@YA_NAEBUPolygonalData@12@0PEBVSupportLocal@12@1AEAT__m128@@2@Z 0000000180155090 f   GuPCMContactGenBoxConvex.obj
 0001:001546c0       ?generateFullContactManifold@Gu@physx@@YA_NAEBUPolygonalData@12@0PEBVSupportLocal@12@1PEAVPersistentContact@12@AEAIAEBT__m128@@444MM_NPEAVPxRenderOutput@2@M@Z 00000001801556c0 f   GuPCMContactGenBoxConvex.obj
 0001:00156600       ?computeMTD@Gu@physx@@YA_NAEBVCapsuleV@12@AEBUPolygonalData@12@PEBVSupportLocal@12@AEAT__m128@@3@Z 0000000180157600 f   GuPCMContactGenSphereCapsule.obj
 0001:001566f0       ?generateCapsuleBoxFullContactManifold@Gu@physx@@YA_NAEBVCapsuleV@12@AEBUPolygonalData@12@PEBVSupportLocal@12@AEBVPxMatTransformV@aos@2@PEAVPersistentContact@12@AEAIAEBT__m128@@AEAT9@6M_NMPEAVPxRenderOutput@2@@Z 00000001801576f0 f   GuPCMContactGenSphereCapsule.obj
 0001:00156890       ?generateFullContactManifold@Gu@physx@@YA_NAEBVCapsuleV@12@AEBUPolygonalData@12@PEBVSupportLocal@12@AEBVPxMatTransformV@aos@2@PEAVPersistentContact@12@AEAIAEBT__m128@@AEAT9@6M_NM@Z 0000000180157890 f   GuPCMContactGenSphereCapsule.obj
 0001:00156a80       ?generateSphereFullContactManifold@Gu@physx@@YA_NAEBVCapsuleV@12@AEBUPolygonalData@12@PEBVSupportLocal@12@PEAVPersistentContact@12@AEAIAEBT__m128@@AEAT7@_N@Z 0000000180157a80 f   GuPCMContactGenSphereCapsule.obj
 0001:00157f30       ?pcmContactPlaneBox@Gu@physx@@YA_NAEBVPxGeometry@2@0AEBUPxTransformPadded@2@1AEBUNarrowPhaseParams@12@AEAUCache@12@AEAVPxContactBuffer@2@PEAVPxRenderOutput@2@@Z 0000000180158f30 f   GuPCMContactPlaneBox.obj
 0001:00158ae0       ?pcmContactPlaneCapsule@Gu@physx@@YA_NAEBVPxGeometry@2@0AEBUPxTransformPadded@2@1AEBUNarrowPhaseParams@12@AEAUCache@12@AEAVPxContactBuffer@2@PEAVPxRenderOutput@2@@Z 0000000180159ae0 f   GuPCMContactPlaneCapsule.obj
 0001:00159270       ?pcmContactPlaneConvex@Gu@physx@@YA_NAEBVPxGeometry@2@0AEBUPxTransformPadded@2@1AEBUNarrowPhaseParams@12@AEAUCache@12@AEAVPxContactBuffer@2@PEAVPxRenderOutput@2@@Z 000000018015a270 f   GuPCMContactPlaneConvex.obj
 0001:00159ed0       ?pcmContactSphereBox@Gu@physx@@YA_NAEBVPxGeometry@2@0AEBUPxTransformPadded@2@1AEBUNarrowPhaseParams@12@AEAUCache@12@AEAVPxContactBuffer@2@PEAVPxRenderOutput@2@@Z 000000018015aed0 f   GuPCMContactSphereBox.obj
 0001:0015a330       ?pcmContactSphereCapsule@Gu@physx@@YA_NAEBVPxGeometry@2@0AEBUPxTransformPadded@2@1AEBUNarrowPhaseParams@12@AEAUCache@12@AEAVPxContactBuffer@2@PEAVPxRenderOutput@2@@Z 000000018015b330 f   GuPCMContactSphereCapsule.obj
 0001:0015a7b0       ?pcmContactSphereConvex@Gu@physx@@YA_NAEBVPxGeometry@2@0AEBUPxTransformPadded@2@1AEBUNarrowPhaseParams@12@AEAUCache@12@AEAVPxContactBuffer@2@PEAVPxRenderOutput@2@@Z 000000018015b7b0 f   GuPCMContactSphereConvex.obj
 0001:0015b470       ??1?$PxArray@USortedTriangle@Gu@physx@@V?$PxInlineAllocator@$0IAA@V?$PxReflectionAllocator@USortedTriangle@Gu@physx@@@physx@@@3@@physx@@QEAA@XZ 000000018015c470 f i GuPCMContactSphereHeightField.obj
 0001:0015b530       ?pcmContactSphereHeightField@Gu@physx@@YA_NAEBVPxGeometry@2@0AEBUPxTransformPadded@2@1AEBUNarrowPhaseParams@12@AEAUCache@12@AEAVPxContactBuffer@2@PEAVPxRenderOutput@2@@Z 000000018015c530 f   GuPCMContactSphereHeightField.obj
 0001:0015c590       ??$PxSort@USortedTriangle@Gu@physx@@U?$PxLess@USortedTriangle@Gu@physx@@@3@V?$PxReflectionAllocator@USortedTriangle@Gu@physx@@@3@@physx@@YAXPEAUSortedTriangle@Gu@0@IAEBU?$PxLess@USortedTriangle@Gu@physx@@@0@AEBV?$PxReflectionAllocator@USortedTriangle@Gu@physx@@@0@I@Z 000000018015d590 f i GuPCMContactSphereMesh.obj
 0001:0015cac0       ??$processTriangleCache@$0BA@VPCMSphereVsMeshContactGeneration@Gu@physx@@@PCMMeshContactGeneration@Gu@physx@@QEAA_NAEAU?$TriangleCache@$0BA@@12@@Z 000000018015dac0 f i GuPCMContactSphereMesh.obj
 0001:0015d0e0       ?addToPatch@PCMSphereVsMeshContactGeneration@Gu@physx@@QEAAXAEBT__m128@@0T4@I@Z 000000018015e0e0 f   GuPCMContactSphereMesh.obj
 0001:0015d780       ?allocate@?$PxArray@IV?$PxInlineAllocator@$0PAA@V?$PxReflectionAllocator@I@physx@@@physx@@@physx@@IEAAPEAIIPEAI@Z 000000018015e780 f i GuPCMContactSphereMesh.obj
 0001:0015d840       ?allocate@?$PxArray@USortedTriangle@Gu@physx@@V?$PxInlineAllocator@$0IAA@V?$PxReflectionAllocator@USortedTriangle@Gu@physx@@@physx@@@3@@physx@@IEAAPEAUSortedTriangle@Gu@2@IPEAI@Z 000000018015e840 f i GuPCMContactSphereMesh.obj
 0001:0015d900       ?generateLastContacts@PCMSphereVsMeshContactGeneration@Gu@physx@@QEAAXXZ 000000018015e900 f   GuPCMContactSphereMesh.obj
 0001:0015df40       ?growAndPushBack@?$PxArray@USortedTriangle@Gu@physx@@V?$PxInlineAllocator@$0IAA@V?$PxReflectionAllocator@USortedTriangle@Gu@physx@@@physx@@@3@@physx@@IEAAAEAUSortedTriangle@Gu@2@AEBU342@@Z 000000018015ef40 f i GuPCMContactSphereMesh.obj
 0001:0015e050       ?pcmContactSphereMesh@Gu@physx@@YA_NAEBVPxGeometry@2@0AEBUPxTransformPadded@2@1AEBUNarrowPhaseParams@12@AEAUCache@12@AEAVPxContactBuffer@2@PEAVPxRenderOutput@2@@Z 000000018015f050 f   GuPCMContactSphereMesh.obj
 0001:0015faf0       ?processTriangle@PCMSphereVsMeshContactGeneration@Gu@physx@@QEAA_NPEBV?$PxVec3T@M@3@IEPEBI@Z 0000000180160af0 f   GuPCMContactSphereMesh.obj
 0001:0015fef0       ?recreate@?$PxArray@IV?$PxInlineAllocator@$0PAA@V?$PxReflectionAllocator@I@physx@@@physx@@@physx@@IEAAXI@Z 0000000180160ef0 f i GuPCMContactSphereMesh.obj
 0001:0015ffb0       ?pcmContactSpherePlane@Gu@physx@@YA_NAEBVPxGeometry@2@0AEBUPxTransformPadded@2@1AEBUNarrowPhaseParams@12@AEAUCache@12@AEAVPxContactBuffer@2@PEAVPxRenderOutput@2@@Z 0000000180160fb0 f   GuPCMContactSpherePlane.obj
 0001:00160130       ?pcmContactSphereSphere@Gu@physx@@YA_NAEBVPxGeometry@2@0AEBUPxTransformPadded@2@1AEBUNarrowPhaseParams@12@AEAUCache@12@AEAVPxContactBuffer@2@PEAVPxRenderOutput@2@@Z 0000000180161130 f   GuPCMContactSphereSphere.obj
 0001:001609f0       ?pcmContactGeometryCustomGeometry@Gu@physx@@YA_NAEBVPxGeometry@2@0AEBUPxTransformPadded@2@1AEBUNarrowPhaseParams@12@AEAUCache@12@AEAVPxContactBuffer@2@PEAVPxRenderOutput@2@@Z 00000001801619f0 f   GuPCMContactCustomGeometry.obj
 0001:00160aa0       ?getPCMConvexData@Gu@physx@@YAXAEBVConvexHullV@12@_NAEAUPolygonalData@12@@Z 0000000180161aa0 f   GuPCMShapeConvex.obj
 0001:00160ae0       ?getPCMConvexData@Gu@physx@@YA_NAEBVPxConvexMeshGeometry@2@AEAVFastVertex2ShapeScaling@Cm@2@AEAVPxBounds3@2@AEAUPolygonalData@12@@Z 0000000180161ae0 f   GuPCMShapeConvex.obj
 0001:00161050       ?getPolygonalData@PCMPolygonalBox@Gu@physx@@QEBAXPEIAUPolygonalData@23@@Z 0000000180162050 f   GuPCMShapeConvex.obj
 0001:001610d0       ?generatePolyDataContactManifold@PCMConvexVsMeshContactGeneration@Gu@physx@@QEAA_NAEBVTriangleV@23@IIEPEAVMeshPersistentContact@23@AEAIAEBT__m128@@AEAT6@@Z 00000001801620d0 f   GuPCMTriangleContactGen.obj
 0001:001611f0       ?generateTriangleFullContactManifold@PCMConvexVsMeshContactGeneration@Gu@physx@@QEAA_NAEBVTriangleV@23@IPEBIEAEBUPolygonalData@23@PEBV?$SupportLocalImpl@VTriangleV@Gu@physx@@@23@PEBVSupportLocal@23@PEAVMeshPersistentContact@23@AEAIAEBT__m128@@AEAT9@@Z 00000001801621f0 f   GuPCMTriangleContactGen.obj
 0001:00161720       ?generateTriangleFullContactManifold@PCMConvexVsMeshContactGeneration@Gu@physx@@SA_NAEBVTriangleV@23@IEAEBUPolygonalData@23@PEBV?$SupportLocalImpl@VTriangleV@Gu@physx@@@23@PEBVSupportLocal@23@PEAVMeshPersistentContact@23@AEAIAEBT__m128@@AEAT9@PEAVPxRenderOutput@3@@Z 0000000180162720 f   GuPCMTriangleContactGen.obj
 0001:001637b0       ?addBatchManifoldContacts2@PersistentContactManifold@Gu@physx@@QEAAXPEBVPersistentContact@23@I@Z 00000001801647b0 f   GuPersistentContactManifold.obj
 0001:00163820       ?addBatchManifoldContacts@PersistentContactManifold@Gu@physx@@QEAAXPEBVPersistentContact@23@IM@Z 0000000180164820 f   GuPersistentContactManifold.obj
 0001:001638a0       ?addBatchManifoldContactsCluster@PersistentContactManifold@Gu@physx@@QEAAXPEBVPersistentContact@23@I@Z 00000001801648a0 f   GuPersistentContactManifold.obj
 0001:00163b20       ?addManifoldContactPoints@MultiplePersistentContactManifold@Gu@physx@@QEAAXPEAVMeshPersistentContact@23@IPEAPEAUPCMContactPatch@23@IAEBT__m128@@2E@Z 0000000180164b20 f   GuPersistentContactManifold.obj
 0001:00163f30       ?addManifoldContactsToContactBuffer@MultiplePersistentContactManifold@Gu@physx@@QEAA_NAEAVPxContactBuffer@3@AEBVPxTransformV@aos@3@1AEBT__m128@@@Z 0000000180164f30 f   GuPersistentContactManifold.obj
 0001:001641f0       ?addManifoldContactsToContactBuffer@MultiplePersistentContactManifold@Gu@physx@@QEAA_NAEAVPxContactBuffer@3@AEBVPxTransformV@aos@3@@Z 00000001801651f0 f   GuPersistentContactManifold.obj
 0001:00164480       ?addManifoldContactsToContactBuffer@PersistentContactManifold@Gu@physx@@QEAAXAEAVPxContactBuffer@3@AEBT__m128@@1AEBVPxTransformV@aos@3@11@Z 0000000180165480 f   GuPersistentContactManifold.obj
 0001:00164610       ?addManifoldContactsToContactBuffer@PersistentContactManifold@Gu@physx@@QEAAXAEAVPxContactBuffer@3@AEBT__m128@@AEBVPxMatTransformV@aos@3@@Z 0000000180165610 f   GuPersistentContactManifold.obj
 0001:001646c0       ?addManifoldContactsToContactBuffer@PersistentContactManifold@Gu@physx@@QEAAXAEAVPxContactBuffer@3@AEBT__m128@@AEBVPxTransformV@aos@3@1@Z 00000001801656c0 f   GuPersistentContactManifold.obj
 0001:00164820       ?addManifoldPoint2@PersistentContactManifold@Gu@physx@@QEAAIAEBT__m128@@000@Z 0000000180165820 f   GuPersistentContactManifold.obj
 0001:00164950       ?addManifoldPoint@Gu@physx@@YAXPEAVPersistentContact@12@AEAVPersistentContactManifold@12@AEAUGjkOutput@12@AEBVPxMatTransformV@aos@2@T__m128@@@Z 0000000180165950 f   GuPersistentContactManifold.obj
 0001:00164b00       ?addManifoldPoint@PersistentContactManifold@Gu@physx@@QEAAIAEBT__m128@@000@Z 0000000180165b00 f   GuPersistentContactManifold.obj
 0001:00164f40       ?drawLine@MultiplePersistentContactManifold@Gu@physx@@SAXAEAVPxRenderOutput@3@AEBT__m128@@1I@Z 0000000180165f40 f   GuPersistentContactManifold.obj
 0001:00164ff0       ?drawLine@MultiplePersistentContactManifold@Gu@physx@@SAXAEAVPxRenderOutput@3@V?$PxVec3T@M@3@1I@Z 0000000180165ff0 f   GuPersistentContactManifold.obj
 0001:00165060       ?drawManifold@MultiplePersistentContactManifold@Gu@physx@@QEBAXAEAVPxRenderOutput@3@AEBVPxTransformV@aos@3@1@Z 0000000180166060 f   GuPersistentContactManifold.obj
 0001:001656f0       ?drawPoint@MultiplePersistentContactManifold@Gu@physx@@SAXAEAVPxRenderOutput@3@AEBT__m128@@MI@Z 00000001801666f0 f   GuPersistentContactManifold.obj
 0001:00165900       ?drawPolygon@MultiplePersistentContactManifold@Gu@physx@@SAXAEAVPxRenderOutput@3@AEBVPxTransformV@aos@3@PEAT__m128@@II@Z 0000000180166900 f   GuPersistentContactManifold.obj
 0001:00165b40       ?findRotationMatrixFromZAxis@Gu@physx@@YA?AUMat33V@aos@2@AEBT__m128@@@Z 0000000180166b40 f   GuPersistentContactManifold.obj
 0001:00165dc0       ?fromBuffer@MultiplePersistentContactManifold@Gu@physx@@QEAAXPEIAE@Z 0000000180166dc0 f   GuPersistentContactManifold.obj
 0001:00165f10       ?reduceBatchContacts2@PersistentContactManifold@Gu@physx@@QEAAXPEBVPersistentContact@23@I@Z 0000000180166f10 f   GuPersistentContactManifold.obj
 0001:00166120       ?reduceBatchContacts@PersistentContactManifold@Gu@physx@@QEAAXPEBVPersistentContact@23@IM@Z 0000000180167120 f   GuPersistentContactManifold.obj
 0001:001665d0       ?reduceBatchContactsCapsule@SinglePersistentContactManifold@Gu@physx@@QEAA?AT__m128@@PEBVMeshPersistentContact@23@IAEAUPCMContactPatch@23@@Z 00000001801675d0 f   GuPersistentContactManifold.obj
 0001:00166870       ?reduceBatchContactsCluster@PersistentContactManifold@Gu@physx@@QEAAXPEBVPersistentContact@23@I@Z 0000000180167870 f   GuPersistentContactManifold.obj
 0001:00166d00       ?reduceBatchContactsConvex@SinglePersistentContactManifold@Gu@physx@@QEAA?AT__m128@@PEBVMeshPersistentContact@23@IAEAUPCMContactPatch@23@@Z 0000000180167d00 f   GuPersistentContactManifold.obj
 0001:001672f0       ?reduceContacts@SinglePersistentContactManifold@Gu@physx@@SAIPEAVMeshPersistentContact@23@I@Z 00000001801682f0 f   GuPersistentContactManifold.obj
 0001:00167880       ?reduceContactsForPCM@PersistentContactManifold@Gu@physx@@QEAAIAEBT__m128@@00@Z 0000000180168880 f   GuPersistentContactManifold.obj
 0001:00167e20       ?refreshContactPoints@SinglePersistentContactManifold@Gu@physx@@QEAA?AT__m128@@AEBVPxMatTransformV@aos@3@AEBT4@1@Z 0000000180168e20 f   GuPersistentContactManifold.obj
 0001:00167f70       ?replaceManifoldPoint@PersistentContactManifold@Gu@physx@@QEAA_NAEBT__m128@@000@Z 0000000180168f70 f   GuPersistentContactManifold.obj
 0001:00168040       ?toBuffer@MultiplePersistentContactManifold@Gu@physx@@QEBAXPEIAE@Z 0000000180169040 f   GuPersistentContactManifold.obj
 0001:00168120       ?contains@Gu@physx@@YA_NPEAT__m128@@IAEBT3@11@Z 0000000180169120 f   GuPCMContactGenUtil.obj
 0001:001682e0       ?getPolygonIndex@Gu@physx@@YAHAEBUPolygonalData@12@PEBVSupportLocal@12@AEBT__m128@@AEAH@Z 00000001801692e0 f   GuPCMContactGenUtil.obj
 0001:00168580       ?getWitnessPolygonIndex@Gu@physx@@YAIAEBUPolygonalData@12@PEBVSupportLocal@12@AEBT__m128@@2M@Z 0000000180169580 f   GuPCMContactGenUtil.obj
 0001:00168ac0       ?sweepBoxBox@Gu@physx@@YA_NAEBVBox@12@0AEBV?$PxVec3T@M@2@MV?$PxFlags@W4Enum@PxHitFlag@physx@@G@2@AEAUPxGeomSweepHit@2@@Z 0000000180169ac0 f   GuSweepBoxBox.obj
 0001:0016a0c0       ?sweepBoxSphere@Gu@physx@@YA_NAEBVBox@12@MAEBV?$PxVec3T@M@2@1MAEAMAEAV42@V?$PxFlags@W4Enum@PxHitFlag@physx@@G@2@@Z 000000018016b0c0 f   GuSweepBoxSphere.obj
 0001:0016ad00       ?sweepBoxTriangle@Gu@physx@@YA_NAEBVPxTriangle@2@AEBVPxBounds3@2@AEBV?$PxVec3T@M@2@2AEAV52@3AEAM_N@Z 000000018016bd00 f   GuSweepBoxTriangle_FeatureBased.obj
 0001:0016c3a0       ?triBoxSweepTestBoxSpace@Gu@physx@@YAHAEBVPxTriangle@2@AEBV?$PxVec3T@M@2@11MAEAM_N@Z 000000018016d3a0 f   GuSweepBoxTriangle_SAT.obj
 0001:0016dcb0       ?sweepCapsuleBox@Gu@physx@@YA_NAEBVCapsule@12@AEBV?$PxTransformT@M@2@AEBV?$PxVec3T@M@2@2MAEAV52@AEAM3V?$PxFlags@W4Enum@PxHitFlag@physx@@G@2@@Z 000000018016ecb0 f   GuSweepCapsuleBox.obj
 0001:0016dff0       ?distancePointSegmentSquared@Gu@physx@@YAMAEBVSegment@12@AEBV?$PxVec3T@M@2@PEAM@Z 000000018016eff0 f i GuSweepCapsuleCapsule.obj
 0001:0016e100       ?edgeEdgeDist@@YAXAEAV?$PxVec3T@M@physx@@0AEBV12@111@Z 000000018016f100 f   GuSweepCapsuleCapsule.obj
 0001:0016e370       ?sweepCapsuleCapsule@Gu@physx@@YA_NAEBVCapsule@12@0AEBV?$PxVec3T@M@2@MAEAMAEAV42@3IAEAG@Z 000000018016f370 f   GuSweepCapsuleCapsule.obj
 0001:0016f140       ?sweepCapsuleTriangles_Precise@Gu@physx@@YA_NIPEIBVPxTriangle@2@AEBVCapsule@12@AEBV?$PxVec3T@M@2@MPEIBIAEAUPxGeomSweepHit@2@AEAV52@V?$PxFlags@W4Enum@PxHitFlag@physx@@G@2@_NPEBVBoxPadded@12@@Z 0000000180170140 f   GuSweepCapsuleTriangle.obj
 0001:00171260       ?sweepSphereCapsule@Gu@physx@@YA_NAEBVSphere@12@AEBVCapsule@12@AEBV?$PxVec3T@M@2@MAEAMAEAV52@4V?$PxFlags@W4Enum@PxHitFlag@physx@@G@2@@Z 0000000180172260 f   GuSweepSphereCapsule.obj
 0001:00171900       ?sweepSphereSphere@Gu@physx@@YA_NAEBV?$PxVec3T@M@2@M0M0AEAMAEAV32@@Z 0000000180172900 f   GuSweepSphereSphere.obj
 0001:00171b90       ?sweepSphereTriangles@Gu@physx@@YA_NIPEIBVPxTriangle@2@AEBV?$PxVec3T@M@2@M1MPEIBIAEAUPxGeomSweepHit@2@AEAV42@_N555@Z 0000000180172b90 f   GuSweepSphereTriangle.obj
 0001:00172480       ?sweepSphereVSQuad@Gu@physx@@YA_NPEIBV?$PxVec3T@M@2@AEBV32@1M1AEAM@Z 0000000180173480 f   GuSweepSphereTriangle.obj
 0001:001734b0       ?sweepSphereVSTri@Gu@physx@@YA_NPEIBV?$PxVec3T@M@2@AEBV32@1M1AEAMAEA_N_N@Z 00000001801744b0 f   GuSweepSphereTriangle.obj
 0001:00174160       ??$gjk@U?$LocalConvex@VTriangleV@Gu@physx@@@Gu@physx@@U?$LocalConvex@VBoxV@Gu@physx@@@23@@Gu@physx@@YA?AW4GjkStatus@01@AEBU?$LocalConvex@VTriangleV@Gu@physx@@@01@AEBU?$LocalConvex@VBoxV@Gu@physx@@@01@AEBT__m128@@2AEAT5@333@Z 0000000180175160 f i GuSweepTriangleUtils.obj
 0001:00174e50       ?computeBoxTriImpactData@Gu@physx@@YAXAEAV?$PxVec3T@M@2@0AEBV32@1AEBVPxTriangle@2@M@Z 0000000180175e50 f   GuSweepTriangleUtils.obj
 0001:001750e0       ?computeEdgeEdgeNormal@Gu@physx@@YAXAEAV?$PxVec3T@M@2@AEBV32@1111M@Z 00000001801760e0 f   GuSweepTriangleUtils.obj
 0001:00175390       ?computeSphereTriImpactData@Gu@physx@@YAXAEAV?$PxVec3T@M@2@0AEBV32@1MAEBVPxTriangle@2@@Z 0000000180176390 f   GuSweepTriangleUtils.obj
 0001:00175870       ??0ShapeData@Gu@physx@@QEAA@AEBVPxGeometry@2@AEBV?$PxTransformT@M@2@M@Z 0000000180176870 f   GuBounds.obj
 0001:00175dd0       ?computeBounds@Gu@physx@@YAXAEAVPxBounds3@2@AEBVPxGeometry@2@AEBV?$PxTransformT@M@2@MM@Z 0000000180176dd0 f   GuBounds.obj
 0001:00176cc0       ?computeBoundsAroundVertices@Gu@physx@@YAXAEAVPxBounds3@2@IPEIBV?$PxVec3T@M@2@@Z 0000000180177cc0 f   GuBounds.obj
 0001:00176d70       ?computeGlobalBox@Gu@physx@@YAXAEAVPxBounds3@2@IPEIBV32@PEIBI@Z 0000000180177d70 f   GuBounds.obj
 0001:00176e00       ?computeLocalBoundsAndGeomEpsilon@Gu@physx@@YAXPEBV?$PxVec3T@M@2@IAEAVPxBounds3@2@AEAM@Z 0000000180177e00 f   GuBounds.obj
 0001:00177ee0       ?computeTightBounds@Gu@physx@@YAXAEAVPxBounds3@2@IPEIBV?$PxVec3T@M@2@AEBV?$PxTransformT@M@2@AEBVPxMeshScale@2@MM@Z 0000000180178ee0 f   GuBounds.obj
 0001:001782a0       ??0AABBTree@Gu@physx@@QEAA@XZ 00000001801792a0 f   GuAABBTree.obj
 0001:001782d0       ??0BVHPartialRefitData@Gu@physx@@QEAA@XZ 00000001801792d0 f   GuAABBTree.obj
 0001:00178300       ??0NodeAllocator@Gu@physx@@QEAA@XZ 0000000180179300 f   GuAABBTree.obj
 0001:00178320       ??1AABBTree@Gu@physx@@QEAA@XZ 0000000180179320 f   GuAABBTree.obj
 0001:00178340       ??1BVHPartialRefitData@Gu@physx@@QEAA@XZ 0000000180179340 f   GuAABBTree.obj
 0001:001783f0       ??1NodeAllocator@Gu@physx@@QEAA@XZ 00000001801793f0 f   GuAABBTree.obj
 0001:00178440       ?addRuntimeChilds@AABBTree@Gu@physx@@AEAAXAEAIAEBVAABBTreeMergeData@23@@Z 0000000180179440 f   GuAABBTree.obj
 0001:00178540       ?allocate@?$PxArray@PEAVAABBTreeBuildNode@Gu@physx@@V?$PxInlineAllocator@$0IAA@V?$PxReflectionAllocator@PEAVAABBTreeBuildNode@Gu@physx@@@physx@@@3@@physx@@IEAAPEAPEAVAABBTreeBuildNode@Gu@2@IPEAI@Z 0000000180179540 f i GuAABBTree.obj
 0001:00178600       ?build@AABBTree@Gu@physx@@QEAA_NAEBVAABBTreeBuildParams@23@AEAVNodeAllocator@23@@Z 0000000180179600 f   GuAABBTree.obj
 0001:001786b0       ?buildAABBTree@Gu@physx@@YAPEAIAEBVAABBTreeBuildParams@12@AEAVNodeAllocator@12@AEAUBuildStats@12@@Z 00000001801796b0 f   GuAABBTree.obj
 0001:00178720       ?buildAABBTree@Gu@physx@@YAXIAEBVAABBTreeBounds@12@AEAV?$PxArray@UBVHNode@Gu@physx@@V?$PxReflectionAllocator@UBVHNode@Gu@physx@@@3@@2@@Z 0000000180179720 f   GuAABBTree.obj
 0001:001788d0       ?buildEnd@AABBTree@Gu@physx@@AEAAXAEBVAABBTreeBuildParams@23@AEAVNodeAllocator@23@AEBUBuildStats@23@@Z 00000001801798d0 f   GuAABBTree.obj
 0001:00178c40       ?constructFromTetrahedra@TinyBVH@Gu@physx@@SAXPEBIIPEBV?$PxVec3T@M@3@AEAU123@M@Z 0000000180179c40 f   GuAABBTree.obj
 0001:00178f40       ?constructFromTriangles@TinyBVH@Gu@physx@@SAXPEBIIPEBV?$PxVec3T@M@3@AEAU123@M@Z 0000000180179f40 f   GuAABBTree.obj
 0001:001792f0       ?createUpdateMap@BVHPartialRefitData@Gu@physx@@QEAAXI@Z 000000018017a2f0 f   GuAABBTree.obj
 0001:00179410       ?flattenTree@Gu@physx@@YAXAEBVNodeAllocator@12@PEAUBVHNode@12@PEBI@Z 000000018017a410 f   GuAABBTree.obj
 0001:001795c0       ?fullRefit@BVHCoreData@Gu@physx@@QEAAXPEBVPxBounds3@3@@Z 000000018017a5c0 f   GuAABBTree.obj
 0001:00179780       ?getBiNode@NodeAllocator@Gu@physx@@QEAAPEAVAABBTreeBuildNode@23@XZ 000000018017a780 f   GuAABBTree.obj
 0001:001798b0       ?getParentIndices@BVHPartialRefitData@Gu@physx@@IEAAPEAIXZ 000000018017a8b0 f   GuAABBTree.obj
 0001:00179940       ?growAndPushBack@?$PxArray@PEAVAABBTreeBuildNode@Gu@physx@@V?$PxReflectionAllocator@PEAVAABBTreeBuildNode@Gu@physx@@@3@@physx@@IEAAAEAPEAVAABBTreeBuildNode@Gu@2@AEBQEAV342@@Z 000000018017a940 f i GuAABBTree.obj
 0001:00179a60       ?growAndPushBack@?$PxArray@USlab@NodeAllocator@Gu@physx@@V?$PxReflectionAllocator@USlab@NodeAllocator@Gu@physx@@@4@@physx@@IEAAAEAUSlab@NodeAllocator@Gu@2@AEBU3452@@Z 000000018017aa60 f i GuAABBTree.obj
 0001:00179b80       ?init@AABBTreeBounds@Gu@physx@@QEAAXIPEBVPxBounds3@3@@Z 000000018017ab80 f   GuAABBTree.obj
 0001:00179c40       ?init@NodeAllocator@Gu@physx@@QEAAXII@Z 000000018017ac40 f   GuAABBTree.obj
 0001:00179f80       ?initTree@AABBTree@Gu@physx@@QEAAXAEBVAABBTreeMergeData@23@@Z 000000018017af80 f   GuAABBTree.obj
 0001:0017a0d0       ?markNodeForRefit@BVHPartialRefitData@Gu@physx@@QEAAXI@Z 000000018017b0d0 f   GuAABBTree.obj
 0001:0017a1f0       ?mergeRuntimeLeaf@AABBTree@Gu@physx@@AEAAXAEAUBVHNode@23@AEBVAABBTreeMergeData@23@I@Z 000000018017b1f0 f   GuAABBTree.obj
 0001:0017a450       ?mergeRuntimeNode@AABBTree@Gu@physx@@AEAAXAEAUBVHNode@23@AEBVAABBTreeMergeData@23@I@Z 000000018017b450 f   GuAABBTree.obj
 0001:0017a790       ?mergeTree@AABBTree@Gu@physx@@QEAAXAEBVAABBTreeMergeData@23@@Z 000000018017b790 f   GuAABBTree.obj
 0001:0017aa30       ?progressiveBuild@AABBTree@Gu@physx@@QEAAIAEBVAABBTreeBuildParams@23@AEAVNodeAllocator@23@AEAUBuildStats@23@II@Z 000000018017ba30 f   GuAABBTree.obj
 0001:0017ace0       ?recreate@?$PxArray@PEAVAABBTreeBuildNode@Gu@physx@@V?$PxInlineAllocator@$0IAA@V?$PxReflectionAllocator@PEAVAABBTreeBuildNode@Gu@physx@@@physx@@@3@@physx@@IEAAXI@Z 000000018017bce0 f i GuAABBTree.obj
 0001:0017ada0       ?refitMarkedNodes@BVHPartialRefitData@Gu@physx@@QEAAXPEBVPxBounds3@3@@Z 000000018017bda0 f   GuAABBTree.obj
 0001:0017af10       ?release@AABBTree@Gu@physx@@QEAAX_N@Z 000000018017bf10 f   GuAABBTree.obj
 0001:0017b000       ?release@AABBTreeBounds@Gu@physx@@QEAAXXZ 000000018017c000 f   GuAABBTree.obj
 0001:0017b050       ?release@NodeAllocator@Gu@physx@@QEAAXXZ 000000018017c050 f   GuAABBTree.obj
 0001:0017b100       ?releasePartialRefitData@BVHPartialRefitData@Gu@physx@@QEAAX_N@Z 000000018017c100 f   GuAABBTree.obj
 0001:0017b1a0       ?reshuffle@Gu@physx@@YAIIQEIAIPEIBV?$PxVec3T@M@2@MI@Z 000000018017c1a0 f   GuAABBTree.obj
 0001:0017b2e0       ?resize@?$PxArray@USlab@NodeAllocator@Gu@physx@@V?$PxReflectionAllocator@USlab@NodeAllocator@Gu@physx@@@4@@physx@@QEAAXIAEBUSlab@NodeAllocator@Gu@2@@Z 000000018017c2e0 f i GuAABBTree.obj
 0001:0017b360       ?resize@AABBTreeBounds@Gu@physx@@QEAAXII@Z 000000018017c360 f   GuAABBTree.obj
 0001:0017b420       ?resizeUninitialized@?$PxArray@PEAVAABBTreeBuildNode@Gu@physx@@V?$PxInlineAllocator@$0IAA@V?$PxReflectionAllocator@PEAVAABBTreeBuildNode@Gu@physx@@@physx@@@3@@physx@@QEAAXI@Z 000000018017c420 f i GuAABBTree.obj
 0001:0017b470       ?shiftIndices@AABBTree@Gu@physx@@QEAAXI@Z 000000018017c470 f   GuAABBTree.obj
 0001:0017b490       ?shiftOrigin@AABBTree@Gu@physx@@QEAAXAEBV?$PxVec3T@M@3@@Z 000000018017c490 f   GuAABBTree.obj
 0001:0017b710       ?subdivide@AABBTreeBuildNode@Gu@physx@@QEAAXAEBVAABBTreeBuildParams@23@AEAUBuildStats@23@AEAVNodeAllocator@23@QEAI@Z 000000018017c710 f   GuAABBTree.obj
 0001:0017b8f0       ?subdivideSAH@AABBTreeBuildNode@Gu@physx@@QEAAXAEBVAABBTreeBuildParams@23@AEAUSAH_Buffers@23@AEAUBuildStats@23@AEAVNodeAllocator@23@QEAI@Z 000000018017c8f0 f   GuAABBTree.obj
 0001:0017b9e0       ?traverseRuntimeNode@AABBTree@Gu@physx@@AEAAXAEAUBVHNode@23@AEBVAABBTreeMergeData@23@I@Z 000000018017c9e0 f   GuAABBTree.obj
 0001:0017bad0       ?initMap@AABBTreeUpdateMap@Gu@physx@@QEAAXIAEBVAABBTree@23@@Z 000000018017cad0 f   GuAABBTreeUpdateMap.obj
 0001:0017bc10       ?invalidate@AABBTreeUpdateMap@Gu@physx@@QEAAXIIAEAVAABBTree@23@@Z 000000018017cc10 f   GuAABBTreeUpdateMap.obj
 0001:0017beb0       ?visualizeTree@@YAXAEAVPxRenderOutput@physx@@IPEBVAABBTree@Gu@2@@Z 000000018017ceb0 f   GuSqInternal.obj
 0001:0017bf20       ?visualizeTree@@YAXAEAVPxRenderOutput@physx@@IPEBVBVH@Gu@2@@Z 000000018017cf20 f   GuSqInternal.obj
 0001:0017bf90       ?visualizeTree@@YAXAEAVPxRenderOutput@physx@@IPEBVIncrementalAABBTree@Gu@2@PEAVDebugVizCallback@2@@Z 000000018017cf90 f   GuSqInternal.obj
 0001:0017c010       ??$PxSort@PEAXU?$PxLess@PEAX@physx@@V?$PxReflectionAllocator@UAABBTreeIndices@Gu@physx@@@2@@physx@@YAXPEAPEAXIAEBU?$PxLess@PEAX@0@AEBV?$PxReflectionAllocator@UAABBTreeIndices@Gu@physx@@@0@I@Z 000000018017d010 f i GuIncrementalAABBTree.obj
 0001:0017c470       ??$PxSort@PEAXU?$PxLess@PEAX@physx@@V?$PxReflectionAllocator@UIncrementalAABBTreeNodePair@Gu@physx@@@2@@physx@@YAXPEAPEAXIAEBU?$PxLess@PEAX@0@AEBV?$PxReflectionAllocator@UIncrementalAABBTreeNodePair@Gu@physx@@@0@I@Z 000000018017d470 f i GuIncrementalAABBTree.obj
 0001:0017c8d0       ??0IncrementalAABBTree@Gu@physx@@QEAA@XZ 000000018017d8d0 f   GuIncrementalAABBTree.obj
 0001:0017c950       ??1?$PxPoolBase@UAABBTreeIndices@Gu@physx@@V?$PxReflectionAllocator@UAABBTreeIndices@Gu@physx@@@3@@physx@@QEAA@XZ 000000018017d950 f i GuIncrementalAABBTree.obj
 0001:0017cab0       ??1?$PxPoolBase@UIncrementalAABBTreeNodePair@Gu@physx@@V?$PxReflectionAllocator@UIncrementalAABBTreeNodePair@Gu@physx@@@3@@physx@@QEAA@XZ 000000018017dab0 f i GuIncrementalAABBTree.obj
 0001:0017cc10       ??1IncrementalAABBTree@Gu@physx@@QEAA@XZ 000000018017dc10 f   GuIncrementalAABBTree.obj
 0001:0017cc50       ?allocate@?$PxPoolBase@UAABBTreeIndices@Gu@physx@@V?$PxReflectionAllocator@UAABBTreeIndices@Gu@physx@@@3@@physx@@QEAAPEAUAABBTreeIndices@Gu@2@XZ 000000018017dc50 f i GuIncrementalAABBTree.obj
 0001:0017cd40       ?allocate@?$PxPoolBase@UIncrementalAABBTreeNodePair@Gu@physx@@V?$PxReflectionAllocator@UIncrementalAABBTreeNodePair@Gu@physx@@@3@@physx@@QEAAPEAUIncrementalAABBTreeNodePair@Gu@2@XZ 000000018017dd40 f i GuIncrementalAABBTree.obj
 0001:0017ce30       ?build@IncrementalAABBTree@Gu@physx@@QEAA_NAEBVAABBTreeBuildParams@23@AEAV?$PxArray@PEAVIncrementalAABBTreeNode@Gu@physx@@V?$PxReflectionAllocator@PEAVIncrementalAABBTreeNode@Gu@physx@@@3@@3@@Z 000000018017de30 f   GuIncrementalAABBTree.obj
 0001:0017d020       ?clone@IncrementalAABBTree@Gu@physx@@AEAAXAEAV?$PxArray@PEAVIncrementalAABBTreeNode@Gu@physx@@V?$PxReflectionAllocator@PEAVIncrementalAABBTreeNode@Gu@physx@@@3@@3@PEBIPEAPEAVIncrementalAABBTreeNode@23@@Z 000000018017e020 f   GuIncrementalAABBTree.obj
 0001:0017d4f0       ?copy@IncrementalAABBTree@Gu@physx@@QEAAXAEBVBVH@23@AEAV?$PxArray@PEAVIncrementalAABBTreeNode@Gu@physx@@V?$PxReflectionAllocator@PEAVIncrementalAABBTreeNode@Gu@physx@@@3@@3@@Z 000000018017e4f0 f   GuIncrementalAABBTree.obj
 0001:0017d5a0       ?copyNode@IncrementalAABBTree@Gu@physx@@AEAAXAEAVIncrementalAABBTreeNode@23@AEBUBVHNode@23@PEBU523@PEAV423@PEBIAEAV?$PxArray@PEAVIncrementalAABBTreeNode@Gu@physx@@V?$PxReflectionAllocator@PEAVIncrementalAABBTreeNode@Gu@physx@@@3@@3@@Z 000000018017e5a0 f   GuIncrementalAABBTree.obj
 0001:0017d760       ?fixupTreeIndices@IncrementalAABBTree@Gu@physx@@QEAAXPEAVIncrementalAABBTreeNode@23@II@Z 000000018017e760 f   GuIncrementalAABBTree.obj
 0001:0017d790       ?getTreeLeafDepth@IncrementalAABBTree@Gu@physx@@QEAAIPEAVIncrementalAABBTreeNode@23@@Z 000000018017e790 f   GuIncrementalAABBTree.obj
 0001:0017d7b0       ?growAndPushBack@?$PxArray@PEAVIncrementalAABBTreeNode@Gu@physx@@V?$PxReflectionAllocator@PEAVIncrementalAABBTreeNode@Gu@physx@@@3@@physx@@IEAAAEAPEAVIncrementalAABBTreeNode@Gu@2@AEBQEAV342@@Z 000000018017e7b0 f i GuIncrementalAABBTree.obj
 0001:0017d8d0       ?growAndPushBack@?$PxArray@PEAXV?$PxReflectionAllocator@UAABBTreeIndices@Gu@physx@@@physx@@@physx@@IEAAAEAPEAXAEBQEAX@Z 000000018017e8d0 f i GuIncrementalAABBTree.obj
 0001:0017d9f0       ?growAndPushBack@?$PxArray@PEAXV?$PxReflectionAllocator@UIncrementalAABBTreeNodePair@Gu@physx@@@physx@@@physx@@IEAAAEAPEAXAEBQEAX@Z 000000018017e9f0 f i GuIncrementalAABBTree.obj
 0001:0017db10       ?hierarchyCheck@IncrementalAABBTree@Gu@physx@@QEAAXIPEBVPxBounds3@3@@Z 000000018017eb10 f   GuIncrementalAABBTree.obj
 0001:0017dc70       ?hierarchyCheck@IncrementalAABBTree@Gu@physx@@QEAAXPEBVPxBounds3@3@@Z 000000018017ec70 f   GuIncrementalAABBTree.obj
 0001:0017ddd0       ?insert@IncrementalAABBTree@Gu@physx@@QEAAPEAVIncrementalAABBTreeNode@23@IPEBVPxBounds3@3@AEAV?$PxArray@PEAVIncrementalAABBTreeNode@Gu@physx@@V?$PxReflectionAllocator@PEAVIncrementalAABBTreeNode@Gu@physx@@@3@@3@@Z 000000018017edd0 f   GuIncrementalAABBTree.obj
 0001:0017e4c0       ?recreate@?$PxArray@PEAXV?$PxReflectionAllocator@UAABBTreeIndices@Gu@physx@@@physx@@@physx@@IEAAXI@Z 000000018017f4c0 f i GuIncrementalAABBTree.obj
 0001:0017e5b0       ?recreate@?$PxArray@PEAXV?$PxReflectionAllocator@UIncrementalAABBTreeNodePair@Gu@physx@@@physx@@@physx@@IEAAXI@Z 000000018017f5b0 f i GuIncrementalAABBTree.obj
 0001:0017e6a0       ?release@IncrementalAABBTree@Gu@physx@@QEAAXXZ 000000018017f6a0 f   GuIncrementalAABBTree.obj
 0001:0017e6d0       ?releaseNode@IncrementalAABBTree@Gu@physx@@AEAAXPEAVIncrementalAABBTreeNode@23@@Z 000000018017f6d0 f   GuIncrementalAABBTree.obj
 0001:0017e760       ?remove@IncrementalAABBTree@Gu@physx@@QEAAPEAVIncrementalAABBTreeNode@23@PEAV423@IPEBVPxBounds3@3@@Z 000000018017f760 f   GuIncrementalAABBTree.obj
 0001:0017ea60       ?rotateTree@IncrementalAABBTree@Gu@physx@@AEAAXPEAVIncrementalAABBTreeNode@23@AEAV?$PxArray@PEAVIncrementalAABBTreeNode@Gu@physx@@V?$PxReflectionAllocator@PEAVIncrementalAABBTreeNode@Gu@physx@@@3@@3@IPEBVPxBounds3@3@_N@Z 000000018017fa60 f   GuIncrementalAABBTree.obj
 0001:0017f310       ?shiftOrigin@IncrementalAABBTree@Gu@physx@@QEAAXAEBV?$PxVec3T@M@3@@Z 0000000180180310 f   GuIncrementalAABBTree.obj
 0001:0017f370       ?splitLeafNode@IncrementalAABBTree@Gu@physx@@AEAAPEAVIncrementalAABBTreeNode@23@PEAV423@IAEBT__m128@@1PEBVPxBounds3@3@@Z 0000000180180370 f   GuIncrementalAABBTree.obj
 0001:0017f670       ?update@IncrementalAABBTree@Gu@physx@@QEAAPEAVIncrementalAABBTreeNode@23@PEAV423@IPEBVPxBounds3@3@AEAV?$PxArray@PEAVIncrementalAABBTreeNode@Gu@physx@@V?$PxReflectionAllocator@PEAVIncrementalAABBTreeNode@Gu@physx@@@3@@3@@Z 0000000180180670 f   GuIncrementalAABBTree.obj
 0001:0017f730       ?updateFast@IncrementalAABBTree@Gu@physx@@QEAAPEAVIncrementalAABBTreeNode@23@PEAV423@IPEBVPxBounds3@3@AEAV?$PxArray@PEAVIncrementalAABBTreeNode@Gu@physx@@V?$PxReflectionAllocator@PEAVIncrementalAABBTreeNode@Gu@physx@@@3@@3@@Z 0000000180180730 f   GuIncrementalAABBTree.obj
 0001:0017f930       ??0SAH_Buffers@Gu@physx@@QEAA@I@Z 0000000180180930 f   GuSAH.obj
 0001:0017fa40       ??1SAH_Buffers@Gu@physx@@QEAA@XZ 0000000180180a40 f   GuSAH.obj
 0001:0017fb10       ?split@SAH_Buffers@Gu@physx@@QEAA_NAEAIIPEIBIPEIBVPxBounds3@3@PEIBV?$PxVec3T@M@3@@Z 0000000180180b10 f   GuSAH.obj
 0001:00180230       ??0BVH@Gu@physx@@QEAA@AEBUPxBVHInternalData@2@@Z 0000000180181230 f   GuBVH.obj
 0001:001802f0       ??0BVH@Gu@physx@@QEAA@PEAVMeshFactory@12@@Z 00000001801812f0 f   GuBVH.obj
 0001:00180360       ??0BVH@Gu@physx@@QEAA@PEAVMeshFactory@12@AEAVBVHData@12@@Z 0000000180181360 f   GuBVH.obj
 0001:00180410       ??1BVHData@Gu@physx@@QEAA@XZ 0000000180181410 f i GuBVH.obj
 0001:00183b34       ??_EBVH@Gu@physx@@WBA@EAAPEAXI@Z 0000000180184b34 f i GuBVH.obj
 0001:00183b40       ??_GBVH@Gu@physx@@UEAAPEAXI@Z 0000000180184b40 f i GuBVH.obj
 0001:00183b40       ??_EBVH@Gu@physx@@UEAAPEAXI@Z 0000000180184b40 f i GuBVH.obj
 0001:00183bd0       ??_GRefCountable@Cm@physx@@UEAAPEAXI@Z 0000000180184bd0 f i GuBVH.obj
 0001:00183bd0       ??_ERefCountable@Cm@physx@@UEAAPEAXI@Z 0000000180184bd0 f i GuBVH.obj
 0001:00183e00       ?allocate@?$PxArray@PEBUBVHNode@Gu@physx@@V?$PxInlineAllocator@$0IAA@V?$PxReflectionAllocator@PEBUBVHNode@Gu@physx@@@physx@@@3@@physx@@IEAAPEAPEBUBVHNode@Gu@2@IPEAI@Z 0000000180184e00 f i GuBVH.obj
 0001:00183ec0       ?build@BVHData@Gu@physx@@QEAA_NIPEBXIMIW4BVHBuildStrategy@23@@Z 0000000180184ec0 f   GuBVH.obj
 0001:001842c0       ?cull@BVH@Gu@physx@@UEBA_NIPEBVPxPlane@3@AEAUOverlapCallback@PxBVH@3@V?$PxFlags@W4Enum@PxGeometryQueryFlag@physx@@I@3@@Z 00000001801852c0 f   GuBVH.obj
 0001:00184c10       ?getConcreteTypeName@PxBVH@physx@@UEBAPEBDXZ 0000000180185c10 f i GuBVH.obj
 0001:00184c20       ?init@BVH@Gu@physx@@QEAA_NIPEAVAABBTreeBounds@23@PEBXIW4BVHBuildStrategy@23@IM@Z 0000000180185c20 f   GuBVH.obj
 0001:00185040       ?isKindOf@PxBVH@physx@@MEBA_NPEBD@Z 0000000180186040 f i GuBVH.obj
 0001:001850b0       ?load@BVH@Gu@physx@@QEAA_NAEAVPxInputStream@3@@Z 00000001801860b0 f   GuBVH.obj
 0001:00185250       ?onRefCountZero@BVH@Gu@physx@@UEAAXXZ 0000000180186250 f   GuBVH.obj
 0001:00185330       ?onRefCountZero@RefCountable@Cm@physx@@UEAAXXZ 0000000180186330 f i GuBVH.obj
 0001:00185350       ?overlap@BVH@Gu@physx@@QEBA_NAEBVShapeData@23@AEAUOverlapCallback@PxBVH@3@V?$PxFlags@W4Enum@PxGeometryQueryFlag@physx@@I@3@@Z 0000000180186350 f   GuBVH.obj
 0001:00185b90       ?overlap@BVH@Gu@physx@@UEBA_NAEBVPxGeometry@3@AEBV?$PxTransformT@M@3@AEAUOverlapCallback@PxBVH@3@V?$PxFlags@W4Enum@PxGeometryQueryFlag@physx@@I@3@@Z 0000000180186b90 f   GuBVH.obj
 0001:00185bf0       ?partialRefit@BVH@Gu@physx@@UEAAXXZ 0000000180186bf0 f   GuBVH.obj
 0001:00185c00       ?raycast@BVH@Gu@physx@@UEBA_NAEBV?$PxVec3T@M@3@0MAEAURaycastCallback@PxBVH@3@V?$PxFlags@W4Enum@PxGeometryQueryFlag@physx@@I@3@@Z 0000000180186c00 f   GuBVH.obj
 0001:00185d30       ?recreate@?$PxArray@PEBUBVHNode@Gu@physx@@V?$PxInlineAllocator@$0IAA@V?$PxReflectionAllocator@PEBUBVHNode@Gu@physx@@@physx@@@3@@physx@@IEAAXI@Z 0000000180186d30 f i GuBVH.obj
 0001:00185df0       ?refit@BVH@Gu@physx@@UEAAXXZ 0000000180186df0 f   GuBVH.obj
 0001:00185e00       ?release@BVH@Gu@physx@@UEAAXXZ 0000000180186e00 f   GuBVH.obj
 0001:00185e30       ?resizeUninitialized@?$PxArray@PEBUBVHNode@Gu@physx@@V?$PxInlineAllocator@$0IAA@V?$PxReflectionAllocator@PEBUBVHNode@Gu@physx@@@physx@@@3@@physx@@QEAAXI@Z 0000000180186e30 f i GuBVH.obj
 0001:00185e80       ?save@BVHData@Gu@physx@@QEBA_NAEAVPxOutputStream@3@_N@Z 0000000180186e80 f   GuBVH.obj
 0001:00185ff0       ?sweep@BVH@Gu@physx@@QEBA_NAEBVShapeData@23@AEBV?$PxVec3T@M@3@MAEAURaycastCallback@PxBVH@3@V?$PxFlags@W4Enum@PxGeometryQueryFlag@physx@@I@3@@Z 0000000180186ff0 f   GuBVH.obj
 0001:001861b0       ?sweep@BVH@Gu@physx@@UEBA_NAEBVPxGeometry@3@AEBV?$PxTransformT@M@3@AEBV?$PxVec3T@M@3@MAEAURaycastCallback@PxBVH@3@V?$PxFlags@W4Enum@PxGeometryQueryFlag@physx@@I@3@@Z 00000001801871b0 f   GuBVH.obj
 0001:00186230       ?traverse@BVH@Gu@physx@@UEBA_NAEAUTraversalCallback@PxBVH@3@@Z 0000000180187230 f   GuBVH.obj
 0001:001863a0       ?updateBounds@BVH@Gu@physx@@UEAA_NIAEBVPxBounds3@3@@Z 00000001801873a0 f   GuBVH.obj
 0001:00186450       ?updateBoundsInternal@BVH@Gu@physx@@QEAA_NIAEBVPxBounds3@3@@Z 0000000180187450 f   GuBVH.obj
 0001:00186500       PxFindOverlap              0000000180187500 f   GuBVH.obj
 0001:001865f0       PxGetBVHInternalData       00000001801875f0 f   GuBVH.obj
 0001:00186630       ??0IncrementalAABBPrunerCore@Gu@physx@@QEAA@PEBVPruningPool@12@@Z 0000000180187630 f   GuIncrementalAABBPrunerCore.obj
 0001:00186740       ??1IncrementalAABBPrunerCore@Gu@physx@@QEAA@XZ 0000000180187740 f   GuIncrementalAABBPrunerCore.obj
 0001:001868b0       ??R?$AABBTreeOverlap@$00U?$OBBAABBTests@$00@Gu@physx@@VIncrementalAABBTree@23@VIncrementalAABBTreeNode@23@UOverlapCallbackAdapter@23@@Gu@physx@@QEAA_NAEBVAABBTreeBounds@12@AEBVIncrementalAABBTree@12@AEBU?$OBBAABBTests@$00@12@AEAUOverlapCallbackAdapter@12@@Z 00000001801878b0 f i GuIncrementalAABBPrunerCore.obj
 0001:00186e40       ??R?$AABBTreeOverlap@$00UAABBAABBTest@Gu@physx@@VIncrementalAABBTree@23@VIncrementalAABBTreeNode@23@UOverlapCallbackAdapter@23@@Gu@physx@@QEAA_NAEBVAABBTreeBounds@12@AEBVIncrementalAABBTree@12@AEBUAABBAABBTest@12@AEAUOverlapCallbackAdapter@12@@Z 0000000180187e40 f i GuIncrementalAABBPrunerCore.obj
 0001:001870a0       ??R?$AABBTreeOverlap@$00UCapsuleAABBTest@Gu@physx@@VIncrementalAABBTree@23@VIncrementalAABBTreeNode@23@UOverlapCallbackAdapter@23@@Gu@physx@@QEAA_NAEBVAABBTreeBounds@12@AEBVIncrementalAABBTree@12@AEBUCapsuleAABBTest@12@AEAUOverlapCallbackAdapter@12@@Z 00000001801880a0 f i GuIncrementalAABBPrunerCore.obj
 0001:001873e0       ??R?$AABBTreeRaycast@$00$00VIncrementalAABBTree@Gu@physx@@VIncrementalAABBTreeNode@23@URaycastCallbackAdapter@23@@Gu@physx@@QEAA_NAEBVAABBTreeBounds@12@AEBVIncrementalAABBTree@12@AEBV?$PxVec3T@M@2@2AEAM2AEAURaycastCallbackAdapter@12@@Z 00000001801883e0 f i GuIncrementalAABBPrunerCore.obj
 0001:00187a60       ??R?$AABBTreeRaycast@$0A@$00VIncrementalAABBTree@Gu@physx@@VIncrementalAABBTreeNode@23@URaycastCallbackAdapter@23@@Gu@physx@@QEAA_NAEBVAABBTreeBounds@12@AEBVIncrementalAABBTree@12@AEBV?$PxVec3T@M@2@2AEAM2AEAURaycastCallbackAdapter@12@@Z 0000000180188a60 f i GuIncrementalAABBPrunerCore.obj
 0001:00188090       ?addObject@IncrementalAABBPrunerCore@Gu@physx@@QEAA_NII@Z 0000000180189090 f   GuIncrementalAABBPrunerCore.obj
 0001:00188180       ?allocate@?$PxArray@PEBVIncrementalAABBTreeNode@Gu@physx@@V?$PxInlineAllocator@$0IAA@V?$PxReflectionAllocator@PEBVIncrementalAABBTreeNode@Gu@physx@@@physx@@@3@@physx@@IEAAPEAPEBVIncrementalAABBTreeNode@Gu@2@IPEAI@Z 0000000180189180 f i GuIncrementalAABBPrunerCore.obj
 0001:00188240       ?clear@?$PxHashMapBase@UPrunerPayload@Gu@physx@@UExtendedBucketPrunerData@23@UExtendedBucketPrunerHash@23@VPxAllocator@3@@physx@@QEAAXXZ 0000000180189240 f i GuExtendedBucketPruner.obj
 0001:00188240       ?clear@?$PxHashMapBase@IPEAVIncrementalAABBTreeNode@Gu@physx@@U?$PxHash@I@3@VPxAllocator@3@@physx@@QEAAXXZ 0000000180189240 f i GuIncrementalAABBPrunerCore.obj
 0001:001882d0       ?create@?$PxHashBase@V?$PxPair@$$CBIPEAVIncrementalAABBTreeNode@Gu@physx@@@physx@@IU?$PxHash@I@2@UGetKey@?$PxHashMapBase@IPEAVIncrementalAABBTreeNode@Gu@physx@@U?$PxHash@I@3@VPxAllocator@3@@2@VPxAllocator@2@$00@physx@@QEAAPEAV?$PxPair@$$CBIPEAVIncrementalAABBTreeNode@Gu@physx@@@2@AEBIAEA_N@Z 00000001801892d0 f i GuIncrementalAABBPrunerCore.obj
 0001:00188420       ?erase@?$PxHashBase@V?$PxPair@$$CBIPEAVIncrementalAABBTreeNode@Gu@physx@@@physx@@IU?$PxHash@I@2@UGetKey@?$PxHashMapBase@IPEAVIncrementalAABBTreeNode@Gu@physx@@U?$PxHash@I@3@VPxAllocator@3@@2@VPxAllocator@2@$00@physx@@QEAA_NAEBIAEAV?$PxPair@$$CBIPEAVIncrementalAABBTreeNode@Gu@physx@@@2@@Z 0000000180189420 f i GuIncrementalAABBPrunerCore.obj
 0001:00188580       ?getMesh@CollisionTetrahedronMeshData@Gu@physx@@UEBAPEBVPxTetrahedronMeshData@3@XZ 0000000180189580 f i GuCookingTetrahedronMesh.obj
 0001:00188580       ?getMesh@CollisionTetrahedronMeshData@Gu@physx@@UEAAPEAVPxTetrahedronMeshData@3@XZ 0000000180189580 f i GuCookingTetrahedronMesh.obj
 0001:00188580       ?getCurrentWorldBoxes@PruningPool@Gu@physx@@QEBAPEBVPxBounds3@3@XZ 0000000180189580 f i GuIncrementalAABBPrunerCore.obj
 0001:00188580       ?getMesh@SimulationTetrahedronMeshData@Gu@physx@@UEAAPEAVPxTetrahedronMeshData@3@XZ 0000000180189580 f i GuCookingTetrahedronMesh.obj
 0001:00188580       ?getCurrentWorldBoxes@PruningPool@Gu@physx@@QEAAPEAVPxBounds3@3@XZ 0000000180189580 f i GuIncrementalAABBPrunerCore.obj
 0001:00188590       ?getGlobalBounds@IncrementalAABBPrunerCore@Gu@physx@@QEBAXAEAVPxBounds3@3@@Z 0000000180189590 f   GuIncrementalAABBPrunerCore.obj
 0001:001886b0       ?getIndex@PruningPool@Gu@physx@@QEBAII@Z 00000001801896b0 f i GuIncrementalAABBPrunerCore.obj
 0001:001886c0       ?getPayloadData@PruningPool@Gu@physx@@QEBAAEBUPrunerPayload@23@IPEAUPrunerPayloadData@23@@Z 00000001801896c0 f i GuIncrementalAABBPrunerCore.obj
 0001:00188710       ?overlap@IncrementalAABBPrunerCore@Gu@physx@@QEBA_NAEBVShapeData@23@AEAUPrunerOverlapCallback@23@@Z 0000000180189710 f   GuIncrementalAABBPrunerCore.obj
 0001:00189210       ?raycast@IncrementalAABBPrunerCore@Gu@physx@@QEBA_NAEBV?$PxVec3T@M@3@0AEAMAEAUPrunerRaycastCallback@23@@Z 000000018018a210 f   GuIncrementalAABBPrunerCore.obj
 0001:001892f0       ?recreate@?$PxArray@PEAVIncrementalAABBTreeNode@Gu@physx@@V?$PxReflectionAllocator@PEAVIncrementalAABBTreeNode@Gu@physx@@@3@@physx@@IEAAXI@Z 000000018018a2f0 f i GuIncrementalAABBPrunerCore.obj
 0001:001893e0       ?recreate@?$PxArray@PEBVIncrementalAABBTreeNode@Gu@physx@@V?$PxInlineAllocator@$0IAA@V?$PxReflectionAllocator@PEBVIncrementalAABBTreeNode@Gu@physx@@@physx@@@3@@physx@@IEAAXI@Z 000000018018a3e0 f i GuIncrementalAABBPrunerCore.obj
 0001:001894a0       ?release@IncrementalAABBPrunerCore@Gu@physx@@QEAAXXZ 000000018018a4a0 f   GuIncrementalAABBPrunerCore.obj
 0001:001895a0       ?removeMarkedObjects@IncrementalAABBPrunerCore@Gu@physx@@QEAAII@Z 000000018018a5a0 f   GuIncrementalAABBPrunerCore.obj
 0001:00189600       ?removeObject@IncrementalAABBPrunerCore@Gu@physx@@QEAA_NIIAEAI@Z 000000018018a600 f   GuIncrementalAABBPrunerCore.obj
 0001:00189800       ?reserveInternal@?$PxHashBase@V?$PxPair@$$CBIPEAVIncrementalAABBTreeNode@Gu@physx@@@physx@@IU?$PxHash@I@2@UGetKey@?$PxHashMapBase@IPEAVIncrementalAABBTreeNode@Gu@physx@@U?$PxHash@I@3@VPxAllocator@3@@2@VPxAllocator@2@$00@physx@@AEAAXI@Z 000000018018a800 f i GuIncrementalAABBPrunerCore.obj
 0001:001899c0       ?resizeUninitialized@?$PxArray@PEBVIncrementalAABBTreeNode@Gu@physx@@V?$PxInlineAllocator@$0IAA@V?$PxReflectionAllocator@PEBVIncrementalAABBTreeNode@Gu@physx@@@physx@@@3@@physx@@QEAAXI@Z 000000018018a9c0 f i GuIncrementalAABBPrunerCore.obj
 0001:00189a10       ?setTransform@PruningPool@Gu@physx@@QEAA_NIAEBV?$PxTransformT@M@3@@Z 000000018018aa10 f i GuIncrementalAABBPrunerCore.obj
 0001:00189a70       ?shiftOrigin@IncrementalAABBPrunerCore@Gu@physx@@QEAAXAEBV?$PxVec3T@M@3@@Z 000000018018aa70 f   GuIncrementalAABBPrunerCore.obj
 0001:00189ac0       ?swapIndex@IncrementalAABBPrunerCore@Gu@physx@@QEAAXII@Z 000000018018aac0 f   GuIncrementalAABBPrunerCore.obj
 0001:00189b90       ?sweep@IncrementalAABBPrunerCore@Gu@physx@@QEBA_NAEBVShapeData@23@AEBV?$PxVec3T@M@3@AEAMAEAUPrunerRaycastCallback@23@@Z 000000018018ab90 f   GuIncrementalAABBPrunerCore.obj
 0001:00189d20       ?updateMapping@IncrementalAABBPrunerCore@Gu@physx@@AEAAXAEAV?$PxHashMap@IPEAVIncrementalAABBTreeNode@Gu@physx@@U?$PxHash@I@3@VPxAllocator@3@@3@IPEAVIncrementalAABBTreeNode@23@@Z 000000018018ad20 f   GuIncrementalAABBPrunerCore.obj
 0001:00189e50       ?updateObject@IncrementalAABBPrunerCore@Gu@physx@@QEAA_NI@Z 000000018018ae50 f   GuIncrementalAABBPrunerCore.obj
 0001:00189ff0       ?visualize@IncrementalAABBPrunerCore@Gu@physx@@QEBAXAEAVPxRenderOutput@3@I@Z 000000018018aff0 f   GuIncrementalAABBPrunerCore.obj
 0001:0018a050       ??0IncrementalAABBPruner@Gu@physx@@QEAA@I_K@Z 000000018018b050 f   GuIncrementalAABBPruner.obj
 0001:0018a100       ??R?$AABBTreeOverlap@$00USphereAABBTest@Gu@physx@@VIncrementalAABBTree@23@VIncrementalAABBTreeNode@23@UOverlapCallbackAdapter@23@@Gu@physx@@QEAA_NAEBVAABBTreeBounds@12@AEBVIncrementalAABBTree@12@AEBUSphereAABBTest@12@AEAUOverlapCallbackAdapter@12@@Z 000000018018b100 f i GuIncrementalAABBPruner.obj
 0001:0018a3d0       ??_GBasePruner@Gu@physx@@UEAAPEAXI@Z 000000018018b3d0 f i GuIncrementalAABBPruner.obj
 0001:0018a3d0       ??_EBasePruner@Gu@physx@@UEAAPEAXI@Z 000000018018b3d0 f i GuIncrementalAABBPruner.obj
 0001:0018a420       ??_EIncrementalAABBPruner@Gu@physx@@UEAAPEAXI@Z 000000018018b420 f i GuIncrementalAABBPruner.obj
 0001:0018a420       ??_GIncrementalAABBPruner@Gu@physx@@UEAAPEAXI@Z 000000018018b420 f i GuIncrementalAABBPruner.obj
 0001:0018a530       ?addObjects@IncrementalAABBPruner@Gu@physx@@UEAA_NPEAIPEBVPxBounds3@3@PEBUPrunerPayload@23@PEBV?$PxTransformT@M@3@I_N@Z 000000018018b530 f   GuIncrementalAABBPruner.obj
 0001:0018a6e0       ?commit@IncrementalAABBPruner@Gu@physx@@UEAAXXZ 000000018018b6e0 f   GuIncrementalAABBPruner.obj
 0001:0018a830       ?getGlobalBounds@IncrementalAABBPruner@Gu@physx@@UEBAXAEAVPxBounds3@3@@Z 000000018018b830 f   GuIncrementalAABBPruner.obj
 0001:0018a8a0       ?getPayloadData@IncrementalAABBPruner@Gu@physx@@UEBAAEBUPrunerPayload@23@IPEAUPrunerPayloadData@23@@Z 000000018018b8a0 f i GuIncrementalAABBPruner.obj
 0001:0018a8f0       ?overlap@IncrementalAABBPruner@Gu@physx@@UEBA_NAEBVShapeData@23@AEAUPrunerOverlapCallback@23@@Z 000000018018b8f0 f   GuIncrementalAABBPruner.obj
 0001:0018ae90       ?preallocate@IncrementalAABBPruner@Gu@physx@@UEAAXI@Z 000000018018be90 f i GuIncrementalAABBPruner.obj
 0001:0018aea0       ?purge@IncrementalAABBPruner@Gu@physx@@UEAAXXZ 000000018018bea0 f   GuIncrementalAABBPruner.obj
 0001:0018aef0       ?raycast@IncrementalAABBPruner@Gu@physx@@UEBA_NAEBV?$PxVec3T@M@3@0AEAMAEAUPrunerRaycastCallback@23@@Z 000000018018bef0 f   GuIncrementalAABBPruner.obj
 0001:0018af70       ?removeObjects@IncrementalAABBPruner@Gu@physx@@UEAAXPEBIIPEAUPrunerPayloadRemovalCallback@23@@Z 000000018018bf70 f   GuIncrementalAABBPruner.obj
 0001:0018b0c0       ?resize@?$PxArray@PEAVIncrementalAABBTreeNode@Gu@physx@@V?$PxReflectionAllocator@PEAVIncrementalAABBTreeNode@Gu@physx@@@3@@physx@@QEAAXIAEBQEAVIncrementalAABBTreeNode@Gu@2@@Z 000000018018c0c0 f i GuIncrementalAABBPruner.obj
 0001:0018b180       ?resizeUninitialized@?$PxArray@PEAVIncrementalAABBTreeNode@Gu@physx@@V?$PxReflectionAllocator@PEAVIncrementalAABBTreeNode@Gu@physx@@@3@@physx@@QEAAXI@Z 000000018018c180 f i GuIncrementalAABBPruner.obj
 0001:0018b1c0       ?setTransform@IncrementalAABBPruner@Gu@physx@@UEAA_NIAEBV?$PxTransformT@M@3@@Z 000000018018c1c0 f i GuIncrementalAABBPruner.obj
 0001:0018b220       ?shiftOrigin@IncrementalAABBPruner@Gu@physx@@UEAAXAEBV?$PxVec3T@M@3@@Z 000000018018c220 f   GuIncrementalAABBPruner.obj
 0001:0018b260       ?sweep@IncrementalAABBPruner@Gu@physx@@UEBA_NAEBVShapeData@23@AEBV?$PxVec3T@M@3@AEAMAEAUPrunerRaycastCallback@23@@Z 000000018018c260 f   GuIncrementalAABBPruner.obj
 0001:0018b380       ?updateObjects@IncrementalAABBPruner@Gu@physx@@UEAAXPEBIIM0PEBVPxBounds3@3@PEBUPxTransformPadded@3@@Z 000000018018c380 f   GuIncrementalAABBPruner.obj
 0001:0018b550       ?visualize@IncrementalAABBPruner@Gu@physx@@UEBAXAEAVPxRenderOutput@3@II@Z 000000018018c550 f   GuIncrementalAABBPruner.obj
 0001:0018b740       ??0PruningPool@Gu@physx@@QEAA@_KW4TransformCacheMode@12@@Z 000000018018c740 f   GuPruningPool.obj
 0001:0018b770       ??1PruningPool@Gu@physx@@QEAA@XZ 000000018018c770 f   GuPruningPool.obj
 0001:0018b840       ?addObjects@PruningPool@Gu@physx@@QEAAIPEAIPEBVPxBounds3@3@PEBUPrunerPayload@23@PEBV?$PxTransformT@M@3@I@Z 000000018018c840 f   GuPruningPool.obj
 0001:0018b9f0       ?preallocate@PruningPool@Gu@physx@@QEAAXI@Z 000000018018c9f0 f   GuPruningPool.obj
 0001:0018ba00       ?removeObject@PruningPool@Gu@physx@@QEAAIIPEAUPrunerPayloadRemovalCallback@23@@Z 000000018018ca00 f   GuPruningPool.obj
 0001:0018bb40       ?resize@PruningPool@Gu@physx@@QEAA_NI@Z 000000018018cb40 f   GuPruningPool.obj
 0001:0018be30       ?shiftOrigin@PruningPool@Gu@physx@@QEAAXAEBV?$PxVec3T@M@3@@Z 000000018018ce30 f   GuPruningPool.obj
 0001:0018c240       ?updateAndInflateBounds@PruningPool@Gu@physx@@QEAAXPEBI0PEBVPxBounds3@3@PEBUPxTransformPadded@3@IM@Z 000000018018d240 f   GuPruningPool.obj
 0001:0018dc40       ??0BucketPruner@Gu@physx@@QEAA@_K@Z 000000018018ec40 f   GuBucketPruner.obj
 0001:0018dc90       ??0BucketPrunerCore@Gu@physx@@QEAA@_N@Z 000000018018ec90 f   GuBucketPruner.obj
 0001:0018e010       ??1BucketPrunerCore@Gu@physx@@QEAA@XZ 000000018018f010 f   GuBucketPruner.obj
 0001:0018e160       ??R?$BucketPrunerOverlapTraversal@UBucketPrunerAABBAABBTest@@$00@@QEBA_NAEBVBucketPrunerCore@Gu@physx@@AEBUBucketPrunerAABBAABBTest@@AEAUPrunerOverlapCallback@23@AEBVPxBounds3@3@@Z 000000018018f160 f i GuBucketPruner.obj
 0001:0018e740       ??R?$BucketPrunerOverlapTraversal@UOBBAABBTest_SIMD@@$0A@@@QEBA_NAEBVBucketPrunerCore@Gu@physx@@AEBUOBBAABBTest_SIMD@@AEAUPrunerOverlapCallback@23@AEBVPxBounds3@3@@Z 000000018018f740 f i GuBucketPruner.obj
 0001:0018efa0       ??R?$BucketPrunerOverlapTraversal@USphereAABBTest_SIMD@@$00@@QEBA_NAEBVBucketPrunerCore@Gu@physx@@AEBUSphereAABBTest_SIMD@@AEAUPrunerOverlapCallback@23@AEBVPxBounds3@3@@Z 000000018018ffa0 f i GuBucketPruner.obj
 0001:0018f580       ??_FBucketPrunerCore@Gu@physx@@QEAAXXZ 0000000180190580 f i GuBucketPruner.obj
 0001:0018f590       ??_GBucketPruner@Gu@physx@@UEAAPEAXI@Z 0000000180190590 f i GuBucketPruner.obj
 0001:0018f590       ??_EBucketPruner@Gu@physx@@UEAAPEAXI@Z 0000000180190590 f i GuBucketPruner.obj
 0001:0018f620       ?addObject@BucketPrunerCore@Gu@physx@@QEAA_NAEBUPrunerPayload@23@AEBVPxBounds3@3@AEBV?$PxTransformT@M@3@I@Z 0000000180190620 f   GuBucketPruner.obj
 0001:0018f940       ?addObjects@BucketPruner@Gu@physx@@UEAA_NPEAIPEBVPxBounds3@3@PEBUPrunerPayload@23@PEBV?$PxTransformT@M@3@I_N@Z 0000000180190940 f   GuBucketPruner.obj
 0001:0018f9d0       ?addPair@BucketPrunerMap@Gu@physx@@QEAAPEAUBucketPrunerPair@23@AEBUPrunerPayload@23@II@Z 00000001801909d0 f   GuBucketPruner.obj
 0001:0018fbc0       ?allocateSortedMemory@BucketPrunerCore@Gu@physx@@AEAAXI@Z 0000000180190bc0 f   GuBucketPruner.obj
 0001:0018fd80       ?classifyBoxes@BucketPrunerCore@Gu@physx@@AEAAXXZ 0000000180190d80 f   GuBucketPruner.obj
 0001:00190580       ?classifyBoxes@BucketPrunerNode@Gu@physx@@QEAAXMMIPEIAUBucketBox@23@PEIBUPrunerPayload@23@PEIBV?$PxTransformT@M@3@0PEIAU523@PEIAV63@_NI@Z 0000000180191580 f   GuBucketPruner.obj
 0001:00190e70       ?commit@BucketPruner@Gu@physx@@UEAAXXZ 0000000180191e70 f   GuBucketPruner.obj
 0001:00190e70       ?build@CompanionPrunerBucket@@UEAAXXZ 0000000180191e70 f   GuSecondaryPruner.obj
 0001:00190e80       ?findPair@BucketPrunerMap@Gu@physx@@QEBAPEBUBucketPrunerPair@23@AEBUPrunerPayload@23@@Z 0000000180191e80 f   GuBucketPruner.obj
 0001:00191280       ?getGlobalBounds@BucketPruner@Gu@physx@@UEBAXAEAVPxBounds3@3@@Z 0000000180192280 f   GuBucketPruner.obj
 0001:00191300       ?getGlobalBounds@BucketPrunerCore@Gu@physx@@QEBAXAEAVPxBounds3@3@@Z 0000000180192300 f   GuBucketPruner.obj
 0001:00191380       ?getPayloadData@BucketPruner@Gu@physx@@UEBAAEBUPrunerPayload@23@IPEAUPrunerPayloadData@23@@Z 0000000180192380 f i GuBucketPruner.obj
 0001:001913e0       ?overlap@BucketPruner@Gu@physx@@UEBA_NAEBVShapeData@23@AEAUPrunerOverlapCallback@23@@Z 00000001801923e0 f   GuBucketPruner.obj
 0001:00191400       ?overlap@BucketPrunerCore@Gu@physx@@QEBA_NAEBVShapeData@23@AEAUPrunerOverlapCallback@23@@Z 0000000180192400 f   GuBucketPruner.obj
 0001:001916e0       ?preallocate@BucketPruner@Gu@physx@@UEAAXI@Z 00000001801926e0 f i GuBucketPruner.obj
 0001:001918d0       ?purge@BucketPrunerMap@Gu@physx@@QEAAXXZ 00000001801928d0 f   GuBucketPruner.obj
 0001:00191960       ?raycast@BucketPruner@Gu@physx@@UEBA_NAEBV?$PxVec3T@M@3@0AEAMAEAUPrunerRaycastCallback@23@@Z 0000000180192960 f   GuBucketPruner.obj
 0001:001919b0       ?raycast@BucketPrunerCore@Gu@physx@@QEBA_NAEBV?$PxVec3T@M@3@0AEAMAEAUPrunerRaycastCallback@23@@Z 00000001801929b0 f   GuBucketPruner.obj
 0001:001919f0       ?reallocPairs@BucketPrunerMap@Gu@physx@@QEAAXXZ 00000001801929f0 f   GuBucketPruner.obj
 0001:00191c30       ?release@BucketPrunerCore@Gu@physx@@QEAAXXZ 0000000180192c30 f   GuBucketPruner.obj
 0001:00191d70       ?removeMarkedObjects@BucketPrunerCore@Gu@physx@@QEAAII@Z 0000000180192d70 f   GuBucketPruner.obj
 0001:00192120       ?removeObject@BucketPrunerCore@Gu@physx@@QEAA_NAEBUPrunerPayload@23@AEAI@Z 0000000180193120 f   GuBucketPruner.obj
 0001:001923e0       ?removeObjects@BucketPruner@Gu@physx@@UEAAXPEBIIPEAUPrunerPayloadRemovalCallback@23@@Z 00000001801933e0 f   GuBucketPruner.obj
 0001:00192490       ?removePair@BucketPrunerMap@Gu@physx@@QEAA_NAEBUPrunerPayload@23@AEAI1@Z 0000000180193490 f   GuBucketPruner.obj
 0001:00192610       ?removePairInternal@BucketPrunerMap@Gu@physx@@QEAAXAEBUPrunerPayload@23@II@Z 0000000180193610 f   GuBucketPruner.obj
 0001:00192780       ?resizeCore@BucketPrunerCore@Gu@physx@@AEAAXXZ 0000000180193780 f   GuBucketPruner.obj
 0001:001929f0       ?setTransform@BucketPruner@Gu@physx@@UEAA_NIAEBV?$PxTransformT@M@3@@Z 00000001801939f0 f i GuBucketPruner.obj
 0001:00192a50       ?shiftOrigin@CompanionPrunerBucket@@UEAAXAEBV?$PxVec3T@M@physx@@@Z 0000000180193a50 f   GuSecondaryPruner.obj
 0001:00192a50       ?shiftOrigin@BucketPruner@Gu@physx@@UEAAXAEBV?$PxVec3T@M@3@@Z 0000000180193a50 f   GuBucketPruner.obj
 0001:00192a60       ?shiftOrigin@BucketPrunerCore@Gu@physx@@QEAAXAEBV?$PxVec3T@M@3@@Z 0000000180193a60 f   GuBucketPruner.obj
 0001:001939a0       ?sweep@BucketPruner@Gu@physx@@UEBA_NAEBVShapeData@23@AEBV?$PxVec3T@M@3@AEAMAEAUPrunerRaycastCallback@23@@Z 00000001801949a0 f   GuBucketPruner.obj
 0001:001939c0       ?sweep@BucketPrunerCore@Gu@physx@@QEBA_NAEBVShapeData@23@AEBV?$PxVec3T@M@3@AEAMAEAUPrunerRaycastCallback@23@@Z 00000001801949c0 f   GuBucketPruner.obj
 0001:00193a90       ?updateObject@BucketPrunerCore@Gu@physx@@QEAA_NAEBVPxBounds3@3@AEBUPrunerPayload@23@AEBV?$PxTransformT@M@3@@Z 0000000180194a90 f   GuBucketPruner.obj
 0001:00193af0       ?updateObjects@BucketPruner@Gu@physx@@UEAAXPEBIIM0PEBVPxBounds3@3@PEBUPxTransformPadded@3@@Z 0000000180194af0 f   GuBucketPruner.obj
 0001:00193c00       ?visualize@CompanionPrunerBucket@@UEBAXAEAVPxRenderOutput@physx@@I@Z 0000000180194c00 f   GuSecondaryPruner.obj
 0001:00193c00       ?visualize@BucketPruner@Gu@physx@@UEBAXAEAVPxRenderOutput@3@II@Z 0000000180194c00 f   GuBucketPruner.obj
 0001:00193c10       ?visualize@BucketPrunerCore@Gu@physx@@QEBAXAEAVPxRenderOutput@3@I@Z 0000000180194c10 f   GuBucketPruner.obj
 0001:00193f20       ?addObject@MaverickNode@Gu@physx@@QEAA_NAEBUPrunerPayload@23@IAEBVPxBounds3@3@AEBV?$PxTransformT@M@3@I@Z 0000000180194f20 f   GuMaverickNode.obj
 0001:00194000       ?removeMarkedObjects@MaverickNode@Gu@physx@@QEAAII@Z 0000000180195000 f   GuMaverickNode.obj
 0001:00194180       ?removeObject@MaverickNode@Gu@physx@@QEAA_NIAEAI@Z 0000000180195180 f   GuMaverickNode.obj
 0001:001942f0       ?shiftOrigin@MaverickNode@Gu@physx@@QEAAXAEBV?$PxVec3T@M@3@@Z 00000001801952f0 f   GuMaverickNode.obj
 0001:001943e0       ?updateObject@MaverickNode@Gu@physx@@QEAA_NIAEBVPxBounds3@3@AEBV?$PxTransformT@M@3@@Z 00000001801953e0 f   GuMaverickNode.obj
 0001:001944c0       ??0ExtendedBucketPruner@Gu@physx@@QEAA@_KW4CompanionPrunerType@12@PEBVPruningPool@12@@Z 00000001801954c0 f   GuExtendedBucketPruner.obj
 0001:00194700       ??1ExtendedBucketPruner@Gu@physx@@QEAA@XZ 0000000180195700 f   GuExtendedBucketPruner.obj
 0001:00194870       ??R?$AABBTreeOverlap@$00U?$OBBAABBTests@$00@Gu@physx@@VAABBTree@23@UBVHNode@23@U?$MainTreeOverlapPrunerCallback@U?$OBBAABBTests@$00@Gu@physx@@@@@Gu@physx@@QEAA_NAEBVAABBTreeBounds@12@AEBVAABBTree@12@AEBU?$OBBAABBTests@$00@12@AEAU?$MainTreeOverlapPrunerCallback@U?$OBBAABBTests@$00@Gu@physx@@@@@Z 0000000180195870 f i GuExtendedBucketPruner.obj
 0001:00194e50       ??R?$AABBTreeOverlap@$00U?$OBBAABBTests@$00@Gu@physx@@VAABBTree@23@UBVHNode@23@UOverlapCallbackAdapter@23@@Gu@physx@@QEAA_NAEBVAABBTreeBounds@12@AEBVAABBTree@12@AEBU?$OBBAABBTests@$00@12@AEAUOverlapCallbackAdapter@12@@Z 0000000180195e50 f i GuExtendedBucketPruner.obj
 0001:00195410       ??R?$AABBTreeOverlap@$00UAABBAABBTest@Gu@physx@@VAABBTree@23@UBVHNode@23@U?$MainTreeOverlapPrunerCallback@UAABBAABBTest@Gu@physx@@@@@Gu@physx@@QEAA_NAEBVAABBTreeBounds@12@AEBVAABBTree@12@AEBUAABBAABBTest@12@AEAU?$MainTreeOverlapPrunerCallback@UAABBAABBTest@Gu@physx@@@@@Z 0000000180196410 f i GuExtendedBucketPruner.obj
 0001:001956b0       ??R?$AABBTreeOverlap@$00UAABBAABBTest@Gu@physx@@VAABBTree@23@UBVHNode@23@UOverlapCallbackAdapter@23@@Gu@physx@@QEAA_NAEBVAABBTreeBounds@12@AEBVAABBTree@12@AEBUAABBAABBTest@12@AEAUOverlapCallbackAdapter@12@@Z 00000001801966b0 f i GuExtendedBucketPruner.obj
 0001:00195940       ??R?$AABBTreeOverlap@$00UCapsuleAABBTest@Gu@physx@@VAABBTree@23@UBVHNode@23@U?$MainTreeOverlapPrunerCallback@UCapsuleAABBTest@Gu@physx@@@@@Gu@physx@@QEAA_NAEBVAABBTreeBounds@12@AEBVAABBTree@12@AEBUCapsuleAABBTest@12@AEAU?$MainTreeOverlapPrunerCallback@UCapsuleAABBTest@Gu@physx@@@@@Z 0000000180196940 f i GuExtendedBucketPruner.obj
 0001:00195ce0       ??R?$AABBTreeOverlap@$00UCapsuleAABBTest@Gu@physx@@VAABBTree@23@UBVHNode@23@UOverlapCallbackAdapter@23@@Gu@physx@@QEAA_NAEBVAABBTreeBounds@12@AEBVAABBTree@12@AEBUCapsuleAABBTest@12@AEAUOverlapCallbackAdapter@12@@Z 0000000180196ce0 f i GuExtendedBucketPruner.obj
 0001:00196070       ??R?$AABBTreeOverlap@$00USphereAABBTest@Gu@physx@@VAABBTree@23@UBVHNode@23@U?$MainTreeOverlapPrunerCallback@USphereAABBTest@Gu@physx@@@@@Gu@physx@@QEAA_NAEBVAABBTreeBounds@12@AEBVAABBTree@12@AEBUSphereAABBTest@12@AEAU?$MainTreeOverlapPrunerCallback@USphereAABBTest@Gu@physx@@@@@Z 0000000180197070 f i GuExtendedBucketPruner.obj
 0001:00196380       ??R?$AABBTreeOverlap@$00USphereAABBTest@Gu@physx@@VAABBTree@23@UBVHNode@23@UOverlapCallbackAdapter@23@@Gu@physx@@QEAA_NAEBVAABBTreeBounds@12@AEBVAABBTree@12@AEBUSphereAABBTest@12@AEAUOverlapCallbackAdapter@12@@Z 0000000180197380 f i GuExtendedBucketPruner.obj
 0001:00196670       ??R?$AABBTreeRaycast@$00$00VAABBTree@Gu@physx@@UBVHNode@23@U?$MainTreeRaycastPrunerCallback@$00@@@Gu@physx@@QEAA_NAEBVAABBTreeBounds@12@AEBVAABBTree@12@AEBV?$PxVec3T@M@2@2AEAM2AEAU?$MainTreeRaycastPrunerCallback@$00@@@Z 0000000180197670 f i GuExtendedBucketPruner.obj
 0001:00196d60       ??R?$AABBTreeRaycast@$00$00VAABBTree@Gu@physx@@UBVHNode@23@URaycastCallbackAdapter@23@@Gu@physx@@QEAA_NAEBVAABBTreeBounds@12@AEBVAABBTree@12@AEBV?$PxVec3T@M@2@2AEAM2AEAURaycastCallbackAdapter@12@@Z 0000000180197d60 f i GuExtendedBucketPruner.obj
 0001:00197400       ??R?$AABBTreeRaycast@$0A@$00VAABBTree@Gu@physx@@UBVHNode@23@U?$MainTreeRaycastPrunerCallback@$0A@@@@Gu@physx@@QEAA_NAEBVAABBTreeBounds@12@AEBVAABBTree@12@AEBV?$PxVec3T@M@2@2AEAM2AEAU?$MainTreeRaycastPrunerCallback@$0A@@@@Z 0000000180198400 f i GuExtendedBucketPruner.obj
 0001:00197aa0       ??R?$AABBTreeRaycast@$0A@$00VAABBTree@Gu@physx@@UBVHNode@23@URaycastCallbackAdapter@23@@Gu@physx@@QEAA_NAEBVAABBTreeBounds@12@AEBVAABBTree@12@AEBV?$PxVec3T@M@2@2AEAM2AEAURaycastCallbackAdapter@12@@Z 0000000180198aa0 f i GuExtendedBucketPruner.obj
 0001:00198100       ?addTree@ExtendedBucketPruner@Gu@physx@@QEAAXAEBVAABBTreeMergeData@23@I@Z 0000000180199100 f   GuExtendedBucketPruner.obj
 0001:001983c0       ?buildMainAABBTree@ExtendedBucketPruner@Gu@physx@@AEAAXXZ 00000001801993c0 f   GuExtendedBucketPruner.obj
 0001:00198470       ?create@?$PxHashBase@V?$PxPair@$$CBUPrunerPayload@Gu@physx@@UExtendedBucketPrunerData@23@@physx@@UPrunerPayload@Gu@2@UExtendedBucketPrunerHash@42@UGetKey@?$PxHashMapBase@UPrunerPayload@Gu@physx@@UExtendedBucketPrunerData@23@UExtendedBucketPrunerHash@23@VPxAllocator@3@@2@VPxAllocator@2@$00@physx@@QEAAPEAV?$PxPair@$$CBUPrunerPayload@Gu@physx@@UExtendedBucketPrunerData@23@@2@AEBUPrunerPayload@Gu@2@AEA_N@Z 0000000180199470 f i GuExtendedBucketPruner.obj
 0001:00198630       ?eraseCurrentGetNext@PxEraseIterator@?$PxHashBase@V?$PxPair@$$CBUPrunerPayload@Gu@physx@@UExtendedBucketPrunerData@23@@physx@@UPrunerPayload@Gu@2@UExtendedBucketPrunerHash@42@UGetKey@?$PxHashMapBase@UPrunerPayload@Gu@physx@@UExtendedBucketPrunerData@23@UExtendedBucketPrunerHash@23@VPxAllocator@3@@2@VPxAllocator@2@$00@physx@@QEAAPEAV?$PxPair@$$CBUPrunerPayload@Gu@physx@@UExtendedBucketPrunerData@23@@3@_N@Z 0000000180199630 f i GuExtendedBucketPruner.obj
 0001:00198720       ?eraseInternal@?$PxHashBase@V?$PxPair@$$CBUPrunerPayload@Gu@physx@@UExtendedBucketPrunerData@23@@physx@@UPrunerPayload@Gu@2@UExtendedBucketPrunerHash@42@UGetKey@?$PxHashMapBase@UPrunerPayload@Gu@physx@@UExtendedBucketPrunerData@23@UExtendedBucketPrunerHash@23@VPxAllocator@3@@2@VPxAllocator@2@$00@physx@@AEAA_NPEAI@Z 0000000180199720 f i GuExtendedBucketPruner.obj
 0001:00198840       ?find@?$PxHashMapBase@UPrunerPayload@Gu@physx@@UExtendedBucketPrunerData@23@UExtendedBucketPrunerHash@23@VPxAllocator@3@@physx@@QEBAPEBV?$PxPair@$$CBUPrunerPayload@Gu@physx@@UExtendedBucketPrunerData@23@@2@AEBUPrunerPayload@Gu@2@@Z 0000000180199840 f i GuExtendedBucketPruner.obj
 0001:00198930       ?getGlobalBounds@ExtendedBucketPruner@Gu@physx@@QEBAXAEAVPxBounds3@3@@Z 0000000180199930 f   GuExtendedBucketPruner.obj
 0001:00198a00       ?overlap@ExtendedBucketPruner@Gu@physx@@QEBA_NAEBVShapeData@23@AEAUPrunerOverlapCallback@23@@Z 0000000180199a00 f   GuExtendedBucketPruner.obj
 0001:001991f0       ?raycast@ExtendedBucketPruner@Gu@physx@@QEBA_NAEBV?$PxVec3T@M@3@0AEAMAEAUPrunerRaycastCallback@23@@Z 000000018019a1f0 f   GuExtendedBucketPruner.obj
 0001:001992d0       ?refitMarkedNodes@ExtendedBucketPruner@Gu@physx@@QEAAXPEBVPxBounds3@3@@Z 000000018019a2d0 f   GuExtendedBucketPruner.obj
 0001:001997d0       ?release@ExtendedBucketPruner@Gu@physx@@QEAAXXZ 000000018019a7d0 f   GuExtendedBucketPruner.obj
 0001:001998a0       ?removeMarkedObjects@ExtendedBucketPruner@Gu@physx@@QEAAII@Z 000000018019a8a0 f   GuExtendedBucketPruner.obj
 0001:00199bc0       ?removeObject@ExtendedBucketPruner@Gu@physx@@QEAA_NAEBUPrunerPayload@23@II0I@Z 000000018019abc0 f   GuExtendedBucketPruner.obj
 0001:00199e90       ?reserveInternal@?$PxHashBase@V?$PxPair@$$CBUPrunerPayload@Gu@physx@@UExtendedBucketPrunerData@23@@physx@@UPrunerPayload@Gu@2@UExtendedBucketPrunerHash@42@UGetKey@?$PxHashMapBase@UPrunerPayload@Gu@physx@@UExtendedBucketPrunerData@23@UExtendedBucketPrunerHash@23@VPxAllocator@3@@2@VPxAllocator@2@$00@physx@@AEAAXI@Z 000000018019ae90 f i GuExtendedBucketPruner.obj
 0001:0019a090       ?shiftOrigin@ExtendedBucketPruner@Gu@physx@@QEAAXAEBV?$PxVec3T@M@3@@Z 000000018019b090 f   GuExtendedBucketPruner.obj
 0001:0019a110       ?swapIndex@ExtendedBucketPruner@Gu@physx@@QEAAXIAEBUPrunerPayload@23@I_N@Z 000000018019b110 f   GuExtendedBucketPruner.obj
 0001:0019a1e0       ?sweep@ExtendedBucketPruner@Gu@physx@@QEBA_NAEBVShapeData@23@AEBV?$PxVec3T@M@3@AEAMAEAUPrunerRaycastCallback@23@@Z 000000018019b1e0 f   GuExtendedBucketPruner.obj
 0001:0019a370       ?traverseHashEntries@PxEraseIterator@?$PxHashBase@V?$PxPair@$$CBUPrunerPayload@Gu@physx@@UExtendedBucketPrunerData@23@@physx@@UPrunerPayload@Gu@2@UExtendedBucketPrunerHash@42@UGetKey@?$PxHashMapBase@UPrunerPayload@Gu@physx@@UExtendedBucketPrunerData@23@UExtendedBucketPrunerHash@23@VPxAllocator@3@@2@VPxAllocator@2@$00@physx@@AEAAPEAV?$PxPair@$$CBUPrunerPayload@Gu@physx@@UExtendedBucketPrunerData@23@@3@XZ 000000018019b370 f i GuExtendedBucketPruner.obj
 0001:0019a3c0       ?updateObject@ExtendedBucketPruner@Gu@physx@@QEAA_NAEBVPxBounds3@3@AEBV?$PxTransformT@M@3@AEBUPrunerPayload@23@II@Z 000000018019b3c0 f   GuExtendedBucketPruner.obj
 0001:0019a490       ?visualize@ExtendedBucketPruner@Gu@physx@@QEBAXAEAVPxRenderOutput@3@I@Z 000000018019b490 f   GuExtendedBucketPruner.obj
 0001:0019a520       ??0?$OBBAABBTests@$00@Gu@physx@@QEAA@AEBV?$PxVec3T@M@2@AEBV?$PxMat33T@M@2@0@Z 000000018019b520 f i GuSecondaryPruner.obj
 0001:0019c430       ??_ECompanionPruner@Gu@physx@@UEAAPEAXI@Z 000000018019d430 f i GuSecondaryPruner.obj
 0001:0019c430       ??_GCompanionPruner@Gu@physx@@UEAAPEAXI@Z 000000018019d430 f i GuSecondaryPruner.obj
 0001:0019c480       ??_GCompanionPrunerAABBTree@@UEAAPEAXI@Z 000000018019d480 f i GuSecondaryPruner.obj
 0001:0019c480       ??_ECompanionPrunerAABBTree@@UEAAPEAXI@Z 000000018019d480 f i GuSecondaryPruner.obj
 0001:0019c530       ??_ECompanionPrunerBucket@@UEAAPEAXI@Z 000000018019d530 f i GuSecondaryPruner.obj
 0001:0019c530       ??_GCompanionPrunerBucket@@UEAAPEAXI@Z 000000018019d530 f i GuSecondaryPruner.obj
 0001:0019c5b0       ??_GCompanionPrunerIncremental@@UEAAPEAXI@Z 000000018019d5b0 f i GuSecondaryPruner.obj
 0001:0019c5b0       ??_ECompanionPrunerIncremental@@UEAAPEAXI@Z 000000018019d5b0 f i GuSecondaryPruner.obj
 0001:0019c630       ?addObject@CompanionPrunerAABBTree@@UEAA_NAEBUPrunerPayload@Gu@physx@@IAEBVPxBounds3@4@AEBV?$PxTransformT@M@4@II@Z 000000018019d630 f   GuSecondaryPruner.obj
 0001:0019c880       ?addObject@CompanionPrunerBucket@@UEAA_NAEBUPrunerPayload@Gu@physx@@IAEBVPxBounds3@4@AEBV?$PxTransformT@M@4@II@Z 000000018019d880 f i GuSecondaryPruner.obj
 0001:0019c8a0       ?addObject@CompanionPrunerIncremental@@UEAA_NAEBUPrunerPayload@Gu@physx@@IAEBVPxBounds3@4@AEBV?$PxTransformT@M@4@II@Z 000000018019d8a0 f i GuSecondaryPruner.obj
 0001:0019c8c0       ?addObjectInternal@CompanionPrunerAABBTree@@QEAA_NII@Z 000000018019d8c0 f   GuSecondaryPruner.obj
 0001:0019ca70       ?build@CompanionPrunerAABBTree@@UEAAXXZ 000000018019da70 f   GuSecondaryPruner.obj
 0001:0019cf40       ?createCompanionPruner@Gu@physx@@YAPEAVCompanionPruner@12@_KW4CompanionPrunerType@12@PEBVPruningPool@12@@Z 000000018019df40 f   GuSecondaryPruner.obj
 0001:0019d140       ?getGlobalBounds@CompanionPrunerAABBTree@@UEBAXAEAVPxBounds3@physx@@@Z 000000018019e140 f   GuSecondaryPruner.obj
 0001:0019d250       ?getGlobalBounds@CompanionPrunerBucket@@UEBAXAEAVPxBounds3@physx@@@Z 000000018019e250 f i GuSecondaryPruner.obj
 0001:0019d260       ?getGlobalBounds@CompanionPrunerIncremental@@UEBAXAEAVPxBounds3@physx@@@Z 000000018019e260 f i GuSecondaryPruner.obj
 0001:0019d270       ?getNbObjects@CompanionPrunerAABBTree@@UEBAIXZ 000000018019e270 f   GuSecondaryPruner.obj
 0001:0019d280       ?getNbObjects@CompanionPrunerBucket@@UEBAIXZ 000000018019e280 f i GuSecondaryPruner.obj
 0001:0019d290       ?getNbObjects@CompanionPrunerIncremental@@UEBAIXZ 000000018019e290 f i GuSecondaryPruner.obj
 0001:0019d2a0       ?growAndPushBack@?$PxArray@ULocalData@CompanionPrunerAABBTree@@V?$PxReflectionAllocator@ULocalData@CompanionPrunerAABBTree@@@physx@@@physx@@IEAAAEAULocalData@CompanionPrunerAABBTree@@AEBU34@@Z 000000018019e2a0 f i GuSecondaryPruner.obj
 0001:0019d3c0       ?overlap@CompanionPrunerAABBTree@@UEBA_NAEBVShapeData@Gu@physx@@AEAUPrunerOverlapCallback@34@@Z 000000018019e3c0 f   GuSecondaryPruner.obj
 0001:0019e520       ?overlap@CompanionPrunerBucket@@UEBA_NAEBVShapeData@Gu@physx@@AEAUPrunerOverlapCallback@34@@Z 000000018019f520 f i GuSecondaryPruner.obj
 0001:0019e540       ?overlap@CompanionPrunerIncremental@@UEBA_NAEBVShapeData@Gu@physx@@AEAUPrunerOverlapCallback@34@@Z 000000018019f540 f i GuSecondaryPruner.obj
 0001:0019e560       ?raycast@CompanionPrunerAABBTree@@UEBA_NAEBV?$PxVec3T@M@physx@@0AEAMAEAUPrunerRaycastCallback@Gu@3@@Z 000000018019f560 f   GuSecondaryPruner.obj
 0001:0019e940       ?raycast@CompanionPrunerBucket@@UEBA_NAEBV?$PxVec3T@M@physx@@0AEAMAEAUPrunerRaycastCallback@Gu@3@@Z 000000018019f940 f i GuSecondaryPruner.obj
 0001:0019e960       ?raycast@CompanionPrunerIncremental@@UEBA_NAEBV?$PxVec3T@M@physx@@0AEAMAEAUPrunerRaycastCallback@Gu@3@@Z 000000018019f960 f i GuSecondaryPruner.obj
 0001:0019e980       ?release@CompanionPrunerAABBTree@@UEAAXXZ 000000018019f980 f   GuSecondaryPruner.obj
 0001:0019e990       ?release@CompanionPrunerBucket@@UEAAXXZ 000000018019f990 f i GuSecondaryPruner.obj
 0001:0019e9a0       ?release@CompanionPrunerIncremental@@UEAAXXZ 000000018019f9a0 f i GuSecondaryPruner.obj
 0001:0019e9b0       ?releaseInternal@CompanionPrunerAABBTree@@QEAAXXZ 000000018019f9b0 f   GuSecondaryPruner.obj
 0001:0019ea30       ?removeMarkedObjects@CompanionPrunerAABBTree@@UEAAII@Z 000000018019fa30 f   GuSecondaryPruner.obj
 0001:0019ea50       ?removeMarkedObjects@CompanionPrunerBucket@@UEAAII@Z 000000018019fa50 f i GuSecondaryPruner.obj
 0001:0019ea60       ?removeMarkedObjects@CompanionPrunerIncremental@@UEAAII@Z 000000018019fa60 f i GuSecondaryPruner.obj
 0001:0019ea70       ?removeObject@CompanionPrunerAABBTree@@UEAA_NAEBUPrunerPayload@Gu@physx@@III@Z 000000018019fa70 f   GuSecondaryPruner.obj
 0001:0019eb10       ?removeObject@CompanionPrunerBucket@@UEAA_NAEBUPrunerPayload@Gu@physx@@III@Z 000000018019fb10 f i GuSecondaryPruner.obj
 0001:0019eb30       ?removeObject@CompanionPrunerIncremental@@UEAA_NAEBUPrunerPayload@Gu@physx@@III@Z 000000018019fb30 f i GuSecondaryPruner.obj
 0001:0019eb50       ?shiftOrigin@CompanionPrunerAABBTree@@UEAAXAEBV?$PxVec3T@M@physx@@@Z 000000018019fb50 f   GuSecondaryPruner.obj
 0001:0019ec80       ?shiftOrigin@CompanionPrunerIncremental@@UEAAXAEBV?$PxVec3T@M@physx@@@Z 000000018019fc80 f i GuSecondaryPruner.obj
 0001:0019ec90       ?swapIndex@CompanionPrunerIncremental@@UEAAXII@Z 000000018019fc90 f i GuSecondaryPruner.obj
 0001:0019eca0       ?sweep@CompanionPrunerAABBTree@@UEBA_NAEBVShapeData@Gu@physx@@AEBV?$PxVec3T@M@4@AEAMAEAUPrunerRaycastCallback@34@@Z 000000018019fca0 f   GuSecondaryPruner.obj
 0001:0019f1d0       ?sweep@CompanionPrunerBucket@@UEBA_NAEBVShapeData@Gu@physx@@AEBV?$PxVec3T@M@4@AEAMAEAUPrunerRaycastCallback@34@@Z 00000001801a01d0 f i GuSecondaryPruner.obj
 0001:0019f1f0       ?sweep@CompanionPrunerIncremental@@UEBA_NAEBVShapeData@Gu@physx@@AEBV?$PxVec3T@M@4@AEAMAEAUPrunerRaycastCallback@34@@Z 00000001801a01f0 f i GuSecondaryPruner.obj
 0001:0019f210       ?timeStampChange@CompanionPrunerIncremental@@UEAAXXZ 00000001801a0210 f i GuSecondaryPruner.obj
 0001:0019f230       ?updateObject@CompanionPrunerAABBTree@@UEAA_NAEBUPrunerPayload@Gu@physx@@IAEBVPxBounds3@4@AEBV?$PxTransformT@M@4@I@Z 00000001801a0230 f   GuSecondaryPruner.obj
 0001:0019f2b0       ?updateObject@CompanionPrunerBucket@@UEAA_NAEBUPrunerPayload@Gu@physx@@IAEBVPxBounds3@4@AEBV?$PxTransformT@M@4@I@Z 00000001801a02b0 f i GuSecondaryPruner.obj
 0001:0019f2d0       ?updateObject@CompanionPrunerIncremental@@UEAA_NAEBUPrunerPayload@Gu@physx@@IAEBVPxBounds3@4@AEBV?$PxTransformT@M@4@I@Z 00000001801a02d0 f i GuSecondaryPruner.obj
 0001:0019f2e0       ?visualize@CompanionPrunerAABBTree@@UEBAXAEAVPxRenderOutput@physx@@I@Z 00000001801a02e0 f   GuSecondaryPruner.obj
 0001:0019f300       ?visualize@CompanionPrunerIncremental@@UEBAXAEAVPxRenderOutput@physx@@I@Z 00000001801a0300 f i GuSecondaryPruner.obj
 0001:0019f310       ??0AABBPruner@Gu@physx@@QEAA@_N_KW4CompanionPrunerType@12@W4BVHBuildStrategy@12@I@Z 00000001801a0310 f   GuAABBPruner.obj
 0001:0019f440       ??1AABBPruner@Gu@physx@@UEAA@XZ 00000001801a0440 f   GuAABBPruner.obj
 0001:0019f5a0       ??_GAABBPruner@Gu@physx@@UEAAPEAXI@Z 00000001801a05a0 f i GuAABBPruner.obj
 0001:0019f5a0       ??_EAABBPruner@Gu@physx@@UEAAPEAXI@Z 00000001801a05a0 f i GuAABBPruner.obj
 0001:0019f610       ?addObjects@AABBPruner@Gu@physx@@UEAA_NPEAIPEBVPxBounds3@3@PEBUPrunerPayload@23@PEBV?$PxTransformT@M@3@I_N@Z 00000001801a0610 f   GuAABBPruner.obj
 0001:0019f770       ?buildStep@AABBPruner@Gu@physx@@UEAA_N_N@Z 00000001801a0770 f   GuAABBPruner.obj
 0001:0019f9b0       ?commit@AABBPruner@Gu@physx@@UEAAXXZ 00000001801a09b0 f   GuAABBPruner.obj
 0001:0019fd80       ?getGlobalBounds@AABBPruner@Gu@physx@@UEBAXAEAVPxBounds3@3@@Z 00000001801a0d80 f   GuAABBPruner.obj
 0001:0019feb0       ?getPayloadData@AABBPruner@Gu@physx@@UEBAAEBUPrunerPayload@23@IPEAUPrunerPayloadData@23@@Z 00000001801a0eb0 f i GuAABBPruner.obj
 0001:0019ff10       ?growAndPushBack@?$PxArray@UNewTreeFixup@AABBPruner@Gu@physx@@V?$PxReflectionAllocator@UNewTreeFixup@AABBPruner@Gu@physx@@@4@@physx@@IEAAAEAUNewTreeFixup@AABBPruner@Gu@2@AEBU3452@@Z 00000001801a0f10 f i GuAABBPruner.obj
 0001:001a0030       ?isDynamic@AABBPruner@Gu@physx@@UEBA_NXZ 00000001801a1030 f i GuAABBPruner.obj
 0001:001a0040       ?merge@AABBPruner@Gu@physx@@UEAAXPEBX@Z 00000001801a1040 f   GuAABBPruner.obj
 0001:001a00c0       ?overlap@AABBPruner@Gu@physx@@UEBA_NAEBVShapeData@23@AEAUPrunerOverlapCallback@23@@Z 00000001801a10c0 f   GuAABBPruner.obj
 0001:001a06a0       ?preallocate@AABBPruner@Gu@physx@@UEAAXI@Z 00000001801a16a0 f i GuAABBPruner.obj
 0001:001a06b0       ?prepareBuild@AABBPruner@Gu@physx@@UEAA_NXZ 00000001801a16b0 f   GuAABBPruner.obj
 0001:001a0840       ?purge@AABBPruner@Gu@physx@@UEAAXXZ 00000001801a1840 f   GuAABBPruner.obj
 0001:001a0860       ?raycast@AABBPruner@Gu@physx@@UEBA_NAEBV?$PxVec3T@M@3@0AEAMAEAUPrunerRaycastCallback@23@@Z 00000001801a1860 f   GuAABBPruner.obj
 0001:001a0950       ?release@AABBPruner@Gu@physx@@QEAAXXZ 00000001801a1950 f   GuAABBPruner.obj
 0001:001a0a80       ?removeObjects@AABBPruner@Gu@physx@@UEAAXPEBIIPEAUPrunerPayloadRemovalCallback@23@@Z 00000001801a1a80 f   GuAABBPruner.obj
 0001:001a0c70       ?setRebuildRateHint@AABBPruner@Gu@physx@@UEAAXI@Z 00000001801a1c70 f   GuAABBPruner.obj
 0001:001a0c90       ?setTransform@AABBPruner@Gu@physx@@UEAA_NIAEBV?$PxTransformT@M@3@@Z 00000001801a1c90 f i GuAABBPruner.obj
 0001:001a0cf0       ?shiftOrigin@AABBPruner@Gu@physx@@UEAAXAEBV?$PxVec3T@M@3@@Z 00000001801a1cf0 f   GuAABBPruner.obj
 0001:001a0d60       ?sweep@AABBPruner@Gu@physx@@UEBA_NAEBVShapeData@23@AEBV?$PxVec3T@M@3@AEAMAEAUPrunerRaycastCallback@23@@Z 00000001801a1d60 f   GuAABBPruner.obj
 0001:001a0ef0       ?updateObjects@AABBPruner@Gu@physx@@UEAAXPEBIIM0PEBVPxBounds3@3@PEBUPxTransformPadded@3@@Z 00000001801a1ef0 f   GuAABBPruner.obj
 0001:001a10a0       ?visualize@AABBPruner@Gu@physx@@UEBAXAEAVPxRenderOutput@3@II@Z 00000001801a20a0 f   GuAABBPruner.obj
 0001:001a1150       ??0ActorShapeMap@Gu@physx@@QEAA@XZ 00000001801a2150 f   GuActorShapeMap.obj
 0001:001a11b0       ??1ActorShapeMap@Gu@physx@@QEAA@XZ 00000001801a21b0 f   GuActorShapeMap.obj
 0001:001a1210       ?add@ActorShapeMap@Gu@physx@@QEAA_NIPEBX0_K@Z 00000001801a2210 f   GuActorShapeMap.obj
 0001:001a13b0       ?create@?$PxHashBase@V?$PxPair@$$CBUActorShape@ActorShapeMap@Gu@physx@@_K@physx@@UActorShape@ActorShapeMap@Gu@2@U?$PxHash@UActorShape@ActorShapeMap@Gu@physx@@@2@UGetKey@?$PxHashMapBase@UActorShape@ActorShapeMap@Gu@physx@@_KU?$PxHash@UActorShape@ActorShapeMap@Gu@physx@@@4@VPxAllocator@4@@2@VPxAllocator@2@$00@physx@@QEAAPEAV?$PxPair@$$CBUActorShape@ActorShapeMap@Gu@physx@@_K@2@AEBUActorShape@ActorShapeMap@Gu@2@AEA_N@Z 00000001801a23b0 f i GuActorShapeMap.obj
 0001:001a15a0       ?erase@?$PxHashBase@V?$PxPair@$$CBUActorShape@ActorShapeMap@Gu@physx@@_K@physx@@UActorShape@ActorShapeMap@Gu@2@U?$PxHash@UActorShape@ActorShapeMap@Gu@physx@@@2@UGetKey@?$PxHashMapBase@UActorShape@ActorShapeMap@Gu@physx@@_KU?$PxHash@UActorShape@ActorShapeMap@Gu@physx@@@4@VPxAllocator@4@@2@VPxAllocator@2@$00@physx@@QEAA_NAEBUActorShape@ActorShapeMap@Gu@2@AEAV?$PxPair@$$CBUActorShape@ActorShapeMap@Gu@physx@@_K@2@@Z 00000001801a25a0 f i GuActorShapeMap.obj
 0001:001a17b0       ?find@ActorShapeMap@Gu@physx@@QEBA_KIPEBX0@Z 00000001801a27b0 f   GuActorShapeMap.obj
 0001:001a18a0       ?remove@ActorShapeMap@Gu@physx@@QEAA_NIPEBX0PEA_K@Z 00000001801a28a0 f   GuActorShapeMap.obj
 0001:001a1930       ?reserveInternal@?$PxHashBase@V?$PxPair@$$CBUActorShape@ActorShapeMap@Gu@physx@@_K@physx@@UActorShape@ActorShapeMap@Gu@2@U?$PxHash@UActorShape@ActorShapeMap@Gu@physx@@@2@UGetKey@?$PxHashMapBase@UActorShape@ActorShapeMap@Gu@physx@@_KU?$PxHash@UActorShape@ActorShapeMap@Gu@physx@@@4@VPxAllocator@4@@2@VPxAllocator@2@$00@physx@@AEAAXI@Z 00000001801a2930 f i GuActorShapeMap.obj
 0001:001a1b50       ??0QuerySystem@Gu@physx@@QEAA@_KMAEBVAdapter@12@_N@Z 00000001801a2b50 f   GuQuerySystem.obj
 0001:001a1c20       ??1QuerySystem@Gu@physx@@QEAA@XZ 00000001801a2c20 f   GuQuerySystem.obj
 0001:001a1e40       ??_GPrunerExt@QuerySystem@Gu@physx@@QEAAPEAXI@Z 00000001801a2e40 f i GuQuerySystem.obj
 0001:001a1f50       ?addPruner@QuerySystem@Gu@physx@@QEAAIPEAVPruner@23@I@Z 00000001801a2f50 f   GuQuerySystem.obj
 0001:001a2080       ?addPrunerShape@QuerySystem@Gu@physx@@QEAA_KAEBUPrunerPayload@23@I_NAEBV?$PxTransformT@M@3@PEBVPxBounds3@3@@Z 00000001801a3080 f   GuQuerySystem.obj
 0001:001a21c0       ?addToDirtyList@PrunerExt@QuerySystem@Gu@physx@@QEAAXIIAEBV?$PxTransformT@M@4@PEBVPxBounds3@4@@Z 00000001801a31c0 f   GuQuerySystem.obj
 0001:001a2410       ?commitUpdates@QuerySystem@Gu@physx@@QEAAXXZ 00000001801a3410 f   GuQuerySystem.obj
 0001:001a24c0       ?createTreeOfPruners@QuerySystem@Gu@physx@@QEAAXXZ 00000001801a34c0 f   GuQuerySystem.obj
 0001:001a2630       ?flushMemory@QuerySystem@Gu@physx@@QEAAXXZ 00000001801a3630 f   GuQuerySystem.obj
 0001:001a26c0       ?getPayloadData@QuerySystem@Gu@physx@@QEBAAEBUPrunerPayload@23@_KPEAUPrunerPayloadData@23@@Z 00000001801a36c0 f   GuQuerySystem.obj
 0001:001a26e0       ?growAndPushBack@?$PxArray@PEAUPrunerExt@QuerySystem@Gu@physx@@V?$PxReflectionAllocator@PEAUPrunerExt@QuerySystem@Gu@physx@@@4@@physx@@IEAAAEAPEAUPrunerExt@QuerySystem@Gu@2@AEBQEAU3452@@Z 00000001801a36e0 f i GuQuerySystem.obj
 0001:001a2800       ?overlap@QuerySystem@Gu@physx@@QEBAXAEBVShapeData@23@AEAUPrunerOverlapCallback@23@PEBVPrunerFilter@23@@Z 00000001801a3800 f   GuQuerySystem.obj
 0001:001a2900       ?processDirtyLists@QuerySystem@Gu@physx@@AEAAXXZ 00000001801a3900 f   GuQuerySystem.obj
 0001:001a2be0       ?raycast@QuerySystem@Gu@physx@@QEBAXAEBV?$PxVec3T@M@3@0AEAMAEAUPrunerRaycastCallback@23@PEBVPrunerFilter@23@@Z 00000001801a3be0 f   GuQuerySystem.obj
 0001:001a2d20       ?recreate@?$PxArray@UData@PrunerExt@QuerySystem@Gu@physx@@V?$PxReflectionAllocator@UData@PrunerExt@QuerySystem@Gu@physx@@@5@@physx@@IEAAXI@Z 00000001801a3d20 f i GuQuerySystem.obj
 0001:001a3010       ?removePruner@QuerySystem@Gu@physx@@QEAAXI@Z 00000001801a4010 f   GuQuerySystem.obj
 0001:001a30f0       ?removePrunerShape@QuerySystem@Gu@physx@@QEAAX_KPEAUPrunerPayloadRemovalCallback@23@@Z 00000001801a40f0 f   GuQuerySystem.obj
 0001:001a3310       ?sweep@QuerySystem@Gu@physx@@QEBAXAEBVShapeData@23@AEBV?$PxVec3T@M@3@AEAMAEAUPrunerRaycastCallback@23@PEBVPrunerFilter@23@@Z 00000001801a4310 f   GuQuerySystem.obj
 0001:001a3440       ?sync@QuerySystem@Gu@physx@@QEAAXIPEBI0PEBVPxBounds3@3@PEBUPxTransformPadded@3@I@Z 00000001801a4440 f   GuQuerySystem.obj
 0001:001a34f0       ?update@QuerySystem@Gu@physx@@QEAAX_N0@Z 00000001801a44f0 f   GuQuerySystem.obj
 0001:001a35c0       ?updatePrunerShape@QuerySystem@Gu@physx@@QEAAX_K_NAEBV?$PxTransformT@M@3@PEBVPxBounds3@3@@Z 00000001801a45c0 f   GuQuerySystem.obj
 0001:001a37b0       createAABBPruner           00000001801a47b0 f   GuFactory.obj
 0001:001a3870       createBucketPruner         00000001801a4870 f   GuFactory.obj
 0001:001a3900       createIncrementalPruner    00000001801a4900 f   GuFactory.obj
 0001:001a3990       ??$PxSmallSort@I$$CBUSortBoundsPredicate@physx@@@physx@@YAXPEAIHHAEBUSortBoundsPredicate@0@@Z 00000001801a4990 f i GuRTreeCooking.obj
 0001:001a3c60       ??$PxSort@IU?$PxLess@I@physx@@V?$PxReflectionAllocator@I@2@@physx@@YAXPEAIIAEBU?$PxLess@I@0@AEBV?$PxReflectionAllocator@I@0@I@Z 00000001801a4c60 f i GuRTreeCooking.obj
 0001:001a40b0       ??$PxSort@IUSortBoundsPredicate@physx@@V?$PxReflectionAllocator@I@2@@physx@@YAXPEAIIAEBUSortBoundsPredicate@0@AEBV?$PxReflectionAllocator@I@0@I@Z 00000001801a50b0 f i GuRTreeCooking.obj
 0001:001a45b0       ??$quickSelectFirstK@UBoundsLTE@physx@@@quickSelect@physx@@YAXPEIAIIIIAEBUBoundsLTE@1@@Z 00000001801a55b0 f i GuRTreeCooking.obj
 0001:001a4790       ?allocate@?$PxArray@UInterval@physx@@V?$PxInlineAllocator@$0CAAA@V?$PxReflectionAllocator@UInterval@physx@@@physx@@@2@@physx@@IEAAPEAUInterval@2@IPEAI@Z 00000001801a5790 f i GuRTreeCooking.obj
 0001:001a54b0       ?buildFromTriangles@RTreeCooker@physx@@SAXAEAURTree@Gu@2@PEBV?$PxVec3T@M@2@IPEBGPEBIIAEAV?$PxArray@IV?$PxReflectionAllocator@I@physx@@@2@PEAURemapCallback@12@MW4Enum@PxMeshCookingHint@2@@Z 00000001801a64b0 f   GuRTreeCooking.obj
 0001:001a5750       ?copy@?$PxArray@URTreeNodeNQ@physx@@V?$PxReflectionAllocator@URTreeNodeNQ@physx@@@2@@physx@@KAXPEAURTreeNodeNQ@2@0PEBU32@@Z 00000001801a6750 f i GuRTreeCooking.obj
 0001:001a5910       ?growAndPushBack@?$PxArray@UInterval@physx@@V?$PxInlineAllocator@$0CAAA@V?$PxReflectionAllocator@UInterval@physx@@@physx@@@2@@physx@@IEAAAEAUInterval@2@AEBU32@@Z 00000001801a6910 f i GuRTreeCooking.obj
 0001:001a5a00       ?growAndPushBack@?$PxArray@UPxBounds3V@physx@@V?$PxReflectionAllocator@UPxBounds3V@physx@@@2@@physx@@IEAAAEAUPxBounds3V@2@AEBU32@@Z 00000001801a6a00 f i GuRTreeCooking.obj
 0001:001a5b30       ?growAndPushBack@?$PxArray@URTreeNodeNQ@physx@@V?$PxReflectionAllocator@URTreeNodeNQ@physx@@@2@@physx@@IEAAAEAURTreeNodeNQ@2@AEBU32@@Z 00000001801a6b30 f i GuRTreeCooking.obj
 0001:001a5c70       ?growAndPushBack@?$PxArray@URTreeNodeQ@Gu@physx@@V?$PxReflectionAllocator@URTreeNodeQ@Gu@physx@@@3@@physx@@IEAAAEAURTreeNodeQ@Gu@2@AEBU342@@Z 00000001801a6c70 f i GuRTreeCooking.obj
 0001:001a5db0       ?recreate@?$PxArray@UPxBounds3V@physx@@V?$PxReflectionAllocator@UPxBounds3V@physx@@@2@@physx@@IEAAXI@Z 00000001801a6db0 f i GuRTreeCooking.obj
 0001:001a5eb0       ?recreate@?$PxArray@URTreeNodeNQ@physx@@V?$PxReflectionAllocator@URTreeNodeNQ@physx@@@2@@physx@@IEAAXI@Z 00000001801a6eb0 f i GuRTreeCooking.obj
 0001:001a5f90       ?recreate@?$PxArray@URTreeNodeQ@Gu@physx@@V?$PxReflectionAllocator@URTreeNodeQ@Gu@physx@@@3@@physx@@IEAAXI@Z 00000001801a6f90 f i GuRTreeCooking.obj
 0001:001a6090       ?resizeUninitialized@?$PxArray@URTreeNodeNQ@physx@@V?$PxReflectionAllocator@URTreeNodeNQ@physx@@@2@@physx@@QEAAXI@Z 00000001801a7090 f i GuRTreeCooking.obj
 0001:001a60d0       ?sort4@SubSortQuick@physx@@QEAAXPEIAIIAEAV?$PxArray@URTreeNodeNQ@physx@@V?$PxReflectionAllocator@URTreeNodeNQ@physx@@@2@@2@AEAIAEAUPxBounds3V@2@I@Z 00000001801a70d0 f i GuRTreeCooking.obj
 0001:001a6460       ?sort4@SubSortSAH@physx@@QEAAXPEAIIAEAV?$PxArray@URTreeNodeNQ@physx@@V?$PxReflectionAllocator@URTreeNodeNQ@physx@@@2@@2@AEAIIPEAURTreeNodeNQ@2@@Z 00000001801a7460 f i GuRTreeCooking.obj
 0001:001a6cb0       ?split@SubSortSAH@physx@@QEAAIPEAII@Z 00000001801a7cb0 f i GuRTreeCooking.obj
 0001:001a76b0       cookBVH                    00000001801a86b0 f   GuCookingBVH.obj
 0001:001a7840       createBVH                  00000001801a8840 f   GuCookingBVH.obj
 0001:001a79d0       cookHeightField            00000001801a89d0 f   GuCookingHF.obj
 0001:001a7ae0       createHeightField          00000001801a8ae0 f   GuCookingHF.obj
 0001:001a8140       ?isFinite@?$PxVec3T@M@physx@@QEBA_NXZ 00000001801a9140 f i GuCookingConvexMesh.obj
 0001:001a81a0       computeHullPolygons        00000001801a91a0 f   GuCookingConvexMesh.obj
 0001:001a8380       cookConvexMesh             00000001801a9380 f   GuCookingConvexMesh.obj
 0001:001a84c0       createConvexMesh           00000001801a94c0 f   GuCookingConvexMesh.obj
 0001:001a8640       validateConvexMesh         00000001801a9640 f   GuCookingConvexMesh.obj
 0001:001a8760       ??1BV4TriangleMeshBuilder@physx@@UEAA@XZ 00000001801a9760 f   GuCookingTriangleMesh.obj
 0001:001a87f0       ??1RTreeTriangleMeshBuilder@physx@@UEAA@XZ 00000001801a97f0 f   GuCookingTriangleMesh.obj
 0001:001a8860       ??_GBV4TriangleMeshBuilder@physx@@UEAAPEAXI@Z 00000001801a9860 f i GuCookingTriangleMesh.obj
 0001:001a8860       ??_EBV4TriangleMeshBuilder@physx@@UEAAPEAXI@Z 00000001801a9860 f i GuCookingTriangleMesh.obj
 0001:001a88a0       ??_GRTreeTriangleMeshBuilder@physx@@UEAAPEAXI@Z 00000001801a98a0 f i GuCookingTriangleMesh.obj
 0001:001a88a0       ??_ERTreeTriangleMeshBuilder@physx@@UEAAPEAXI@Z 00000001801a98a0 f i GuCookingTriangleMesh.obj
 0001:001a88e0       ??_ETriangleMeshBuilder@physx@@UEAAPEAXI@Z 00000001801a98e0 f i GuCookingTriangleMesh.obj
 0001:001a88e0       ??_GTriangleMeshBuilder@physx@@UEAAPEAXI@Z 00000001801a98e0 f i GuCookingTriangleMesh.obj
 0001:001a9290       ?buildInertiaTensor@TriangleMeshBuilder@physx@@IEAAX_N@Z 00000001801aa290 f   GuCookingTriangleMesh.obj
 0001:001a93b0       ?buildInertiaTensorFromSDF@TriangleMeshBuilder@physx@@IEAAXXZ 00000001801aa3b0 f   GuCookingTriangleMesh.obj
 0001:001a95b0       ?cleanMesh@TriangleMeshBuilder@physx@@QEAA_N_NPEAW4Enum@PxTriangleMeshCookingResult@2@@Z 00000001801aa5b0 f   GuCookingTriangleMesh.obj
 0001:001a9ac0       ?createGRBMidPhaseAndData@TriangleMeshBuilder@physx@@QEAA_NI@Z 00000001801aaac0 f   GuCookingTriangleMesh.obj
 0001:001a9c70       ?createMidPhaseStructure@BV32TriangleMeshBuilder@physx@@SA_NAEBUPxCookingParams@2@AEAVTriangleMeshData@Gu@2@AEAVBV32Tree@52@@Z 00000001801aac70 f   GuCookingTriangleMesh.obj
 0001:001a9ea0       ?createMidPhaseStructure@BV4TriangleMeshBuilder@physx@@UEAA_NXZ 00000001801aaea0 f   GuCookingTriangleMesh.obj
 0001:001aa170       ?createMidPhaseStructure@RTreeTriangleMeshBuilder@physx@@UEAA_NXZ 00000001801ab170 f   GuCookingTriangleMesh.obj
 0001:001aa260       ?createSharedEdgeData@TriangleMeshBuilder@physx@@QEAAX_N0@Z 00000001801ab260 f   GuCookingTriangleMesh.obj
 0001:001aa8e0       ?createVertMapping@TriangleMeshBuilder@physx@@QEAAXXZ 00000001801ab8e0 f   GuCookingTriangleMesh.obj
 0001:001aac60       ?importMesh@TriangleMeshBuilder@physx@@IEAA_NAEBVPxTriangleMeshDesc@2@PEAW4Enum@PxTriangleMeshCookingResult@2@_N@Z 00000001801abc60 f   GuCookingTriangleMesh.obj
 0001:001ab1b0       ?isValid@PxTriangleMeshDesc@physx@@QEBA_NXZ 00000001801ac1b0 f i GuCookingTriangleMesh.obj
 0001:001ab290       ?loadFromDescInternal@TriangleMeshBuilder@physx@@IEAA_NAEAVPxTriangleMeshDesc@2@PEAW4Enum@PxTriangleMeshCookingResult@2@_N@Z 00000001801ac290 f   GuCookingTriangleMesh.obj
 0001:001ab4c0       ?onMeshIndexFormatChange@BV4TriangleMeshBuilder@physx@@UEAAXXZ 00000001801ac4c0 f   GuCookingTriangleMesh.obj
 0001:001ab500       ?remap@RTreeCookerRemap@@UEAAXPEAIII@Z 00000001801ac500 f i GuCookingTriangleMesh.obj
 0001:001ab520       ?remapTopology@TriangleMeshBuilder@physx@@QEAAXPEBI@Z 00000001801ac520 f   GuCookingTriangleMesh.obj
 0001:001ab7c0       ?save@TriangleMeshBuilder@physx@@QEBA_NAEAVPxOutputStream@2@_NAEBUPxCookingParams@2@@Z 00000001801ac7c0 f   GuCookingTriangleMesh.obj
 0001:001abf80       ?saveMidPhaseStructure@BV32TriangleMeshBuilder@physx@@SAXPEAVBV32Tree@Gu@2@AEAVPxOutputStream@2@_N@Z 00000001801acf80 f   GuCookingTriangleMesh.obj
 0001:001ac180       ?saveMidPhaseStructure@BV4TriangleMeshBuilder@physx@@UEBAXAEAVPxOutputStream@2@_N@Z 00000001801ad180 f   GuCookingTriangleMesh.obj
 0001:001ac330       ?saveMidPhaseStructure@RTreeTriangleMeshBuilder@physx@@UEBAXAEAVPxOutputStream@2@_N@Z 00000001801ad330 f   GuCookingTriangleMesh.obj
 0001:001ac570       cookTriangleMesh           00000001801ad570 f   GuCookingTriangleMesh.obj
 0001:001ac850       createTriangleMesh         00000001801ad850 f   GuCookingTriangleMesh.obj
 0001:001aca70       validateTriangleMesh       00000001801ada70 f   GuCookingTriangleMesh.obj
 0001:001acd00       ??0DeformableVolumeCollisionData@Gu@physx@@QEAA@XZ 00000001801add00 f i GuCookingTetrahedronMesh.obj
 0001:001acd60       ??_GCollisionTetrahedronMeshData@Gu@physx@@UEAAPEAXI@Z 00000001801add60 f i GuCookingTetrahedronMesh.obj
 0001:001acd60       ??_ECollisionTetrahedronMeshData@Gu@physx@@UEAAPEAXI@Z 00000001801add60 f i GuCookingTetrahedronMesh.obj
 0001:001ace30       ??_GPxCollisionTetrahedronMeshData@physx@@UEAAPEAXI@Z 00000001801ade30 f i GuCookingTetrahedronMesh.obj
 0001:001ace30       ??_EPxCollisionTetrahedronMeshData@physx@@UEAAPEAXI@Z 00000001801ade30 f i GuCookingTetrahedronMesh.obj
 0001:001ace80       ??_EPxSimulationTetrahedronMeshData@physx@@UEAAPEAXI@Z 00000001801ade80 f i GuCookingTetrahedronMesh.obj
 0001:001ace80       ??_GPxSimulationTetrahedronMeshData@physx@@UEAAPEAXI@Z 00000001801ade80 f i GuCookingTetrahedronMesh.obj
 0001:001aced0       ??_GSimulationTetrahedronMeshData@Gu@physx@@UEAAPEAXI@Z 00000001801aded0 f i GuCookingTetrahedronMesh.obj
 0001:001aced0       ??_ESimulationTetrahedronMeshData@Gu@physx@@UEAAPEAXI@Z 00000001801aded0 f i GuCookingTetrahedronMesh.obj
 0001:001acfa0       ?PointOutsideOfPlane4@Gu@physx@@YA?AV?$PxVec4T@M@2@AEBV?$PxVec3T@M@2@0000@Z 00000001801adfa0 f i GuCookingTetrahedronMesh.obj
 0001:001ad410       ?combineGridModelPartitions@@YAXAEBVTetrahedronMeshData@Gu@physx@@AEAVDeformableVolumeSimulationData@23@PEAPEAI@Z 00000001801ae410 f   GuCookingTetrahedronMesh.obj
 0001:001adc60       ?combineGridModelPartitionsHexMesh_parallelGS@@YAXAEBVTetrahedronMeshData@Gu@physx@@AEAVDeformableVolumeSimulationData@23@PEAPEAI@Z 00000001801aec60 f   GuCookingTetrahedronMesh.obj
 0001:001adf90       ?computeCollisionData@TetrahedronMeshBuilder@physx@@SA_NAEBVPxTetrahedronMeshDesc@2@AEAVTetrahedronMeshData@Gu@2@AEAVDeformableVolumeCollisionData@52@AEBUPxCookingParams@2@_N@Z 00000001801aef90 f   GuCookingTetrahedronMesh.obj
 0001:001ae1c0       ?computeGridModelTetrahedronPartitions@@YAPEAIAEBVTetrahedronMeshData@Gu@physx@@AEAVDeformableVolumeSimulationData@23@@Z 00000001801af1c0 f   GuCookingTetrahedronMesh.obj
 0001:001ae690       ?computeGridModelVoxelPartitions@@YAPEAIAEBVTetrahedronMeshData@Gu@physx@@AEAVDeformableVolumeSimulationData@23@@Z 00000001801af690 f   GuCookingTetrahedronMesh.obj
 0001:001aee70       ?computeModelsMapping@TetrahedronMeshBuilder@physx@@SAXAEAVTetrahedronMeshData@Gu@2@AEBV342@AEBVDeformableVolumeCollisionData@42@AEAVCollisionMeshMappingData@42@_NPEBUPxBoundedData@2@@Z 00000001801afe70 f   GuCookingTetrahedronMesh.obj
 0001:001afa70       ?computeRestPoseAndPointMass@@YAXPEAU?$TetrahedronT@I@Gu@physx@@IPEBV?$PxVec3T@M@3@PEAMPEAV?$PxMat33T@M@3@@Z 00000001801b0a70 f   GuCookingTetrahedronMesh.obj
 0001:001afef0       ?computeSimData@TetrahedronMeshBuilder@physx@@SAXAEBVPxTetrahedronMeshDesc@2@AEAVTetrahedronMeshData@Gu@2@AEAVDeformableVolumeSimulationData@52@AEBUPxCookingParams@2@@Z 00000001801b0ef0 f   GuCookingTetrahedronMesh.obj
 0001:001b05e0       ?computeTetData@TetrahedronMeshBuilder@physx@@SAXAEBVPxTetrahedronMeshDesc@2@AEAVTetrahedronMeshData@Gu@2@@Z 00000001801b15e0 f   GuCookingTetrahedronMesh.obj
 0001:001b06d0       ?computeTetrahedronPartition@@YAIPEBU?$TetrahedronT@I@Gu@physx@@IPEAII@Z 00000001801b16d0 f   GuCookingTetrahedronMesh.obj
 0001:001b07d0       ?createCollisionModelMapping@TetrahedronMeshBuilder@physx@@SAXAEBVTetrahedronMeshData@Gu@2@AEBVDeformableVolumeCollisionData@42@AEAVCollisionMeshMappingData@42@@Z 00000001801b17d0 f   GuCookingTetrahedronMesh.obj
 0001:001b0e00       ?createGRBMidPhaseAndData@TetrahedronMeshBuilder@physx@@SA_NIAEAVTetrahedronMeshData@Gu@2@AEAVDeformableVolumeCollisionData@42@AEBUPxCookingParams@2@@Z 00000001801b1e00 f   GuCookingTetrahedronMesh.obj
 0001:001b1b80       ?createMidPhaseStructure@BV32TetrahedronMeshBuilder@physx@@SA_NAEBUPxCookingParams@2@AEAVTetrahedronMeshData@Gu@2@AEAVBV32Tree@52@AEAVDeformableVolumeCollisionData@52@@Z 00000001801b2b80 f   GuCookingTetrahedronMesh.obj
 0001:001b1e60       ?createMidPhaseStructure@TetrahedronMeshBuilder@physx@@SA_NAEAVTetrahedronMeshData@Gu@2@AEAVDeformableVolumeCollisionData@42@AEBUPxCookingParams@2@@Z 00000001801b2e60 f   GuCookingTetrahedronMesh.obj
 0001:001b2b30       ?getData@CollisionTetrahedronMeshData@Gu@physx@@UEAAPEAVPxDeformableVolumeCollisionData@3@XZ 00000001801b3b30 f i GuCookingTetrahedronMesh.obj
 0001:001b2b30       ?getData@SimulationTetrahedronMeshData@Gu@physx@@UEAAPEAVPxDeformableVolumeSimulationData@3@XZ 00000001801b3b30 f i GuCookingTetrahedronMesh.obj
 0001:001b2b30       ?getData@CollisionTetrahedronMeshData@Gu@physx@@UEBAPEBVPxDeformableVolumeCollisionData@3@XZ 00000001801b3b30 f i GuCookingTetrahedronMesh.obj
 0001:001b2b50       ?importMesh@TetrahedronMeshBuilder@physx@@SA_NAEBVPxTetrahedronMeshDesc@2@AEBUPxCookingParams@2@AEAVTetrahedronMeshData@Gu@2@AEAVDeformableVolumeCollisionData@62@_N@Z 00000001801b3b50 f   GuCookingTetrahedronMesh.obj
 0001:001b2e50       ?isValid@PxTetrahedronMeshDesc@physx@@QEBA_NXZ 00000001801b3e50 f i GuCookingTetrahedronMesh.obj
 0001:001b2ed0       ?loadFromDesc@TetrahedronMeshBuilder@physx@@SA_NAEBVPxTetrahedronMeshDesc@2@0VPxDeformableVolumeSimulationDataDesc@2@AEAVTetrahedronMeshData@Gu@2@AEAVDeformableVolumeSimulationData@62@2AEAVDeformableVolumeCollisionData@62@AEAVCollisionMeshMappingData@62@AEBUPxCookingParams@2@_N@Z 00000001801b3ed0 f   GuCookingTetrahedronMesh.obj
 0001:001b3040       ?recreate@?$PxArray@V?$PxArray@IV?$PxReflectionAllocator@I@physx@@@physx@@V?$PxReflectionAllocator@V?$PxArray@IV?$PxReflectionAllocator@I@physx@@@physx@@@2@@physx@@IEAAXI@Z 00000001801b4040 f i GuCookingTetrahedronMesh.obj
 0001:001b3160       ?release@CollisionTetrahedronMeshData@Gu@physx@@UEAAXXZ 00000001801b4160 f i GuCookingTetrahedronMesh.obj
 0001:001b3180       ?reserveInternal@?$PxHashBase@IIU?$PxHash@I@physx@@UGetKey@?$PxHashSetBase@IU?$PxHash@I@physx@@VPxAllocator@2@$0A@@2@VPxAllocator@2@$0A@@physx@@AEAAXI@Z 00000001801b4180 f i GuCookingTetrahedronMesh.obj
 0001:001b3530       ?reserveInternal@?$PxHashBase@V?$PxPair@$$CBVSortedTriangleInds@@I@physx@@VSortedTriangleInds@@USortedTriangleIndsHash@@UGetKey@?$PxHashMapBase@VSortedTriangleInds@@IUSortedTriangleIndsHash@@VPxAllocator@physx@@@2@VPxAllocator@2@$00@physx@@AEAAXI@Z 00000001801b4530 f i GuCookingTetrahedronMesh.obj
 0001:001b3780       ?resize@?$PxArray@V?$PxArray@IV?$PxReflectionAllocator@I@physx@@@physx@@V?$PxReflectionAllocator@V?$PxArray@IV?$PxReflectionAllocator@I@physx@@@physx@@@2@@physx@@QEAAXIAEBV?$PxArray@IV?$PxReflectionAllocator@I@physx@@@2@@Z 00000001801b4780 f i GuCookingTetrahedronMesh.obj
 0001:001b3820       ?saveDeformableVolumeMeshData@TetrahedronMeshBuilder@physx@@SA_NAEAVPxOutputStream@2@_NAEBUPxCookingParams@2@AEBVTetrahedronMeshData@Gu@2@AEBVDeformableVolumeSimulationData@62@3AEBVDeformableVolumeCollisionData@62@AEBVCollisionMeshMappingData@62@@Z 00000001801b4820 f   GuCookingTetrahedronMesh.obj
 0001:001b3f50       ?saveTetrahedronMeshData@TetrahedronMeshBuilder@physx@@SA_NAEAVPxOutputStream@2@_NAEBUPxCookingParams@2@AEBVTetrahedronMeshData@Gu@2@@Z 00000001801b4f50 f   GuCookingTetrahedronMesh.obj
 0001:001b4100       ?smoothMassRatiosWhilePreservingTotalMass@@YAXPEAMIPEBIHMM@Z 00000001801b5100 f   GuCookingTetrahedronMesh.obj
 0001:001b4590       ?support@?$LocalConvex@VTetrahedronV@Gu@physx@@@Gu@physx@@UEBA?AT__m128@@AEBT4@@Z 00000001801b5590 f i GuCookingTetrahedronMesh.obj
 0001:001b4650       ?support@?$LocalConvex@VTetrahedronV@Gu@physx@@@Gu@physx@@UEBA?AT__m128@@AEBT4@AEAH@Z 00000001801b5650 f i GuCookingTetrahedronMesh.obj
 0001:001b4800       assembleDeformableVolumeMesh 00000001801b5800 f   GuCookingTetrahedronMesh.obj
 0001:001b4860       computeCollisionData       00000001801b5860 f   GuCookingTetrahedronMesh.obj
 0001:001b4a60       computeModelsMapping       00000001801b5a60 f   GuCookingTetrahedronMesh.obj
 0001:001b4b60       computeSimulationData      00000001801b5b60 f   GuCookingTetrahedronMesh.obj
 0001:001b4d30       cookDeformableVolumeMesh   00000001801b5d30 f   GuCookingTetrahedronMesh.obj
 0001:001b5340       cookTetrahedronMesh        00000001801b6340 f   GuCookingTetrahedronMesh.obj
 0001:001b5440       createDeformableVolumeMesh 00000001801b6440 f   GuCookingTetrahedronMesh.obj
 0001:001b5ad0       createTetrahedronMesh      00000001801b6ad0 f   GuCookingTetrahedronMesh.obj
 0001:001b78b0       ?computeVolumeIntegrals@physx@@YA_NAEBVPxSimpleTriangleMesh@1@MAEAUPxIntegrals@1@@Z 00000001801b88b0 f   GuCookingVolumeIntegration.obj
 0001:001b78f0       ?computeVolumeIntegralsEberly@physx@@YA_NAEBVPxConvexMeshDesc@1@MAEAUPxIntegrals@1@AEBV?$PxVec3T@M@1@_N@Z 00000001801b88f0 f   GuCookingVolumeIntegration.obj
 0001:001b7f40       ??0QuickHull@local@@QEAA@AEBUPxCookingParams@physx@@AEBVPxConvexMeshDesc@3@@Z 00000001801b8f40 f   GuCookingQuickHullConvexHullLib.obj
 0001:001b7ff0       ??0QuickHullConvexHullLib@physx@@QEAA@AEBVPxConvexMeshDesc@1@AEBUPxCookingParams@1@@Z 00000001801b8ff0 f   GuCookingQuickHullConvexHullLib.obj
 0001:001b80d0       ??1?$MemBlock@UQuickHullFace@local@@$00@local@@QEAA@XZ 00000001801b90d0 f i GuCookingQuickHullConvexHullLib.obj
 0001:001b80d0       ??1?$MemBlock@UQuickHullHalfEdge@local@@$0A@@local@@QEAA@XZ 00000001801b90d0 f i GuCookingQuickHullConvexHullLib.obj
 0001:001b8190       ??1QuickHull@local@@QEAA@XZ 00000001801b9190 f   GuCookingQuickHullConvexHullLib.obj
 0001:001b82f0       ??_GConvexHull@physx@@QEAAPEAXI@Z 00000001801b92f0 f i GuCookingQuickHullConvexHullLib.obj
 0001:001b83e0       ??_GConvexHullLib@physx@@UEAAPEAXI@Z 00000001801b93e0 f i GuCookingQuickHullConvexHullLib.obj
 0001:001b83e0       ??_EConvexHullLib@physx@@UEAAPEAXI@Z 00000001801b93e0 f i GuCookingQuickHullConvexHullLib.obj
 0001:001b8420       ??_EQuickHullConvexHullLib@physx@@UEAAPEAXI@Z 00000001801b9420 f i GuCookingQuickHullConvexHullLib.obj
 0001:001b8420       ??_GQuickHullConvexHullLib@physx@@UEAAPEAXI@Z 00000001801b9420 f i GuCookingQuickHullConvexHullLib.obj
 0001:001b8540       ?addPointToHull@QuickHull@local@@IEAA_NPEBUQuickHullVertex@2@AEAUQuickHullFace@2@AEA_N@Z 00000001801b9540 f   GuCookingQuickHullConvexHullLib.obj
 0001:001b8810       ?addSimplex@QuickHull@local@@IEAA_NPEAUQuickHullVertex@2@_N@Z 00000001801b9810 f   GuCookingQuickHullConvexHullLib.obj
 0001:001b8d20       ?buildHull@QuickHull@local@@QEAA?AW4Enum@QuickHullResult@2@XZ 00000001801b9d20 f   GuCookingQuickHullConvexHullLib.obj
 0001:001b8f70       ?calculateHorizon@QuickHull@local@@IEAAXAEBV?$PxVec3T@M@physx@@PEAUQuickHullHalfEdge@2@AEAUQuickHullFace@2@AEAV?$PxArray@PEAUQuickHullHalfEdge@local@@V?$PxReflectionAllocator@PEAUQuickHullHalfEdge@local@@@physx@@@4@AEAV?$PxArray@PEAUQuickHullFace@local@@V?$PxReflectionAllocator@PEAUQuickHullFace@local@@@physx@@@4@@Z 00000001801b9f70 f   GuCookingQuickHullConvexHullLib.obj
 0001:001b9120       ?canMergeFaces@QuickHull@local@@IEAA_NAEBUQuickHullHalfEdge@2@@Z 00000001801ba120 f   GuCookingQuickHullConvexHullLib.obj
 0001:001b9960       ?cleanupForSimplex@QuickHullConvexHullLib@physx@@IEAA_NPEAV?$PxVec3T@M@2@IPEAUQuickHullVertex@local@@1AEAM2@Z 00000001801ba960 f   GuCookingQuickHullConvexHullLib.obj
 0001:001ba5b0       ?computeMinMaxVerts@QuickHull@local@@IEAAXXZ 00000001801bb5b0 f   GuCookingQuickHullConvexHullLib.obj
 0001:001ba980       ?connectHalfEdges@QuickHullFace@local@@AEAAPEAU12@PEAUQuickHullHalfEdge@2@0@Z 00000001801bb980 f   GuCookingQuickHullConvexHullLib.obj
 0001:001bacf0       ?copy@?$PxArray@UExpandPoint@local@@V?$PxReflectionAllocator@UExpandPoint@local@@@physx@@@physx@@KAXPEAUExpandPoint@local@@0PEBU34@@Z 00000001801bbcf0 f i GuCookingQuickHullConvexHullLib.obj
 0001:001bada0       ?copy@?$PxArray@VPxPlane@physx@@V?$PxReflectionAllocator@VPxPlane@physx@@@2@@physx@@KAXPEAVPxPlane@2@0PEBV32@@Z 00000001801bbda0 f i GuCookingQuickHullConvexHullLib.obj
 0001:001baea0       ?createConvexHull@QuickHullConvexHullLib@physx@@UEAA?AW4Enum@PxConvexMeshCookingResult@2@XZ 00000001801bbea0 f   GuCookingQuickHullConvexHullLib.obj
 0001:001bb2a0       ?createEdgeList@QuickHullConvexHullLib@physx@@UEAA_NIPEBEPEAPEAEPEAPEAG2@Z 00000001801bc2a0 f   GuCookingQuickHullConvexHullLib.obj
 0001:001bb4b0       ?createTriangle@QuickHull@local@@IEAAPEAUQuickHullFace@2@AEBUQuickHullVertex@2@00@Z 00000001801bc4b0 f   GuCookingQuickHullConvexHullLib.obj
 0001:001bb880       ?doAdjacentMerge@QuickHull@local@@IEAA_NAEAUQuickHullFace@2@_NAEA_N@Z 00000001801bc880 f   GuCookingQuickHullConvexHullLib.obj
 0001:001bbbc0       ?expandHull@QuickHullConvexHullLib@physx@@IEAA?AW4Enum@PxConvexMeshCookingResult@2@XZ 00000001801bcbc0 f   GuCookingQuickHullConvexHullLib.obj
 0001:001bc920       ?expandHullOBB@QuickHullConvexHullLib@physx@@IEAA?AW4Enum@PxConvexMeshCookingResult@2@XZ 00000001801bd920 f   GuCookingQuickHullConvexHullLib.obj
 0001:001bcd40       ?fillConvexMeshDesc@QuickHullConvexHullLib@physx@@UEAAXAEAVPxConvexMeshDesc@2@@Z 00000001801bdd40 f   GuCookingQuickHullConvexHullLib.obj
 0001:001bcd90       ?fillConvexMeshDescFromCroppedHull@QuickHullConvexHullLib@physx@@IEAAXAEAVPxConvexMeshDesc@2@@Z 00000001801bdd90 f   GuCookingQuickHullConvexHullLib.obj
 0001:001bcf80       ?fillConvexMeshDescFromQuickHull@QuickHullConvexHullLib@physx@@IEAAXAEAVPxConvexMeshDesc@2@@Z 00000001801bdf80 f   GuCookingQuickHullConvexHullLib.obj
 0001:001bd320       ?findSimplex@QuickHull@local@@IEAA_NXZ 00000001801be320 f   GuCookingQuickHullConvexHullLib.obj
 0001:001bdfd0       ?getFreeItem@?$MemBlock@UQuickHullFace@local@@$00@local@@QEAAPEAUQuickHullFace@2@XZ 00000001801befd0 f i GuCookingQuickHullConvexHullLib.obj
 0001:001be110       ?getFreeItem@?$MemBlock@UQuickHullHalfEdge@local@@$0A@@local@@QEAAPEAUQuickHullHalfEdge@2@XZ 00000001801bf110 f i GuCookingQuickHullConvexHullLib.obj
 0001:001be1e0       ?growAndPushBack@?$PxArray@PEAUQuickHullFace@local@@V?$PxReflectionAllocator@PEAUQuickHullFace@local@@@physx@@@physx@@IEAAAEAPEAUQuickHullFace@local@@AEBQEAU34@@Z 00000001801bf1e0 f i GuCookingQuickHullConvexHullLib.obj
 0001:001be300       ?growAndPushBack@?$PxArray@PEAUQuickHullHalfEdge@local@@V?$PxReflectionAllocator@PEAUQuickHullHalfEdge@local@@@physx@@@physx@@IEAAAEAPEAUQuickHullHalfEdge@local@@AEBQEAU34@@Z 00000001801bf300 f i GuCookingQuickHullConvexHullLib.obj
 0001:001be420       ?growAndPushBack@?$PxArray@PEAUQuickHullVertex@local@@V?$PxReflectionAllocator@PEAUQuickHullVertex@local@@@physx@@@physx@@IEAAAEAPEAUQuickHullVertex@local@@AEBQEAU34@@Z 00000001801bf420 f i GuCookingQuickHullConvexHullLib.obj
 0001:001be540       ?growAndPushBack@?$PxArray@UExpandPoint@local@@V?$PxReflectionAllocator@UExpandPoint@local@@@physx@@@physx@@IEAAAEAUExpandPoint@local@@AEBU34@@Z 00000001801bf540 f i GuCookingQuickHullConvexHullLib.obj
 0001:001be6b0       ?growAndPushBack@?$PxArray@VPxPlane@physx@@V?$PxReflectionAllocator@VPxPlane@physx@@@2@@physx@@IEAAAEAVPxPlane@2@AEBV32@@Z 00000001801bf6b0 f i GuCookingQuickHullConvexHullLib.obj
 0001:001be7d0       ?init@?$MemBlock@UQuickHullFace@local@@$00@local@@QEAAXI@Z 00000001801bf7d0 f i GuCookingQuickHullConvexHullLib.obj
 0001:001be8d0       ?init@?$MemBlock@UQuickHullHalfEdge@local@@$0A@@local@@QEAAXI@Z 00000001801bf8d0 f i GuCookingQuickHullConvexHullLib.obj
 0001:001be970       ?mergeAdjacentFace@QuickHullFace@local@@QEAA_NPEAUQuickHullHalfEdge@2@AEAV?$PxArray@PEAUQuickHullFace@local@@V?$PxReflectionAllocator@PEAUQuickHullFace@local@@@physx@@@physx@@@Z 00000001801bf970 f   GuCookingQuickHullConvexHullLib.obj
 0001:001bedd0       ?nextPointToAdd@QuickHull@local@@IEAAPEAUQuickHullVertex@2@AEAPEAUQuickHullFace@2@@Z 00000001801bfdd0 f   GuCookingQuickHullConvexHullLib.obj
 0001:001bef50       ?parseInputVertices@QuickHull@local@@QEAAXPEBV?$PxVec3T@M@physx@@I@Z 00000001801bff50 f   GuCookingQuickHullConvexHullLib.obj
 0001:001bf0e0       ?postMergeHull@QuickHull@local@@IEAAXXZ 00000001801c00e0 f   GuCookingQuickHullConvexHullLib.obj
 0001:001bf330       ?preallocate@QuickHull@local@@QEAAXI@Z 00000001801c0330 f   GuCookingQuickHullConvexHullLib.obj
 0001:001bf470       ?recreate@?$PxArray@PEAUQuickHullFace@local@@V?$PxReflectionAllocator@PEAUQuickHullFace@local@@@physx@@@physx@@IEAAXI@Z 00000001801c0470 f i GuCookingQuickHullConvexHullLib.obj
 0001:001bf560       ?recreate@?$PxArray@PEAUQuickHullHalfEdge@local@@V?$PxReflectionAllocator@PEAUQuickHullHalfEdge@local@@@physx@@@physx@@IEAAXI@Z 00000001801c0560 f i GuCookingQuickHullConvexHullLib.obj
 0001:001bf650       ?recreate@?$PxArray@PEAUQuickHullVertex@local@@V?$PxReflectionAllocator@PEAUQuickHullVertex@local@@@physx@@@physx@@IEAAXI@Z 00000001801c0650 f i GuCookingQuickHullConvexHullLib.obj
 0001:001bf740       ?recreate@?$PxArray@UExpandPoint@local@@V?$PxReflectionAllocator@UExpandPoint@local@@@physx@@@physx@@IEAAXI@Z 00000001801c0740 f i GuCookingQuickHullConvexHullLib.obj
 0001:001bf820       ?recreate@?$PxArray@VPxPlane@physx@@V?$PxReflectionAllocator@VPxPlane@physx@@@2@@physx@@IEAAXI@Z 00000001801c0820 f i GuCookingQuickHullConvexHullLib.obj
 0001:001bf900       ?resolveUnclaimedPoints@QuickHull@local@@IEAAXAEBV?$PxArray@PEAUQuickHullFace@local@@V?$PxReflectionAllocator@PEAUQuickHullFace@local@@@physx@@@physx@@@Z 00000001801c0900 f   GuCookingQuickHullConvexHullLib.obj
 0001:001bfb80       ??$copy@V?$PxReflectionAllocator@VPair@@@physx@@@?$PxArray@VPair@@V?$PxReflectionAllocator@VPair@@@physx@@@physx@@IEAAXAEBV01@@Z 00000001801c0b80 f i GuCookingConvexPolygonsBuilder.obj
 0001:001bfc00       ??0ConvexPolygonsBuilder@physx@@QEAA@PEAUConvexHullData@Gu@1@_N@Z 00000001801c0c00 f   GuCookingConvexPolygonsBuilder.obj
 0001:001bfc20       ??1ConvexPolygonsBuilder@physx@@QEAA@XZ 00000001801c0c20 f   GuCookingConvexPolygonsBuilder.obj
 0001:001c0470       ?allocate@?$PxArray@VPair@@V?$PxReflectionAllocator@VPair@@@physx@@@physx@@IEAAPEAVPair@@IPEAI@Z 00000001801c1470 f i GuCookingConvexPolygonsBuilder.obj
 0001:001c0f50       ?computeHullPolygons@ConvexPolygonsBuilder@physx@@QEAA_NAEBIPEBV?$PxVec3T@M@2@0PEBI@Z 00000001801c1f50 f   GuCookingConvexPolygonsBuilder.obj
 0001:001c1fe0       ?createPolygonData@ConvexPolygonsBuilder@physx@@AEAA_NXZ 00000001801c2fe0 f   GuCookingConvexPolygonsBuilder.obj
 0001:001c2be0       ?createTrianglesFromPolygons@ConvexPolygonsBuilder@physx@@AEAA_NXZ 00000001801c3be0 f   GuCookingConvexPolygonsBuilder.obj
 0001:001c42b0       ?growAndPushBack@?$PxArray@VPair@@V?$PxReflectionAllocator@VPair@@@physx@@@physx@@IEAAAEAVPair@@AEBV3@@Z 00000001801c52b0 f i GuCookingConvexPolygonsBuilder.obj
 0001:001c44a0       ??0ConvexMeshBuilder@physx@@QEAA@_N@Z 00000001801c54a0 f   GuCookingConvexMeshBuilder.obj
 0001:001c4510       ??1ConvexMeshBuilder@physx@@QEAA@XZ 00000001801c5510 f   GuCookingConvexMeshBuilder.obj
 0001:001c49d0       ?build@ConvexMeshBuilder@physx@@QEAA_NAEBVPxConvexMeshDesc@2@I_NPEAVConvexHullLib@2@@Z 00000001801c59d0 f   GuCookingConvexMeshBuilder.obj
 0001:001c4d60       ?checkExtentRadiusRatio@ConvexMeshBuilder@physx@@QEAA_NXZ 00000001801c5d60 f   GuCookingConvexMeshBuilder.obj
 0001:001c4d90       ?computeHullPolygons@ConvexMeshBuilder@physx@@QEAA_NAEBIPEBV?$PxVec3T@M@2@0PEBIAEAVPxAllocatorCallback@2@AEAIAEAPEAV32@4AEAPEAI4AEAPEAUPxHullPolygon@2@@Z 00000001801c5d90 f   GuCookingConvexMeshBuilder.obj
 0001:001c4f90       ?computeMassInfo@ConvexMeshBuilder@physx@@QEAAX_N@Z 00000001801c5f90 f   GuCookingConvexMeshBuilder.obj
 0001:001c5320       ?computeSDF@ConvexMeshBuilder@physx@@QEAAXAEBVPxConvexMeshDesc@2@@Z 00000001801c6320 f   GuCookingConvexMeshBuilder.obj
 0001:001c5770       ?copy@ConvexMeshBuilder@physx@@QEAA_NAEAUConvexHullInitData@Gu@2@@Z 00000001801c6770 f   GuCookingConvexMeshBuilder.obj
 0001:001c58d0       ?loadConvexHull@ConvexMeshBuilder@physx@@QEAA_NAEBVPxConvexMeshDesc@2@PEAVConvexHullLib@2@@Z 00000001801c68d0 f   GuCookingConvexMeshBuilder.obj
 0001:001c5b40       ?save@ConvexMeshBuilder@physx@@QEBA_NAEAVPxOutputStream@2@_N@Z 00000001801c6b40 f   GuCookingConvexMeshBuilder.obj
 0001:001c5f60       ??0ConvexHull@physx@@QEAA@AEBV?$PxVec3T@M@1@AEBV?$PxTransformT@M@1@AEBV?$PxArray@VPxPlane@physx@@V?$PxReflectionAllocator@VPxPlane@physx@@@2@@1@@Z 00000001801c6f60 f   GuCookingConvexHullUtils.obj
 0001:001c7080       ?assertIntact@ConvexHull@physx@@QEBA_NM@Z 00000001801c8080 f   GuCookingConvexHullUtils.obj
 0001:001c7390       ?computeOBBFromConvex@physx@@YA_NAEBVPxConvexMeshDesc@1@AEAV?$PxVec3T@M@1@AEAV?$PxTransformT@M@1@@Z 00000001801c8390 f   GuCookingConvexHullUtils.obj
 0001:001c7a00       ?computeOBBSIMD@local@@YAXIPEBT__m128@@AEAT2@AEBT2@1@Z 00000001801c8a00 f   GuCookingConvexHullUtils.obj
 0001:001c7de0       ?convexHullCrop@physx@@YAPEAVConvexHull@1@AEBV21@AEBVPxPlane@1@M@Z 00000001801c8de0 f   GuCookingConvexHullUtils.obj
 0001:001c8ba0       ?findCandidatePlane@ConvexHull@physx@@QEBAHMM@Z 00000001801c9ba0 f   GuCookingConvexHullUtils.obj
 0001:001c9010       ?growAndPushBack@?$PxArray@VHalfEdge@ConvexHull@physx@@V?$PxReflectionAllocator@VHalfEdge@ConvexHull@physx@@@3@@physx@@IEAAAEAVHalfEdge@ConvexHull@2@AEBV342@@Z 00000001801ca010 f i GuCookingConvexHullUtils.obj
 0001:001c9130       ?maxNumVertsPerFace@ConvexHull@physx@@QEBAIXZ 00000001801ca130 f   GuCookingConvexHullUtils.obj
 0001:001c91a0       ?recreate@?$PxArray@VHalfEdge@ConvexHull@physx@@V?$PxReflectionAllocator@VHalfEdge@ConvexHull@physx@@@3@@physx@@IEAAXI@Z 00000001801ca1a0 f i GuCookingConvexHullUtils.obj
 0001:001c9290       ?resize@?$PxArray@VHalfEdge@ConvexHull@physx@@V?$PxReflectionAllocator@VHalfEdge@ConvexHull@physx@@@3@@physx@@QEAAXIAEBVHalfEdge@ConvexHull@2@@Z 00000001801ca290 f i GuCookingConvexHullUtils.obj
 0001:001c9350       ?resize@?$PxArray@VPxPlane@physx@@V?$PxReflectionAllocator@VPxPlane@physx@@@2@@physx@@QEAAXIAEBVPxPlane@2@@Z 00000001801ca350 f i GuCookingConvexHullUtils.obj
 0001:001c9470       ??1ConvexHullLib@physx@@UEAA@XZ 00000001801ca470 f   GuCookingConvexHullLib.obj
 0001:001c9a90       ?cleanupVertices@ConvexHullLib@physx@@IEAA_NIPEBV?$PxVec3T@M@2@IAEAIPEAV32@@Z 00000001801caa90 f   GuCookingConvexHullLib.obj
 0001:001c9bd0       ?shiftAndcleanupVertices@ConvexHullLib@physx@@IEAA_NIPEBV?$PxVec3T@M@2@IAEAIPEAV32@@Z 00000001801cabd0 f   GuCookingConvexHullLib.obj
 0001:001ca1b0       ?shiftConvexMeshDesc@ConvexHullLib@physx@@IEAAXAEAVPxConvexMeshDesc@2@@Z 00000001801cb1b0 f   GuCookingConvexHullLib.obj
 0001:001ca270       ?swapLargestFace@ConvexHullLib@physx@@IEAAXAEAVPxConvexMeshDesc@2@@Z 00000001801cb270 f   GuCookingConvexHullLib.obj
 0001:001ca4a0       ??0ConvexHullBuilder@physx@@QEAA@PEAUConvexHullData@Gu@1@_N@Z 00000001801cb4a0 f   GuCookingConvexHullBuilder.obj
 0001:001ca4d0       ??1ConvexHullBuilder@physx@@QEAA@XZ 00000001801cb4d0 f   GuCookingConvexHullBuilder.obj
 0001:001ca5e0       ?calculateVertexMapTable@ConvexHullBuilder@physx@@QEAA_NI_N@Z 00000001801cb5e0 f   GuCookingConvexHullBuilder.obj
 0001:001ca7a0       ?checkHullPolygons@ConvexHullBuilder@physx@@QEBA_NXZ 00000001801cb7a0 f   GuCookingConvexHullBuilder.obj
 0001:001cad30       ?copy@ConvexHullBuilder@physx@@QEAA_NAEAUConvexHullData@Gu@2@AEAI@Z 00000001801cbd30 f   GuCookingConvexHullBuilder.obj
 0001:001cafd0       ?createEdgeList@ConvexHullBuilder@physx@@QEAA_N_NI@Z 00000001801cbfd0 f   GuCookingConvexHullBuilder.obj
 0001:001cb740       ?init@ConvexHullBuilder@physx@@QEAA_NIPEBV?$PxVec3T@M@2@PEBIIIPEBUPxHullPolygon@2@_NPEAVConvexHullLib@2@@Z 00000001801cc740 f   GuCookingConvexHullBuilder.obj
 0001:001cc070       ?save@ConvexHullBuilder@physx@@QEBA_NAEAVPxOutputStream@2@_N@Z 00000001801cd070 f   GuCookingConvexHullBuilder.obj
 0001:001cc390       ??0BigConvexDataBuilder@physx@@QEAA@PEBUConvexHullData@Gu@1@PEAVBigConvexData@1@PEBV?$PxVec3T@M@1@@Z 00000001801cd390 f   GuCookingBigConvexDataBuilder.obj
 0001:001cc3a0       ?computeValencies@BigConvexDataBuilder@physx@@QEAA_NAEBVConvexHullBuilder@2@@Z 00000001801cd3a0 f   GuCookingBigConvexDataBuilder.obj
 0001:001cc7a0       ?precompute@BigConvexDataBuilder@physx@@QEAA_NI@Z 00000001801cd7a0 f   GuCookingBigConvexDataBuilder.obj
 0001:001cd3a0       ?save@BigConvexDataBuilder@physx@@QEBA_NAEAVPxOutputStream@2@_N@Z 00000001801ce3a0 f   GuCookingBigConvexDataBuilder.obj
 0001:001cd920       ?buildSDF@physx@@YA_NAEAVPxTriangleMeshDesc@1@AEAV?$PxArray@MV?$PxReflectionAllocator@M@physx@@@1@AEAV?$PxArray@EV?$PxReflectionAllocator@E@physx@@@1@AEAV?$PxArray@IV?$PxReflectionAllocator@I@physx@@@1@@Z 00000001801ce920 f   GuCookingSDF.obj
 0001:001ce960       ?recreate@?$PxArray@EV?$PxReflectionAllocator@E@physx@@@physx@@IEAAXI@Z 00000001801cf960 f i GuCookingSDF.obj
 0001:001cea50       ?resize@?$PxArray@EV?$PxReflectionAllocator@E@physx@@@physx@@QEAAXIAEBE@Z 00000001801cfa50 f i GuCookingSDF.obj
 0001:001ceb0a       __imp_load_PxGetFoundation 00000001801cfb0a f   PhysXFoundation_64:PhysXFoundation_64.dll
 0001:001ceb16       __tailMerge_physxfoundation_64_dll 00000001801cfb16     PhysXFoundation_64:PhysXFoundation_64.dll
 0001:001ceb8f       __imp_load_PxGetBroadcastAllocator 00000001801cfb8f f   PhysXFoundation_64:PhysXFoundation_64.dll
 0001:001ceb9b       __imp_load_?PxAtomicIncrement@physx@@YAHPECH@Z 00000001801cfb9b f   PhysXFoundation_64:PhysXFoundation_64.dll
 0001:001ceba7       __imp_load_??0PxMutexImpl@physx@@QEAA@XZ 00000001801cfba7 f   PhysXFoundation_64:PhysXFoundation_64.dll
 0001:001cebb3       __imp_load_??1PxMutexImpl@physx@@QEAA@XZ 00000001801cfbb3 f   PhysXFoundation_64:PhysXFoundation_64.dll
 0001:001cebbf       __imp_load_?lock@PxMutexImpl@physx@@QEAAXXZ 00000001801cfbbf f   PhysXFoundation_64:PhysXFoundation_64.dll
 0001:001cebcb       __imp_load_?unlock@PxMutexImpl@physx@@QEAAXXZ 00000001801cfbcb f   PhysXFoundation_64:PhysXFoundation_64.dll
 0001:001cebd7       __imp_load_?getSize@PxMutexImpl@physx@@SAIXZ 00000001801cfbd7 f   PhysXFoundation_64:PhysXFoundation_64.dll
 0001:001cebe3       __imp_load_?PxTransformFromSegment@physx@@YA?AV?$PxTransformT@M@1@AEBV?$PxVec3T@M@1@0PEAM@Z 00000001801cfbe3 f   PhysXFoundation_64:PhysXFoundation_64.dll
 0001:001cebef       __imp_load_?PxAtomicAdd@physx@@YAHPECHH@Z 00000001801cfbef f   PhysXFoundation_64:PhysXFoundation_64.dll
 0001:001cebfb       __imp_load_?getDefaultStackSize@PxThreadImpl@physx@@SAIXZ 00000001801cfbfb f   PhysXFoundation_64:PhysXFoundation_64.dll
 0001:001cec07       __imp_load_??0PxThreadImpl@physx@@QEAA@P6APEAXPEAX@Z0PEBD@Z 00000001801cfc07 f   PhysXFoundation_64:PhysXFoundation_64.dll
 0001:001cec13       __imp_load_??1PxThreadImpl@physx@@QEAA@XZ 00000001801cfc13 f   PhysXFoundation_64:PhysXFoundation_64.dll
 0001:001cec1f       __imp_load_?start@PxThreadImpl@physx@@QEAAXIPEAVPxRunnable@2@@Z 00000001801cfc1f f   PhysXFoundation_64:PhysXFoundation_64.dll
 0001:001cec2b       __imp_load_?waitForQuit@PxThreadImpl@physx@@QEAA_NXZ 00000001801cfc2b f   PhysXFoundation_64:PhysXFoundation_64.dll
 0001:001cec37       __imp_load_?getSize@PxThreadImpl@physx@@SAIXZ 00000001801cfc37 f   PhysXFoundation_64:PhysXFoundation_64.dll
 0001:001cec43       __imp_load_?allocate@PxTempAllocator@physx@@QEAAPEAX_KPEBDH@Z 00000001801cfc43 f   PhysXFoundation_64:PhysXFoundation_64.dll
 0001:001cec4f       __imp_load_?deallocate@PxTempAllocator@physx@@QEAAXPEAX@Z 00000001801cfc4f f   PhysXFoundation_64:PhysXFoundation_64.dll
 0001:001cec5b       __imp_load_?PxOptimizeBoundingBox@physx@@YA?AV?$PxVec3T@M@1@AEAV?$PxMat33T@M@1@@Z 00000001801cfc5b f   PhysXFoundation_64:PhysXFoundation_64.dll
 0001:001cec67       __imp_load_?Pxstrcmp@physx@@YAHPEBD0@Z 00000001801cfc67 f   PhysXFoundation_64:PhysXFoundation_64.dll
 0001:001cec73       __imp_load_?PxAtomicDecrement@physx@@YAHPECH@Z 00000001801cfc73 f   PhysXFoundation_64:PhysXFoundation_64.dll
 0001:001cec7f       __imp_load_??0PxFPUGuard@physx@@QEAA@XZ 00000001801cfc7f f   PhysXFoundation_64:PhysXFoundation_64.dll
 0001:001cec8b       __imp_load_??1PxFPUGuard@physx@@QEAA@XZ 00000001801cfc8b f   PhysXFoundation_64:PhysXFoundation_64.dll
 0001:001cec97       __imp_load_?PxDiagonalize@physx@@YA?AV?$PxVec3T@M@1@AEBV?$PxMat33T@M@1@AEAV?$PxQuatT@M@1@@Z 00000001801cfc97 f   PhysXFoundation_64:PhysXFoundation_64.dll
 0001:001ceca4       ?DloadAcquireSectionWriteAccess@@YAXXZ 00000001801cfca4 f i Delayimp:delayhlp.obj
 0001:001ced50       ?DloadGetSRWLockFunctionPointers@@YAEXZ 00000001801cfd50 f i Delayimp:delayhlp.obj
 0001:001cedec       ?DloadMakePermanentImageCommit@@YAXPEAX_K@Z 00000001801cfdec f i Delayimp:delayhlp.obj
 0001:001cee84       ?DloadObtainSection@@YAPEAXPEAK0@Z 00000001801cfe84 f i Delayimp:delayhlp.obj
 0001:001cef20       ?DloadProtectSection@@YAXKPEAK@Z 00000001801cff20 f i Delayimp:delayhlp.obj
 0001:001cefb0       ?DloadReleaseSectionWriteAccess@@YAXXZ 00000001801cffb0 f i Delayimp:delayhlp.obj
 0001:001cf044       __delayLoadHelper2         00000001801d0044 f   Delayimp:delayhlp.obj
 0001:001cf318       ??_V@YAXPEAX@Z             00000001801d0318 f   LIBCMT:delete_array.obj
 0001:001cf318       ??3@YAXPEAX_K@Z            00000001801d0318 f   LIBCMT:delete_scalar_size.obj
 0001:001cf320       ??_Gtype_info@@UEAAPEAXI@Z 00000001801d0320 f i LIBCMT:std_type_info_static.obj
 0001:001cf320       ??_Etype_info@@UEAAPEAXI@Z 00000001801d0320 f i LIBCMT:std_type_info_static.obj
 0001:001cf34c       ?__scrt_initialize_type_info@@YAXXZ 00000001801d034c f   LIBCMT:tncleanup.obj
 0001:001cf35c       ?__scrt_uninitialize_type_info@@YAXXZ 00000001801d035c f   LIBCMT:tncleanup.obj
 0001:001cf380       __chkstk                   00000001801d0380 f   LIBCMT:chkstk.obj
 0001:001cf380       _alloca_probe              00000001801d0380 f   LIBCMT:chkstk.obj
 0001:001cf3d0       __vdecl_sinf4              00000001801d03d0 f   LIBCMT:svml_ssinf4_dispatch.obj
 0001:001cf3f0       __libm_sse2_sincosf_       00000001801d03f0 f   LIBCMT:svml_ssinf4_dispatch.obj
 0001:001cf433       __libm_sse2_sincosf4_      00000001801d0433 f   LIBCMT:svml_ssinf4_dispatch.obj
 0001:001cf440       ??3@YAXPEAX@Z              00000001801d0440 f   LIBCMT:delete_scalar.obj
 0001:001cf448       __scrt_acquire_startup_lock 00000001801d0448 f   LIBCMT:utility.obj
 0001:001cf484       __scrt_dllmain_after_initialize_c 00000001801d0484 f   LIBCMT:utility.obj
 0001:001cf4b8       __scrt_dllmain_before_initialize_c 00000001801d04b8 f   LIBCMT:utility.obj
 0001:001cf4d0       __scrt_dllmain_crt_thread_attach 00000001801d04d0 f   LIBCMT:utility.obj
 0001:001cf4f8       __scrt_dllmain_crt_thread_detach 00000001801d04f8 f   LIBCMT:utility.obj
 0001:001cf510       __scrt_dllmain_exception_filter 00000001801d0510 f   LIBCMT:utility.obj
 0001:001cf570       __scrt_dllmain_uninitialize_c 00000001801d0570 f   LIBCMT:utility.obj
 0001:001cf5a0       __scrt_dllmain_uninitialize_critical 00000001801d05a0 f   LIBCMT:utility.obj
 0001:001cf5b4       __scrt_initialize_crt      00000001801d05b4 f   LIBCMT:utility.obj
 0001:001cf600       __scrt_initialize_onexit_tables 00000001801d0600 f   LIBCMT:utility.obj
 0001:001cf68c       __scrt_is_nonwritable_in_current_image 00000001801d068c f   LIBCMT:utility.obj
 0001:001cf724       __scrt_release_startup_lock 00000001801d0724 f   LIBCMT:utility.obj
 0001:001cf748       __scrt_uninitialize_crt    00000001801d0748 f   LIBCMT:utility.obj
 0001:001cf774       _onexit                    00000001801d0774 f   LIBCMT:utility.obj
 0001:001cf7b0       atexit                     00000001801d07b0 f   LIBCMT:utility.obj
 0001:001cf7c8       __isa_available_init       00000001801d07c8 f   LIBCMT:cpu_disp.obj
 0001:001cfc8c       _DllMainCRTStartup         00000001801d0c8c f   LIBCMT:dll_dllmain.obj
 0001:001cfcd0       __sse2_sinf4@@16           00000001801d0cd0 f   LIBCMT:svml_ssinf4_sse2.obj
 0001:001d0610       __sse4_sinf4@@16           00000001801d1610 f   LIBCMT:svml_ssinf4_sse4.obj
 0001:001d0d84       __scrt_is_ucrt_dll_in_use  00000001801d1d84 f   LIBCMT:ucrt_detection.obj
 0001:001d0d90       __crt_debugger_hook        00000001801d1d90 f   LIBCMT:utility_desktop.obj
 0001:001d0d98       __scrt_fastfail            00000001801d1d98 f   LIBCMT:utility_desktop.obj
 0001:001d0ee4       __security_init_cookie     00000001801d1ee4 f   LIBCMT:gs_support.obj
 0001:001d0f90       __local_stdio_scanf_options 00000001801d1f90 f i LIBCMT:default_local_stdio_options.obj
 0001:001d0f98       __scrt_initialize_default_local_stdio_options 00000001801d1f98 f   LIBCMT:default_local_stdio_options.obj
 0001:001d0fb4       __scrt_get_dyn_tls_init_callback 00000001801d1fb4 f   LIBCMT:dyn_tls_init.obj
 0001:001d0fbc       _RTC_Initialize            00000001801d1fbc f   LIBCMT:initsect.obj
 0001:001d0ff8       _RTC_Terminate             00000001801d1ff8 f   LIBCMT:initsect.obj
 0001:001d1040       __common_ssin_cout_rare    00000001801d2040 f   LIBCMT:svml_s_sin_cout.obj
 0001:001d10c0       memcpy_repmovs             00000001801d20c0 f   libvcruntime:memcpy.obj
 0001:001d10e0       memmove                    00000001801d20e0 f   libvcruntime:memcpy.obj
 0001:001d10e0       memcpy                     00000001801d20e0 f   libvcruntime:memcpy.obj
 0001:001d1758       _get_purecall_handler      00000001801d2758 f   libvcruntime:purevirt.obj
 0001:001d1764       _purecall                  00000001801d2764 f   libvcruntime:purevirt.obj
 0001:001d1788       __std_type_info_compare    00000001801d2788 f   libvcruntime:std_type_info.obj
 0001:001d17b0       __std_type_info_destroy_list 00000001801d27b0 f   libvcruntime:std_type_info.obj
 0001:001d17dc       __std_type_info_name       00000001801d27dc f   libvcruntime:std_type_info.obj
 0001:001d1910       memset_repmovs             00000001801d2910 f   libvcruntime:memset.obj
 0001:001d1930       memset                     00000001801d2930 f   libvcruntime:memset.obj
 0001:001d1ac0       strstr                     00000001801d2ac0 f   libvcruntime:strstr.obj
 0001:001d1cbc       __vcrt_initialize          00000001801d2cbc f   libvcruntime:initialization.obj
 0001:001d1ce4       __vcrt_thread_attach       00000001801d2ce4 f   libvcruntime:initialization.obj
 0001:001d1cf8       __vcrt_thread_detach       00000001801d2cf8 f   libvcruntime:initialization.obj
 0001:001d1d0c       __vcrt_uninitialize        00000001801d2d0c f   libvcruntime:initialization.obj
 0001:001d1d28       __vcrt_uninitialize_critical 00000001801d2d28 f   libvcruntime:initialization.obj
 0001:001d1d38       __C_specific_handler       00000001801d2d38 f   libvcruntime:riscchandler.obj
 0001:001d1f44       __DestructExceptionObject  00000001801d2f44 f   libvcruntime:ehhelpers.obj
 0001:001d1fb4       ?_CallMemberFunction0@@YAXQEAX0@Z 00000001801d2fb4 f i libvcruntime:ehhelpers.obj
 0001:001d1fb8       _IsExceptionObjectToBeDestroyed 00000001801d2fb8 f   libvcruntime:ehhelpers.obj
 0001:001d1fe8       __AdjustPointer            00000001801d2fe8 f   libvcruntime:ehhelpers.obj
 0001:001d200c       __FrameUnwindFilter        00000001801d300c f   libvcruntime:ehhelpers.obj
 0001:001d2074       __std_terminate            00000001801d3074 f   libvcruntime:ehhelpers.obj
 0001:001d2080       ??$?0$00@DName@@QEAA@PEBDU?$StringLifeSelector@$00@@@Z 00000001801d3080 f i libvcruntime:undname.obj
 0001:001d20c0       ??$?0$0A@@DName@@QEAA@PEBDU?$StringLifeSelector@$0A@@@@Z 00000001801d30c0 f i libvcruntime:undname.obj
 0001:001d20c0       ??$?0$01@DName@@QEAA@PEBDU?$StringLifeSelector@$01@@@Z 00000001801d30c0 f i libvcruntime:undname.obj
 0001:001d2100       ??$?0$0A@@pcharNode@@QEAA@PEBDHU?$StringLifeSelector@$0A@@@@Z 00000001801d3100 f i libvcruntime:undname.obj
 0001:001d2100       ??$?0$01@pcharNode@@QEAA@PEBDHU?$StringLifeSelector@$01@@@Z 00000001801d3100 f i libvcruntime:undname.obj
 0001:001d2174       ??$append@VpcharNode@@@DName@@AEAAXPEBVpcharNode@@@Z 00000001801d3174 f i libvcruntime:undname.obj
 0001:001d2174       ??$append@VDNameStatusNode@@@DName@@AEAAXPEBVDNameStatusNode@@@Z 00000001801d3174 f i libvcruntime:undname.obj
 0001:001d2174       ??$append@VDNameNode@@@DName@@AEAAXPEBVDNameNode@@@Z 00000001801d3174 f i libvcruntime:undname.obj
 0001:001d2174       ??$append@VcharNode@@@DName@@AEAAXPEBVcharNode@@@Z 00000001801d3174 f i libvcruntime:undname.obj
 0001:001d21d8       ??$doPchar@$00@DName@@AEAAXPEBDH@Z 00000001801d31d8 f i libvcruntime:undname.obj
 0001:001d227c       ??$doPchar@$01@DName@@AEAAXPEBDH@Z 00000001801d327c f i libvcruntime:undname.obj
 0001:001d227c       ??$doPchar@$0A@@DName@@AEAAXPEBDH@Z 00000001801d327c f i libvcruntime:undname.obj
 0001:001d2314       ??0DName@@QEAA@AEAPEBDD@Z  00000001801d3314 f   libvcruntime:undname.obj
 0001:001d23c4       ??0DName@@QEAA@AEBUStringLiteral@@@Z 00000001801d33c4 f   libvcruntime:undname.obj
 0001:001d23f0       ??0DName@@QEAA@PEAV0@@Z    00000001801d33f0 f   libvcruntime:undname.obj
 0001:001d2474       ??0DName@@QEAA@_J@Z        00000001801d3474 f   libvcruntime:undname.obj
 0001:001d251c       ??0DName@@QEAA@_K@Z        00000001801d351c f   libvcruntime:undname.obj
 0001:001d25ac       ??2@YAPEAX_KAEAV_HeapManager@@H@Z 00000001801d35ac f   libvcruntime:undname.obj
 0001:001d25d8       ??AReplicator@@QEBA?AVDName@@H@Z 00000001801d35d8 f   libvcruntime:undname.obj
 0001:001d2618       ??HDName@@QEBA?AV0@AEBUStringLiteral@@@Z 00000001801d3618 f   libvcruntime:undname.obj
 0001:001d2644       ??HDName@@QEBA?AV0@AEBV0@@Z 00000001801d3644 f   libvcruntime:undname.obj
 0001:001d2670       ??HDName@@QEBA?AV0@D@Z     00000001801d3670 f   libvcruntime:undname.obj
 0001:001d269c       ??HDName@@QEBA?AV0@W4DNameStatus@@@Z 00000001801d369c f   libvcruntime:undname.obj
 0001:001d26c8       ??YDName@@QEAAAEAV0@AEBUStringLiteral@@@Z 00000001801d36c8 f   libvcruntime:undname.obj
 0001:001d2748       ??YDName@@QEAAAEAV0@AEBV0@@Z 00000001801d3748 f   libvcruntime:undname.obj
 0001:001d27fc       ??YDName@@QEAAAEAV0@D@Z    00000001801d37fc f   libvcruntime:undname.obj
 0001:001d2868       ??YDName@@QEAAAEAV0@W4DNameStatus@@@Z 00000001801d3868 f   libvcruntime:undname.obj
 0001:001d28d4       ??YReplicator@@QEAAAEAV0@AEBVDName@@@Z 00000001801d38d4 f   libvcruntime:undname.obj
 0001:001d292c       ?UScore@UnDecorator@@SA?AUStringLiteral@@W4Tokens@@@Z 00000001801d392c f   libvcruntime:undname.obj
 0001:001d2978       ?composeDeclaration@UnDecorator@@CA?AVDName@@AEBV2@@Z 00000001801d3978 f i libvcruntime:undname.obj
 0001:001d3820       ?doPchar@DName@@AEAAXD@Z   00000001801d4820 f   libvcruntime:undname.obj
 0001:001d3870       ?getAddressOf@UnDecorator@@CA?AVDName@@XZ 00000001801d4870 f   libvcruntime:undname.obj
 0001:001d3900       ?getArgumentList@UnDecorator@@CA?AVDName@@XZ 00000001801d4900 f   libvcruntime:undname.obj
 0001:001d3a94       ?getArgumentTypes@UnDecorator@@CA?AVDName@@XZ 00000001801d4a94 f   libvcruntime:undname.obj
 0001:001d3be0       ?getArrayAccess@UnDecorator@@CA?AVDName@@XZ 00000001801d4be0 f   libvcruntime:undname.obj
 0001:001d3c7c       ?getArrayObject@UnDecorator@@CA?AVDName@@XZ 00000001801d4c7c f   libvcruntime:undname.obj
 0001:001d3d50       ?getArrayType@UnDecorator@@CA?AVDName@@AEBV2@@Z 00000001801d4d50 f i libvcruntime:undname.obj
 0001:001d3f98       ?getBasedType@UnDecorator@@CA?AVDName@@XZ 00000001801d4f98 f   libvcruntime:undname.obj
 0001:001d4090       ?getBasicDataType@UnDecorator@@CA?AVDName@@AEBV2@@Z 00000001801d5090 f   libvcruntime:undname.obj
 0001:001d4634       ?getCallingConvention@UnDecorator@@CA?AVDName@@XZ 00000001801d5634 f   libvcruntime:undname.obj
 0001:001d4774       ?getDataIndirectType@UnDecorator@@CA?AVDName@@AEBV2@W4IndirectionKind@@0H@Z 00000001801d5774 f   libvcruntime:undname.obj
 0001:001d500c       ?getDataType@UnDecorator@@CA?AVDName@@PEAV2@@Z 00000001801d600c f   libvcruntime:undname.obj
 0001:001d5120       ?getDecoratedName@UnDecorator@@CA?AVDName@@XZ 00000001801d6120 f   libvcruntime:undname.obj
 0001:001d5404       ?getDimension@UnDecorator@@CA?AVDName@@_N@Z 00000001801d6404 f   libvcruntime:undname.obj
 0001:001d554c       ?getDispatchTarget@UnDecorator@@CA?AVDName@@XZ 00000001801d654c f   libvcruntime:undname.obj
 0001:001d55b0       ?getECSUDataType@UnDecorator@@CA?AVDName@@XZ 00000001801d65b0 f   libvcruntime:undname.obj
 0001:001d57a8       ?getEnumType@UnDecorator@@CA?AVDName@@XZ 00000001801d67a8 f i libvcruntime:undname.obj
 0001:001d58d8       ?getExtendedDataIndirectType@UnDecorator@@CA?AVDName@@AEAW4IndirectionKind@@AEA_NH@Z 00000001801d68d8 f   libvcruntime:undname.obj
 0001:001d5ae0       ?getExternalDataType@UnDecorator@@CA?AVDName@@AEBV2@@Z 00000001801d6ae0 f i libvcruntime:undname.obj
 0001:001d5ba0       ?getFloatingPoint@UnDecorator@@CA?AVDName@@H@Z 00000001801d6ba0 f   libvcruntime:undname.obj
 0001:001d5cc8       ?getFunctionIndirectType@UnDecorator@@CA?AVDName@@AEBV2@@Z 00000001801d6cc8 f   libvcruntime:undname.obj
 0001:001d6200       ?getLastChar@DNameStatusNode@@UEBADXZ 00000001801d7200 f i libvcruntime:undname.obj
 0001:001d620c       ?getLastChar@charNode@@UEBADXZ 00000001801d720c f i libvcruntime:undname.obj
 0001:001d6210       ?getLastChar@pDNameNode@@UEBADXZ 00000001801d7210 f i libvcruntime:undname.obj
 0001:001d623c       ?getLastChar@pairNode@@UEBADXZ 00000001801d723c f i libvcruntime:undname.obj
 0001:001d6274       ?getLastChar@pcharNode@@UEBADXZ 00000001801d7274 f i libvcruntime:undname.obj
 0001:001d6288       ?getLexicalFrame@UnDecorator@@CA?AVDName@@XZ 00000001801d7288 f i libvcruntime:undname.obj
 0001:001d62ec       ?getMemberAccess@UnDecorator@@CA?AVDName@@XZ 00000001801d72ec f   libvcruntime:undname.obj
 0001:001d6380       ?getMemoryWithBuffer@_HeapManager@@QEAAPEAX_K@Z 00000001801d7380 f   libvcruntime:undname.obj
 0001:001d6410       ?getNoexcept@UnDecorator@@CA?AVDName@@XZ 00000001801d7410 f   libvcruntime:undname.obj
 0001:001d6474       ?getNumberOfDimensions@UnDecorator@@CAHXZ 00000001801d7474 f   libvcruntime:undname.obj
 0001:001d64d4       ?getOperatorName@UnDecorator@@CA?AVDName@@_NPEA_N@Z 00000001801d74d4 f i libvcruntime:undname.obj
 0001:001d6e84       ?getPointerToMember@UnDecorator@@CA?AVDName@@XZ 00000001801d7e84 f   libvcruntime:undname.obj
 0001:001d6f7c       ?getPrimaryDataType@UnDecorator@@CA?AVDName@@AEBV2@@Z 00000001801d7f7c f   libvcruntime:undname.obj
 0001:001d7230       ?getPtrRefDataType@UnDecorator@@CA?AVDName@@AEBV2@H@Z 00000001801d8230 f   libvcruntime:undname.obj
 0001:001d73fc       ?getPtrRefType@UnDecorator@@CA?AVDName@@AEBV2@0W4IndirectionKind@@@Z 00000001801d83fc f   libvcruntime:undname.obj
 0001:001d75d4       ?getRestrictionSpec@UnDecorator@@CA?AVDName@@XZ 00000001801d85d4 f   libvcruntime:undname.obj
 0001:001d77a0       ?getReturnType@UnDecorator@@CA?AVDName@@PEAV2@@Z 00000001801d87a0 f   libvcruntime:undname.obj
 0001:001d77d4       ?getScope@UnDecorator@@CA?AVDName@@XZ 00000001801d87d4 f   libvcruntime:undname.obj
 0001:001d7c88       ?getScopedName@UnDecorator@@CA?AVDName@@XZ 00000001801d8c88 f   libvcruntime:undname.obj
 0001:001d7dc4       ?getSignedDimension@UnDecorator@@CA?AVDName@@XZ 00000001801d8dc4 f   libvcruntime:undname.obj
 0001:001d7e4c       ?getString@DNameStatusNode@@UEBAPEADPEAD0@Z 00000001801d8e4c f i libvcruntime:undname.obj
 0001:001d7e94       ?getString@charNode@@UEBAPEADPEAD0@Z 00000001801d8e94 f i libvcruntime:undname.obj
 0001:001d7ea8       ?getString@pDNameNode@@UEBAPEADPEAD0@Z 00000001801d8ea8 f i libvcruntime:undname.obj
 0001:001d7ed8       ?getString@pairNode@@UEBAPEADPEAD0@Z 00000001801d8ed8 f i libvcruntime:undname.obj
 0001:001d7f24       ?getString@pcharNode@@UEBAPEADPEAD0@Z 00000001801d8f24 f i libvcruntime:undname.obj
 0001:001d7f5c       ?getStringEncoding@UnDecorator@@CA?AVDName@@W4PrefixKind@@H@Z 00000001801d8f5c f   libvcruntime:undname.obj
 0001:001d8054       ?getStringObject@UnDecorator@@CA?AVDName@@XZ 00000001801d9054 f   libvcruntime:undname.obj
 0001:001d80bc       ?getSymbolName@UnDecorator@@CA?AVDName@@XZ 00000001801d90bc f i libvcruntime:undname.obj
 0001:001d8108       ?getTemplateArgumentList@UnDecorator@@CA?AVDName@@XZ 00000001801d9108 f   libvcruntime:undname.obj
 0001:001d837c       ?getTemplateName@UnDecorator@@CA?AVDName@@_N@Z 00000001801d937c f   libvcruntime:undname.obj
 0001:001d8610       ?getTemplateNonTypeArgument@UnDecorator@@CA?AVDName@@XZ 00000001801d9610 f   libvcruntime:undname.obj
 0001:001d8b40       ?getTemplateTypeArgument@UnDecorator@@CA?AVDName@@XZ 00000001801d9b40 f   libvcruntime:undname.obj
 0001:001d8ca8       ?getThrowTypes@UnDecorator@@CA?AVDName@@XZ 00000001801d9ca8 f   libvcruntime:undname.obj
 0001:001d8ccc       ?getTypeEncoding@UnDecorator@@CAHXZ 00000001801d9ccc f i libvcruntime:undname.obj
 0001:001d9080       ?getUndecoratedName@UnDecorator@@QEAAPEADPEADH@Z 00000001801da080 f i libvcruntime:undname.obj
 0001:001d91d4       ?getUnionObject@UnDecorator@@CA?AVDName@@XZ 00000001801da1d4 f   libvcruntime:undname.obj
 0001:001d92ac       ?getVCallThunkType@UnDecorator@@CA?AVDName@@XZ 00000001801da2ac f i libvcruntime:undname.obj
 0001:001d9324       ?getValue@UnDecorator@@CA?AV?$optional@_K@std@@XZ 00000001801da324 f   libvcruntime:undname.obj
 0001:001d9398       ?getValueObject@UnDecorator@@CA?AVDName@@XZ 00000001801da398 f   libvcruntime:undname.obj
 0001:001d94fc       ?getVdispMapType@UnDecorator@@CA?AVDName@@AEBV2@@Z 00000001801da4fc f i libvcruntime:undname.obj
 0001:001d9578       ?getVfTableType@UnDecorator@@CA?AVDName@@AEBV2@@Z 00000001801da578 f i libvcruntime:undname.obj
 0001:001d9780       ?getZName@UnDecorator@@CA?AVDName@@_N0@Z 00000001801da780 f   libvcruntime:undname.obj
 0001:001d9a5c       ?length@pDNameNode@@UEBAHXZ 00000001801daa5c f i libvcruntime:undname.obj
 0001:001d9a84       ?length@pairNode@@UEBAHXZ  00000001801daa84 f i libvcruntime:undname.obj
 0001:001d9acc       ?parseDecoratedName@UnDecorator@@CA?AVDName@@XZ 00000001801daacc f   libvcruntime:undname.obj
 0001:001d9be4       ?raw_length@pDNameNode@@UEBAHXZ 00000001801dabe4 f i libvcruntime:undname.obj
 0001:001d9be8       ?raw_length@pairNode@@UEBAHXZ 00000001801dabe8 f i libvcruntime:undname.obj
 0001:001d9bec       __unDName                  00000001801dabec f   libvcruntime:undname.obj
 0001:001d9c14       __unDNameEx                00000001801dac14 f   libvcruntime:undname.obj
 0001:001d9d48       sprintf_s                  00000001801dad48 f i libvcruntime:undname.obj
 0001:001d9d9c       __vcrt_freefls             00000001801dad9c f   libvcruntime:per_thread_data.obj
 0001:001d9dbc       __vcrt_freeptd             00000001801dadbc f   libvcruntime:per_thread_data.obj
 0001:001d9e0c       __vcrt_getptd              00000001801dae0c f   libvcruntime:per_thread_data.obj
 0001:001d9e28       __vcrt_getptd_noexit       00000001801dae28 f   libvcruntime:per_thread_data.obj
 0001:001d9ee8       __vcrt_initialize_ptd      00000001801daee8 f   libvcruntime:per_thread_data.obj
 0001:001d9f30       __vcrt_uninitialize_ptd    00000001801daf30 f   libvcruntime:per_thread_data.obj
 0001:001d9f54       __vcrt_initialize_locks    00000001801daf54 f   libvcruntime:locks.obj
 0001:001d9f88       __vcrt_lock                00000001801daf88 f   libvcruntime:locks.obj
 0001:001d9fa4       __vcrt_uninitialize_locks  00000001801dafa4 f   libvcruntime:locks.obj
 0001:001d9fdc       __vcrt_unlock              00000001801dafdc f   libvcruntime:locks.obj
 0001:001da010       _NLG_Notify                00000001801db010 f   libvcruntime:notify.obj
 0001:001da030       __NLG_Dispatch2            00000001801db030 f   libvcruntime:notify.obj
 0001:001da040       __NLG_Return2              00000001801db040 f   libvcruntime:notify.obj
 0001:001da044       __except_validate_context_record 00000001801db044 f   libvcruntime:jbcxrval.obj
 0001:001da07c       ??$_CallSETranslator@V__FrameHandler3@@@@YAHPEAUEHExceptionRecord@@PEA_KPEAU_CONTEXT@@PEAU_xDISPATCHER_CONTEXT@@PEBU_s_FuncInfo@@K1H@Z 00000001801db07c f i libvcruntime:risctrnsctrl.obj
 0001:001da0d0       ??$_CallSETranslator@V__FrameHandler4@@@@YAHPEAUEHExceptionRecord@@PEA_KPEAU_CONTEXT@@PEAU_xDISPATCHER_CONTEXT@@PEAUFuncInfo4@FH4@@K1H@Z 00000001801db0d0 f i libvcruntime:risctrnsctrl.obj
 0001:001da124       ?CatchTryBlock@__FrameHandler3@@SAPEBU_s_TryBlockMapEntry@@PEBU_s_FuncInfo@@H@Z 00000001801db124 f   libvcruntime:risctrnsctrl.obj
 0001:001da178       ?DecompFuncInfo@FH4@@YA_JPEAEAEAUFuncInfo4@1@_KH_N@Z 00000001801db178 f i libvcruntime:risctrnsctrl.obj
 0001:001da29c       ?ExecutionInCatch@__FrameHandler3@@SA_NPEAU_xDISPATCHER_CONTEXT@@PEBU_s_FuncInfo@@@Z 00000001801db29c f   libvcruntime:risctrnsctrl.obj
 0001:001da2c8       ?ExecutionInCatch@__FrameHandler4@@SA_NPEAU_xDISPATCHER_CONTEXT@@PEAUFuncInfo4@FH4@@@Z 00000001801db2c8 f   libvcruntime:risctrnsctrl.obj
 0001:001da2d0       ?FrameUnwindToEmptyState@__FrameHandler3@@SAXPEA_KPEAU_xDISPATCHER_CONTEXT@@PEBU_s_FuncInfo@@@Z 00000001801db2d0 f   libvcruntime:risctrnsctrl.obj
 0001:001da334       ?FrameUnwindToEmptyState@__FrameHandler4@@SAXPEA_KPEAU_xDISPATCHER_CONTEXT@@PEAUFuncInfo4@FH4@@@Z 00000001801db334 f   libvcruntime:risctrnsctrl.obj
 0001:001da368       ?GetEstablisherFrame@__FrameHandler3@@SAPEA_KPEA_KPEAU_xDISPATCHER_CONTEXT@@PEBU_s_FuncInfo@@0@Z 00000001801db368 f   libvcruntime:risctrnsctrl.obj
 0001:001da434       ?GetEstablisherFrame@__FrameHandler4@@SAPEA_KPEA_KPEAU_xDISPATCHER_CONTEXT@@PEAUFuncInfo4@FH4@@0@Z 00000001801db434 f   libvcruntime:risctrnsctrl.obj
 0001:001da458       ?GetRangeOfTrysToCheck@__FrameHandler3@@SA?AU?$pair@Viterator@TryBlockMap@__FrameHandler3@@V123@@std@@AEAVTryBlockMap@1@HPEAU_xDISPATCHER_CONTEXT@@PEBU_s_FuncInfo@@H@Z 00000001801db458 f   libvcruntime:risctrnsctrl.obj
 0001:001da598       ?GetRangeOfTrysToCheck@__FrameHandler4@@SA?AU?$pair@Viterator@TryBlockMap4@FH4@@V123@@std@@AEAVTryBlockMap4@FH4@@HPEAU_xDISPATCHER_CONTEXT@@PEAUFuncInfo4@5@H@Z 00000001801db598 f   libvcruntime:risctrnsctrl.obj
 0001:001da700       ?UnwindNestedFrames@__FrameHandler3@@SAXPEA_KPEAUEHExceptionRecord@@PEAU_CONTEXT@@0PEAXPEBU_s_FuncInfo@@HHPEBU_s_HandlerType@@PEAU_xDISPATCHER_CONTEXT@@E@Z 00000001801db700 f   libvcruntime:risctrnsctrl.obj
 0001:001da804       ?UnwindNestedFrames@__FrameHandler4@@SAXPEA_KPEAUEHExceptionRecord@@PEAU_CONTEXT@@0PEAXPEAUFuncInfo4@FH4@@HHPEAUHandlerType4@5@PEAU_xDISPATCHER_CONTEXT@@E@Z 00000001801db804 f   libvcruntime:risctrnsctrl.obj
 0001:001da924       ?setBuffer@TryBlockMap4@FH4@@QEAAXViterator@12@@Z 00000001801db924 f i libvcruntime:risctrnsctrl.obj
 0001:001daae4       _CreateFrameInfo           00000001801dbae4 f   libvcruntime:risctrnsctrl.obj
 0001:001dab20       _FindAndUnlinkFrame        00000001801dbb20 f   libvcruntime:risctrnsctrl.obj
 0001:001dab74       _GetImageBase              00000001801dbb74 f   libvcruntime:risctrnsctrl.obj
 0001:001dab88       _GetThrowImageBase         00000001801dbb88 f   libvcruntime:risctrnsctrl.obj
 0001:001dab9c       _SetImageBase              00000001801dbb9c f   libvcruntime:risctrnsctrl.obj
 0001:001dabb4       _SetThrowImageBase         00000001801dbbb4 f   libvcruntime:risctrnsctrl.obj
 0001:001dabcc       __CxxFrameHandler3         00000001801dbbcc f   libvcruntime:risctrnsctrl.obj
 0001:001dac54       __CxxFrameHandler4         00000001801dbc54 f   libvcruntime:risctrnsctrl.obj
 0001:001dae64       __vcrt_FlsAlloc            00000001801dbe64 f   libvcruntime:winapi_downlevel.obj
 0001:001daeac       __vcrt_FlsFree             00000001801dbeac f   libvcruntime:winapi_downlevel.obj
 0001:001daef4       __vcrt_FlsGetValue         00000001801dbef4 f   libvcruntime:winapi_downlevel.obj
 0001:001daf3c       __vcrt_FlsSetValue         00000001801dbf3c f   libvcruntime:winapi_downlevel.obj
 0001:001daf90       __vcrt_InitializeCriticalSectionEx 00000001801dbf90 f   libvcruntime:winapi_downlevel.obj
 0001:001daff4       ?GetCurrentState@__FrameHandler3@@SAHPEA_KPEAU_xDISPATCHER_CONTEXT@@PEBU_s_FuncInfo@@@Z 00000001801dbff4 f   libvcruntime:ehstate.obj
 0001:001db01c       ?GetUnwindTryBlock@__FrameHandler3@@SAHPEA_KPEAU_xDISPATCHER_CONTEXT@@PEBU_s_FuncInfo@@@Z 00000001801dc01c f   libvcruntime:ehstate.obj
 0001:001db048       ?SetState@__FrameHandler3@@SAXPEA_KPEBU_s_FuncInfo@@H@Z 00000001801dc048 f   libvcruntime:ehstate.obj
 0001:001db054       ?SetUnwindTryBlock@__FrameHandler3@@SAXPEA_KPEAU_xDISPATCHER_CONTEXT@@PEBU_s_FuncInfo@@H@Z 00000001801dc054 f   libvcruntime:ehstate.obj
 0001:001db090       ?StateFromControlPc@__FrameHandler3@@SAHPEBU_s_FuncInfo@@PEAU_xDISPATCHER_CONTEXT@@@Z 00000001801dc090 f   libvcruntime:ehstate.obj
 0001:001db098       ?StateFromControlPc@__FrameHandler4@@SAHPEAUFuncInfo4@FH4@@PEAU_xDISPATCHER_CONTEXT@@@Z 00000001801dc098 f   libvcruntime:ehstate.obj
 0001:001db0a0       ?StateFromIp@__FrameHandler3@@SAHPEBU_s_FuncInfo@@PEAU_xDISPATCHER_CONTEXT@@_K@Z 00000001801dc0a0 f   libvcruntime:ehstate.obj
 0001:001db108       ?StateFromIp@__FrameHandler4@@SAHPEAUFuncInfo4@FH4@@PEAU_xDISPATCHER_CONTEXT@@_K@Z 00000001801dc108 f   libvcruntime:ehstate.obj
 0001:001dc7ec       ??$TypeMatchHelper@V__FrameHandler3@@@@YAHPEBU_s_HandlerType@@PEBU_s_CatchableType@@PEBU_s_ThrowInfo@@@Z 00000001801dd7ec f i libvcruntime:frame.obj
 0001:001dc92c       ??$TypeMatchHelper@V__FrameHandler4@@@@YAHPEAUHandlerType4@FH4@@PEBU_s_CatchableType@@PEBU_s_ThrowInfo@@@Z 00000001801dd92c f i libvcruntime:frame.obj
 0001:001dca70       ??$__InternalCxxFrameHandler@V__FrameHandler3@@@@YA?AW4_EXCEPTION_DISPOSITION@@PEAUEHExceptionRecord@@PEA_KPEAU_CONTEXT@@PEAU_xDISPATCHER_CONTEXT@@PEBU_s_FuncInfo@@H1E@Z 00000001801dda70 f i libvcruntime:frame.obj
 0001:001dcca8       ??$__InternalCxxFrameHandler@V__FrameHandler4@@@@YA?AW4_EXCEPTION_DISPOSITION@@PEAUEHExceptionRecord@@PEA_KPEAU_CONTEXT@@PEAU_xDISPATCHER_CONTEXT@@PEAUFuncInfo4@FH4@@H1E@Z 00000001801ddca8 f i libvcruntime:frame.obj
 0001:001dcf3c       ??0HandlerMap4@FH4@@QEAA@PEBUTryBlockMapEntry4@1@_KH@Z 00000001801ddf3c f i libvcruntime:frame.obj
 0001:001dcfb8       ??0TryBlockMap4@FH4@@QEAA@PEBUFuncInfo4@1@_K@Z 00000001801ddfb8 f i libvcruntime:frame.obj
 0001:001dd090       ??0bad_exception@std@@QEAA@AEBV01@@Z 00000001801de090 f i libvcruntime:frame.obj
 0001:001dd0cc       ??0bad_exception@std@@QEAA@XZ 00000001801de0cc f i libvcruntime:frame.obj
 0001:001dd0ec       ??0exception@std@@QEAA@AEBV01@@Z 00000001801de0ec f i libvcruntime:frame.obj
 0001:001dd120       ??1bad_exception@std@@UEAA@XZ 00000001801de120 f i libvcruntime:frame.obj
 0001:001dd134       ??_Eexception@std@@UEAAPEAXI@Z 00000001801de134 f i libvcruntime:frame.obj
 0001:001dd134       ??_Gbad_exception@std@@UEAAPEAXI@Z 00000001801de134 f i libvcruntime:frame.obj
 0001:001dd134       ??_Ebad_exception@std@@UEAAPEAXI@Z 00000001801de134 f i libvcruntime:frame.obj
 0001:001dd134       ??_Gexception@std@@UEAAPEAXI@Z 00000001801de134 f i libvcruntime:frame.obj
 0001:001dd178       ?CxxCallCatchBlock@__FrameHandler3@@SAPEAXPEAU_EXCEPTION_RECORD@@@Z 00000001801de178 f   libvcruntime:frame.obj
 0001:001dd364       ?CxxCallCatchBlock@__FrameHandler4@@SAPEAXPEAU_EXCEPTION_RECORD@@@Z 00000001801de364 f   libvcruntime:frame.obj
 0001:001dd5b4       ?DecompHandler@HandlerMap4@FH4@@AEAAXXZ 00000001801de5b4 f i libvcruntime:frame.obj
 0001:001dd7f4       ?FrameUnwindToState@__FrameHandler3@@SAXPEA_KPEAU_xDISPATCHER_CONTEXT@@PEBU_s_FuncInfo@@H@Z 00000001801de7f4 f   libvcruntime:frame.obj
 0001:001dd980       ?FrameUnwindToState@__FrameHandler4@@SAXPEA_KPEAU_xDISPATCHER_CONTEXT@@PEAUFuncInfo4@FH4@@H@Z 00000001801de980 f   libvcruntime:frame.obj
 0001:001ddc68       ?GetHandlerSearchState@__FrameHandler3@@SAHPEA_KPEAU_xDISPATCHER_CONTEXT@@PEBU_s_FuncInfo@@@Z 00000001801dec68 f i libvcruntime:frame.obj
 0001:001dde78       ?ReadEntry@UWMap4@FH4@@AEAAXPEAPEAE@Z 00000001801dee78 f i libvcruntime:frame.obj
 0001:001ddf18       ?_CallMemberFunction1@@YAXQEAX00@Z 00000001801def18 f i libvcruntime:frame.obj
 0001:001ddf24       ?_CallMemberFunction2@@YAXQEAX00H@Z 00000001801def24 f i libvcruntime:frame.obj
 0001:001ddf34       ?getStartStop@UWMap4@FH4@@QEAAXHHAEAViterator@12@0@Z 00000001801def34 f i libvcruntime:frame.obj
 0001:001de004       ?getStateFromIterators@UWMap4@FH4@@SAHAEBViterator@12@H0H0@Z 00000001801df004 f i libvcruntime:frame.obj
 0001:001de0cc       ?what@exception@std@@UEBAPEBDXZ 00000001801df0cc f i libvcruntime:frame.obj
 0001:001de0f0       _CallSettingFrame          00000001801df0f0 f   libvcruntime:handlers.obj
 0001:001de140       _CallSettingFrame_LookupContinuationIndex 00000001801df140 f   libvcruntime:handlers.obj
 0001:001de170       _CallSettingFrame_NotifyContinuationAddr 00000001801df170 f   libvcruntime:handlers.obj
 0001:001de1a0       _CallSettingFrameEncoded   00000001801df1a0 f   libvcruntime:handlers.obj
 0001:001de1e8       __std_exception_copy       00000001801df1e8 f   libvcruntime:std_exception.obj
 0001:001de278       __std_exception_destroy    00000001801df278 f   libvcruntime:std_exception.obj
 0001:001de2a0       _CxxThrowException         00000001801df2a0 f   libvcruntime:throw.obj
 0001:001de340       cosf                       00000001801df340 f   libucrt:cosf.obj
 0001:001de840       sinf                       00000001801df840 f   libucrt:sinf.obj
 0001:001def40       tanf                       00000001801dff40 f   libucrt:tanf.obj
 0001:001df5b4       __acrt_initialize_stdio    00000001801e05b4 f   libucrt:_file.obj
 0001:001df6d4       __acrt_iob_func            00000001801e06d4 f   libucrt:_file.obj
 0001:001df6e8       __acrt_uninitialize_stdio  00000001801e06e8 f   libucrt:_file.obj
 0001:001df744       _lock_file                 00000001801e0744 f   libucrt:_file.obj
 0001:001df750       _unlock_file               00000001801e0750 f   libucrt:_file.obj
 0001:001df94c       ??$ensure_buffer_is_big_enough@D@formatting_buffer@__crt_stdio_output@@QEAA_N_KAEAV__crt_cached_ptd_host@@@Z 00000001801e094c f i libucrt:output.obj
 0001:001df9f4       ??$parse_integer@KV?$c_string_character_source@D@__crt_strtox@@$0A@@__crt_strtox@@YAKAEAV__crt_cached_ptd_host@@V?$c_string_character_source@D@0@H_N@Z 00000001801e09f4 f i libucrt:output.obj
 0001:001dfca8       ??$type_case_integer@$07@?$output_processor@DV?$stream_output_adapter@D@__crt_stdio_output@@V?$standard_base@DV?$stream_output_adapter@D@__crt_stdio_output@@@2@@__crt_stdio_output@@AEAA_N_N@Z 00000001801e0ca8 f i libucrt:output.obj
 0001:001dfca8       ??$type_case_integer@$07@?$output_processor@DV?$string_output_adapter@D@__crt_stdio_output@@V?$format_validation_base@DV?$string_output_adapter@D@__crt_stdio_output@@@2@@__crt_stdio_output@@AEAA_N_N@Z 00000001801e0ca8 f i libucrt:output.obj
 0001:001dfeac       ??$type_case_integer@$09@?$output_processor@DV?$string_output_adapter@D@__crt_stdio_output@@V?$format_validation_base@DV?$string_output_adapter@D@__crt_stdio_output@@@2@@__crt_stdio_output@@AEAA_N_N@Z 00000001801e0eac f i libucrt:output.obj
 0001:001dfeac       ??$type_case_integer@$09@?$output_processor@DV?$stream_output_adapter@D@__crt_stdio_output@@V?$standard_base@DV?$stream_output_adapter@D@__crt_stdio_output@@@2@@__crt_stdio_output@@AEAA_N_N@Z 00000001801e0eac f i libucrt:output.obj
 0001:001e00b0       ??$type_case_integer@$0BA@@?$output_processor@DV?$string_output_adapter@D@__crt_stdio_output@@V?$format_validation_base@DV?$string_output_adapter@D@__crt_stdio_output@@@2@@__crt_stdio_output@@AEAA_N_N@Z 00000001801e10b0 f i libucrt:output.obj
 0001:001e00b0       ??$type_case_integer@$0BA@@?$output_processor@DV?$stream_output_adapter@D@__crt_stdio_output@@V?$standard_base@DV?$stream_output_adapter@D@__crt_stdio_output@@@2@@__crt_stdio_output@@AEAA_N_N@Z 00000001801e10b0 f i libucrt:output.obj
 0001:001e02b4       ??$type_case_integer_parse_into_buffer@I$07@?$output_processor@DV?$stream_output_adapter@D@__crt_stdio_output@@V?$standard_base@DV?$stream_output_adapter@D@__crt_stdio_output@@@2@@__crt_stdio_output@@AEAAXI_N@Z 00000001801e12b4 f i libucrt:output.obj
 0001:001e02b4       ??$type_case_integer_parse_into_buffer@I$07@?$output_processor@DV?$string_output_adapter@D@__crt_stdio_output@@V?$format_validation_base@DV?$string_output_adapter@D@__crt_stdio_output@@@2@@__crt_stdio_output@@AEAAXI_N@Z 00000001801e12b4 f i libucrt:output.obj
 0001:001e0324       ??$type_case_integer_parse_into_buffer@I$09@?$output_processor@DV?$stream_output_adapter@D@__crt_stdio_output@@V?$standard_base@DV?$stream_output_adapter@D@__crt_stdio_output@@@2@@__crt_stdio_output@@AEAAXI_N@Z 00000001801e1324 f i libucrt:output.obj
 0001:001e0324       ??$type_case_integer_parse_into_buffer@I$09@?$output_processor@DV?$string_output_adapter@D@__crt_stdio_output@@V?$format_validation_base@DV?$string_output_adapter@D@__crt_stdio_output@@@2@@__crt_stdio_output@@AEAAXI_N@Z 00000001801e1324 f i libucrt:output.obj
 0001:001e03d0       ??$type_case_integer_parse_into_buffer@I$0BA@@?$output_processor@DV?$string_output_adapter@D@__crt_stdio_output@@V?$format_validation_base@DV?$string_output_adapter@D@__crt_stdio_output@@@2@@__crt_stdio_output@@AEAAXI_N@Z 00000001801e13d0 f i libucrt:output.obj
 0001:001e03d0       ??$type_case_integer_parse_into_buffer@I$0BA@@?$output_processor@DV?$stream_output_adapter@D@__crt_stdio_output@@V?$standard_base@DV?$stream_output_adapter@D@__crt_stdio_output@@@2@@__crt_stdio_output@@AEAAXI_N@Z 00000001801e13d0 f i libucrt:output.obj
 0001:001e0454       ??$type_case_integer_parse_into_buffer@_K$07@?$output_processor@DV?$stream_output_adapter@D@__crt_stdio_output@@V?$standard_base@DV?$stream_output_adapter@D@__crt_stdio_output@@@2@@__crt_stdio_output@@AEAAX_K_N@Z 00000001801e1454 f i libucrt:output.obj
 0001:001e0454       ??$type_case_integer_parse_into_buffer@_K$07@?$output_processor@DV?$string_output_adapter@D@__crt_stdio_output@@V?$format_validation_base@DV?$string_output_adapter@D@__crt_stdio_output@@@2@@__crt_stdio_output@@AEAAX_K_N@Z 00000001801e1454 f i libucrt:output.obj
 0001:001e04c4       ??$type_case_integer_parse_into_buffer@_K$09@?$output_processor@DV?$string_output_adapter@D@__crt_stdio_output@@V?$format_validation_base@DV?$string_output_adapter@D@__crt_stdio_output@@@2@@__crt_stdio_output@@AEAAX_K_N@Z 00000001801e14c4 f i libucrt:output.obj
 0001:001e04c4       ??$type_case_integer_parse_into_buffer@_K$09@?$output_processor@DV?$stream_output_adapter@D@__crt_stdio_output@@V?$standard_base@DV?$stream_output_adapter@D@__crt_stdio_output@@@2@@__crt_stdio_output@@AEAAX_K_N@Z 00000001801e14c4 f i libucrt:output.obj
 0001:001e0574       ??$type_case_integer_parse_into_buffer@_K$0BA@@?$output_processor@DV?$stream_output_adapter@D@__crt_stdio_output@@V?$standard_base@DV?$stream_output_adapter@D@__crt_stdio_output@@@2@@__crt_stdio_output@@AEAAX_K_N@Z 00000001801e1574 f i libucrt:output.obj
 0001:001e0574       ??$type_case_integer_parse_into_buffer@_K$0BA@@?$output_processor@DV?$string_output_adapter@D@__crt_stdio_output@@V?$format_validation_base@DV?$string_output_adapter@D@__crt_stdio_output@@@2@@__crt_stdio_output@@AEAAX_K_N@Z 00000001801e1574 f i libucrt:output.obj
 0001:001e0714       ?crop_zeroes@__crt_stdio_output@@YAXPEADQEAU__crt_locale_pointers@@@Z 00000001801e1714 f i libucrt:output.obj
 0001:001e0780       ?get_raw_ptd@__crt_cached_ptd_host@@QEAAPEAU__acrt_ptd@@XZ 00000001801e1780 f i libucrt:output.obj
 0001:001e07e8       ?parse_int_from_format_string@?$output_processor@DV?$stream_output_adapter@D@__crt_stdio_output@@V?$standard_base@DV?$stream_output_adapter@D@__crt_stdio_output@@@2@@__crt_stdio_output@@AEAA_NQEAH@Z 00000001801e17e8 f i libucrt:output.obj
 0001:001e07e8       ?parse_int_from_format_string@?$output_processor@DV?$string_output_adapter@D@__crt_stdio_output@@V?$format_validation_base@DV?$string_output_adapter@D@__crt_stdio_output@@@2@@__crt_stdio_output@@AEAA_NQEAH@Z 00000001801e17e8 f i libucrt:output.obj
 0001:001e0878       ?process@?$output_processor@DV?$stream_output_adapter@D@__crt_stdio_output@@V?$standard_base@DV?$stream_output_adapter@D@__crt_stdio_output@@@2@@__crt_stdio_output@@QEAAHXZ 00000001801e1878 f i libucrt:output.obj
 0001:001e0c10       ?process@?$output_processor@DV?$string_output_adapter@D@__crt_stdio_output@@V?$format_validation_base@DV?$string_output_adapter@D@__crt_stdio_output@@@2@@__crt_stdio_output@@QEAAHXZ 00000001801e1c10 f i libucrt:output.obj
 0001:001e0f94       ?state_case_size@?$output_processor@DV?$stream_output_adapter@D@__crt_stdio_output@@V?$standard_base@DV?$stream_output_adapter@D@__crt_stdio_output@@@2@@__crt_stdio_output@@AEAA_NXZ 00000001801e1f94 f i libucrt:output.obj
 0001:001e111c       ?state_case_size@?$output_processor@DV?$string_output_adapter@D@__crt_stdio_output@@V?$format_validation_base@DV?$string_output_adapter@D@__crt_stdio_output@@@2@@__crt_stdio_output@@AEAA_NXZ 00000001801e211c f i libucrt:output.obj
 0001:001e12a4       ?state_case_type@?$output_processor@DV?$stream_output_adapter@D@__crt_stdio_output@@V?$standard_base@DV?$stream_output_adapter@D@__crt_stdio_output@@@2@@__crt_stdio_output@@AEAA_NXZ 00000001801e22a4 f i libucrt:output.obj
 0001:001e16dc       ?state_case_type@?$output_processor@DV?$string_output_adapter@D@__crt_stdio_output@@V?$format_validation_base@DV?$string_output_adapter@D@__crt_stdio_output@@@2@@__crt_stdio_output@@AEAA_NXZ 00000001801e26dc f i libucrt:output.obj
 0001:001e1ae0       ?type_case_Z@?$output_processor@DV?$string_output_adapter@D@__crt_stdio_output@@V?$format_validation_base@DV?$string_output_adapter@D@__crt_stdio_output@@@2@@__crt_stdio_output@@AEAA_NXZ 00000001801e2ae0 f i libucrt:output.obj
 0001:001e1ae0       ?type_case_Z@?$output_processor@DV?$stream_output_adapter@D@__crt_stdio_output@@V?$standard_base@DV?$stream_output_adapter@D@__crt_stdio_output@@@2@@__crt_stdio_output@@AEAA_NXZ 00000001801e2ae0 f i libucrt:output.obj
 0001:001e1b5c       ?type_case_a@?$output_processor@DV?$stream_output_adapter@D@__crt_stdio_output@@V?$standard_base@DV?$stream_output_adapter@D@__crt_stdio_output@@@2@@__crt_stdio_output@@AEAA_NXZ 00000001801e2b5c f i libucrt:output.obj
 0001:001e1b5c       ?type_case_a@?$output_processor@DV?$string_output_adapter@D@__crt_stdio_output@@V?$format_validation_base@DV?$string_output_adapter@D@__crt_stdio_output@@@2@@__crt_stdio_output@@AEAA_NXZ 00000001801e2b5c f i libucrt:output.obj
 0001:001e1db0       ?type_case_c_tchar@?$output_processor@DV?$stream_output_adapter@D@__crt_stdio_output@@V?$standard_base@DV?$stream_output_adapter@D@__crt_stdio_output@@@2@@__crt_stdio_output@@AEAA_ND@Z 00000001801e2db0 f i libucrt:output.obj
 0001:001e1db0       ?type_case_c_tchar@?$output_processor@DV?$string_output_adapter@D@__crt_stdio_output@@V?$format_validation_base@DV?$string_output_adapter@D@__crt_stdio_output@@@2@@__crt_stdio_output@@AEAA_ND@Z 00000001801e2db0 f i libucrt:output.obj
 0001:001e1e84       ?type_case_n@?$output_processor@DV?$stream_output_adapter@D@__crt_stdio_output@@V?$standard_base@DV?$stream_output_adapter@D@__crt_stdio_output@@@2@@__crt_stdio_output@@AEAA_NXZ 00000001801e2e84 f i libucrt:output.obj
 0001:001e1e84       ?type_case_n@?$output_processor@DV?$string_output_adapter@D@__crt_stdio_output@@V?$format_validation_base@DV?$string_output_adapter@D@__crt_stdio_output@@@2@@__crt_stdio_output@@AEAA_NXZ 00000001801e2e84 f i libucrt:output.obj
 0001:001e1f3c       ?type_case_s@?$output_processor@DV?$stream_output_adapter@D@__crt_stdio_output@@V?$standard_base@DV?$stream_output_adapter@D@__crt_stdio_output@@@2@@__crt_stdio_output@@AEAA_NXZ 00000001801e2f3c f i libucrt:output.obj
 0001:001e1f3c       ?type_case_s@?$output_processor@DV?$string_output_adapter@D@__crt_stdio_output@@V?$format_validation_base@DV?$string_output_adapter@D@__crt_stdio_output@@@2@@__crt_stdio_output@@AEAA_NXZ 00000001801e2f3c f i libucrt:output.obj
 0001:001e1fe0       ?update_locale_slow@__crt_cached_ptd_host@@AEAAXXZ 00000001801e2fe0 f i libucrt:output.obj
 0001:001e2058       ?validate_stream_is_ansi_if_required@?$__acrt_stdio_char_traits@D@@SA_NQEAU_iobuf@@@Z 00000001801e3058 f i libucrt:output.obj
 0001:001e20f4       ?write_string@?$string_output_adapter@D@__crt_stdio_output@@QEBAXQEBDHQEAHAEAV__crt_cached_ptd_host@@@Z 00000001801e30f4 f i libucrt:output.obj
 0001:001e2198       ?write_string_impl@?$output_adapter_common@DV?$stream_output_adapter@D@__crt_stdio_output@@@__crt_stdio_output@@IEBAXQEBDHQEAHAEAV__crt_cached_ptd_host@@@Z 00000001801e3198 f i libucrt:output.obj
 0001:001e2264       __stdio_common_vfprintf    00000001801e3264 f   libucrt:output.obj
 0001:001e2388       __stdio_common_vsprintf_s  00000001801e3388 f   libucrt:output.obj
 0001:001e249c       _fpclass                   00000001801e349c f   libucrt:ieeemisc.obj
 0001:001e2530       powf                       00000001801e3530 f   libucrt:powf.obj
 0001:001e33f8       atan2f                     00000001801e43f8 f   libucrt:atan2f.obj
 0001:001e37f0       acosf                      00000001801e47f0 f   libucrt:acosf.obj
 0001:001e3a1c       free                       00000001801e4a1c f   libucrt:free.obj
 0001:001e3a30       _seh_filter_dll            00000001801e4a30 f   libucrt:exception_filter.obj
 0001:001e3a44       _seh_filter_exe            00000001801e4a44 f   libucrt:exception_filter.obj
 0001:001e3e5c       __acrt_initialize_thread_local_exit_callback 00000001801e4e5c f   libucrt:exit.obj
 0001:001e3e64       _cexit                     00000001801e4e64 f   libucrt:exit.obj
 0001:001e3e74       _exit                      00000001801e4e74 f   libucrt:exit.obj
 0001:001e3e80       _is_c_termination_complete 00000001801e4e80 f   libucrt:exit.obj
 0001:001e4050       __acrt_allocate_buffer_for_argv 00000001801e5050 f   libucrt:argv_parsing.obj
 0001:001e40b0       _configure_narrow_argv     00000001801e50b0 f   libucrt:argv_parsing.obj
 0001:001e4438       __dcrt_uninitialize_environments_nolock 00000001801e5438 f   libucrt:environment_initialization.obj
 0001:001e447c       _initialize_narrow_environment 00000001801e547c f   libucrt:environment_initialization.obj
 0001:001e47cc       _crt_atexit                00000001801e57cc f   libucrt:onexit.obj
 0001:001e47dc       _execute_onexit_table      00000001801e57dc f   libucrt:onexit.obj
 0001:001e4820       _initialize_onexit_table   00000001801e5820 f   libucrt:onexit.obj
 0001:001e4848       _register_onexit_function  00000001801e5848 f   libucrt:onexit.obj
 0001:001e48c8       __acrt_uninitialize_command_line 00000001801e58c8 f   libucrt:argv_data.obj
 0001:001e49c0       __acrt_initialize          00000001801e59c0 f   libucrt:initialization.obj
 0001:001e49d4       __acrt_thread_attach       00000001801e59d4 f   libucrt:initialization.obj
 0001:001e49e8       __acrt_thread_detach       00000001801e59e8 f   libucrt:initialization.obj
 0001:001e49f8       __acrt_uninitialize        00000001801e59f8 f   libucrt:initialization.obj
 0001:001e4a30       __acrt_uninitialize_critical 00000001801e5a30 f   libucrt:initialization.obj
 0001:001e4a40       _initterm                  00000001801e5a40 f   libucrt:initterm.obj
 0001:001e4a84       _initterm_e                00000001801e5a84 f   libucrt:initterm.obj
 0001:001e4acc       terminate                  00000001801e5acc f   libucrt:terminate.obj
 0001:001e4af8       abort                      00000001801e5af8 f   libucrt:abort.obj
 0001:001e4b50       malloc                     00000001801e5b50 f   libucrt:malloc.obj
 0001:001e4b58       strcpy_s                   00000001801e5b58 f   libucrt:strcpy_s.obj
 0001:001e4bb8       ??$parse_integer@KV?$c_string_character_source@D@__crt_strtox@@$00@__crt_strtox@@YAKAEAV__crt_cached_ptd_host@@V?$c_string_character_source@D@0@H_N@Z 00000001801e5bb8 f i libucrt:atox.obj
 0001:001e4ea8       _ischartype_l              00000001801e5ea8 f i libucrt:atox.obj
 0001:001e4f20       atol                       00000001801e5f20 f   libucrt:atox.obj
 0001:001e4fe0       strncmp                    00000001801e5fe0 f   libucrt:strncmp.obj
 0001:001e5060       calloc                     00000001801e6060 f   libucrt:calloc.obj
 0001:001e5068       wcsncmp                    00000001801e6068 f   libucrt:wcsncmp.obj
 0001:001e50a0       __remainder_piby2d2f_forAsm 00000001801e60a0 f   libucrt:remainder_piby2f_forasm.obj
 0001:001e51f0       __remainder_piby2_fma3     00000001801e61f0 f   libucrt:remainder_piby2_forfma3.obj
 0001:001e53e0       __remainder_piby2_fma3_bdl 00000001801e63e0 f   libucrt:remainder_piby2_forfma3.obj
 0001:001e5458       _cosf_special              00000001801e6458 f   libucrt:sincos_special.obj
 0001:001e54f8       _sinf_special              00000001801e64f8 f   libucrt:sincos_special.obj
 0001:001e550c       _tanf_special              00000001801e650c f   libucrt:sincos_special.obj
 0001:001e5520       _clrfp                     00000001801e6520 f   libucrt:fpctrl.obj
 0001:001e5540       _ctrlfp                    00000001801e6540 f   libucrt:fpctrl.obj
 0001:001e55bc       _set_statfp                00000001801e65bc f   libucrt:fpctrl.obj
 0001:001e55dc       _statfp                    00000001801e65dc f   libucrt:fpctrl.obj
 0001:001e55f0       __acrt_initialize_fma3     00000001801e65f0 f   libucrt:fma3_available.obj
 0001:001e5660       __remainder_piby2d2f_forC  00000001801e6660 f   libucrt:remainder_piby2f_forc.obj
 0001:001e57ec       ?get_raw_ptd_noexit@__crt_cached_ptd_host@@QEAAPEAU__acrt_ptd@@XZ 00000001801e67ec f i libucrt:invalid_parameter.obj
 0001:001e5858       ?value@?$dual_state_global@P6AXPEB_W00I_K@Z@__crt_state_management@@QEAAAEAP6AXPEB_W00I_K@ZAEAV__crt_cached_ptd_host@@@Z 00000001801e6858 f i libucrt:invalid_parameter.obj
 0001:001e58a4       __acrt_call_reportfault    00000001801e68a4 f   libucrt:invalid_parameter.obj
 0001:001e5a00       __acrt_initialize_invalid_parameter_handler 00000001801e6a00 f   libucrt:invalid_parameter.obj
 0001:001e5a08       _invalid_parameter         00000001801e6a08 f   libucrt:invalid_parameter.obj
 0001:001e5aa4       _invalid_parameter_internal 00000001801e6aa4 f   libucrt:invalid_parameter.obj
 0001:001e5b70       _invalid_parameter_noinfo  00000001801e6b70 f   libucrt:invalid_parameter.obj
 0001:001e5b90       _invoke_watson             00000001801e6b90 f   libucrt:invalid_parameter.obj
 0001:001e5bd8       __acrt_errno_from_os_error 00000001801e6bd8 f   libucrt:errno.obj
 0001:001e5c20       __acrt_errno_map_os_error  00000001801e6c20 f   libucrt:errno.obj
 0001:001e5c68       __acrt_errno_map_os_error_ptd 00000001801e6c68 f   libucrt:errno.obj
 0001:001e5c8c       __doserrno                 00000001801e6c8c f   libucrt:errno.obj
 0001:001e5cac       _errno                     00000001801e6cac f   libucrt:errno.obj
 0001:001e5ccc       _calloc_base               00000001801e6ccc f   libucrt:calloc_base.obj
 0001:001e5d44       _free_base                 00000001801e6d44 f   libucrt:free_base.obj
 0001:001e5f3c       __acrt_AppPolicyGetProcessTerminationMethodInternal 00000001801e6f3c f   libucrt:winapi_thunks.obj
 0001:001e5f94       __acrt_AreFileApisANSI     00000001801e6f94 f   libucrt:winapi_thunks.obj
 0001:001e5fd8       __acrt_FlsAlloc            00000001801e6fd8 f   libucrt:winapi_thunks.obj
 0001:001e5fe0       __acrt_FlsFree             00000001801e6fe0 f   libucrt:winapi_thunks.obj
 0001:001e5fe8       __acrt_FlsGetValue         00000001801e6fe8 f   libucrt:winapi_thunks.obj
 0001:001e5ff0       __acrt_FlsSetValue         00000001801e6ff0 f   libucrt:winapi_thunks.obj
 0001:001e5ff8       __acrt_InitializeCriticalSectionEx 00000001801e6ff8 f   libucrt:winapi_thunks.obj
 0001:001e6068       __acrt_LCMapStringEx       00000001801e7068 f   libucrt:winapi_thunks.obj
 0001:001e6154       __acrt_LocaleNameToLCID    00000001801e7154 f   libucrt:winapi_thunks.obj
 0001:001e61b4       __acrt_initialize_winapi_thunks 00000001801e71b4 f   libucrt:winapi_thunks.obj
 0001:001e61d8       __acrt_uninitialize_winapi_thunks 00000001801e71d8 f   libucrt:winapi_thunks.obj
 0001:001e621c       _fcloseall                 00000001801e721c f   libucrt:closeall.obj
 0001:001e64b0       __acrt_stdio_flush_nolock  00000001801e74b0 f   libucrt:fflush.obj
 0001:001e653c       _fflush_nolock             00000001801e753c f   libucrt:fflush.obj
 0001:001e6610       _flushall                  00000001801e7610 f   libucrt:fflush.obj
 0001:001e6618       __acrt_stdio_free_buffer_nolock 00000001801e7618 f   libucrt:_freebuf.obj
 0001:001e6854       __acrt_initialize_lowio    00000001801e7854 f   libucrt:ioinit.obj
 0001:001e6890       __acrt_uninitialize_lowio  00000001801e7890 f   libucrt:ioinit.obj
 0001:001e68d0       _malloc_base               00000001801e78d0 f   libucrt:malloc_base.obj
 0001:001e6930       strnlen                    00000001801e7930 f   libucrt:strnlen.obj
 0001:001e6a80       wcsnlen                    00000001801e7a80 f   libucrt:strnlen.obj
 0001:001e6c58       __acrt_update_locale_info  00000001801e7c58 f   libucrt:locale_update.obj
 0001:001e6c8c       __acrt_update_locale_info_explicit 00000001801e7c8c f   libucrt:locale_update.obj
 0001:001e6cc4       __acrt_update_multibyte_info 00000001801e7cc4 f   libucrt:locale_update.obj
 0001:001e6cf8       __acrt_update_multibyte_info_explicit 00000001801e7cf8 f   libucrt:locale_update.obj
 0001:001e7844       __acrt_fp_format           00000001801e8844 f   libucrt:cvt.obj
 0001:001e7b2c       _wctomb_internal           00000001801e8b2c f   libucrt:wctomb.obj
 0001:001e7cdc       _mbtowc_internal           00000001801e8cdc f   libucrt:mbtowc.obj
 0001:001e7e54       _fileno                    00000001801e8e54 f   libucrt:fileno.obj
 0001:001e7e7c       _get_printf_count_output   00000001801e8e7c f   libucrt:printf_count_output.obj
 0001:001e7e94       _fputc_nolock_internal     00000001801e8e94 f   libucrt:fputc.obj
 0001:001e7eac       __acrt_should_use_temporary_buffer 00000001801e8eac f   libucrt:_sftbuf.obj
 0001:001e7ef8       __acrt_stdio_begin_temporary_buffering_nolock 00000001801e8ef8 f   libucrt:_sftbuf.obj
 0001:001e7fc0       __acrt_stdio_end_temporary_buffering_nolock 00000001801e8fc0 f   libucrt:_sftbuf.obj
 0001:001e8378       __acrt_freeptd             00000001801e9378 f   libucrt:per_thread_data.obj
 0001:001e83bc       __acrt_getptd              00000001801e93bc f   libucrt:per_thread_data.obj
 0001:001e8490       __acrt_getptd_head         00000001801e9490 f   libucrt:per_thread_data.obj
 0001:001e8534       __acrt_getptd_noexit       00000001801e9534 f   libucrt:per_thread_data.obj
 0001:001e85fc       __acrt_getptd_noexit_explicit 00000001801e95fc f   libucrt:per_thread_data.obj
 0001:001e86bc       __acrt_initialize_ptd      00000001801e96bc f   libucrt:per_thread_data.obj
 0001:001e86f8       __acrt_uninitialize_ptd    00000001801e96f8 f   libucrt:per_thread_data.obj
 0001:001e878c       __acrt_set_locale_changed  00000001801e978c f   libucrt:wsetlocale.obj
 0001:001e8798       __acrt_uninitialize_locale 00000001801e9798 f   libucrt:wsetlocale.obj
 0001:001e88ec       _handle_error              00000001801e98ec f   libucrt:libm_error.obj
 0001:001e8a14       _handle_errorf             00000001801e9a14 f   libucrt:libm_error.obj
 0001:001e8b48       _handle_nan                00000001801e9b48 f   libucrt:libm_error.obj
 0001:001e8b64       _handle_nanf               00000001801e9b64 f   libucrt:libm_error.obj
 0001:001e8b80       _powf_special              00000001801e9b80 f   libucrt:pow_special.obj
 0001:001e8cf0       __acrt_initialize_locks    00000001801e9cf0 f   libucrt:locks.obj
 0001:001e8d38       __acrt_lock                00000001801e9d38 f   libucrt:locks.obj
 0001:001e8d54       __acrt_uninitialize_locks  00000001801e9d54 f   libucrt:locks.obj
 0001:001e8d8c       __acrt_unlock              00000001801e9d8c f   libucrt:locks.obj
 0001:001e8da8       __acrt_app_verifier_enabled 00000001801e9da8 f   libucrt:peb_access.obj
 0001:001e8dc4       __acrt_is_secure_process   00000001801e9dc4 f   libucrt:peb_access.obj
 0001:001e8ddc       __acrt_get_process_end_policy 00000001801e9ddc f   libucrt:win_policies.obj
 0001:001e8e20       ??$__acrt_convert_wcs_mbs_cp@D_WV<lambda_7c9dea7b4ca7285d2cdb541a38da6275>@@U__crt_win32_buffer_internal_dynamic_resizing@@@@YAHQEBDAEAV?$__crt_win32_buffer@_WU__crt_win32_buffer_internal_dynamic_resizing@@@@AEBV<lambda_7c9dea7b4ca7285d2cdb541a38da6275>@@I@Z 00000001801e9e20 f i libucrt:argv_wildcards.obj
 0001:001e8f9c       ??$__acrt_convert_wcs_mbs_cp@_WDV<lambda_d8593a27d1aa8c02be35c86a17d324c4>@@U__crt_win32_buffer_internal_dynamic_resizing@@@@YAHQEB_WAEAV?$__crt_win32_buffer@DU__crt_win32_buffer_internal_dynamic_resizing@@@@AEBV<lambda_d8593a27d1aa8c02be35c86a17d324c4>@@I@Z 00000001801e9f9c f i libucrt:argv_wildcards.obj
 0001:001e9840       ??0_LocaleUpdate@@QEAA@QEAU__crt_locale_pointers@@@Z 00000001801ea840 f i libucrt:argv_wildcards.obj
 0001:001e98dc       __acrt_expand_narrow_argv_wildcards 00000001801ea8dc f   libucrt:argv_wildcards.obj
 0001:001e98e4       ??$__acrt_convert_wcs_mbs_cp@_WDV<lambda_f788ae46380686e8b737efdd8c720d07>@@U__crt_win32_buffer_no_resizing@@@@YAHQEB_WAEAV?$__crt_win32_buffer@DU__crt_win32_buffer_no_resizing@@@@AEBV<lambda_f788ae46380686e8b737efdd8c720d07>@@I@Z 00000001801ea8e4 f i libucrt:getmodulefilenamea.obj
 0001:001e9a00       __acrt_GetModuleFileNameA  00000001801eaa00 f   libucrt:getmodulefilenamea.obj
 0001:001ea31c       __acrt_initialize_multibyte 00000001801eb31c f   libucrt:mbctype.obj
 0001:001ea37c       __acrt_update_thread_multibyte_data 00000001801eb37c f   libucrt:mbctype.obj
 0001:001ea398       _setmbcp_nolock            00000001801eb398 f   libucrt:mbctype.obj
 0001:001ea6cc       _ismbblead                 00000001801eb6cc f   libucrt:ismbbyte.obj
 0001:001ea6e0       __acrt_initialize_command_line 00000001801eb6e0 f   libucrt:argv_data.obj
 0001:001ea708       __acrt_MultiByteToWideChar 00000001801eb708 f   libucrt:multibytetowidechar.obj
 0001:001ea798       __acrt_WideCharToMultiByte 00000001801eb798 f   libucrt:widechartomultibyte.obj
 0001:001ea878       __dcrt_get_narrow_environment_from_os 00000001801eb878 f   libucrt:get_environment_from_os.obj
 0001:001ea988       _recalloc_base             00000001801eb988 f   libucrt:recalloc.obj
 0001:001eaa20       __acrt_initialize_heap     00000001801eba20 f   libucrt:heap_handle.obj
 0001:001eaa3c       __acrt_uninitialize_heap   00000001801eba3c f   libucrt:heap_handle.obj
 0001:001eaa48       __acrt_execute_initializers 00000001801eba48 f   libucrt:shared_initialization.obj
 0001:001eaadc       __acrt_execute_uninitializers 00000001801ebadc f   libucrt:shared_initialization.obj
 0001:001eab24       __acrt_initialize_new_handler 00000001801ebb24 f   libucrt:new_handler.obj
 0001:001eab2c       _callnewh                  00000001801ebb2c f   libucrt:new_handler.obj
 0001:001eab6c       _query_new_handler         00000001801ebb6c f   libucrt:new_handler.obj
 0001:001eabec       __acrt_get_sigabrt_handler 00000001801ebbec f   libucrt:signal.obj
 0001:001eac1c       __acrt_initialize_signal_handlers 00000001801ebc1c f   libucrt:signal.obj
 0001:001eac3c       raise                      00000001801ebc3c f   libucrt:signal.obj
 0001:001eaeb8       __acrt_has_user_matherr    00000001801ebeb8 f   libucrt:matherr.obj
 0001:001eaed8       __acrt_initialize_user_matherr 00000001801ebed8 f   libucrt:matherr.obj
 0001:001eaee0       __acrt_invoke_user_matherr 00000001801ebee0 f   libucrt:matherr.obj
 0001:001eaf1c       __pctype_func              00000001801ebf1c f   libucrt:ctype.obj
 0001:001eaf4c       _isctype_l                 00000001801ebf4c f   libucrt:isctype.obj
 0001:001eb070       _get_fpsr                  00000001801ec070 f   libucrt:fpsr.obj
 0001:001eb080       _set_fpsr                  00000001801ec080 f   libucrt:fpsr.obj
 0001:001eb08a       _fclrf                     00000001801ec08a f   libucrt:fpsr.obj
 0001:001eb09e       _frnd                      00000001801ec09e f   libucrt:fpsr.obj
 0001:001eb0c0       _query_new_mode            00000001801ec0c0 f   libucrt:new_mode.obj
 0001:001eb0c8       __acrt_DownlevelLocaleNameToLCID 00000001801ec0c8 f   libucrt:lcidtoname_downlevel.obj
 0001:001eb290       fclose                     00000001801ec290 f   libucrt:fclose.obj
 0001:001eb3b4       _commit                    00000001801ec3b4 f   libucrt:commit.obj
 0001:001ebc50       _write_internal            00000001801ecc50 f   libucrt:write.obj
 0001:001ebd70       _write_nolock              00000001801ecd70 f   libucrt:write.obj
 0001:001ec078       __acrt_lowio_create_handle_array 00000001801ed078 f   libucrt:osfinfo.obj
 0001:001ec120       __acrt_lowio_destroy_handle_array 00000001801ed120 f   libucrt:osfinfo.obj
 0001:001ec170       __acrt_lowio_ensure_fh_exists 00000001801ed170 f   libucrt:osfinfo.obj
 0001:001ec218       __acrt_lowio_lock_fh       00000001801ed218 f   libucrt:osfinfo.obj
 0001:001ec240       __acrt_lowio_unlock_fh     00000001801ed240 f   libucrt:osfinfo.obj
 0001:001ec268       _free_osfhnd               00000001801ed268 f   libucrt:osfinfo.obj
 0001:001ec324       _get_osfhandle             00000001801ed324 f   libucrt:osfinfo.obj
 0001:001ec39c       __acrt_add_locale_ref      00000001801ed39c f   libucrt:locale_refcounting.obj
 0001:001ec428       __acrt_free_locale         00000001801ed428 f   libucrt:locale_refcounting.obj
 0001:001ec5a0       __acrt_locale_add_lc_time_reference 00000001801ed5a0 f   libucrt:locale_refcounting.obj
 0001:001ec5c8       __acrt_locale_free_lc_time_if_unreferenced 00000001801ed5c8 f   libucrt:locale_refcounting.obj
 0001:001ec600       __acrt_locale_release_lc_time_reference 00000001801ed600 f   libucrt:locale_refcounting.obj
 0001:001ec628       __acrt_release_locale_ref  00000001801ed628 f   libucrt:locale_refcounting.obj
 0001:001ec6d0       __acrt_update_thread_locale_data 00000001801ed6d0 f   libucrt:locale_refcounting.obj
 0001:001ec740       _updatetlocinfoEx_nolock   00000001801ed740 f   libucrt:locale_refcounting.obj
 0001:001ec878       __acrt_fp_strflt_to_string 00000001801ed878 f   libucrt:_fptostr.obj
 0001:001ec990       ?divide@__crt_strtox@@YA_KAEAUbig_integer@1@AEBU21@@Z 00000001801ed990 f i libucrt:cfout.obj
 0001:001ece2c       __acrt_fltout              00000001801ede2c f   libucrt:cfout.obj
 0001:001ee144       fegetround                 00000001801ef144 f   libucrt:fegetround.obj
 0001:001ee158       ?__c32rtomb_utf8@__crt_mbstring@@YA_KPEAD_UPEAU_Mbstatet@@AEAV__crt_cached_ptd_host@@@Z 00000001801ef158 f   libucrt:c32rtomb.obj
 0001:001ee1fc       ?__mbrtowc_utf8@__crt_mbstring@@YA_KPEA_WPEBD_KPEAU_Mbstatet@@AEAV__crt_cached_ptd_host@@@Z 00000001801ef1fc f   libucrt:mbrtowc.obj
 0001:001ee240       ?__mbsrtowcs_utf8@__crt_mbstring@@YA_KPEA_WPEAPEBD_KPEAU_Mbstatet@@AEAV__crt_cached_ptd_host@@@Z 00000001801ef240 f   libucrt:mbrtowc.obj
 0001:001ee558       __acrt_stdio_flush_and_write_narrow_nolock 00000001801ef558 f   libucrt:_flsbuf.obj
 0001:001ee624       _isatty                    00000001801ef624 f   libucrt:isatty.obj
 0001:001ee684       __acrt_locale_free_monetary 00000001801ef684 f   libucrt:initmon.obj
 0001:001ee790       __acrt_locale_free_numeric 00000001801ef790 f   libucrt:initnum.obj
 0001:001ee830       __acrt_locale_free_time    00000001801ef830 f   libucrt:inittime.obj
 0001:001ee938       __acrt_GetStringTypeA      00000001801ef938 f   libucrt:getstringtypea.obj
 0001:001eeac8       _raise_exc                 00000001801efac8 f   libucrt:fpexcept.obj
 0001:001eeaf0       _raise_exc_ex              00000001801efaf0 f   libucrt:fpexcept.obj
 0001:001eedf8       _raise_excf                00000001801efdf8 f   libucrt:fpexcept.obj
 0001:001eee24       _set_errno_from_matherr    00000001801efe24 f   libucrt:fpexcept.obj
 0001:001eee60       qsort                      00000001801efe60 f   libucrt:qsort.obj
 0001:001ef270       strncpy_s                  00000001801f0270 f   libucrt:strncpy_s.obj
 0001:001ef400       strpbrk                    00000001801f0400 f   libucrt:strpbrk.obj
 0001:001ef7c8       _mbsdec                    00000001801f07c8 f   libucrt:mbsdec.obj
 0001:001ef7d0       _mbsdec_l                  00000001801f07d0 f   libucrt:mbsdec.obj
 0001:001efb98       __acrt_LCMapStringA        00000001801f0b98 f   libucrt:lcmapstringa.obj
 0001:001efc48       _msize_base                00000001801f0c48 f   libucrt:msize.obj
 0001:001efc84       _realloc_base              00000001801f0c84 f   libucrt:realloc_base.obj
 0001:001efd00       __ascii_wcsnicmp           00000001801f0d00 f   libucrt:wcsnicmp.obj
 0001:001efdc4       _close_internal            00000001801f0dc4 f   libucrt:close.obj
 0001:001efe88       _close_nolock_internal     00000001801f0e88 f   libucrt:close.obj
 0001:001eff58       ?__acrt_stdio_free_stream@@YAXV__crt_stdio_stream@@@Z 00000001801f0f58 f   libucrt:stream.obj
 0001:001f0140       _lseeki64                  00000001801f1140 f   libucrt:lseek.obj
 0001:001f01dc       _lseeki64_nolock_internal  00000001801f11dc f   libucrt:lseek.obj
 0001:001f01e4       _putwch_nolock             00000001801f11e4 f   libucrt:putwch.obj
 0001:001f0220       _query_app_type            00000001801f1220 f   libucrt:report_runtime_error.obj
 0001:001f0228       _controlfp_s               00000001801f1228 f   libucrt:contrlfp.obj
 0001:001f028c       fegetenv                   00000001801f128c f   libucrt:fegetenv.obj
 0001:001f02ac       fesetenv                   00000001801f12ac f   libucrt:fesetenv.obj
 0001:001f0304       feholdexcept               00000001801f1304 f   libucrt:feholdexcept.obj
 0001:001f0354       ceil                       00000001801f1354 f   libucrt:ceil.obj
 0001:001f0420       log10                      00000001801f1420 f   libucrt:log10.obj
 0001:001f09cc       __acrt_fenv_get_common_round_control 00000001801f19cc f   libucrt:_fenvutils.obj
 0001:001f09d8       __acrt_fenv_get_control    00000001801f19d8 f   libucrt:_fenvutils.obj
 0001:001f0abc       __acrt_fenv_get_status     00000001801f1abc f   libucrt:_fenvutils.obj
 0001:001f0b14       __acrt_fenv_set_control    00000001801f1b14 f   libucrt:_fenvutils.obj
 0001:001f0c4c       __acrt_fenv_set_status     00000001801f1c4c f   libucrt:_fenvutils.obj
 0001:001f0cc0       ?reset_and_return@__crt_mbstring@@YA_K_KPEAU_Mbstatet@@@Z 00000001801f1cc0 f   libucrt:common_utf8.obj
 0001:001f0cc8       ?return_illegal_sequence@__crt_mbstring@@YA_KPEAU_Mbstatet@@AEAV__crt_cached_ptd_host@@@Z 00000001801f1cc8 f   libucrt:common_utf8.obj
 0001:001f0cdc       ?__mbrtoc32_utf8@__crt_mbstring@@YA_KPEA_UPEBD_KPEAU_Mbstatet@@AEAV__crt_cached_ptd_host@@@Z 00000001801f1cdc f   libucrt:mbrtoc32.obj
 0001:001f0eb8       __acrt_stdio_allocate_buffer_nolock 00000001801f1eb8 f   libucrt:_getbuf.obj
 0001:001f0f24       __strncnt                  00000001801f1f24 f   libucrt:strncnt.obj
 0001:001f0f3c       __dcrt_lowio_ensure_console_output_initialized 00000001801f1f3c f   libucrt:initcon.obj
 0001:001f0f90       __dcrt_terminate_console_output 00000001801f1f90 f   libucrt:initcon.obj
 0001:001f0fac       __dcrt_write_console       00000001801f1fac f   libucrt:initcon.obj
 0001:001f106c       _clearfp                   00000001801f206c f   libucrt:ieee.obj
 0001:001f10d8       _control87                 00000001801f20d8 f   libucrt:ieee.obj
 0001:001f1380       _log10_special             00000001801f2380 f   libucrt:log_special.obj
 0001:001f1440       _FindPESection             00000001801f2440 f   LIBCMT:pesect.obj
 0001:001f1490       _IsNonwritableInCurrentImage 00000001801f2490 f   LIBCMT:pesect.obj
 0001:001f14e0       _ValidateImageBase         00000001801f24e0 f   LIBCMT:pesect.obj
 0001:001f1510       __GSHandlerCheck           00000001801f2510 f   LIBCMT:gshandler.obj
 0001:001f1530       __GSHandlerCheckCommon     00000001801f2530 f   LIBCMT:gshandler.obj
 0001:001f15a0       __security_check_cookie    00000001801f25a0 f   LIBCMT:amdsecgs.obj
 0001:001f15c0       __GSHandlerCheck_SEH       00000001801f25c0 f   LIBCMT:gshandlerseh.obj
 0001:001f1648       __raise_securityfailure    00000001801f2648 f   LIBCMT:gs_report.obj
 0001:001f167c       __report_gsfailure         00000001801f267c f   LIBCMT:gs_report.obj
 0001:001f1750       __report_rangecheckfailure 00000001801f2750 f   LIBCMT:gs_report.obj
 0001:001f1764       __report_securityfailure   00000001801f2764 f   LIBCMT:gs_report.obj
 0001:001f18e4       __GSHandlerCheck_EH        00000001801f28e4 f   LIBCMT:gshandlereh.obj
 0001:001f1964       __C_specific_handler_noexcept 00000001801f2964 f   libvcruntime:chandler_noexcept.obj
 0001:001f19b0       strrchr                    00000001801f29b0 f   libvcruntime:strrchr.obj
 0001:001f1af0       memcmp                     00000001801f2af0 f   libvcruntime:memcmp.obj
 0001:001f1bd0       _guard_dispatch_icall_nop  00000001801f2bd0 f   LIBCMT:guard_dispatch.obj
 0001:001f1bf0       _guard_xfg_dispatch_icall_nop 00000001801f2bf0 f   LIBCMT:guard_xfg_dispatch.obj
 0002:00000000       __imp_GetLastError         00000001801f4000     kernel32:KERNEL32.dll
 0002:00000008       __imp_FreeLibrary          00000001801f4008     kernel32:KERNEL32.dll
 0002:00000010       __imp_GetProcAddress       00000001801f4010     kernel32:KERNEL32.dll
 0002:00000018       __imp_LoadLibraryA         00000001801f4018     kernel32:KERNEL32.dll
 0002:00000020       __imp_RaiseException       00000001801f4020     kernel32:KERNEL32.dll
 0002:00000028       __imp_GetSystemInfo        00000001801f4028     kernel32:KERNEL32.dll
 0002:00000030       __imp_VirtualProtect       00000001801f4030     kernel32:KERNEL32.dll
 0002:00000038       __imp_VirtualQuery         00000001801f4038     kernel32:KERNEL32.dll
 0002:00000040       __imp_GetModuleHandleW     00000001801f4040     kernel32:KERNEL32.dll
 0002:00000048       __imp_LoadLibraryExA       00000001801f4048     kernel32:KERNEL32.dll
 0002:00000050       __imp_InitializeSListHead  00000001801f4050     kernel32:KERNEL32.dll
 0002:00000058       __imp_RtlCaptureContext    00000001801f4058     kernel32:KERNEL32.dll
 0002:00000060       __imp_RtlLookupFunctionEntry 00000001801f4060     kernel32:KERNEL32.dll
 0002:00000068       __imp_RtlVirtualUnwind     00000001801f4068     kernel32:KERNEL32.dll
 0002:00000070       __imp_IsDebuggerPresent    00000001801f4070     kernel32:KERNEL32.dll
 0002:00000078       __imp_UnhandledExceptionFilter 00000001801f4078     kernel32:KERNEL32.dll
 0002:00000080       __imp_SetUnhandledExceptionFilter 00000001801f4080     kernel32:KERNEL32.dll
 0002:00000088       __imp_GetStartupInfoW      00000001801f4088     kernel32:KERNEL32.dll
 0002:00000090       __imp_IsProcessorFeaturePresent 00000001801f4090     kernel32:KERNEL32.dll
 0002:00000098       __imp_QueryPerformanceCounter 00000001801f4098     kernel32:KERNEL32.dll
 0002:000000a0       __imp_GetCurrentProcessId  00000001801f40a0     kernel32:KERNEL32.dll
 0002:000000a8       __imp_GetCurrentThreadId   00000001801f40a8     kernel32:KERNEL32.dll
 0002:000000b0       __imp_GetSystemTimeAsFileTime 00000001801f40b0     kernel32:KERNEL32.dll
 0002:000000b8       __imp_InterlockedPushEntrySList 00000001801f40b8     kernel32:KERNEL32.dll
 0002:000000c0       __imp_InterlockedFlushSList 00000001801f40c0     kernel32:KERNEL32.dll
 0002:000000c8       __imp_RtlUnwindEx          00000001801f40c8     kernel32:KERNEL32.dll
 0002:000000d0       __imp_SetLastError         00000001801f40d0     kernel32:KERNEL32.dll
 0002:000000d8       __imp_EnterCriticalSection 00000001801f40d8     kernel32:KERNEL32.dll
 0002:000000e0       __imp_LeaveCriticalSection 00000001801f40e0     kernel32:KERNEL32.dll
 0002:000000e8       __imp_DeleteCriticalSection 00000001801f40e8     kernel32:KERNEL32.dll
 0002:000000f0       __imp_InitializeCriticalSectionAndSpinCount 00000001801f40f0     kernel32:KERNEL32.dll
 0002:000000f8       __imp_TlsAlloc             00000001801f40f8     kernel32:KERNEL32.dll
 0002:00000100       __imp_TlsGetValue          00000001801f4100     kernel32:KERNEL32.dll
 0002:00000108       __imp_TlsSetValue          00000001801f4108     kernel32:KERNEL32.dll
 0002:00000110       __imp_TlsFree              00000001801f4110     kernel32:KERNEL32.dll
 0002:00000118       __imp_LoadLibraryExW       00000001801f4118     kernel32:KERNEL32.dll
 0002:00000120       __imp_EncodePointer        00000001801f4120     kernel32:KERNEL32.dll
 0002:00000128       __imp_RtlPcToFileHeader    00000001801f4128     kernel32:KERNEL32.dll
 0002:00000130       __imp_GetCurrentProcess    00000001801f4130     kernel32:KERNEL32.dll
 0002:00000138       __imp_ExitProcess          00000001801f4138     kernel32:KERNEL32.dll
 0002:00000140       __imp_TerminateProcess     00000001801f4140     kernel32:KERNEL32.dll
 0002:00000148       __imp_GetModuleHandleExW   00000001801f4148     kernel32:KERNEL32.dll
 0002:00000150       __imp_GetModuleFileNameW   00000001801f4150     kernel32:KERNEL32.dll
 0002:00000158       __imp_HeapAlloc            00000001801f4158     kernel32:KERNEL32.dll
 0002:00000160       __imp_HeapFree             00000001801f4160     kernel32:KERNEL32.dll
 0002:00000168       __imp_FlsAlloc             00000001801f4168     kernel32:KERNEL32.dll
 0002:00000170       __imp_FlsGetValue          00000001801f4170     kernel32:KERNEL32.dll
 0002:00000178       __imp_FlsSetValue          00000001801f4178     kernel32:KERNEL32.dll
 0002:00000180       __imp_FlsFree              00000001801f4180     kernel32:KERNEL32.dll
 0002:00000188       __imp_LCMapStringW         00000001801f4188     kernel32:KERNEL32.dll
 0002:00000190       __imp_GetStdHandle         00000001801f4190     kernel32:KERNEL32.dll
 0002:00000198       __imp_GetFileType          00000001801f4198     kernel32:KERNEL32.dll
 0002:000001a0       __imp_FindClose            00000001801f41a0     kernel32:KERNEL32.dll
 0002:000001a8       __imp_FindFirstFileExW     00000001801f41a8     kernel32:KERNEL32.dll
 0002:000001b0       __imp_FindNextFileW        00000001801f41b0     kernel32:KERNEL32.dll
 0002:000001b8       __imp_IsValidCodePage      00000001801f41b8     kernel32:KERNEL32.dll
 0002:000001c0       __imp_GetACP               00000001801f41c0     kernel32:KERNEL32.dll
 0002:000001c8       __imp_GetOEMCP             00000001801f41c8     kernel32:KERNEL32.dll
 0002:000001d0       __imp_GetCPInfo            00000001801f41d0     kernel32:KERNEL32.dll
 0002:000001d8       __imp_GetCommandLineA      00000001801f41d8     kernel32:KERNEL32.dll
 0002:000001e0       __imp_GetCommandLineW      00000001801f41e0     kernel32:KERNEL32.dll
 0002:000001e8       __imp_MultiByteToWideChar  00000001801f41e8     kernel32:KERNEL32.dll
 0002:000001f0       __imp_WideCharToMultiByte  00000001801f41f0     kernel32:KERNEL32.dll
 0002:000001f8       __imp_GetEnvironmentStringsW 00000001801f41f8     kernel32:KERNEL32.dll
 0002:00000200       __imp_FreeEnvironmentStringsW 00000001801f4200     kernel32:KERNEL32.dll
 0002:00000208       __imp_GetProcessHeap       00000001801f4208     kernel32:KERNEL32.dll
 0002:00000210       __imp_FlushFileBuffers     00000001801f4210     kernel32:KERNEL32.dll
 0002:00000218       __imp_WriteFile            00000001801f4218     kernel32:KERNEL32.dll
 0002:00000220       __imp_GetConsoleOutputCP   00000001801f4220     kernel32:KERNEL32.dll
 0002:00000228       __imp_GetConsoleMode       00000001801f4228     kernel32:KERNEL32.dll
 0002:00000230       __imp_SetStdHandle         00000001801f4230     kernel32:KERNEL32.dll
 0002:00000238       __imp_GetFileSizeEx        00000001801f4238     kernel32:KERNEL32.dll
 0002:00000240       __imp_SetFilePointerEx     00000001801f4240     kernel32:KERNEL32.dll
 0002:00000248       __imp_GetStringTypeW       00000001801f4248     kernel32:KERNEL32.dll
 0002:00000250       __imp_HeapSize             00000001801f4250     kernel32:KERNEL32.dll
 0002:00000258       __imp_HeapReAlloc          00000001801f4258     kernel32:KERNEL32.dll
 0002:00000260       __imp_CloseHandle          00000001801f4260     kernel32:KERNEL32.dll
 0002:00000268       __imp_CreateFileW          00000001801f4268     kernel32:KERNEL32.dll
 0002:00000270       __imp_WriteConsoleW        00000001801f4270     kernel32:KERNEL32.dll
 0002:00000278       \177KERNEL32_NULL_THUNK_DATA 00000001801f4278     kernel32:KERNEL32.dll
 0002:00000280       __guard_check_icall_fptr   00000001801f4280     LIBCMT:guard_support.obj
 0002:00000288       __guard_xfg_check_icall_fptr 00000001801f4288     LIBCMT:guard_support.obj
 0002:00000290       __guard_dispatch_icall_fptr 00000001801f4290     LIBCMT:guard_support.obj
 0002:00000298       __guard_xfg_dispatch_icall_fptr 00000001801f4298     LIBCMT:guard_support.obj
 0002:000002a0       __guard_xfg_table_dispatch_icall_fptr 00000001801f42a0     LIBCMT:guard_support.obj
 0002:000002a8       __xc_a                     00000001801f42a8     LIBCMT:initializers.obj
 0002:00001da0       __xc_z                     00000001801f5da0     LIBCMT:initializers.obj
 0002:00001da8       __xi_a                     00000001801f5da8     LIBCMT:initializers.obj
 0002:00001db0       __acrt_stdio_initializer   00000001801f5db0     libucrt:stdio_initializer.obj
 0002:00001db8       __acrt_tran_fma3_initializer 00000001801f5db8     libucrt:fma3_initializer.obj
 0002:00001dc0       __acrt_multibyte_initializer 00000001801f5dc0     libucrt:multibyte_initializer.obj
 0002:00001dc8       __xi_z                     00000001801f5dc8     LIBCMT:initializers.obj
 0002:00001dd0       __xp_a                     00000001801f5dd0     LIBCMT:initializers.obj
 0002:00001dd8       __acrt_locale_terminator   00000001801f5dd8     libucrt:locale_initializer.obj
 0002:00001de0       __dcrt_console_output_terminator 00000001801f5de0     libucrt:console_output_initializer.obj
 0002:00001de8       __acrt_stdio_terminator    00000001801f5de8     libucrt:stdio_initializer.obj
 0002:00001df0       __xp_z                     00000001801f5df0     LIBCMT:initializers.obj
 0002:00001df8       __xt_a                     00000001801f5df8     LIBCMT:initializers.obj
 0002:00001e00       __xt_z                     00000001801f5e00     LIBCMT:initializers.obj
 0002:00001e10       ??_7PxCollection@physx@@6B@ 00000001801f5e10     CmCollection.obj
 0002:00001e90       ??_C@_00CNPNBAHC@@         00000001801f5e90     CmCollection.obj
 0002:00001e98       ??_7Collection@Cm@physx@@6B@ 00000001801f5e98     CmCollection.obj
 0002:00001f20       ??_C@_0GE@GBACBMOC@PxCollection?3?3add?5called?5for?5an@ 00000001801f5f20     CmCollection.obj
 0002:00001f90       ??_C@_0GC@NPDHCKPH@C?3?2Users?2Brandon?2CudaGame?2vendo@ 00000001801f5f90     CmCollection.obj
 0002:00002000       ??_C@_0EM@OMMGDOMK@PxCollection?3?3add?5called?5with?5a@ 00000001801f6000     CmCollection.obj
 0002:00002050       ??_C@_0GE@BOIGBKNN@C?3?2Users?2Brandon?2CudaGame?2vendo@ 00000001801f6050     CmCollection.obj
 0002:000020b8       ??_C@_0BM@OIFKLHDN@?$DMallocation?5names?5disabled?$DO@ 00000001801f60b8     CmCollection.obj
 0002:000020d8       ??_7RadixSort@Cm@physx@@6B@ 00000001801f60d8     CmRadixSort.obj
 0002:000020e0       ??_7RadixSortBuffered@Cm@physx@@6B@ 00000001801f60e0     CmRadixSort.obj
 0002:000020f0       ??_C@_0GB@IPFFFGJN@C?3?2Users?2Brandon?2CudaGame?2vendo@ 00000001801f60f0     CmRadixSort.obj
 0002:00002160       __xmm@00000001000000010000000100000001 00000001801f6160     CmRadixSort.obj
 0002:00002170       __xmm@00000003000000020000000100000000 00000001801f6170     CmRadixSort.obj
 0002:00002180       __real@3d4ccccd            00000001801f6180     CmVisualization.obj
 0002:00002184       __real@3e19999a            00000001801f6184     CmVisualization.obj
 0002:00002188       __real@3e490fdb            00000001801f6188     CmVisualization.obj
 0002:0000218c       __real@3e800000            00000001801f618c     CmVisualization.obj
 0002:00002190       __real@3e99999a            00000001801f6190     CmVisualization.obj
 0002:00002194       __real@3ea0d97c            00000001801f6194     CmVisualization.obj
 0002:00002198       __real@3eddb3d7            00000001801f6198     CmVisualization.obj
 0002:0000219c       __real@3f000000            00000001801f619c     CmVisualization.obj
 0002:000021a0       __real@3f3504f3            00000001801f61a0     CmVisualization.obj
 0002:000021a4       __real@3f800000            00000001801f61a4     CmVisualization.obj
 0002:000021a8       __real@3fc00000            00000001801f61a8     CmVisualization.obj
 0002:000021ac       __real@3fddb3d7            00000001801f61ac     CmVisualization.obj
 0002:000021b0       __real@40100000            00000001801f61b0     CmVisualization.obj
 0002:000021b4       __real@40c90fdb            00000001801f61b4     CmVisualization.obj
 0002:000021b8       __real@beddb3d7            00000001801f61b8     CmVisualization.obj
 0002:000021bc       __real@c0000000            00000001801f61bc     CmVisualization.obj
 0002:000021c0       __xmm@3f800000000000000000000000000000 00000001801f61c0     CmVisualization.obj
 0002:000021d0       __xmm@7fffffff7fffffff7fffffff7fffffff 00000001801f61d0     CmVisualization.obj
 0002:000021e0       __xmm@80000000800000008000000080000000 00000001801f61e0     CmVisualization.obj
 0002:000021f0       ??_C@_0BB@CPDDPFKD@GetUpdatedModule@ 00000001801f61f0     CmWindowsModuleUpdateLoader.obj
 0002:00002210       ??_C@_0HJ@BDHNBGIH@C?3?2Users?2Brandon?2CudaGame?2vendo@ 00000001801f6210     CmWindowsModuleUpdateLoader.obj
 0002:00002290       ??_C@_0CP@PGOIOJOO@?$CFs?3?$CFi?3?5loadLibrary?5error?5when?5l@ 00000001801f6290     CmWindowsModuleUpdateLoader.obj
 0002:000022c0       ??_C@_0BA@EGLNOO@PhysXFoundation@ 00000001801f62c0     CmWindowsDelayLoadHook.obj
 0002:000022d0       ??_C@_0M@ILKNCJKN@PhysXCommon@ 00000001801f62d0     CmWindowsDelayLoadHook.obj
 0002:00002300       __real@3f7ff972            00000001801f6300     GuBox.obj
 0002:00002310       __xmm@000000003a83126f3a83126f3a83126f 00000001801f6310     GuBox.obj
 0002:00002320       __xmm@00000000ba83126fba83126fba83126f 00000001801f6320     GuBox.obj
 0002:00002330       __xmm@3a83126f3a83126f3a83126f3a83126f 00000001801f6330     GuBox.obj
 0002:00002340       __xmm@ba83126fba83126fba83126fba83126f 00000001801f6340     GuBox.obj
 0002:00002370       ??_7OverlapReport@Gu@physx@@6B@ 00000001801f6370     GuCCTSweepTests.obj
 0002:00002370       ??_7OverlapCallback@PxBVH@physx@@6B@ 00000001801f6370     GuQuerySystem.obj
 0002:00002370       ??_7RaycastCallback@PxBVH@physx@@6B@ 00000001801f6370     GuQuerySystem.obj
 0002:00002370       ??_7EntityReport@Gu@physx@@6B@ 00000001801f6370     GuSweepsHF.obj
 0002:00002370       ??_7RemapCallback@RTreeCooker@physx@@6B@ 00000001801f6370     GuCookingTriangleMesh.obj
 0002:00002390       __real@3b03126f            00000001801f6390     GuCCTSweepTests.obj
 0002:00002394       __real@40000000            00000001801f6394     GuCCTSweepTests.obj
 0002:000023d0       ??_7SupportLocal@Gu@physx@@6B@ 00000001801f63d0     GuGeometryQuery.obj
 0002:000023f0       ??_7?$SupportLocalImpl@VBoxV@Gu@physx@@@Gu@physx@@6B@ 00000001801f63f0     GuGeometryQuery.obj
 0002:00002410       ??_7?$SupportLocalImpl@VConvexHullV@Gu@physx@@@Gu@physx@@6B@ 00000001801f6410     GuGeometryQuery.obj
 0002:00002430       ??_C@_0FM@GJGILJCO@C?3?2Users?2Brandon?2CudaGame?2vendo@ 00000001801f6430     GuGeometryQuery.obj
 0002:0000248c       __real@30d1b7e9            00000001801f648c     GuGeometryQuery.obj
 0002:00002490       __real@322bcc77            00000001801f6490     GuGeometryQuery.obj
 0002:00002494       __real@358637bd            00000001801f6494     GuGeometryQuery.obj
 0002:00002498       __real@3a83126f            00000001801f6498     GuGeometryQuery.obj
 0002:0000249c       __real@3ccccccd            00000001801f649c     GuGeometryQuery.obj
 0002:000024a0       __real@3dcccccd            00000001801f64a0     GuGeometryQuery.obj
 0002:000024a4       __real@49742400            00000001801f64a4     GuGeometryQuery.obj
 0002:000024a8       __real@7f7fffff            00000001801f64a8     GuGeometryQuery.obj
 0002:000024ac       __real@bf800000            00000001801f64ac     GuGeometryQuery.obj
 0002:000024b0       __xmm@0000000000000000000000003f800000 00000001801f64b0     GuGeometryQuery.obj
 0002:000024c0       __xmm@00000000000000003f80000000000000 00000001801f64c0     GuGeometryQuery.obj
 0002:000024d0       __xmm@00000000000000003f8000003f800000 00000001801f64d0     GuGeometryQuery.obj
 0002:000024e0       __xmm@000000003f8000000000000000000000 00000001801f64e0     GuGeometryQuery.obj
 0002:000024f0       __xmm@000000003f8000003f8000003f800000 00000001801f64f0     GuGeometryQuery.obj
 0002:00002500       __xmm@00000000ffffffffffffffffffffffff 00000001801f6500     GuGeometryQuery.obj
 0002:00002510       __xmm@3d4ccccd3d4ccccd3d4ccccd3d4ccccd 00000001801f6510     GuGeometryQuery.obj
 0002:00002520       __xmm@3e19999a3e19999a3e19999a3e19999a 00000001801f6520     GuGeometryQuery.obj
 0002:00002530       __xmm@3e4ccccd3e4ccccd3e4ccccd3e4ccccd 00000001801f6530     GuGeometryQuery.obj
 0002:00002540       __xmm@3e8000003e8000003e8000003e800000 00000001801f6540     GuGeometryQuery.obj
 0002:00002550       __xmm@3f7ef9db3f7ef9db3f7ef9db3f7ef9db 00000001801f6550     GuGeometryQuery.obj
 0002:00002560       __xmm@3f7ff2e53f7ff2e53f7ff2e53f7ff2e5 00000001801f6560     GuGeometryQuery.obj
 0002:00002570       __xmm@7f7fffff7f7fffff7f7fffff7f7fffff 00000001801f6570     GuGeometryQuery.obj
 0002:00002580       __xmm@bf000000bf000000bf000000bf000000 00000001801f6580     GuGeometryQuery.obj
 0002:000025b0       ??_C@_0GG@ELICFOHM@C?3?2Users?2Brandon?2CudaGame?2vendo@ 00000001801f65b0     GuMeshFactory.obj
 0002:00002630       ??_C@_0EM@BDFDGBD@Inserting?5object?5failed?3?5Object@ 00000001801f6630     GuMeshFactory.obj
 0002:000026a0       ??_7CallbackRefit@RTree@Gu@physx@@6B@ 00000001801f66a0     GuTriangleMeshRTree.obj
 0002:000026a0       ??_7CallbackRaycast@RTree@Gu@physx@@6B@ 00000001801f66a0     GuMidphaseRTree.obj
 0002:000026a0       ??_7PxInsertionCallback@physx@@6B@ 00000001801f66a0     GuMeshFactory.obj
 0002:000026b0       ??_7PxCollisionMeshMappingData@physx@@6B@ 00000001801f66b0     GuMeshFactory.obj
 0002:000026c0       ??_7MeshFactory@Gu@physx@@6B@ 00000001801f66c0     GuMeshFactory.obj
 0002:000026c8       ??_7MeshDataBase@Gu@physx@@6B@ 00000001801f66c8     GuMeshFactory.obj
 0002:000026d0       ??_C@_0GG@KFFEFAPL@C?3?2Users?2Brandon?2CudaGame?2vendo@ 00000001801f66d0     GuMeshFactory.obj
 0002:00002738       ??_7TriangleMeshData@Gu@physx@@6B@ 00000001801f6738     GuMeshFactory.obj
 0002:00002740       ??_7RTreeTriangleData@Gu@physx@@6B@ 00000001801f6740     GuMeshFactory.obj
 0002:00002748       ??_7BV4TriangleData@Gu@physx@@6B@ 00000001801f6748     GuMeshFactory.obj
 0002:00002750       ??_7DeformableVolumeCollisionData@Gu@physx@@6B@ 00000001801f6750     GuMeshFactory.obj
 0002:00002758       ??_7CollisionMeshMappingData@Gu@physx@@6B@ 00000001801f6758     GuMeshFactory.obj
 0002:00002768       ??_7DeformableVolumeSimulationData@Gu@physx@@6B@ 00000001801f6768     GuMeshFactory.obj
 0002:00002770       ??_C@_0GP@NHELMDAL@Loading?5triangle?5mesh?5failed?3?5D@ 00000001801f6770     GuMeshFactory.obj
 0002:000027e0       ??_C@_0BP@CDOKDACA@RTree?5binary?5image?5load?5error?4@ 00000001801f67e0     GuMeshFactory.obj
 0002:00002800       ??_C@_0BN@MJPNIELF@BV4?5binary?5image?5load?5error?4@ 00000001801f6800     GuMeshFactory.obj
 0002:00002820       ??_C@_0BO@JDPABAOF@BV32?5binary?5image?5load?5error?4@ 00000001801f6820     GuMeshFactory.obj
 0002:00002840       ??_C@_0FM@GAAFLAFH@C?3?2Users?2Brandon?2CudaGame?2vendo@ 00000001801f6840     GuMeshFactory.obj
 0002:000028a0       __xmm@fe7fffff7e7fffff7e7fffff7e7fffff 00000001801f68a0     GuMeshFactory.obj
 0002:000028d0       ??_7?$SupportLocalImpl@VConvexHullNoScaleV@Gu@physx@@@Gu@physx@@6B@ 00000001801f68d0     GuMTD.obj
 0002:000028f0       ?absMask@?1??FAbs@aos@physx@@YA?AT__m128@@T4@@Z@4QBIB 00000001801f68f0     GuMTD.obj
 0002:00002900       ??_7GjkConvex@Gu@physx@@6B@ 00000001801f6900     GuMTD.obj
 0002:00002930       ??_7?$LocalConvex@VCapsuleV@Gu@physx@@@Gu@physx@@6B@ 00000001801f6930     GuMTD.obj
 0002:00002960       ??_7?$LocalConvex@VConvexHullV@Gu@physx@@@Gu@physx@@6B@ 00000001801f6960     GuMTD.obj
 0002:00002990       __real@2edbe6ff            00000001801f6990     GuMTD.obj
 0002:00002994       __real@34000000            00000001801f6994     GuMTD.obj
 0002:00002998       __real@ff7fffff            00000001801f6998     GuMTD.obj
 0002:000029a0       __xmm@28800000288000002880000028800000 00000001801f69a0     GuMTD.obj
 0002:000029b0       __xmm@34000000340000003400000034000000 00000001801f69b0     GuMTD.obj
 0002:000029c0       __xmm@358637bd358637bd358637bd358637bd 00000001801f69c0     GuMTD.obj
 0002:000029d0       __xmm@3dcccccd3dcccccd3dcccccd3dcccccd 00000001801f69d0     GuMTD.obj
 0002:000029e0       __xmm@3f7ff1413f7ff1413f7ff1413f7ff141 00000001801f69e0     GuMTD.obj
 0002:000029f0       __xmm@3f8000003f8000003f8000003f800000 00000001801f69f0     GuMTD.obj
 0002:00002a00       ??_7?$RelativeConvex@VBoxV@Gu@physx@@@Gu@physx@@6B@ 00000001801f6a00     GuOverlapTests.obj
 0002:00002a50       ??_7?$RelativeConvex@VConvexHullV@Gu@physx@@@Gu@physx@@6B@ 00000001801f6a50     GuOverlapTests.obj
 0002:00002a80       __real@3727c5ac            00000001801f6a80     GuOverlapTests.obj
 0002:00002a84       __real@3c23d70a            00000001801f6a84     GuOverlapTests.obj
 0002:00002a88       __real@bf000000            00000001801f6a88     GuOverlapTests.obj
 0002:00002a90       ??_7Support@PxGjkQuery@physx@@6B@ 00000001801f6a90     GuRaycastTests.obj
 0002:00002af0       __real@1e3ce508            00000001801f6af0     GuRaycastTests.obj
 0002:00002af4       __real@28800000            00000001801f6af4     GuRaycastTests.obj
 0002:00002af8       __real@33d6bf95            00000001801f6af8     GuRaycastTests.obj
 0002:00002afc       __real@38d1b717            00000001801f6afc     GuRaycastTests.obj
 0002:00002b00       __real@3f0147ae            00000001801f6b00     GuRaycastTests.obj
 0002:00002b04       __real@3f7ffffe            00000001801f6b04     GuRaycastTests.obj
 0002:00002b08       __real@3f800347            00000001801f6b08     GuRaycastTests.obj
 0002:00002b0c       __real@41200000            00000001801f6b0c     GuRaycastTests.obj
 0002:00002b10       __real@80000000            00000001801f6b10     GuRaycastTests.obj
 0002:00002b14       __real@b3d6bf95            00000001801f6b14     GuRaycastTests.obj
 0002:00002b18       __real@b8d1b717            00000001801f6b18     GuRaycastTests.obj
 0002:00002b1c       __real@c1200000            00000001801f6b1c     GuRaycastTests.obj
 0002:00002b50       ??_7?$MeshHitCallback@UPxGeomRaycastHit@physx@@@Gu@physx@@6B@ 00000001801f6b50     GuSweepMTD.obj
 0002:00002b60       ??_7MeshMTDGenerationCallback@@6B@ 00000001801f6b60     GuSweepMTD.obj
 0002:00002b70       ??_7MidPhaseQueryLocalReport@@6B@ 00000001801f6b70     GuSweepMTD.obj
 0002:00002b80       __real@3f8147ae            00000001801f6b80     GuSweepMTD.obj
 0002:00002b84       __real@3f933333            00000001801f6b84     GuSweepMTD.obj
 0002:00002bb0       __real@42c80000            00000001801f6bb0     GuSweepSharedTests.obj
 0002:00002bc0       __xmm@ffffffffffffffffffffffffffffffff 00000001801f6bc0     GuSweepSharedTests.obj
 0002:00002c38       ??_7?$LocalConvex@VBoxV@Gu@physx@@@Gu@physx@@6B@ 00000001801f6c38     GuSweepTests.obj
 0002:00002c68       ??_7?$LocalConvex@VTriangleV@Gu@physx@@@Gu@physx@@6B@ 00000001801f6c68     GuSweepTests.obj
 0002:00002ca0       __xmm@00000002000000020000000200000002 00000001801f6ca0     GuSweepTests.obj
 0002:00002cb0       __xmm@3eaaaa9f3eaaaa9f3eaaaa9f3eaaaa9f 00000001801f6cb0     GuSweepTests.obj
 0002:00002d68       ??_7PxRunnable@physx@@6B@  00000001801f6d68     GuSDF.obj
 0002:00002d80       ??_C@_0FO@MIBEIBFF@C?3?2Users?2Brandon?2CudaGame?2vendo@ 00000001801f6d80     GuSDF.obj
 0002:00002de0       ??_7PointOntoTriangleMeshProjector@Gu@physx@@6B@ 00000001801f6de0     GuSDF.obj
 0002:00002df8       ??_7?$PxThreadT@V?$PxReflectionAllocator@VPxThreadImpl@physx@@@physx@@@physx@@6B@ 00000001801f6df8     GuSDF.obj
 0002:00002e08       ??_C@_06FJHNOCKE@thread@   00000001801f6e08     GuSDF.obj
 0002:00002e10       ??_C@_0BAK@OPLLKLNG@SDF?5creation?3?5Mesh?5is?5not?5suita@ 00000001801f6e10     GuSDF.obj
 0002:00002f20       ??_C@_0FB@OMEANACP@SDF?5creation?3?5Input?5mesh?5is?5not@ 00000001801f6f20     GuSDF.obj
 0002:00002f80       ??_C@_0EC@LILMFABM@No?5distance?5data?5available?5?$CInul@ 00000001801f6f80     GuSDF.obj
 0002:00002fd0       ??_C@_0EF@PBPCGDDJ@No?5sparse?5grid?5data?5available?5?$CI@ 00000001801f6fd0     GuSDF.obj
 0002:00003020       ??_C@_0FN@DBAIHJHK@C?3?2Users?2Brandon?2CudaGame?2vendo@ 00000001801f7020     GuSDF.obj
 0002:00003080       ??_C@_0FL@MKAMNCEA@C?3?2Users?2Brandon?2CudaGame?2vendo@ 00000001801f7080     GuSDF.obj
 0002:000030e0       ??_C@_0GE@PMLLOJNM@C?3?2Users?2Brandon?2CudaGame?2vendo@ 00000001801f70e0     GuSDF.obj
 0002:00003144       __real@37800080            00000001801f7144     GuSDF.obj
 0002:00003148       __real@3b808081            00000001801f7148     GuSDF.obj
 0002:0000314c       __real@3e2aaaab            00000001801f714c     GuSDF.obj
 0002:00003150       __real@3eaaaaab            00000001801f7150     GuSDF.obj
 0002:00003154       __real@3f400000            00000001801f7154     GuSDF.obj
 0002:00003158       __real@3f7d70a4            00000001801f7158     GuSDF.obj
 0002:0000315c       __real@7e7fffff            00000001801f715c     GuSDF.obj
 0002:00003160       __real@fe7fffff            00000001801f7160     GuSDF.obj
 0002:00003170       __xmm@00000001000000010000000100000000 00000001801f7170     GuSDF.obj
 0002:00003180       __xmm@80000000800000000000000000000000 00000001801f7180     GuSDF.obj
 0002:000031b0       ??_7?$RelativeConvex@UCustomConvexV@@@Gu@physx@@6B@ 00000001801f71b0     GuGjkQuery.obj
 0002:000031e0       ??_7?$LocalConvex@UCustomConvexV@@@Gu@physx@@6B@ 00000001801f71e0     GuGjkQuery.obj
 0002:00003210       ??_7?$LocalConvex@UPointConvexV@@@Gu@physx@@6B@ 00000001801f7210     GuGjkQuery.obj
 0002:00003240       __xmm@3f0000003f0000003f0000003f000000 00000001801f7240     GuGjkQuery.obj
 0002:00003270       __real@3da2f983            00000001801f7270     GuWindingNumber.obj
 0002:00003274       __real@3e22f983            00000001801f7274     GuWindingNumber.obj
 0002:00003278       __real@3f99999a            00000001801f7278     GuWindingNumber.obj
 0002:000032a0       __real@00000000            00000001801f72a0     GuConvexGeometry.obj
 0002:000032a4       __real@38aaaaab            00000001801f72a4     GuConvexGeometry.obj
 0002:000032a8       __real@3d000000            00000001801f72a8     GuConvexGeometry.obj
 0002:000032ac       __real@3daaaaab            00000001801f72ac     GuConvexGeometry.obj
 0002:000032b0       __real@3ecccccd            00000001801f72b0     GuConvexGeometry.obj
 0002:000032b4       __real@3fc90fdb            00000001801f72b4     GuConvexGeometry.obj
 0002:000032b8       __real@40400000            00000001801f72b8     GuConvexGeometry.obj
 0002:000032bc       __real@40490fdb            00000001801f72bc     GuConvexGeometry.obj
 0002:000032c0       __real@40860a92            00000001801f72c0     GuConvexGeometry.obj
 0002:000032d0       __xmm@3f800000bf8000003f8000003f800000 00000001801f72d0     GuConvexGeometry.obj
 0002:000032e0       __xmm@bf8000003f800000bf800000bf800000 00000001801f72e0     GuConvexGeometry.obj
 0002:00003370       __real@3c343958            00000001801f7370     GuCCDSweepConvexMesh.obj
 0002:00003374       __real@3ca3d70a            00000001801f7374     GuCCDSweepConvexMesh.obj
 0002:00003378       __real@3f0ccccd            00000001801f7378     GuCCDSweepConvexMesh.obj
 0002:0000337c       __real@3f8ccccd            00000001801f737c     GuCCDSweepConvexMesh.obj
 0002:00003380       __real@b58637bd            00000001801f7380     GuCCDSweepConvexMesh.obj
 0002:000033b0       ??_7?$RelativeConvex@VCapsuleV@Gu@physx@@@Gu@physx@@6B@ 00000001801f73b0     GuCCDSweepPrimitives.obj
 0002:000033e0       ??_7?$RelativeConvex@VTriangleV@Gu@physx@@@Gu@physx@@6B@ 00000001801f73e0     GuCCDSweepPrimitives.obj
 0002:00003410       __real@3ba3d70a            00000001801f7410     GuCCDSweepPrimitives.obj
 0002:00003414       __real@501502f9            00000001801f7414     GuCCDSweepPrimitives.obj
 0002:00003440       ??_C@_0GN@NIOKGDKI@C?3?2Users?2Brandon?2CudaGame?2vendo@ 00000001801f7440     GuAdjacencies.obj
 0002:000034b0       ??_C@_0DA@FMEHLBKI@Adjacencies?3?3UpdateLink?3?5invali@ 00000001801f74b0     GuAdjacencies.obj
 0002:000034e0       ??_C@_0EA@CPHOACLK@Adjacencies?3?3CreateDatabase?3?5ca@ 00000001801f74e0     GuAdjacencies.obj
 0002:00003520       ??_C@_0GK@HNLKAPPP@C?3?2Users?2Brandon?2CudaGame?2vendo@ 00000001801f7520     GuEdgeList.obj
 0002:00003590       ??_C@_0CO@GBNJFPN@EdgeList?3?3CreateFacesToEdges?3?5N@ 00000001801f7590     GuEdgeList.obj
 0002:000035c0       ??_C@_0CO@EHJBBMNK@EdgeList?3?3ComputeActiveEdges?3?5N@ 00000001801f75c0     GuEdgeList.obj
 0002:000035f0       ??_C@_0DI@GBHLFOFP@ActiveEdges?3?3ComputeConvexEdges@ 00000001801f75f0     GuEdgeList.obj
 0002:00003628       ??_C@_0DM@JOGBLHDI@ActiveEdges?3?3ComputeConvexEdges@ 00000001801f7628     GuEdgeList.obj
 0002:00003670       ??_C@_0ED@FEMJKPEL@ActiveEdges?3?3ComputeConvexEdges@ 00000001801f7670     GuEdgeList.obj
 0002:000036c0       ??_C@_0EB@BFDPMFCD@ActiveEdges?3?3ComputeConvexEdges@ 00000001801f76c0     GuEdgeList.obj
 0002:00003704       __real@bf7fbe77            00000001801f7704     GuEdgeList.obj
 0002:00003708       ??_7Quantizer@Gu@physx@@6B@ 00000001801f7708     GuQuantizer.obj
 0002:00003730       ??_7QuantizerImpl@@6B@     00000001801f7730     GuQuantizer.obj
 0002:00003760       ??_C@_0GL@OEJCCAGA@C?3?2Users?2Brandon?2CudaGame?2vendo@ 00000001801f7760     GuQuantizer.obj
 0002:000037cc       __real@3f0020c5            00000001801f77cc     GuQuantizer.obj
 0002:000037d0       __real@3f8020c5            00000001801f77d0     GuQuantizer.obj
 0002:000037e0       ??_C@_0GN@PNLBEOPM@C?3?2Users?2Brandon?2CudaGame?2vendo@ 00000001801f77e0     GuMeshCleaner.obj
 0002:00003850       __real@40800000            00000001801f7850     GuMeshCleaner.obj
 0002:00003860       ??_C@_0GP@PPKCGPDN@C?3?2Users?2Brandon?2CudaGame?2vendo@ 00000001801f7860     GuVertexReducer.obj
 0002:000039d0       __real@3f7fbe77            00000001801f79d0     GuContactBoxBox.obj
 0002:00003a20       __real@3f7ff2e5            00000001801f7a20     GuContactCapsuleCapsule.obj
 0002:00003ab0       __real@358637be            00000001801f7ab0     GuContactCapsuleMesh.obj
 0002:00003ab4       __real@ba83126f            00000001801f7ab4     GuContactCapsuleMesh.obj
 0002:00003b10       ??_7ConvexMeshContactGenerationCallback@@6B@ 00000001801f7b10     GuContactConvexMesh.obj
 0002:00003b80       __real@2edbe6fe            00000001801f7b80     GuContactConvexCoreMesh.obj
 0002:00003b84       __real@3e0f5c29            00000001801f7b84     GuContactConvexCoreMesh.obj
 0002:00003b88       __real@3f7fff58            00000001801f7b88     GuContactConvexCoreMesh.obj
 0002:00003b8c       __real@b727c5ac            00000001801f7b8c     GuContactConvexCoreMesh.obj
 0002:00003b90       __real@bf7d70a4            00000001801f7b90     GuContactConvexCoreMesh.obj
 0002:00003c40       ??_C@_0FN@HFCMDALG@C?3?2Users?2Brandon?2CudaGame?2vendo@ 00000001801f7c40     GuContactPlaneMesh.obj
 0002:00003cc0       __real@3ec90fdb            00000001801f7cc0     GuContactPolygonPolygon.obj
 0002:00003cc4       __real@3f490fdb            00000001801f7cc4     GuContactPolygonPolygon.obj
 0002:00003cc8       __real@3f96cbe4            00000001801f7cc8     GuContactPolygonPolygon.obj
 0002:00003ccc       __real@3ffb53d2            00000001801f7ccc     GuContactPolygonPolygon.obj
 0002:00003cd0       __real@4016cbe4            00000001801f7cd0     GuContactPolygonPolygon.obj
 0002:00003cd4       __real@402feddf            00000001801f7cd4     GuContactPolygonPolygon.obj
 0002:00003ce0       __xmm@ff7fffffff7fffffff7fffffff7fffff 00000001801f7ce0     GuContactPolygonPolygon.obj
 0002:00003d10       __real@3b800000            00000001801f7d10     GuContactMeshMesh.obj
 0002:00003d14       __real@3ed64e4c            00000001801f7d14     GuContactMeshMesh.obj
 0002:00003d18       __real@3f12648a            00000001801f7d18     GuContactMeshMesh.obj
 0002:00003d1c       __real@3f349e9b            00000001801f7d1c     GuContactMeshMesh.obj
 0002:00003d20       __real@3f4ccccd            00000001801f7d20     GuContactMeshMesh.obj
 0002:00003d24       __real@3f59999a            00000001801f7d24     GuContactMeshMesh.obj
 0002:00003d28       __real@3f7fdf3b            00000001801f7d28     GuContactMeshMesh.obj
 0002:00003d90       ??_C@_0GP@KNCBALBJ@C?3?2Users?2Brandon?2CudaGame?2vendo@ 00000001801f7d90     GuBigConvexData.obj
 0002:00003e20       ??_C@_06EJKDJEDO@PxBase@   00000001801f7e20     GuConvexMesh.obj
 0002:00003e28       ??_C@_0N@CDGINLLF@PxConvexMesh@ 00000001801f7e28     GuConvexMesh.obj
 0002:00003e38       ??_7PxBase@physx@@6B@      00000001801f7e38     GuConvexMesh.obj
 0002:00003e60       ??_C@_0CE@IDAGNPDH@isKindOf?5called?5with?5invalid?5st@ 00000001801f7e60     GuConvexMesh.obj
 0002:00003e88       ??_C@_0N@OPPDBGAG@PxRefCounted@ 00000001801f7e88     GuConvexMesh.obj
 0002:00003ea0       ??_C@_0FP@PINCFLLP@C?3?2Users?2Brandon?2CudaGame?2vendo@ 00000001801f7ea0     GuConvexMesh.obj
 0002:00003f00       ??_7ConvexMesh@Gu@physx@@6B@ 00000001801f7f00     GuConvexMesh.obj
 0002:00003fa0       ??_C@_0GM@JCGKHCAE@C?3?2Users?2Brandon?2CudaGame?2vendo@ 00000001801f7fa0     GuConvexMesh.obj
 0002:00004010       ??_C@_0DM@NEJKOFIP@Loading?5convex?5mesh?5failed?3?5Dep@ 00000001801f8010     GuConvexMesh.obj
 0002:00004050       ??_C@_0DB@PAHEPIEL@PxConvexMesh?3?3release?3?5double?5d@ 00000001801f8050     GuConvexMesh.obj
 0002:00004090       ??_C@_0GE@OKBIFJFH@C?3?2Users?2Brandon?2CudaGame?2vendo@ 00000001801f8090     GuConvexMesh.obj
 0002:00004120       __xmm@000000000000000000000000ffffffff 00000001801f8120     GuConvexSupportTable.obj
 0002:00004130       __xmm@0000000000000000ffffffff00000000 00000001801f8130     GuConvexSupportTable.obj
 0002:00004140       __xmm@0000000000000000ffffffffffffffff 00000001801f8140     GuConvexSupportTable.obj
 0002:00004150       __xmm@00000000ffffffff0000000000000000 00000001801f8150     GuConvexSupportTable.obj
 0002:00004160       __xmm@00000000ffffffff00000000ffffffff 00000001801f8160     GuConvexSupportTable.obj
 0002:00004170       __xmm@00000000ffffffffffffffff00000000 00000001801f8170     GuConvexSupportTable.obj
 0002:00004200       __xmm@2b8cbccc2b8cbccc2b8cbccc2b8cbccc 00000001801f8200     GuDistancePointTriangle.obj
 0002:00004270       __real@2b8cbccc            00000001801f8270     GuDistanceSegmentTriangle.obj
 0002:00004280       __xmm@3f8000013f8000013f8000013f800001 00000001801f8280     GuDistanceSegmentTriangle.obj
 0002:00004290       __xmm@b4000000b4000000b4000000b4000000 00000001801f8290     GuDistanceSegmentTriangle.obj
 0002:000042c0       __real@26901d7d            00000001801f82c0     GuDistanceTriangleTriangle.obj
 0002:00004340       __xmm@38d1b71738d1b71738d1b71738d1b717 00000001801f8340     GuGJKSimplex.obj
 0002:00004370       ??_C@_0O@PBAKPCEC@PxHeightField@ 00000001801f8370     GuHeightField.obj
 0002:00004380       ??_C@_0GA@LBDEDCEN@C?3?2Users?2Brandon?2CudaGame?2vendo@ 00000001801f8380     GuHeightField.obj
 0002:000043e0       ??_7HeightField@Gu@physx@@6B@ 00000001801f83e0     GuHeightField.obj
 0002:00004498       ??_C@_0DC@BDMMBOKH@PxHeightField?3?3release?3?5double?5@ 00000001801f8498     GuHeightField.obj
 0002:000044d0       ??_C@_0GJ@COCNJOJM@C?3?2Users?2Brandon?2CudaGame?2vendo@ 00000001801f84d0     GuHeightField.obj
 0002:00004540       ??_C@_0CI@DMKEKGNK@Gu?3?3HeightField?3?3load?3?5PX_ALLOC@ 00000001801f8540     GuHeightField.obj
 0002:00004590       __real@3a03126f            00000001801f8590     GuHeightFieldUtil.obj
 0002:00004594       __real@3f19999a            00000001801f8594     GuHeightFieldUtil.obj
 0002:000045a0       __xmm@40000000000000000000000000000000 00000001801f85a0     GuHeightFieldUtil.obj
 0002:00004630       ??_7HeightFieldTraceSegmentReport@@6B@ 00000001801f8630     GuSweepsHF.obj
 0002:00004640       ??_7CapsuleTraceSegmentReport@@6B@ 00000001801f8640     GuSweepsHF.obj
 0002:00004650       ??_7ConvexTraceSegmentReport@@6B@ 00000001801f8650     GuSweepsHF.obj
 0002:00004660       ??_7BoxTraceSegmentReport@@6B@ 00000001801f8660     GuSweepsHF.obj
 0002:00004670       __real@aedbe6ff            00000001801f8670     GuSweepsHF.obj
 0002:000046a0       __real@3089705f            00000001801f86a0     GuIntersectionRayBox.obj
 0002:000046a4       __real@b4000000            00000001801f86a4     GuIntersectionRayBox.obj
 0002:000046b0       __xmm@000000003089705f3089705f3089705f 00000001801f86b0     GuIntersectionRayBox.obj
 0002:000046c0       __xmm@00000000bf800000bf800000bf800000 00000001801f86c0     GuIntersectionRayBox.obj
 0002:00004710       ??_7SourceMeshBase@Gu@physx@@6B@ 00000001801f8710     GuBV4.obj
 0002:00004738       ??_7SourceMesh@Gu@physx@@6B@ 00000001801f8738     GuBV4.obj
 0002:00004760       ??_7TetrahedronSourceMesh@Gu@physx@@6B@ 00000001801f8760     GuBV4.obj
 0002:00004790       ??_C@_0GD@PMJECIFK@C?3?2Users?2Brandon?2CudaGame?2vendo@ 00000001801f8790     GuBV4.obj
 0002:00004820       ??_C@_0GI@DNHEHIPL@C?3?2Users?2Brandon?2CudaGame?2vendo@ 00000001801f8820     GuBV4Build.obj
 0002:00004888       __real@38000100            00000001801f8888     GuBV4Build.obj
 0002:0000488c       __real@3e93cd3a            00000001801f888c     GuBV4Build.obj
 0002:00004890       __real@46fffe00            00000001801f8890     GuBV4Build.obj
 0002:00004894       __real@be93cd3a            00000001801f8894     GuBV4Build.obj
 0002:000048c0       __xmm@0000ffff0000ffff0000ffff0000ffff 00000001801f88c0     GuBV4_AABBSweep.obj
 0002:000048d0       __xmm@3089705f3089705f3089705f3089705f 00000001801f88d0     GuBV4_AABBSweep.obj
 0002:000048e0       __xmm@33d6bf9533d6bf9533d6bf9533d6bf95 00000001801f88e0     GuBV4_AABBSweep.obj
 0002:000048f0       __xmm@40000000400000004000000040000000 00000001801f88f0     GuBV4_AABBSweep.obj
 0002:00004980       __xmm@322bcc77322bcc77322bcc77322bcc77 00000001801f8980     GuBV4_MeshMeshOverlap.obj
 0002:000049f0       __real@4f7fffff            00000001801f89f0     GuBV4_SphereOverlap.obj
 0002:00004a40       __xmm@000000007f7fffff0000000000000000 00000001801f8a40     GuMidphaseBV4.obj
 0002:00004ab0       ??_C@_0FD@EHCCILIF@Adjacency?5information?5not?5creat@ 00000001801f8ab0     GuMeshQuery.obj
 0002:00004b10       ??_C@_0GJ@CNMFGGPH@C?3?2Users?2Brandon?2CudaGame?2vendo@ 00000001801f8b10     GuMeshQuery.obj
 0002:00004b80       ??_C@_0FL@BKNMAHIA@PxMeshQuery?3?3findOverlapTriangl@ 00000001801f8b80     GuMeshQuery.obj
 0002:00004bdc       __real@4cbebc20            00000001801f8bdc     GuMeshQuery.obj
 0002:00004c00       ??_7Callback@RTree@Gu@physx@@6B@ 00000001801f8c00     GuMidphaseRTree.obj
 0002:00004c18       ??_7?$RayRTreeCallback@$0A@$0A@@@6BCallbackRaycast@RTree@Gu@physx@@@ 00000001801f8c18     GuMidphaseRTree.obj
 0002:00004c18       ??_7?$RayRTreeCallback@$00$0A@@@6BCallbackRaycast@RTree@Gu@physx@@@ 00000001801f8c18     GuMidphaseRTree.obj
 0002:00004c28       ??_7?$RayRTreeCallback@$0A@$0A@@@6BCallback@RTree@Gu@physx@@@ 00000001801f8c28     GuMidphaseRTree.obj
 0002:00004c28       ??_7?$RayRTreeCallback@$00$0A@@@6BCallback@RTree@Gu@physx@@@ 00000001801f8c28     GuMidphaseRTree.obj
 0002:00004c40       ??_7RayMeshColliderCallback@@6B@ 00000001801f8c40     GuMidphaseRTree.obj
 0002:00004c50       ??_C@_0EN@DPPFLBLF@Point?9mesh?5distance?5query?5not?5s@ 00000001801f8c50     GuMidphaseRTree.obj
 0002:00004ca0       ??_C@_0GN@JMDCINNK@C?3?2Users?2Brandon?2CudaGame?2vendo@ 00000001801f8ca0     GuMidphaseRTree.obj
 0002:00004d10       ??_7?$RayRTreeCallback@$0A@$00@@6BCallbackRaycast@RTree@Gu@physx@@@ 00000001801f8d10     GuMidphaseRTree.obj
 0002:00004d20       ??_7?$RayRTreeCallback@$0A@$00@@6BCallback@RTree@Gu@physx@@@ 00000001801f8d20     GuMidphaseRTree.obj
 0002:00004d38       ??_7?$RayRTreeCallback@$00$00@@6BCallbackRaycast@RTree@Gu@physx@@@ 00000001801f8d38     GuMidphaseRTree.obj
 0002:00004d48       ??_7?$RayRTreeCallback@$00$00@@6BCallback@RTree@Gu@physx@@@ 00000001801f8d48     GuMidphaseRTree.obj
 0002:00004dc0       __xmm@7f7fffff000000000000000000000000 00000001801f8dc0     GuMidphaseRTree.obj
 0002:00004e30       ??_7PxReportCallbackBase@physx@@6B@ 00000001801f8e30     GuOverlapTestsMesh.obj
 0002:00004e60       ??_C@_0EP@CEFGCJKJ@PxGeometryQuery?3?3overlap?$CI?$CJ?3?5onl@ 00000001801f8e60     GuOverlapTestsMesh.obj
 0002:00004eb0       ??_C@_0HA@PMLOOGBP@C?3?2Users?2Brandon?2CudaGame?2vendo@ 00000001801f8eb0     GuOverlapTestsMesh.obj
 0002:00004f30       ?MN@RTreePage@Gu@physx@@2MB 00000001801f8f30     GuRTree.obj
 0002:00004f34       ?MX@RTreePage@Gu@physx@@2MB 00000001801f8f34     GuRTree.obj
 0002:00004f50       ??_C@_0GF@LNFPNJFH@C?3?2Users?2Brandon?2CudaGame?2vendo@ 00000001801f8f50     GuRTree.obj
 0002:00005030       ??_7SweepShapeMeshHitCallback@Gu@physx@@6B@ 00000001801f9030     GuSweepsMesh.obj
 0002:00005040       ??_7SweepCapsuleMeshHitCallback@Gu@physx@@6B@ 00000001801f9040     GuSweepsMesh.obj
 0002:00005050       ??_7SweepBoxMeshHitCallback@Gu@physx@@6B@ 00000001801f9050     GuSweepsMesh.obj
 0002:00005060       ??_7SweepConvexMeshHitCallback@Gu@physx@@6B@ 00000001801f9060     GuSweepsMesh.obj
 0002:00005090       ??_C@_0P@GGNFNHKF@PxTriangleMesh@ 00000001801f9090     GuTriangleMesh.obj
 0002:000050a0       ??_C@_0GB@OPIEJLLP@C?3?2Users?2Brandon?2CudaGame?2vendo@ 00000001801f90a0     GuTriangleMesh.obj
 0002:00005108       ??_7TriangleMesh@Gu@physx@@6B@ 00000001801f9108     GuTriangleMesh.obj
 0002:000051e0       ??_C@_0DD@LOOPMCGG@PxTriangleMesh?3?3release?3?5double@ 00000001801f91e0     GuTriangleMesh.obj
 0002:00005220       ??_C@_0FH@PMPAJDGI@PxTriangleMesh?3?3getVerticesForM@ 00000001801f9220     GuTriangleMesh.obj
 0002:00005280       ??_C@_0GM@KMDKNNOF@C?3?2Users?2Brandon?2CudaGame?2vendo@ 00000001801f9280     GuTriangleMesh.obj
 0002:000052f0       ??_C@_0EF@GMNFLDH@PxTriangleMesh?3?3refitBVH?$CI?$CJ?5is?5n@ 00000001801f92f0     GuTriangleMesh.obj
 0002:00005340       __xmm@38383838383838383838383838383838 00000001801f9340     GuTriangleMesh.obj
 0002:00005370       ??_C@_0BE@CNJKIINO@PxBVH34TriangleMesh@ 00000001801f9370     GuTriangleMeshBV4.obj
 0002:00005388       ??_7BV4TriangleMesh@Gu@physx@@6B@ 00000001801f9388     GuTriangleMeshBV4.obj
 0002:00005460       ??_C@_0EF@JLFNNPLP@BVH34?5trees?3?5refit?5operation?5on@ 00000001801f9460     GuTriangleMeshBV4.obj
 0002:000054b0       ??_C@_0GP@GBBLDPJN@C?3?2Users?2Brandon?2CudaGame?2vendo@ 00000001801f94b0     GuTriangleMeshBV4.obj
 0002:00005520       __real@3951b717            00000001801f9520     GuTriangleMeshBV4.obj
 0002:00005550       ??_C@_0BE@EIFHCCBO@PxBVH33TriangleMesh@ 00000001801f9550     GuTriangleMeshRTree.obj
 0002:00005568       ??_7RTreeTriangleMesh@Gu@physx@@6B@ 00000001801f9568     GuTriangleMeshRTree.obj
 0002:00005640       ??_7?$RefitCallback@G@physx@@6B@ 00000001801f9640     GuTriangleMeshRTree.obj
 0002:00005650       ??_7?$RefitCallback@I@physx@@6B@ 00000001801f9650     GuTriangleMeshRTree.obj
 0002:00005680       ??_C@_0GE@PHABMNND@C?3?2Users?2Brandon?2CudaGame?2vendo@ 00000001801f9680     GuBV32.obj
 0002:00005710       ??_C@_0GJ@HIAPLIMC@C?3?2Users?2Brandon?2CudaGame?2vendo@ 00000001801f9710     GuBV32Build.obj
 0002:000057a0       ??_C@_0BC@FDAIDHBP@PxTetrahedronMesh@ 00000001801f97a0     GuTetrahedronMesh.obj
 0002:000057c0       ??_C@_0GE@HDDHCNAA@C?3?2Users?2Brandon?2CudaGame?2vendo@ 00000001801f97c0     GuTetrahedronMesh.obj
 0002:00005828       ??_C@_0BK@EPBIEMIB@PxDeformableVolumeAuxData@ 00000001801f9828     GuTetrahedronMesh.obj
 0002:00005848       ??_C@_0BH@OHONILPI@PxDeformableVolumeMesh@ 00000001801f9848     GuTetrahedronMesh.obj
 0002:00005860       ??_7DeformableVolumeAuxData@Gu@physx@@6B@ 00000001801f9860     GuTetrahedronMesh.obj
 0002:000058a8       ??_7TetrahedronMesh@Gu@physx@@6B@ 00000001801f98a8     GuTetrahedronMesh.obj
 0002:00005920       ??_7BVTetrahedronMesh@Gu@physx@@6B@ 00000001801f9920     GuTetrahedronMesh.obj
 0002:00005998       ??_7DeformableVolumeMesh@Gu@physx@@6B@ 00000001801f9998     GuTetrahedronMesh.obj
 0002:00005a18       ??_C@_0DG@JJNMDPMD@PxTetrahedronMesh?3?3release?3?5dou@ 00000001801f9a18     GuTetrahedronMesh.obj
 0002:00005a50       ??_C@_0DL@IHNCIOFH@PxDeformableVolumeMesh?3?3release@ 00000001801f9a50     GuTetrahedronMesh.obj
 0002:00005a90       ??_C@_0GP@IDFINFAJ@C?3?2Users?2Brandon?2CudaGame?2vendo@ 00000001801f9a90     GuTetrahedronMesh.obj
 0002:00005b40       __xmm@00000000358637bd358637bd358637bd 00000001801f9b40     GuPCMContactBoxBox.obj
 0002:00005b50       __xmm@3f4ccccd3f4ccccd3f4ccccd3f4ccccd 00000001801f9b50     GuPCMContactBoxBox.obj
 0002:00005b60       __xmm@3f8003473f8003473f8003473f800347 00000001801f9b60     GuPCMContactBoxBox.obj
 0002:00005b70       __xmm@ffffffff00000000ffffffffffffffff 00000001801f9b70     GuPCMContactBoxBox.obj
 0002:00005ba0       ??_7?$LocalConvex@VConvexHullNoScaleV@Gu@physx@@@Gu@physx@@6B@ 00000001801f9ba0     GuPCMContactBoxConvex.obj
 0002:00005bd0       __xmm@3f3504f33f3504f33f3504f33f3504f3 00000001801f9bd0     GuPCMContactBoxConvex.obj
 0002:00005c20       __xmm@ffffffffffffffffffffffff00000000 00000001801f9c20     GuPCMContactCapsuleCapsule.obj
 0002:00005c50       __xmm@3fa000003fa000003fa000003fa00000 00000001801f9c50     GuPCMContactCapsuleConvex.obj
 0002:00005c80       ??_7PCMCapsuleVsHeightfieldContactGenerationCallback@@6B@ 00000001801f9c80     GuPCMContactCapsuleHeightField.obj
 0002:00005c90       __real@3f7f3b64            00000001801f9c90     GuPCMContactCapsuleHeightField.obj
 0002:00005ce0       __xmm@3f7ff9723f7ff9723f7ff9723f7ff972 00000001801f9ce0     GuPCMContactCapsuleMesh.obj
 0002:00005cf0       __xmm@3f7fffef3f7fffef3f7fffef3f7fffef 00000001801f9cf0     GuPCMContactCapsuleMesh.obj
 0002:00005d00       __xmm@60ad78ec60ad78ec60ad78ec60ad78ec 00000001801f9d00     GuPCMContactCapsuleMesh.obj
 0002:00005d30       ??_7?$SupportLocalImpl@VTriangleV@Gu@physx@@@Gu@physx@@6B@ 00000001801f9d30     GuPCMContactConvexCommon.obj
 0002:00005d50       __xmm@3cf5c2803cf5c2803cf5c2803cf5c280 00000001801f9d50     GuPCMContactConvexCommon.obj
 0002:00005d60       __xmm@3f7851ec3f7851ec3f7851ec3f7851ec 00000001801f9d60     GuPCMContactConvexCommon.obj
 0002:00005d90       ??_7?$RelativeConvex@VConvexHullNoScaleV@Gu@physx@@@Gu@physx@@6B@ 00000001801f9d90     GuPCMContactConvexConvex.obj
 0002:00005df0       __xmm@3f19999a3f19999a3f19999a3f19999a 00000001801f9df0     GuPCMContactConvexHeightField.obj
 0002:00005e60       __xmm@3f34fdf43f34fdf43f34fdf43f34fdf4 00000001801f9e60     GuPCMContactGenBoxConvex.obj
 0002:00005e90       __xmm@3f80a3d73f80a3d73f80a3d73f80a3d7 00000001801f9e90     GuPCMContactGenSphereCapsule.obj
 0002:00005ea0       __xmm@bba3d70abba3d70abba3d70abba3d70a 00000001801f9ea0     GuPCMContactGenSphereCapsule.obj
 0002:00005ed0       __xmm@3f7ffd613f7ffd613f7ffd613f7ffd61 00000001801f9ed0     GuPCMContactPlaneBox.obj
 0002:00005f00       __real@3b23d70b            00000001801f9f00     GuPCMContactPlaneCapsule.obj
 0002:00005f10       __xmm@3ca3d70a3ca3d70a3ca3d70a3ca3d70a 00000001801f9f10     GuPCMContactPlaneCapsule.obj
 0002:00005f40       __xmm@3a03126f3a03126f3a03126f3a03126f 00000001801f9f40     GuPCMContactPlaneConvex.obj
 0002:00006060       __xmm@3727c5ac3727c5ac3727c5ac3727c5ac 00000001801fa060     GuPCMContactSphereSphere.obj
 0002:00006090       __xmm@3f7f06f73f7f06f73f7f06f73f7f06f7 00000001801fa090     GuPCMContactCustomGeometry.obj
 0002:000060b0       ?gPCMBoxPolygonData@Gu@physx@@3QBEB 00000001801fa0b0     GuPCMShapeConvex.obj
 0002:00006110       ?invalidateThresholds@Gu@physx@@3QBMB 00000001801fa110     GuPersistentContactManifold.obj
 0002:00006128       ?invalidateQuatThresholds@Gu@physx@@3QBMB 00000001801fa128     GuPersistentContactManifold.obj
 0002:00006140       ?invalidateThresholds2@Gu@physx@@3QBMB 00000001801fa140     GuPersistentContactManifold.obj
 0002:00006150       ?invalidateQuatThresholds2@Gu@physx@@3QBMB 00000001801fa150     GuPersistentContactManifold.obj
 0002:00006170       __xmm@00000000340000003400000034000000 00000001801fa170     GuPersistentContactManifold.obj
 0002:00006180       __xmm@000000003f8000003f80000000000000 00000001801fa180     GuPersistentContactManifold.obj
 0002:00006190       __xmm@00000000bf8000003f80000000000000 00000001801fa190     GuPersistentContactManifold.obj
 0002:000061a0       __xmm@ffffffffffffffff00000000ffffffff 00000001801fa1a0     GuPersistentContactManifold.obj
 0002:000061d0       __xmm@c1200000c1200000c1200000c1200000 00000001801fa1d0     GuPCMContactGenUtil.obj
 0002:00006320       ??_C@_0CH@DHJGKCPD@Gu?3?3computeBounds?3?5Unknown?5shap@ 00000001801fa320     GuBounds.obj
 0002:00006350       ??_C@_0GB@CCJMDIPD@C?3?2Users?2Brandon?2CudaGame?2vendo@ 00000001801fa350     GuBounds.obj
 0002:000063b4       __real@34800000            00000001801fa3b4     GuBounds.obj
 0002:000063b8       __real@3f7fffef            00000001801fa3b8     GuBounds.obj
 0002:000063c0       __xmm@3f800000800000008000000080000000 00000001801fa3c0     GuBounds.obj
 0002:000063d0       __xmm@3f8147ae3f8147ae3f8147ae3f8147ae 00000001801fa3d0     GuBounds.obj
 0002:00006400       ??_C@_0GD@MDOGGLDK@C?3?2Users?2Brandon?2CudaGame?2vendo@ 00000001801fa400     GuAABBTree.obj
 0002:00006470       __xmm@5a60b17f5a60b17f5a60b17f5a60b17f 00000001801fa470     GuAABBTree.obj
 0002:00006480       __xmm@da60b17fda60b17fda60b17fda60b17f 00000001801fa480     GuAABBTree.obj
 0002:000064f0       ??_C@_0GO@BAAHHCIJ@C?3?2Users?2Brandon?2CudaGame?2vendo@ 00000001801fa4f0     GuIncrementalAABBTree.obj
 0002:00006560       ??_C@_0FL@PGDJOEJO@C?3?2Users?2Brandon?2CudaGame?2vendo@ 00000001801fa560     GuIncrementalAABBTree.obj
 0002:000065c0       ??_C@_0FO@KACGMPIC@C?3?2Users?2Brandon?2CudaGame?2vendo@ 00000001801fa5c0     GuSAH.obj
 0002:00006640       ??_7PxBVH@physx@@6B@       00000001801fa640     GuBVH.obj
 0002:000066b8       ??_C@_05OKJNPKBM@PxBVH@    00000001801fa6b8     GuBVH.obj
 0002:000066c0       ??_C@_0FI@BIOPKGFC@C?3?2Users?2Brandon?2CudaGame?2vendo@ 00000001801fa6c0     GuBVH.obj
 0002:00006718       ??_7RefCountable@Cm@physx@@6B@ 00000001801fa718     GuBVH.obj
 0002:00006728       ??_7BVH@Gu@physx@@6BPxBVH@2@@ 00000001801fa728     GuBVH.obj
 0002:000067a0       ??_7BVH@Gu@physx@@6BRefCountable@Cm@2@@ 00000001801fa7a0     GuBVH.obj
 0002:000067b0       ??_C@_0FO@LCEOFMHH@C?3?2Users?2Brandon?2CudaGame?2vendo@ 00000001801fa7b0     GuBVH.obj
 0002:00006810       ??_C@_0CK@HAIOEINI@PxBVH?3?3release?3?5double?5deletion@ 00000001801fa810     GuBVH.obj
 0002:00006860       ??_C@_0HE@PEPFCGOJ@C?3?2Users?2Brandon?2CudaGame?2vendo@ 00000001801fa860     GuIncrementalAABBPrunerCore.obj
 0002:000068d4       __real@3f80a3d7            00000001801fa8d4     GuIncrementalAABBPrunerCore.obj
 0002:00006900       ??_7BasePruner@Gu@physx@@6B@ 00000001801fa900     GuIncrementalAABBPruner.obj
 0002:00006918       ??_7IncrementalAABBPruner@Gu@physx@@6B@ 00000001801fa918     GuIncrementalAABBPruner.obj
 0002:000069a0       ??_C@_0HA@CFPOGGHA@C?3?2Users?2Brandon?2CudaGame?2vendo@ 00000001801fa9a0     GuIncrementalAABBPruner.obj
 0002:00006a30       ??_C@_0GG@FJBCILDJ@C?3?2Users?2Brandon?2CudaGame?2vendo@ 00000001801faa30     GuPruningPool.obj
 0002:00006ae0       ??_7BucketPruner@Gu@physx@@6B@ 00000001801faae0     GuBucketPruner.obj
 0002:00006b70       ??_C@_0GH@GDPPCHNJ@C?3?2Users?2Brandon?2CudaGame?2vendo@ 00000001801fab70     GuBucketPruner.obj
 0002:00006be0       __xmm@000000007e7fffff7e7fffff7e7fffff 00000001801fabe0     GuBucketPruner.obj
 0002:00006bf0       __xmm@00000000fe7ffffffe7ffffffe7fffff 00000001801fabf0     GuBucketPruner.obj
 0002:00006c00       __xmm@3f13cd3a3f13cd3a3f13cd3a3f13cd3a 00000001801fac00     GuBucketPruner.obj
 0002:00006c10       __xmm@bf13cd3abf13cd3abf13cd3a3f13cd3a 00000001801fac10     GuBucketPruner.obj
 0002:00006c20       ?mIndices@MaverickNode@Gu@physx@@2QBIB 00000001801fac20     GuMaverickNode.obj
 0002:00006c80       ??_C@_0GP@NHBCBGOE@C?3?2Users?2Brandon?2CudaGame?2vendo@ 00000001801fac80     GuExtendedBucketPruner.obj
 0002:00006d10       ??_7CompanionPruner@Gu@physx@@6B@ 00000001801fad10     GuSecondaryPruner.obj
 0002:00006d90       ??_7CompanionPrunerBucket@@6B@ 00000001801fad90     GuSecondaryPruner.obj
 0002:00006e10       ??_7CompanionPrunerIncremental@@6B@ 00000001801fae10     GuSecondaryPruner.obj
 0002:00006e90       ??_7CompanionPrunerAABBTree@@6B@ 00000001801fae90     GuSecondaryPruner.obj
 0002:00006f10       ??_C@_0GK@LEOKHKFM@C?3?2Users?2Brandon?2CudaGame?2vendo@ 00000001801faf10     GuSecondaryPruner.obj
 0002:00006fa0       ??_7AABBPruner@Gu@physx@@6B@ 00000001801fafa0     GuAABBPruner.obj
 0002:00007040       ??_C@_0LA@IHBEIKND@SceneQuery?5static?5AABB?5Tree?5reb@ 00000001801fb040     GuAABBPruner.obj
 0002:000070f0       ??_C@_0GF@IOHNOACK@C?3?2Users?2Brandon?2CudaGame?2vendo@ 00000001801fb0f0     GuAABBPruner.obj
 0002:00007160       ??_C@_0GI@DPMDCCCI@C?3?2Users?2Brandon?2CudaGame?2vendo@ 00000001801fb160     GuActorShapeMap.obj
 0002:000071f0       ??_C@_0BF@DNABLJAF@Invalid?5pruner?5index@ 00000001801fb1f0     GuQuerySystem.obj
 0002:00007210       ??_C@_0GG@HHEHDLD@C?3?2Users?2Brandon?2CudaGame?2vendo@ 00000001801fb210     GuQuerySystem.obj
 0002:000072d0       ??_C@_0GC@EBNOCEHF@C?3?2Users?2Brandon?2CudaGame?2vendo@ 00000001801fb2d0     GuFactory.obj
 0002:00007340       ?reductionFactors@SubSortQuick@physx@@2QBMB 00000001801fb340     GuRTreeCooking.obj
 0002:00007350       ?stopAtTrisPerLeaf1@SubSortQuick@physx@@2QBIB 00000001801fb350     GuRTreeCooking.obj
 0002:00007420       ??_C@_0GP@DBMGFMBB@C?3?2Users?2Brandon?2CudaGame?2vendo@ 00000001801fb420     GuRTreeCooking.obj
 0002:00007490       __real@41100000            00000001801fb490     GuRTreeCooking.obj
 0002:00007494       __real@41700000            00000001801fb494     GuRTreeCooking.obj
 0002:00007498       __real@42200000            00000001801fb498     GuRTreeCooking.obj
 0002:000074a0       __xmm@00000004000000030000000200000001 00000001801fb4a0     GuRTreeCooking.obj
 0002:000074d0       ??_C@_0GN@FKEDPEKK@C?3?2Users?2Brandon?2CudaGame?2vendo@ 00000001801fb4d0     GuCookingBVH.obj
 0002:00007540       ??_C@_0DL@JHPKHGFA@Cooking?3?3cookBVH?3?5user?9provided@ 00000001801fb540     GuCookingBVH.obj
 0002:00007580       ??_C@_0DN@PLNPGFEB@Cooking?3?3createBVH?3?5user?9provid@ 00000001801fb580     GuCookingBVH.obj
 0002:000075c0       ??_C@_0EL@JCJBAPHL@Cooking?3?3cookHeightField?3?5user?9@ 00000001801fb5c0     GuCookingHF.obj
 0002:00007610       ??_C@_0GM@NAOEICDD@C?3?2Users?2Brandon?2CudaGame?2vendo@ 00000001801fb610     GuCookingHF.obj
 0002:00007680       ??_C@_0EN@FCEPCAFC@Cooking?3?3createHeightField?3?5use@ 00000001801fb680     GuCookingHF.obj
 0002:000076d0       ??_C@_0EK@EKAIJEBL@Cooking?3?3cookConvexMesh?3?5user?9p@ 00000001801fb6d0     GuCookingConvexMesh.obj
 0002:00007720       ??_C@_0FA@GFFGAPML@Cooking?3?3cookConvexMesh?3?5provid@ 00000001801fb720     GuCookingConvexMesh.obj
 0002:00007770       ??_C@_0EP@PKDCPNNO@Cooking?3?3cookConvexMesh?3?5provid@ 00000001801fb770     GuCookingConvexMesh.obj
 0002:000077c0       ??_C@_0EO@LKFMMDE@Cooking?3?3cookConvexMesh?3?5user?9p@ 00000001801fb7c0     GuCookingConvexMesh.obj
 0002:00007810       ??_C@_0EL@KJEPJALG@Cooking?3?3cookConvexMesh?3?5user?9p@ 00000001801fb810     GuCookingConvexMesh.obj
 0002:00007860       ??_C@_0FM@LHMEBKMM@Cooking?3?3cookConvexMesh?3?5GPU?9co@ 00000001801fb860     GuCookingConvexMesh.obj
 0002:000078c0       ??_C@_0FJ@FHCFFABE@Cooking?3?3cookConvexMesh?3?5GPU?9co@ 00000001801fb8c0     GuCookingConvexMesh.obj
 0002:00007920       ??_C@_0LM@CHONPBFM@Cooking?3?3cookConvexMesh?3?5GPU?9co@ 00000001801fb920     GuCookingConvexMesh.obj
 0002:000079e0       ??_C@_0HE@OKDAFOPE@C?3?2Users?2Brandon?2CudaGame?2vendo@ 00000001801fb9e0     GuCookingConvexMesh.obj
 0002:00007a80       ??_7TriangleMeshBuilder@physx@@6B@ 00000001801fba80     GuCookingTriangleMesh.obj
 0002:00007aa8       ??_7RTreeTriangleMeshBuilder@physx@@6B@ 00000001801fbaa8     GuCookingTriangleMesh.obj
 0002:00007ad0       ??_7BV4TriangleMeshBuilder@physx@@6B@ 00000001801fbad0     GuCookingTriangleMesh.obj
 0002:00007b00       ??_C@_0HG@IJPGMBFM@C?3?2Users?2Brandon?2CudaGame?2vendo@ 00000001801fbb00     GuCookingTriangleMesh.obj
 0002:00007b80       ??_C@_0EM@DBPINPE@TriangleMeshBuilder?3?3cleanMesh?3@ 00000001801fbb80     GuCookingTriangleMesh.obj
 0002:00007bd0       ??_C@_0EF@MLNDPEDJ@TriangleMeshBuilder?3?3cleanMesh?3@ 00000001801fbbd0     GuCookingTriangleMesh.obj
 0002:00007c20       ??_C@_0FJ@HHJLKGDF@TriangleMesh?3?5triangles?5are?5too@ 00000001801fbc20     GuCookingTriangleMesh.obj
 0002:00007c80       ??_C@_0CN@KGPHHHLK@TriangleMesh?3?5mesh?5is?5too?5big?5f@ 00000001801fbc80     GuCookingTriangleMesh.obj
 0002:00007cb0       ??_C@_0DD@CMJGDCNN@TriangleMesh?3?3loadFromDesc?3?5des@ 00000001801fbcb0     GuCookingTriangleMesh.obj
 0002:00007cf0       ??_C@_0ED@ILJJNHIP@TriangleMesh?3?3loadFromDesc?3?5mPa@ 00000001801fbcf0     GuCookingTriangleMesh.obj
 0002:00007d40       ??_C@_0EP@FHJBNFFH@Requesting?5SDF?5for?5mesh?5without@ 00000001801fbd40     GuCookingTriangleMesh.obj
 0002:00007d90       ??_C@_0BK@JIDHMMCE@BV4?5tree?5failed?5to?5build?4@ 00000001801fbd90     GuCookingTriangleMesh.obj
 0002:00007db0       ??_C@_0BL@DHNECNBE@BV32?5tree?5failed?5to?5build?4@ 00000001801fbdb0     GuCookingTriangleMesh.obj
 0002:00007dd0       ??_7RTreeCookerRemap@@6B@  00000001801fbdd0     GuCookingTriangleMesh.obj
 0002:00007de0       ??_C@_0FC@PJIHAFK@Cooking?3?3validateTriangleMesh?3?5@ 00000001801fbde0     GuCookingTriangleMesh.obj
 0002:00007ec0       ??_7PxCollisionTetrahedronMeshData@physx@@6B@ 00000001801fbec0     GuCookingTetrahedronMesh.obj
 0002:00007ef0       ??_7PxSimulationTetrahedronMeshData@physx@@6B@ 00000001801fbef0     GuCookingTetrahedronMesh.obj
 0002:00007f10       ??_7CollisionTetrahedronMeshData@Gu@physx@@6B@ 00000001801fbf10     GuCookingTetrahedronMesh.obj
 0002:00007f40       ??_7SimulationTetrahedronMeshData@Gu@physx@@6B@ 00000001801fbf40     GuCookingTetrahedronMesh.obj
 0002:00007f60       ??_C@_0HJ@DNHCMDHF@C?3?2Users?2Brandon?2CudaGame?2vendo@ 00000001801fbf60     GuCookingTetrahedronMesh.obj
 0002:00007fe0       ??_7?$LocalConvex@VTetrahedronV@Gu@physx@@@Gu@physx@@6B@ 00000001801fbfe0     GuCookingTetrahedronMesh.obj
 0002:00008010       ??_C@_0CD@OJGNHLOE@BV4_AABBTree?5tree?5failed?5to?5bui@ 00000001801fc010     GuCookingTetrahedronMesh.obj
 0002:00008038       ??_C@_0DG@NCNIEEHB@TetrahedronMesh?3?3loadFromDesc?3?5@ 00000001801fc038     GuCookingTetrahedronMesh.obj
 0002:00008070       ??_C@_0EG@CJIFGLMC@TetrahedronMesh?3?3loadFromDesc?3?5@ 00000001801fc070     GuCookingTetrahedronMesh.obj
 0002:000080b8       __real@be2aaaab            00000001801fc0b8     GuCookingTetrahedronMesh.obj
 0002:000080c0       __xmm@00000003000000030000000300000003 00000001801fc0c0     GuCookingTetrahedronMesh.obj
 0002:000080f0       __real@3bc79ca10c924223    00000001801fc0f0     GuCookingVolumeIntegration.obj
 0002:000080f8       __real@3f91111111111111    00000001801fc0f8     GuCookingVolumeIntegration.obj
 0002:00008100       __real@3fa5555555555555    00000001801fc100     GuCookingVolumeIntegration.obj
 0002:00008108       __real@3fa999999999999a    00000001801fc108     GuCookingVolumeIntegration.obj
 0002:00008110       __real@3fb5555555555555    00000001801fc110     GuCookingVolumeIntegration.obj
 0002:00008118       __real@3fc5555555555555    00000001801fc118     GuCookingVolumeIntegration.obj
 0002:00008120       __real@3fd5555555555555    00000001801fc120     GuCookingVolumeIntegration.obj
 0002:00008128       __real@3fe0000000000000    00000001801fc128     GuCookingVolumeIntegration.obj
 0002:00008130       __real@3ff0000000000000    00000001801fc130     GuCookingVolumeIntegration.obj
 0002:00008138       __real@4008000000000000    00000001801fc138     GuCookingVolumeIntegration.obj
 0002:00008140       __real@4010000000000000    00000001801fc140     GuCookingVolumeIntegration.obj
 0002:00008148       __real@bf91111111111111    00000001801fc148     GuCookingVolumeIntegration.obj
 0002:00008150       __real@bfa999999999999a    00000001801fc150     GuCookingVolumeIntegration.obj
 0002:00008158       __real@bfb5555555555555    00000001801fc158     GuCookingVolumeIntegration.obj
 0002:00008160       __real@bfc5555555555555    00000001801fc160     GuCookingVolumeIntegration.obj
 0002:00008170       __xmm@3c0888893c0888893c0888893c088889 00000001801fc170     GuCookingVolumeIntegration.obj
 0002:00008180       __xmm@3c8888893c8888893c8888893c888889 00000001801fc180     GuCookingVolumeIntegration.obj
 0002:00008190       __xmm@3d2aaaab3d2aaaab3d2aaaab3d2aaaab 00000001801fc190     GuCookingVolumeIntegration.obj
 0002:000081a0       __xmm@3e2aaaab3e2aaaab3e2aaaab3e2aaaab 00000001801fc1a0     GuCookingVolumeIntegration.obj
 0002:000081b0       __xmm@3f811111111111113f81111111111111 00000001801fc1b0     GuCookingVolumeIntegration.obj
 0002:000081c0       __xmm@3f811111111111113f91111111111111 00000001801fc1c0     GuCookingVolumeIntegration.obj
 0002:000081d0       __xmm@3f911111111111113f91111111111111 00000001801fc1d0     GuCookingVolumeIntegration.obj
 0002:000081e0       __xmm@3fa55555555555553fa5555555555555 00000001801fc1e0     GuCookingVolumeIntegration.obj
 0002:000081f0       __xmm@3fa55555555555553fc5555555555555 00000001801fc1f0     GuCookingVolumeIntegration.obj
 0002:00008200       __xmm@7fffffffffffffff7fffffffffffffff 00000001801fc200     GuCookingVolumeIntegration.obj
 0002:00008210       __xmm@80000000000000008000000000000000 00000001801fc210     GuCookingVolumeIntegration.obj
 0002:00008220       ??_7ConvexHullLib@physx@@6B@ 00000001801fc220     GuCookingQuickHullConvexHullLib.obj
 0002:00008240       ??_7QuickHullConvexHullLib@physx@@6B@ 00000001801fc240     GuCookingQuickHullConvexHullLib.obj
 0002:00008260       ??_C@_0IA@JFHEOKIJ@C?3?2Users?2Brandon?2CudaGame?2vendo@ 00000001801fc260     GuCookingQuickHullConvexHullLib.obj
 0002:000082e0       ??_C@_0GA@EPPAEJPM@QuickHullConvexHullLib?3?3findSim@ 00000001801fc2e0     GuCookingQuickHullConvexHullLib.obj
 0002:00008340       ??_C@_0FB@NEBIJMML@QuickHullConvexHullLib?3?3findSim@ 00000001801fc340     GuCookingQuickHullConvexHullLib.obj
 0002:000083a0       ??_C@_0FB@CLLCBEMM@QuickHullConvexHullLib?3?3findSim@ 00000001801fc3a0     GuCookingQuickHullConvexHullLib.obj
 0002:000083f4       __real@34c00000            00000001801fc3f4     GuCookingQuickHullConvexHullLib.obj
 0002:000083f8       ??_C@_0DP@PJBJBEGF@Meshmerizer?3?3extractHullPolygon@ 00000001801fc3f8     GuCookingConvexPolygonsBuilder.obj
 0002:00008440       ??_C@_0HP@EELNCAAN@C?3?2Users?2Brandon?2CudaGame?2vendo@ 00000001801fc440     GuCookingConvexPolygonsBuilder.obj
 0002:000084c0       ??_C@_0DL@IAFKOCCK@ConvexHullBuilder?3?5convex?5hull?5@ 00000001801fc4c0     GuCookingConvexPolygonsBuilder.obj
 0002:00008500       ??_C@_0GF@OJLJHAMH@ConvexHullBuilder?3?3CreateTriang@ 00000001801fc500     GuCookingConvexPolygonsBuilder.obj
 0002:00008590       ??_C@_0DF@LLFJIJGM@Gu?3?3ConvexMesh?3?3loadFromDesc?3?5d@ 00000001801fc590     GuCookingConvexMeshBuilder.obj
 0002:000085d0       ??_C@_0HK@JOGKIEAA@Gu?3?3ConvexMesh?3?5Mesh?5has?5a?5nega@ 00000001801fc5d0     GuCookingConvexMeshBuilder.obj
 0002:00008650       ??_C@_0DH@NJPPHFFD@Gu?3?3ConvexMesh?3?5Error?5computing@ 00000001801fc650     GuCookingConvexMeshBuilder.obj
 0002:00008688       ??_C@_0DJ@LJDLGLDJ@Gu?3?3ConvexMesh?3?3loadConvexHull?3@ 00000001801fc688     GuCookingConvexMeshBuilder.obj
 0002:000086d0       ??_C@_0HJ@KJANPPOE@ConvexMeshBuilder?3?3computeHullP@ 00000001801fc6d0     GuCookingConvexMeshBuilder.obj
 0002:00008750       ??_C@_0HL@KDGLODDG@C?3?2Users?2Brandon?2CudaGame?2vendo@ 00000001801fc750     GuCookingConvexMeshBuilder.obj
 0002:000087cc       ??_C@_06KDGGGLIJ@PxVec3@   00000001801fc7cc     GuCookingConvexMeshBuilder.obj
 0002:000087d4       ??_C@_05LMJPANIN@PxU32@    00000001801fc7d4     GuCookingConvexMeshBuilder.obj
 0002:000087e0       ??_C@_0O@JMAGMMGG@PxHullPolygon@ 00000001801fc7e0     GuCookingConvexMeshBuilder.obj
 0002:000087f0       __real@3f13cd3a            00000001801fc7f0     GuCookingConvexMeshBuilder.obj
 0002:00008820       ??_C@_0HJ@EMPFJDGO@C?3?2Users?2Brandon?2CudaGame?2vendo@ 00000001801fc820     GuCookingConvexHullUtils.obj
 0002:0000889c       __real@3e20d97c            00000001801fc89c     GuCookingConvexHullUtils.obj
 0002:000088a0       ??_C@_0HH@KAOOMANL@C?3?2Users?2Brandon?2CudaGame?2vendo@ 00000001801fc8a0     GuCookingConvexHullLib.obj
 0002:00008920       ??_C@_0JE@PABBNGEL@ConvexHullLib?3?3cleanupVertices?3@ 00000001801fc920     GuCookingConvexHullLib.obj
 0002:000089e0       ??_C@_0HL@GNMPEDGD@C?3?2Users?2Brandon?2CudaGame?2vendo@ 00000001801fc9e0     GuCookingConvexHullBuilder.obj
 0002:00008a60       ??_C@_0EB@DCEIFDGC@ConvexHullBuilder?3?3init?3?5convex@ 00000001801fca60     GuCookingConvexHullBuilder.obj
 0002:00008ab0       ??_C@_0FM@KICBLCBH@Gu?3?3ConvexMesh?3?3checkHullPolygo@ 00000001801fcab0     GuCookingConvexHullBuilder.obj
 0002:00008b10       ??_C@_0GO@HBFIOGLL@Gu?3?3ConvexMesh?3?3checkHullPolygo@ 00000001801fcb10     GuCookingConvexHullBuilder.obj
 0002:00008b80       ??_C@_0HF@OLJFBIEL@ConvexHullBuilder?3?5convex?5hull?5@ 00000001801fcb80     GuCookingConvexHullBuilder.obj
 0002:00008c00       ??_C@_0OG@JNHFOIL@ConvexHullBuilder?3?5convex?5hull?5@ 00000001801fcc00     GuCookingConvexHullBuilder.obj
 0002:00008cf0       ??_C@_0EJ@NIOIBAKH@Cooking?3?3cookConvexMesh?3?5non?9ma@ 00000001801fccf0     GuCookingConvexHullBuilder.obj
 0002:00008d60       ??_C@_0HO@KJPEOPHP@C?3?2Users?2Brandon?2CudaGame?2vendo@ 00000001801fcd60     GuCookingBigConvexDataBuilder.obj
 0002:00008de0       __real@437f0000            00000001801fcde0     GuCookingSDF.obj
 0002:00008de4       __real@477fff00            00000001801fcde4     GuCookingSDF.obj
 0002:00008df0       __sz_PhysXFoundation_64_dll 00000001801fcdf0     PhysXFoundation_64:PhysXFoundation_64.dll
 0002:00008e08       ??_C@_1BK@DBDEIDLH@?$AAK?$AAE?$AAR?$AAN?$AAE?$AAL?$AA3?$AA2?$AA?4?$AAD?$AAL?$AAL@ 00000001801fce08     Delayimp:delayhlp.obj
 0002:00008e28       ??_C@_0BI@OMNLIJDB@AcquireSRWLockExclusive@ 00000001801fce28     Delayimp:delayhlp.obj
 0002:00008e40       ??_C@_0BI@HMIEPCNJ@ReleaseSRWLockExclusive@ 00000001801fce40     Delayimp:delayhlp.obj
 0002:00008e58       __pfnDliFailureHook2       00000001801fce58     Delayimp:delayhk1.obj
 0002:00008e68       ??_7type_info@@6B@         00000001801fce68     LIBCMT:std_type_info_static.obj
 0002:00008ed0       _pDefaultRawDllMain        00000001801fced0     LIBCMT:dll_dllmain.obj
 0002:00008ed0       _pRawDllMain               00000001801fced0     LIBCMT:dll_dllmain.obj
 0002:00008ee0       _load_config_used          00000001801fcee0     LIBCMT:loadcfg.obj
 0002:00009018       _pDestructExceptionObject  00000001801fd018     libvcruntime:ehhelpers.obj
 0002:00009720       ??_C@_08EHJDFFNH@__based?$CI@ 00000001801fd720     libvcruntime:undname.obj
 0002:00009730       ??_C@_07KOLFKCDI@__cdecl@  00000001801fd730     libvcruntime:undname.obj
 0002:00009738       ??_C@_08GHMPAG@__pascal@   00000001801fd738     libvcruntime:undname.obj
 0002:00009748       ??_C@_09IFJBGAPI@__stdcall@ 00000001801fd748     libvcruntime:undname.obj
 0002:00009758       ??_C@_0L@NPHFGOKO@__thiscall@ 00000001801fd758     libvcruntime:undname.obj
 0002:00009768       ??_C@_0L@JMKHOMEK@__fastcall@ 00000001801fd768     libvcruntime:undname.obj
 0002:00009778       ??_C@_0N@BCKKPABJ@__vectorcall@ 00000001801fd778     libvcruntime:undname.obj
 0002:00009788       ??_C@_09HIJEGCPM@__clrcall@ 00000001801fd788     libvcruntime:undname.obj
 0002:00009794       ??_C@_06GHPCKEAG@__eabi@   00000001801fd794     libvcruntime:undname.obj
 0002:000097a0       ??_C@_09IOPIDJLG@__swift_1@ 00000001801fd7a0     libvcruntime:undname.obj
 0002:000097b0       ??_C@_09KFNFGKHF@__swift_2@ 00000001801fd7b0     libvcruntime:undname.obj
 0002:000097c0       ??_C@_07JOMMBBKO@__ptr64@  00000001801fd7c0     libvcruntime:undname.obj
 0002:000097c8       ??_C@_0L@PILCLIHE@__restrict@ 00000001801fd7c8     libvcruntime:undname.obj
 0002:000097d8       ??_C@_0M@GFIIJFMG@__unaligned@ 00000001801fd7d8     libvcruntime:undname.obj
 0002:000097e8       ??_C@_09DHDLOLLB@restrict?$CI@ 00000001801fd7e8     libvcruntime:undname.obj
 0002:000097f4       ??_C@_04NIHEBCM@?5new@     00000001801fd7f4     libvcruntime:undname.obj
 0002:00009800       ??_C@_07FPCDHGMM@?5delete@ 00000001801fd800     libvcruntime:undname.obj
 0002:00009808       ??_C@_01NEMOKFLO@?$DN@     00000001801fd808     libvcruntime:undname.obj
 0002:0000980c       ??_C@_02GPIOPFAK@?$DO?$DO@ 00000001801fd80c     libvcruntime:undname.obj
 0002:00009810       ??_C@_02FODMEDOG@?$DM?$DM@ 00000001801fd810     libvcruntime:undname.obj
 0002:00009814       ??_C@_01DCLJPIOD@?$CB@     00000001801fd814     libvcruntime:undname.obj
 0002:00009818       ??_C@_02EGOFBIJA@?$DN?$DN@ 00000001801fd818     libvcruntime:undname.obj
 0002:0000981c       ??_C@_02FDNJECIE@?$CB?$DN@ 00000001801fd81c     libvcruntime:undname.obj
 0002:00009820       ??_C@_02GPECMEKF@?$FL?$FN@ 00000001801fd820     libvcruntime:undname.obj
 0002:00009828       ??_C@_08LHJFAFGD@operator@ 00000001801fd828     libvcruntime:undname.obj
 0002:00009834       ??_C@_02HBOOOICD@?9?$DO@   00000001801fd834     libvcruntime:undname.obj
 0002:00009838       ??_C@_01NBENCBCI@?$CK@     00000001801fd838     libvcruntime:undname.obj
 0002:0000983c       ??_C@_02ECNGHCIF@?$CL?$CL@ 00000001801fd83c     libvcruntime:undname.obj
 0002:00009840       ??_C@_02BAABKJLB@?9?9@     00000001801fd840     libvcruntime:undname.obj
 0002:00009844       ??_C@_01JOAMLHOP@?9@       00000001801fd844     libvcruntime:undname.obj
 0002:00009848       ??_C@_01MIFGBAGJ@?$CL@     00000001801fd848     libvcruntime:undname.obj
 0002:0000984c       ??_C@_01HNPIGOCE@?$CG@     00000001801fd84c     libvcruntime:undname.obj
 0002:00009850       ??_C@_03MNHNFDLC@?9?$DO?$CK@ 00000001801fd850     libvcruntime:undname.obj
 0002:00009854       ??_C@_01KMDKNFGN@?1@       00000001801fd854     libvcruntime:undname.obj
 0002:00009858       ??_C@_01FGNFDNOH@?$CF@     00000001801fd858     libvcruntime:undname.obj
 0002:0000985c       ??_C@_01MNNFJEPP@?$DM@     00000001801fd85c     libvcruntime:undname.obj
 0002:00009860       ??_C@_02EHCHHCKH@?$DM?$DN@ 00000001801fd860     libvcruntime:undname.obj
 0002:00009864       ??_C@_01PPODPGHN@?$DO@     00000001801fd864     libvcruntime:undname.obj
 0002:00009868       ??_C@_02EEKDKGMJ@?$DO?$DN@ 00000001801fd868     libvcruntime:undname.obj
 0002:0000986c       ??_C@_01IHBHIGKO@?0@       00000001801fd86c     libvcruntime:undname.obj
 0002:00009870       ??_C@_02HCKGKOFO@?$CI?$CJ@ 00000001801fd870     libvcruntime:undname.obj
 0002:00009874       ??_C@_01PJKLJHI@?$HO@      00000001801fd874     libvcruntime:undname.obj
 0002:00009878       ??_C@_01JKBOJNNK@?$FO@     00000001801fd878     libvcruntime:undname.obj
 0002:0000987c       ??_C@_01DNKMNLPK@?$HM@     00000001801fd87c     libvcruntime:undname.obj
 0002:00009880       ??_C@_02PPKAJPJL@?$CG?$CG@ 00000001801fd880     libvcruntime:undname.obj
 0002:00009884       ??_C@_02NONPIBCD@?$HM?$HM@ 00000001801fd884     libvcruntime:undname.obj
 0002:00009888       ??_C@_02FPIMKNGF@?$CK?$DN@ 00000001801fd888     libvcruntime:undname.obj
 0002:0000988c       ??_C@_02FOEOMHFC@?$CL?$DN@ 00000001801fd88c     libvcruntime:undname.obj
 0002:00009890       ??_C@_02FKMDLLOA@?9?$DN@   00000001801fd890     libvcruntime:undname.obj
 0002:00009894       ??_C@_02FJEHGPIO@?1?$DN@   00000001801fd894     libvcruntime:undname.obj
 0002:00009898       ??_C@_02FENAOKFI@?$CF?$DN@ 00000001801fd898     libvcruntime:undname.obj
 0002:0000989c       ??_C@_03IKFCCPFF@?$DO?$DO?$DN@ 00000001801fd89c     libvcruntime:undname.obj
 0002:000098a0       ??_C@_03CDNPDDLA@?$DM?$DM?$DN@ 00000001801fd8a0     libvcruntime:undname.obj
 0002:000098a4       ??_C@_02FGJGFEAB@?$CG?$DN@ 00000001801fd8a4     libvcruntime:undname.obj
 0002:000098a8       ??_C@_02DHLNPPGH@?$HM?$DN@ 00000001801fd8a8     libvcruntime:undname.obj
 0002:000098ac       ??_C@_02MHEGNOJ@?$FO?$DN@  00000001801fd8ac     libvcruntime:undname.obj
 0002:000098b0       ??_C@_09IFPLHPGF@?$GAvftable?8@ 00000001801fd8b0     libvcruntime:undname.obj
 0002:000098c0       ??_C@_09BLBHBJP@?$GAvbtable?8@ 00000001801fd8c0     libvcruntime:undname.obj
 0002:000098d0       ??_C@_07FEEIOKP@?$GAvcall?8@ 00000001801fd8d0     libvcruntime:undname.obj
 0002:000098d8       ??_C@_08LLFFHHDJ@?$GAtypeof?8@ 00000001801fd8d8     libvcruntime:undname.obj
 0002:000098e8       ??_C@_0BF@KDPPACIK@?$GAlocal?5static?5guard?8@ 00000001801fd8e8     libvcruntime:undname.obj
 0002:00009900       ??_C@_08OBABFOLI@?$GAstring?8@ 00000001801fd900     libvcruntime:undname.obj
 0002:00009910       ??_C@_0BD@JDLKDPAB@?$GAvbase?5destructor?8@ 00000001801fd910     libvcruntime:undname.obj
 0002:00009928       ??_C@_0BN@DEGPLNFK@?$GAvector?5deleting?5destructor?8@ 00000001801fd928     libvcruntime:undname.obj
 0002:00009948       ??_C@_0BO@OBMKPJIG@?$GAdefault?5constructor?5closure?8@ 00000001801fd948     libvcruntime:undname.obj
 0002:00009968       ??_C@_0BN@IMDCHIKM@?$GAscalar?5deleting?5destructor?8@ 00000001801fd968     libvcruntime:undname.obj
 0002:00009988       ??_C@_0BO@PFGOCPJJ@?$GAvector?5constructor?5iterator?8@ 00000001801fd988     libvcruntime:undname.obj
 0002:000099a8       ??_C@_0BN@LFPFMEDL@?$GAvector?5destructor?5iterator?8@ 00000001801fd9a8     libvcruntime:undname.obj
 0002:000099c8       ??_C@_0CE@IKBNEHA@?$GAvector?5vbase?5constructor?5itera@ 00000001801fd9c8     libvcruntime:undname.obj
 0002:000099f0       ??_C@_0BL@NILFHHPC@?$GAvirtual?5displacement?5map?8@ 00000001801fd9f0     libvcruntime:undname.obj
 0002:00009a10       ??_C@_0CB@JONCMFFK@?$GAeh?5vector?5constructor?5iterator@ 00000001801fda10     libvcruntime:undname.obj
 0002:00009a38       ??_C@_0CA@GCEOPDGL@?$GAeh?5vector?5destructor?5iterator?8@ 00000001801fda38     libvcruntime:undname.obj
 0002:00009a58       ??_C@_0CH@OOJPLCPH@?$GAeh?5vector?5vbase?5constructor?5it@ 00000001801fda58     libvcruntime:undname.obj
 0002:00009a80       ??_C@_0BL@LLKPOHJI@?$GAcopy?5constructor?5closure?8@ 00000001801fda80     libvcruntime:undname.obj
 0002:00009aa0       ??_C@_0BA@KBCDOMBN@?$GAudt?5returning?8@ 00000001801fdaa0     libvcruntime:undname.obj
 0002:00009ab0       ??_C@_03KLGMFNMG@?$GAEH@   00000001801fdab0     libvcruntime:undname.obj
 0002:00009ab4       ??_C@_05KHLCHHI@?$GARTTI@  00000001801fdab4     libvcruntime:undname.obj
 0002:00009ac0       ??_C@_0BA@KKLDJDLB@?$GAlocal?5vftable?8@ 00000001801fdac0     libvcruntime:undname.obj
 0002:00009ad0       ??_C@_0CE@IIHCMGGL@?$GAlocal?5vftable?5constructor?5clos@ 00000001801fdad0     libvcruntime:undname.obj
 0002:00009af4       ??_C@_06FHBGPFGH@?5new?$FL?$FN@ 00000001801fdaf4     libvcruntime:undname.obj
 0002:00009b00       ??_C@_09LBNFPBCA@?5delete?$FL?$FN@ 00000001801fdb00     libvcruntime:undname.obj
 0002:00009b10       ??_C@_0P@HJKNJFNN@?$GAomni?5callsig?8@ 00000001801fdb10     libvcruntime:undname.obj
 0002:00009b20       ??_C@_0BL@CNOONJFP@?$GAplacement?5delete?5closure?8@ 00000001801fdb20     libvcruntime:undname.obj
 0002:00009b40       ??_C@_0BN@CKNJLHMB@?$GAplacement?5delete?$FL?$FN?5closure?8@ 00000001801fdb40     libvcruntime:undname.obj
 0002:00009b60       ??_C@_0CG@CFDHKGGD@?$GAmanaged?5vector?5constructor?5ite@ 00000001801fdb60     libvcruntime:undname.obj
 0002:00009b88       ??_C@_0CF@IMGKMJNO@?$GAmanaged?5vector?5destructor?5iter@ 00000001801fdb88     libvcruntime:undname.obj
 0002:00009bb0       ??_C@_0CG@HLDDJMAG@?$GAeh?5vector?5copy?5constructor?5ite@ 00000001801fdbb0     libvcruntime:undname.obj
 0002:00009bd8       ??_C@_0CM@FCBBDIGB@?$GAeh?5vector?5vbase?5copy?5construct@ 00000001801fdbd8     libvcruntime:undname.obj
 0002:00009c08       ??_C@_0BL@CLIPGLGB@?$GAdynamic?5initializer?5for?5?8@ 00000001801fdc08     libvcruntime:undname.obj
 0002:00009c28       ??_C@_0CB@PDBIFEP@?$GAdynamic?5atexit?5destructor?5for?5@ 00000001801fdc28     libvcruntime:undname.obj
 0002:00009c50       ??_C@_0CD@CGAJBKEJ@?$GAvector?5copy?5constructor?5iterat@ 00000001801fdc50     libvcruntime:undname.obj
 0002:00009c78       ??_C@_0CJ@GJELGAMM@?$GAvector?5vbase?5copy?5constructor?5@ 00000001801fdc78     libvcruntime:undname.obj
 0002:00009ca8       ??_C@_0CL@FGIJHLCE@?$GAmanaged?5vector?5copy?5constructo@ 00000001801fdca8     libvcruntime:undname.obj
 0002:00009cd8       ??_C@_0BM@PMGGMLDN@?$GAlocal?5static?5thread?5guard?8@ 00000001801fdcd8     libvcruntime:undname.obj
 0002:00009cf8       ??_C@_0N@BDNMDMOL@operator?5?$CC?$CC?5@ 00000001801fdcf8     libvcruntime:undname.obj
 0002:00009d08       ??_C@_0BC@GGEBGALA@operator?5co_await@ 00000001801fdd08     libvcruntime:undname.obj
 0002:00009d20       ??_C@_0M@GAAIMMOH@operator?$DM?$DN?$DO@ 00000001801fdd20     libvcruntime:undname.obj
 0002:00009d30       ??_C@_0BC@DAFEJGAK@?5Type?5Descriptor?8@ 00000001801fdd30     libvcruntime:undname.obj
 0002:00009d48       ??_C@_0BM@LDKODKLH@?5Base?5Class?5Descriptor?5at?5?$CI@ 00000001801fdd48     libvcruntime:undname.obj
 0002:00009d68       ??_C@_0BD@LGICGFMM@?5Base?5Class?5Array?8@ 00000001801fdd68     libvcruntime:undname.obj
 0002:00009d80       ??_C@_0BN@MECKDCOJ@?5Class?5Hierarchy?5Descriptor?8@ 00000001801fdd80     libvcruntime:undname.obj
 0002:00009da0       ??_C@_0BK@CFCOFLF@?5Complete?5Object?5Locator?8@ 00000001801fdda0     libvcruntime:undname.obj
 0002:00009dc0       ??_C@_0BG@JNJLAMPM@?$GAanonymous?5namespace?8@ 00000001801fddc0     libvcruntime:undname.obj
 0002:00009dd8       ??_C@_04HEJADOOB@CV?3?5@   00000001801fddd8     libvcruntime:undname.obj
 0002:00009de0       ??_C@_02MOLJINC@?3?3@      00000001801fdde0     libvcruntime:undname.obj
 0002:00009de8       ??_C@_0BE@JAEOCHPE@template?9parameter?9@ 00000001801fdde8     libvcruntime:undname.obj
 0002:00009e00       ??_C@_0BF@LNLGBBNL@?$GAtemplate?9parameter?9@ 00000001801fde00     libvcruntime:undname.obj
 0002:00009e18       ??_C@_0O@KHGCOMHP@generic?9type?9@ 00000001801fde18     libvcruntime:undname.obj
 0002:00009e28       ??_C@_0P@ODDENDLM@?$GAgeneric?9type?9@ 00000001801fde28     libvcruntime:undname.obj
 0002:00009e38       ??_C@_02OHHJMEON@?8?8@     00000001801fde38     libvcruntime:undname.obj
 0002:00009e40       ??_C@_0BN@IBLMMFAP@?$GAnon?9type?9template?9parameter@ 00000001801fde40     libvcruntime:undname.obj
 0002:00009e60       ??_C@_03DLDNIBIK@?$CFlf@   00000001801fde60     libvcruntime:undname.obj
 0002:00009e64       ??_C@_04OFALKAJ@?$DP?$DP_C@ 00000001801fde64     libvcruntime:undname.obj
 0002:00009e6c       ??_C@_03KHICJKCI@?4?4?4@   00000001801fde6c     libvcruntime:undname.obj
 0002:00009e70       ??_C@_04HIBGFPH@NULL@      00000001801fde70     libvcruntime:undname.obj
 0002:00009e78       ??_C@_02DPKJAMEF@?$CFd@    00000001801fde78     libvcruntime:undname.obj
 0002:00009e80       ??_C@_0BK@IHCCFNEL@?$GAtemplate?9type?9parameter?9@ 00000001801fde80     libvcruntime:undname.obj
 0002:00009ea0       ??_C@_0BK@OFCNNNKO@?$GAgeneric?9class?9parameter?9@ 00000001801fdea0     libvcruntime:undname.obj
 0002:00009ec0       ??_C@_0BL@NGJBLFIL@?$GAgeneric?9method?9parameter?9@ 00000001801fdec0     libvcruntime:undname.obj
 0002:00009ee0       ??_C@_07OHNGEDJK@nullptr@  00000001801fdee0     libvcruntime:undname.obj
 0002:00009ee8       ??_C@_04GKJNKENE@void@     00000001801fdee8     libvcruntime:undname.obj
 0002:00009ef0       ??_C@_0BE@EODMJLIF@?$GAtemplate?9parameter@ 00000001801fdef0     libvcruntime:undname.obj
 0002:00009f04       ??_C@_03OPGICMGF@?$HN?8?5@ 00000001801fdf04     libvcruntime:undname.obj
 0002:00009f08       ??_C@_02IGFCGPIL@?$HN?8@   00000001801fdf08     libvcruntime:undname.obj
 0002:00009f10       ??_C@_0N@CBHHHENL@?$GAvtordispex?$HL@ 00000001801fdf10     libvcruntime:undname.obj
 0002:00009f20       ??_C@_0L@GHPFDFH@?$GAvtordisp?$HL@ 00000001801fdf20     libvcruntime:undname.obj
 0002:00009f30       ??_C@_0L@HNGCOGAE@?$GAadjustor?$HL@ 00000001801fdf30     libvcruntime:undname.obj
 0002:00009f40       ??_C@_0CB@KJDOOODE@?$GAlocal?5static?5destructor?5helper@ 00000001801fdf40     libvcruntime:undname.obj
 0002:00009f68       ??_C@_0DB@ILEFOCIJ@?$GAtemplate?5static?5data?5member?5co@ 00000001801fdf68     libvcruntime:undname.obj
 0002:00009fa0       ??_C@_0DA@HGFJFBBE@?$GAtemplate?5static?5data?5member?5de@ 00000001801fdfa0     libvcruntime:undname.obj
 0002:00009fd0       ??_C@_07PGOEDBHP@static?5@ 00000001801fdfd0     libvcruntime:undname.obj
 0002:00009fd8       ??_C@_08NIEOINHE@virtual?5@ 00000001801fdfd8     libvcruntime:undname.obj
 0002:00009fe8       ??_C@_09LAPHOOG@private?3?5@ 00000001801fdfe8     libvcruntime:undname.obj
 0002:00009ff8       ??_C@_0M@GAIFPFIP@protected?3?5@ 00000001801fdff8     libvcruntime:undname.obj
 0002:0000a008       ??_C@_08GPDDCMKI@public?3?5@ 00000001801fe008     libvcruntime:undname.obj
 0002:0000a018       ??_C@_08KJLFOPNE@?$FLthunk?$FN?3@ 00000001801fe018     libvcruntime:undname.obj
 0002:0000a028       ??_C@_0M@DHNBOJMP@extern?5?$CCC?$CC?5@ 00000001801fe028     libvcruntime:undname.obj
 0002:0000a034       ??_C@_02KCKGHPCA@?$CJ?5@   00000001801fe034     libvcruntime:undname.obj
 0002:0000a038       ??_C@_05CIHEBHNO@char?5@   00000001801fe038     libvcruntime:undname.obj
 0002:0000a040       ??_C@_06EHJMALKF@short?5@  00000001801fe040     libvcruntime:undname.obj
 0002:0000a048       ??_C@_04LAHKHJMA@int?5@    00000001801fe048     libvcruntime:undname.obj
 0002:0000a050       ??_C@_05CJIMAING@long?5@   00000001801fe050     libvcruntime:undname.obj
 0002:0000a058       ??_C@_09EBBEKKIH@unsigned?5@ 00000001801fe058     libvcruntime:undname.obj
 0002:0000a064       ??_C@_05BEFAKPML@void?5@   00000001801fe064     libvcruntime:undname.obj
 0002:0000a070       ??_C@_09GAIEOBLP@volatile?5@ 00000001801fe070     libvcruntime:undname.obj
 0002:0000a080       ??_C@_08PABEKFH@volatile@  00000001801fe080     libvcruntime:undname.obj
 0002:0000a090       ??_C@_0BA@LKIJLKPP@std?3?3nullptr_t?5@ 00000001801fe090     libvcruntime:undname.obj
 0002:0000a0a0       ??_C@_0P@GCOCNKDM@std?3?3nullptr_t@ 00000001801fe0a0     libvcruntime:undname.obj
 0002:0000a0b0       ??_C@_0L@EGPHHEKN@?$DMellipsis?$DO@ 00000001801fe0b0     libvcruntime:undname.obj
 0002:0000a0bc       ??_C@_04EENFHACM@?0?4?4?4@ 00000001801fe0bc     libvcruntime:undname.obj
 0002:0000a0c8       ??_C@_0M@ELJOJFFH@?0?$DMellipsis?$DO@ 00000001801fe0c8     libvcruntime:undname.obj
 0002:0000a0d8       ??_C@_09DNHFEOJI@?5noexcept@ 00000001801fe0d8     libvcruntime:undname.obj
 0002:0000a0e4       ??_C@_03PBJBJNON@cpu@      00000001801fe0e4     libvcruntime:undname.obj
 0002:0000a0e8       ??_C@_03DCBBJBAA@amp@      00000001801fe0e8     libvcruntime:undname.obj
 0002:0000a0ec       ??_C@_02KEGNLNML@?0?5@     00000001801fe0ec     libvcruntime:undname.obj
 0002:0000a0f0       ??_C@_04ENMBGAPA@char@     00000001801fe0f0     libvcruntime:undname.obj
 0002:0000a0f8       ??_C@_05BFKKPKCG@short@    00000001801fe0f8     libvcruntime:undname.obj
 0002:0000a100       ??_C@_03JBIPMCLC@int@      00000001801fe100     libvcruntime:undname.obj
 0002:0000a104       ??_C@_04GOKPGOLB@long@     00000001801fe104     libvcruntime:undname.obj
 0002:0000a10c       ??_C@_05KNFBNCOH@float@    00000001801fe10c     libvcruntime:undname.obj
 0002:0000a114       ??_C@_06BNJCAIGJ@double@   00000001801fe114     libvcruntime:undname.obj
 0002:0000a11c       ??_C@_04DDKJGDCM@bool@     00000001801fe11c     libvcruntime:undname.obj
 0002:0000a124       ??_C@_06EBGKOKIG@__int8@   00000001801fe124     libvcruntime:undname.obj
 0002:0000a130       ??_C@_07ICFHOGAF@__int16@  00000001801fe130     libvcruntime:undname.obj
 0002:0000a138       ??_C@_07OFLPPHGP@__int32@  00000001801fe138     libvcruntime:undname.obj
 0002:0000a140       ??_C@_07LFCOJCAC@__int64@  00000001801fe140     libvcruntime:undname.obj
 0002:0000a148       ??_C@_08GAHOLHEO@__int128@ 00000001801fe148     libvcruntime:undname.obj
 0002:0000a158       ??_C@_09EEKGDCPH@?$DMunknown?$DO@ 00000001801fe158     libvcruntime:undname.obj
 0002:0000a168       ??_C@_07CFHGOPCN@char8_t@  00000001801fe168     libvcruntime:undname.obj
 0002:0000a170       ??_C@_08HBIPOFJB@char16_t@ 00000001801fe170     libvcruntime:undname.obj
 0002:0000a180       ??_C@_08IECNCBKG@char32_t@ 00000001801fe180     libvcruntime:undname.obj
 0002:0000a190       ??_C@_07CLGGIAMF@wchar_t@  00000001801fe190     libvcruntime:undname.obj
 0002:0000a198       ??_C@_04HAPDLBFF@auto@     00000001801fe198     libvcruntime:undname.obj
 0002:0000a1a0       ??_C@_0P@LHCGKIGK@decltype?$CIauto?$CJ@ 00000001801fe1a0     libvcruntime:undname.obj
 0002:0000a1b0       ??_C@_06GCICPBLB@__w64?5@  00000001801fe1b0     libvcruntime:undname.obj
 0002:0000a1b8       ??_C@_07NFANNNEC@UNKNOWN@  00000001801fe1b8     libvcruntime:undname.obj
 0002:0000a1c0       ??_C@_07EDHNAJHC@signed?5@ 00000001801fe1c0     libvcruntime:undname.obj
 0002:0000a1c8       ??_C@_05BNCCCJPP@const@    00000001801fe1c8     libvcruntime:undname.obj
 0002:0000a1d0       ??_C@_09EFNPDFFP@?5volatile@ 00000001801fe1d0     libvcruntime:undname.obj
 0002:0000a1e0       ??_C@_0P@GCIFDJCJ@?$GAunknown?5ecsu?8@ 00000001801fe1e0     libvcruntime:undname.obj
 0002:0000a1f0       ??_C@_06MOJHIBMG@union?5@  00000001801fe1f0     libvcruntime:undname.obj
 0002:0000a1f8       ??_C@_07DIBCDNGL@struct?5@ 00000001801fe1f8     libvcruntime:undname.obj
 0002:0000a200       ??_C@_06LJBABKPM@class?5@  00000001801fe200     libvcruntime:undname.obj
 0002:0000a208       ??_C@_08KOFANOFK@coclass?5@ 00000001801fe208     libvcruntime:undname.obj
 0002:0000a218       ??_C@_0N@DLIEFKNA@cointerface?5@ 00000001801fe218     libvcruntime:undname.obj
 0002:0000a228       ??_C@_05LJGMCFOG@enum?5@   00000001801fe228     libvcruntime:undname.obj
 0002:0000a230       ??_C@_06LIJLOJAG@const?5@  00000001801fe230     libvcruntime:undname.obj
 0002:0000a238       ??_C@_02KJPKDIBN@?$CG?5@   00000001801fe238     libvcruntime:undname.obj
 0002:0000a23c       ??_C@_03PCKGMOPB@?$CG?$CG?5@ 00000001801fe23c     libvcruntime:undname.obj
 0002:0000a240       ??_C@_0M@EALIELKG@cli?3?3array?$DM@ 00000001801fe240     libvcruntime:undname.obj
 0002:0000a250       ??_C@_0O@GKABPPIF@cli?3?3pin_ptr?$DM@ 00000001801fe250     libvcruntime:undname.obj
 0002:0000a260       ??_C@_02GOGNNPBN@?$CJ?$FL@ 00000001801fe260     libvcruntime:undname.obj
 0002:0000a264       ??_C@_06EEGAIFAK@?$HLflat?$HN@ 00000001801fe264     libvcruntime:undname.obj
 0002:0000a26c       ??_C@_05JIBOFOHK@?$HLfor?5@ 00000001801fe26c     libvcruntime:undname.obj
 0002:0000a274       ??_C@_02MDINNEEG@s?5@      00000001801fe274     libvcruntime:undname.obj
 0002:0000a280       ??_7charNode@@6B@          00000001801fe280     libvcruntime:undname.obj
 0002:0000a2a8       ??_7pcharNode@@6B@         00000001801fe2a8     libvcruntime:undname.obj
 0002:0000a2d0       ??_7pDNameNode@@6B@        00000001801fe2d0     libvcruntime:undname.obj
 0002:0000a2f8       ??_7DNameStatusNode@@6B@   00000001801fe2f8     libvcruntime:undname.obj
 0002:0000a320       ??_7pairNode@@6B@          00000001801fe320     libvcruntime:undname.obj
 0002:0000a440       ??_C@_04OKOHEJBO@?5?$DP?$DP?5@ 00000001801fe440     libvcruntime:undname.obj
 0002:0000a450       ?nodes@?1??make@DNameStatusNode@@SAPEBV2@W4DNameStatus@@@Z@4QBV2@B 00000001801fe450     libvcruntime:undname.obj
 0002:0000a490       ?s_negLengthTab@FH4@@3QBCB 00000001801fe490     libvcruntime:risctrnsctrl.obj
 0002:0000a4a0       ?s_shiftTab@FH4@@3QBEB     00000001801fe4a0     libvcruntime:risctrnsctrl.obj
 0002:0000a600       ??_C@_1DM@KHCHBNEB@?$AAa?$AAp?$AAi?$AA?9?$AAm?$AAs?$AA?9?$AAw?$AAi?$AAn?$AA?9?$AAc?$AAo?$AAr?$AAe@ 00000001801fe600     libvcruntime:winapi_downlevel.obj
 0002:0000a640       ??_C@_1DK@LPPGFMPP@?$AAa?$AAp?$AAi?$AA?9?$AAm?$AAs?$AA?9?$AAw?$AAi?$AAn?$AA?9?$AAc?$AAo?$AAr?$AAe@ 00000001801fe640     libvcruntime:winapi_downlevel.obj
 0002:0000a680       ??_C@_1BC@GDMECMAK@?$AAk?$AAe?$AAr?$AAn?$AAe?$AAl?$AA3?$AA2@ 00000001801fe680     libvcruntime:winapi_downlevel.obj
 0002:0000a698       ??_C@_1BA@PFFKHIOG@?$AAa?$AAp?$AAi?$AA?9?$AAm?$AAs?$AA?9@ 00000001801fe698     libvcruntime:winapi_downlevel.obj
 0002:0000a6b0       ??_C@_08KNHFBNJ@FlsAlloc@  00000001801fe6b0     libvcruntime:winapi_downlevel.obj
 0002:0000a6c8       ??_C@_07PEJMOBNF@FlsFree@  00000001801fe6c8     libvcruntime:winapi_downlevel.obj
 0002:0000a6d8       ??_C@_0M@GDNOONDI@FlsGetValue@ 00000001801fe6d8     libvcruntime:winapi_downlevel.obj
 0002:0000a6f0       ??_C@_0M@JCPCPOEF@FlsSetValue@ 00000001801fe6f0     libvcruntime:winapi_downlevel.obj
 0002:0000a708       ??_C@_0BM@HCFOFFN@InitializeCriticalSectionEx@ 00000001801fe708     libvcruntime:winapi_downlevel.obj
 0002:0000a730       ??_7exception@std@@6B@     00000001801fe730     libvcruntime:frame.obj
 0002:0000a740       ??_C@_0BC@EOODALEL@Unknown?5exception@ 00000001801fe740     libvcruntime:frame.obj
 0002:0000a760       ??_7bad_exception@std@@6B@ 00000001801fe760     libvcruntime:frame.obj
 0002:0000a770       ??_C@_0O@DPKOEFFH@bad?5exception@ 00000001801fe770     libvcruntime:frame.obj
 0002:0000aac0       ?standard_lookup_table_spectre@__crt_stdio_output@@3V?$spectre_mitigated_lookup_table@Ustate_transition_pair@__crt_stdio_output@@$0IA@@1@B 00000001801feac0     libucrt:output.obj
 0002:0000abc0       ?format_validation_lookup_table_spectre@__crt_stdio_output@@3V?$spectre_mitigated_lookup_table@Ustate_transition_pair@__crt_stdio_output@@$0IA@@1@B 00000001801febc0     libucrt:output.obj
 0002:0000acc0       ??_C@_1O@CEDCILHN@?$AA?$CI?$AAn?$AAu?$AAl?$AAl?$AA?$CJ@ 00000001801fecc0     libucrt:output.obj
 0002:0000acd0       ??_C@_06OJHGLDPL@?$CInull?$CJ@ 00000001801fecd0     libucrt:output.obj
 0002:0000bd68       __real@3f1a36e2eb1c432d    00000001801ffd68     libucrt:atan2f.obj
 0002:0000bd70       __real@3fb0000000000000    00000001801ffd70     libucrt:atan2f.obj
 0002:0000bd78       __real@3fc2492482bd6be1    00000001801ffd78     libucrt:atan2f.obj
 0002:0000bd80       __real@3fc99999999643a3    00000001801ffd80     libucrt:atan2f.obj
 0002:0000bd88       __real@3fd5555555550877    00000001801ffd88     libucrt:atan2f.obj
 0002:0000bd90       __real@3fd5555555555538    00000001801ffd90     libucrt:atan2f.obj
 0002:0000bd98       __real@3ff921fb54442d18    00000001801ffd98     libucrt:atan2f.obj
 0002:0000bda0       __real@400921fb54442d18    00000001801ffda0     libucrt:atan2f.obj
 0002:0000bda8       __real@4070000000000000    00000001801ffda8     libucrt:atan2f.obj
 0002:0000bdb0       __real@bf490fdb            00000001801ffdb0     libucrt:atan2f.obj
 0002:0000bdb4       __real@bfc90fdb            00000001801ffdb4     libucrt:atan2f.obj
 0002:0000bdb8       __real@c016cbe4            00000001801ffdb8     libucrt:atan2f.obj
 0002:0000bdbc       __real@c0490fdb            00000001801ffdbc     libucrt:atan2f.obj
 0002:0000bdc0       ??_C@_05FFFCHCED@acosf@    00000001801ffdc0     libucrt:acosf.obj
 0002:0000bdc8       __real@3b81ce6b            00000001801ffdc8     libucrt:acosf.obj
 0002:0000bdd0       __real@3c91a62633145c07    00000001801ffdd0     libucrt:acosf.obj
 0002:0000bdd8       __real@3d678bdd            00000001801ffdd8     libucrt:acosf.obj
 0002:0000bddc       __real@3e3c94dc            00000001801ffddc     libucrt:acosf.obj
 0002:0000bde0       __real@3f561f0d            00000001801ffde0     libucrt:acosf.obj
 0002:0000bde4       __real@3f8d6fa5            00000001801ffde4     libucrt:acosf.obj
 0002:0000bde8       __real@bc5b3fe1            00000001801ffde8     libucrt:acosf.obj
 0002:0000bdf0       __acrt_exception_action_table 00000001801ffdf0     libucrt:exception_filter.obj
 0002:0000beb0       __acrt_signal_action_table_count 00000001801ffeb0     libucrt:exception_filter.obj
 0002:0000beb8       __acrt_signal_action_first_fpe_index 00000001801ffeb8     libucrt:exception_filter.obj
 0002:0000bec0       __acrt_signal_action_fpe_count 00000001801ffec0     libucrt:exception_filter.obj
 0002:0000bf18       ??_C@_1BI@BGOHAHKC@?$AAm?$AAs?$AAc?$AAo?$AAr?$AAe?$AAe?$AA?4?$AAd?$AAl?$AAl@ 00000001801fff18     libucrt:exit.obj
 0002:0000bf30       ??_C@_0P@MIGLKIOC@CorExitProcess@ 00000001801fff30     libucrt:exit.obj
 0002:0000c200       ??_C@_04LAGPAAHP@sinf@     0000000180200200     libucrt:sincos_special.obj
 0002:0000c208       ??_C@_04OBBKPIAC@cosf@     0000000180200208     libucrt:sincos_special.obj
 0002:0000c210       ??_C@_04MHPLPEIA@tanf@     0000000180200210     libucrt:sincos_special.obj
 0002:0000c220       __Lcosfarray               0000000180200220     libucrt:lsincosf_array.obj
 0002:0000c250       __Lsinfarray               0000000180200250     libucrt:lsincosf_array.obj
 0002:0000c270       __L_2_by_pi_bits           0000000180200270     libucrt:l2_by_pi_bits.obj
 0002:0000c5e0       ??_C@_1EA@JGEFHKEI@?$AAa?$AAp?$AAi?$AA?9?$AAm?$AAs?$AA?9?$AAw?$AAi?$AAn?$AA?9?$AAc?$AAo?$AAr?$AAe@ 00000001802005e0     libucrt:winapi_thunks.obj
 0002:0000c620       ??_C@_1DI@KMEPCBPN@?$AAa?$AAp?$AAi?$AA?9?$AAm?$AAs?$AA?9?$AAw?$AAi?$AAn?$AA?9?$AAc?$AAo?$AAr?$AAe@ 0000000180200620     libucrt:winapi_thunks.obj
 0002:0000c658       ??_C@_1DI@IJCEHOCB@?$AAa?$AAp?$AAi?$AA?9?$AAm?$AAs?$AA?9?$AAw?$AAi?$AAn?$AA?9?$AAc?$AAo?$AAr?$AAe@ 0000000180200658     libucrt:winapi_thunks.obj
 0002:0000c690       ??_C@_1EI@MPIAOHOC@?$AAa?$AAp?$AAi?$AA?9?$AAm?$AAs?$AA?9?$AAw?$AAi?$AAn?$AA?9?$AAc?$AAo?$AAr?$AAe@ 0000000180200690     libucrt:winapi_thunks.obj
 0002:0000c6e0       ??_C@_1FK@FPHCKFIE@?$AAa?$AAp?$AAi?$AA?9?$AAm?$AAs?$AA?9?$AAw?$AAi?$AAn?$AA?9?$AAc?$AAo?$AAr?$AAe@ 00000001802006e0     libucrt:winapi_thunks.obj
 0002:0000c740       ??_C@_1EM@DILCGIIO@?$AAa?$AAp?$AAi?$AA?9?$AAm?$AAs?$AA?9?$AAw?$AAi?$AAn?$AA?9?$AAc?$AAo?$AAr?$AAe@ 0000000180200740     libucrt:winapi_thunks.obj
 0002:0000c790       ??_C@_1DM@LNCGDDPN@?$AAa?$AAp?$AAi?$AA?9?$AAm?$AAs?$AA?9?$AAw?$AAi?$AAn?$AA?9?$AAc?$AAo?$AAr?$AAe@ 0000000180200790     libucrt:winapi_thunks.obj
 0002:0000c7d0       ??_C@_1DO@FPAPJEMD@?$AAa?$AAp?$AAi?$AA?9?$AAm?$AAs?$AA?9?$AAw?$AAi?$AAn?$AA?9?$AAc?$AAo?$AAr?$AAe@ 00000001802007d0     libucrt:winapi_thunks.obj
 0002:0000c810       ??_C@_1DK@NDHNAHIO@?$AAa?$AAp?$AAi?$AA?9?$AAm?$AAs?$AA?9?$AAw?$AAi?$AAn?$AA?9?$AAc?$AAo?$AAr?$AAe@ 0000000180200810     libucrt:winapi_thunks.obj
 0002:0000c850       ??_C@_1DM@KGHDGBCM@?$AAa?$AAp?$AAi?$AA?9?$AAm?$AAs?$AA?9?$AAw?$AAi?$AAn?$AA?9?$AAc?$AAo?$AAr?$AAe@ 0000000180200850     libucrt:winapi_thunks.obj
 0002:0000c890       ??_C@_1EO@IJIOEFOH@?$AAa?$AAp?$AAi?$AA?9?$AAm?$AAs?$AA?9?$AAw?$AAi?$AAn?$AA?9?$AAr?$AAt?$AAc?$AAo@ 0000000180200890     libucrt:winapi_thunks.obj
 0002:0000c8e0       ??_C@_1FG@HHGEKANL@?$AAa?$AAp?$AAi?$AA?9?$AAm?$AAs?$AA?9?$AAw?$AAi?$AAn?$AA?9?$AAs?$AAe?$AAc?$AAu@ 00000001802008e0     libucrt:winapi_thunks.obj
 0002:0000c940       ??_C@_1EG@DBIOJECG@?$AAe?$AAx?$AAt?$AA?9?$AAm?$AAs?$AA?9?$AAw?$AAi?$AAn?$AA?9?$AAn?$AAt?$AAu?$AAs@ 0000000180200940     libucrt:winapi_thunks.obj
 0002:0000c990       ??_C@_1EO@FIHMJCLF@?$AAe?$AAx?$AAt?$AA?9?$AAm?$AAs?$AA?9?$AAw?$AAi?$AAn?$AA?9?$AAn?$AAt?$AAu?$AAs@ 0000000180200990     libucrt:winapi_thunks.obj
 0002:0000c9e0       ??_C@_1BC@DNHGCMLG@?$AAa?$AAd?$AAv?$AAa?$AAp?$AAi?$AA3?$AA2@ 00000001802009e0     libucrt:winapi_thunks.obj
 0002:0000c9f8       ??_C@_1BG@CJPGBMEF@?$AAk?$AAe?$AAr?$AAn?$AAe?$AAl?$AAb?$AAa?$AAs?$AAe@ 00000001802009f8     libucrt:winapi_thunks.obj
 0002:0000ca10       ??_C@_1M@OAIMIKLP@?$AAn?$AAt?$AAd?$AAl?$AAl@ 0000000180200a10     libucrt:winapi_thunks.obj
 0002:0000ca20       ??_C@_1EG@DPGNFKGC@?$AAa?$AAp?$AAi?$AA?9?$AAm?$AAs?$AA?9?$AAw?$AAi?$AAn?$AA?9?$AAa?$AAp?$AAp?$AAm@ 0000000180200a20     libucrt:winapi_thunks.obj
 0002:0000ca68       ??_C@_1O@BCCLBEOE@?$AAu?$AAs?$AAe?$AAr?$AA3?$AA2@ 0000000180200a68     libucrt:winapi_thunks.obj
 0002:0000ca78       ??_C@_1BA@IAIFMGEF@?$AAe?$AAx?$AAt?$AA?9?$AAm?$AAs?$AA?9@ 0000000180200a78     libucrt:winapi_thunks.obj
 0002:0000ca90       ??_C@_0BA@FHFNEAED@AreFileApisANSI@ 0000000180200a90     libucrt:winapi_thunks.obj
 0002:0000cab0       ??_C@_0O@KKBNKAPF@LCMapStringEx@ 0000000180200ab0     libucrt:winapi_thunks.obj
 0002:0000cac8       ??_C@_0BB@HBDEELFH@LocaleNameToLCID@ 0000000180200ac8     libucrt:winapi_thunks.obj
 0002:0000cae0       ??_C@_0CF@OJOFEIGO@AppPolicyGetProcessTerminationM@ 0000000180200ae0     libucrt:winapi_thunks.obj
 0002:0000cb90       ??_C@_03OEIAHPBN@INF@      0000000180200b90     libucrt:cvt.obj
 0002:0000cb94       ??_C@_03OJHLLCGB@inf@      0000000180200b94     libucrt:cvt.obj
 0002:0000cb98       ??_C@_03LKNCIKJB@NAN@      0000000180200b98     libucrt:cvt.obj
 0002:0000cb9c       ??_C@_03LHCJEHON@nan@      0000000180200b9c     libucrt:cvt.obj
 0002:0000cba0       ??_C@_09OFJJIMPC@NAN?$CISNAN?$CJ@ 0000000180200ba0     libucrt:cvt.obj
 0002:0000cbb0       ??_C@_09IPFBKMDL@nan?$CIsnan?$CJ@ 0000000180200bb0     libucrt:cvt.obj
 0002:0000cbc0       ??_C@_08IKHNHAJ@NAN?$CIIND?$CJ@ 0000000180200bc0     libucrt:cvt.obj
 0002:0000cbd0       ??_C@_08OFCDMILK@nan?$CIind?$CJ@ 0000000180200bd0     libucrt:cvt.obj
 0002:0000cbdc       ??_C@_05KLBDPFGC@e?$CL000@ 0000000180200bdc     libucrt:cvt.obj
 0002:0000cbf0       __lc_time_c                0000000180200bf0     libucrt:nlsdata.obj
 0002:0000ceb0       ??_C@_03KOEHGMDN@Sun@      0000000180200eb0     libucrt:nlsdata.obj
 0002:0000ceb4       ??_C@_03PDAGKDH@Mon@       0000000180200eb4     libucrt:nlsdata.obj
 0002:0000ceb8       ??_C@_03NAGEINEP@Tue@      0000000180200eb8     libucrt:nlsdata.obj
 0002:0000cebc       ??_C@_03MHOMLAJA@Wed@      0000000180200ebc     libucrt:nlsdata.obj
 0002:0000cec0       ??_C@_03IOFIKPDN@Thu@      0000000180200ec0     libucrt:nlsdata.obj
 0002:0000cec4       ??_C@_03IDIOELNC@Fri@      0000000180200ec4     libucrt:nlsdata.obj
 0002:0000cec8       ??_C@_03FEFJNEK@Sat@       0000000180200ec8     libucrt:nlsdata.obj
 0002:0000cecc       ??_C@_06OOPIFAJ@Sunday@    0000000180200ecc     libucrt:nlsdata.obj
 0002:0000ced4       ??_C@_06JLEDEDGH@Monday@   0000000180200ed4     libucrt:nlsdata.obj
 0002:0000cee0       ??_C@_07BAAGCFCM@Tuesday@  0000000180200ee0     libucrt:nlsdata.obj
 0002:0000cee8       ??_C@_09DLIGFAKA@Wednesday@ 0000000180200ee8     libucrt:nlsdata.obj
 0002:0000cef8       ??_C@_08HACCIKIA@Thursday@ 0000000180200ef8     libucrt:nlsdata.obj
 0002:0000cf04       ??_C@_06JECMNKMI@Friday@   0000000180200f04     libucrt:nlsdata.obj
 0002:0000cf10       ??_C@_08INBOOONO@Saturday@ 0000000180200f10     libucrt:nlsdata.obj
 0002:0000cf1c       ??_C@_03JIHJHPIE@Jan@      0000000180200f1c     libucrt:nlsdata.obj
 0002:0000cf20       ??_C@_03HJBDCHOM@Feb@      0000000180200f20     libucrt:nlsdata.obj
 0002:0000cf24       ??_C@_03ODNJBKGA@Mar@      0000000180200f24     libucrt:nlsdata.obj
 0002:0000cf28       ??_C@_03LEOLGMJP@Apr@      0000000180200f28     libucrt:nlsdata.obj
 0002:0000cf2c       ??_C@_03CNMDKL@May@        0000000180200f2c     libucrt:nlsdata.obj
 0002:0000cf30       ??_C@_03IDFGHECI@Jun@      0000000180200f30     libucrt:nlsdata.obj
 0002:0000cf34       ??_C@_03LBGABGKK@Jul@      0000000180200f34     libucrt:nlsdata.obj
 0002:0000cf38       ??_C@_03IFJFEIGA@Aug@      0000000180200f38     libucrt:nlsdata.obj
 0002:0000cf3c       ??_C@_03GGCAPAJC@Sep@      0000000180200f3c     libucrt:nlsdata.obj
 0002:0000cf40       ??_C@_03BMAOKBAD@Oct@      0000000180200f40     libucrt:nlsdata.obj
 0002:0000cf44       ??_C@_03JPJOFNIA@Nov@      0000000180200f44     libucrt:nlsdata.obj
 0002:0000cf48       ??_C@_03MKABNOCG@Dec@      0000000180200f48     libucrt:nlsdata.obj
 0002:0000cf50       ??_C@_07CGJPFGJA@January@  0000000180200f50     libucrt:nlsdata.obj
 0002:0000cf58       ??_C@_08GNJGEPFN@February@ 0000000180200f58     libucrt:nlsdata.obj
 0002:0000cf64       ??_C@_05HPCKOFNC@March@    0000000180200f64     libucrt:nlsdata.obj
 0002:0000cf6c       ??_C@_05DMJDNLEJ@April@    0000000180200f6c     libucrt:nlsdata.obj
 0002:0000cf74       ??_C@_04CNLMGBGM@June@     0000000180200f74     libucrt:nlsdata.obj
 0002:0000cf7c       ??_C@_04MIEPOIFP@July@     0000000180200f7c     libucrt:nlsdata.obj
 0002:0000cf84       ??_C@_06LBBHFDDG@August@   0000000180200f84     libucrt:nlsdata.obj
 0002:0000cf90       ??_C@_09BHHEALKD@September@ 0000000180200f90     libucrt:nlsdata.obj
 0002:0000cfa0       ??_C@_07JJNFCEND@October@  0000000180200fa0     libucrt:nlsdata.obj
 0002:0000cfa8       ??_C@_08HCHEGEOA@November@ 0000000180200fa8     libucrt:nlsdata.obj
 0002:0000cfb8       ??_C@_08EDHMEBNP@December@ 0000000180200fb8     libucrt:nlsdata.obj
 0002:0000cfc4       ??_C@_02DEDBPAFC@AM@       0000000180200fc4     libucrt:nlsdata.obj
 0002:0000cfc8       ??_C@_02CJNFDJBF@PM@       0000000180200fc8     libucrt:nlsdata.obj
 0002:0000cfd0       ??_C@_08BPBNCDIB@MM?1dd?1yy@ 0000000180200fd0     libucrt:nlsdata.obj
 0002:0000cfe0       ??_C@_0BE@CKGJFCPC@dddd?0?5MMMM?5dd?0?5yyyy@ 0000000180200fe0     libucrt:nlsdata.obj
 0002:0000cff8       ??_C@_08JCCMCCIL@HH?3mm?3ss@ 0000000180200ff8     libucrt:nlsdata.obj
 0002:0000d008       ??_C@_17MBGCMIPB@?$AAS?$AAu?$AAn@ 0000000180201008     libucrt:nlsdata.obj
 0002:0000d010       ??_C@_17KBOMKBF@?$AAM?$AAo?$AAn@ 0000000180201010     libucrt:nlsdata.obj
 0002:0000d018       ??_C@_17BMKGEGOJ@?$AAT?$AAu?$AAe@ 0000000180201018     libucrt:nlsdata.obj
 0002:0000d020       ??_C@_17CJEDCEPE@?$AAW?$AAe?$AAd@ 0000000180201020     libucrt:nlsdata.obj
 0002:0000d028       ??_C@_17PDPHAADD@?$AAT?$AAh?$AAu@ 0000000180201028     libucrt:nlsdata.obj
 0002:0000d030       ??_C@_17HFOLPPLP@?$AAF?$AAr?$AAi@ 0000000180201030     libucrt:nlsdata.obj
 0002:0000d038       ??_C@_17GGIBDPIH@?$AAS?$AAa?$AAt@ 0000000180201038     libucrt:nlsdata.obj
 0002:0000d040       ??_C@_1O@IHNHDHPB@?$AAS?$AAu?$AAn?$AAd?$AAa?$AAy@ 0000000180201040     libucrt:nlsdata.obj
 0002:0000d050       ??_C@_1O@MMNBFLIA@?$AAM?$AAo?$AAn?$AAd?$AAa?$AAy@ 0000000180201050     libucrt:nlsdata.obj
 0002:0000d060       ??_C@_1BA@ENFBFFEK@?$AAT?$AAu?$AAe?$AAs?$AAd?$AAa?$AAy@ 0000000180201060     libucrt:nlsdata.obj
 0002:0000d070       ??_C@_1BE@EBOGMDOH@?$AAW?$AAe?$AAd?$AAn?$AAe?$AAs?$AAd?$AAa?$AAy@ 0000000180201070     libucrt:nlsdata.obj
 0002:0000d088       ??_C@_1BC@HHMNLIHE@?$AAT?$AAh?$AAu?$AAr?$AAs?$AAd?$AAa?$AAy@ 0000000180201088     libucrt:nlsdata.obj
 0002:0000d0a0       ??_C@_1O@PDICJHAG@?$AAF?$AAr?$AAi?$AAd?$AAa?$AAy@ 00000001802010a0     libucrt:nlsdata.obj
 0002:0000d0b0       ??_C@_1BC@ENMNNPAJ@?$AAS?$AAa?$AAt?$AAu?$AAr?$AAd?$AAa?$AAy@ 00000001802010b0     libucrt:nlsdata.obj
 0002:0000d0c8       ??_C@_17DKNBKCHM@?$AAJ?$AAa?$AAn@ 00000001802010c8     libucrt:nlsdata.obj
 0002:0000d0d0       ??_C@_17LMDJEKJN@?$AAF?$AAe?$AAb@ 00000001802010d0     libucrt:nlsdata.obj
 0002:0000d0d8       ??_C@_17CKNLEDEC@?$AAM?$AAa?$AAr@ 00000001802010d8     libucrt:nlsdata.obj
 0002:0000d0e0       ??_C@_17LFPOIHDD@?$AAA?$AAp?$AAr@ 00000001802010e0     libucrt:nlsdata.obj
 0002:0000d0e8       ??_C@_17PNNKMEED@?$AAM?$AAa?$AAy@ 00000001802010e8     libucrt:nlsdata.obj
 0002:0000d0f0       ??_C@_17KCJGOCPB@?$AAJ?$AAu?$AAn@ 00000001802010f0     libucrt:nlsdata.obj
 0002:0000d0f8       ??_C@_17IJPCKHK@?$AAJ?$AAu?$AAl@ 00000001802010f8     libucrt:nlsdata.obj
 0002:0000d100       ??_C@_17ICPELBCN@?$AAA?$AAu?$AAg@ 0000000180201100     libucrt:nlsdata.obj
 0002:0000d108       ??_C@_17HCHCOKMG@?$AAS?$AAe?$AAp@ 0000000180201108     libucrt:nlsdata.obj
 0002:0000d110       ??_C@_17FNLKOI@?$AAO?$AAc?$AAt@ 0000000180201110     libucrt:nlsdata.obj
 0002:0000d118       ??_C@_17BBDMLCIG@?$AAN?$AAo?$AAv@ 0000000180201118     libucrt:nlsdata.obj
 0002:0000d120       ??_C@_17EGKACKIF@?$AAD?$AAe?$AAc@ 0000000180201120     libucrt:nlsdata.obj
 0002:0000d128       ??_C@_1BA@EFMEIEBA@?$AAJ?$AAa?$AAn?$AAu?$AAa?$AAr?$AAy@ 0000000180201128     libucrt:nlsdata.obj
 0002:0000d138       ??_C@_1BC@JGDDFFAM@?$AAF?$AAe?$AAb?$AAr?$AAu?$AAa?$AAr?$AAy@ 0000000180201138     libucrt:nlsdata.obj
 0002:0000d150       ??_C@_1M@IKEENEDF@?$AAM?$AAa?$AAr?$AAc?$AAh@ 0000000180201150     libucrt:nlsdata.obj
 0002:0000d160       ??_C@_1M@GJNLMHFD@?$AAA?$AAp?$AAr?$AAi?$AAl@ 0000000180201160     libucrt:nlsdata.obj
 0002:0000d170       ??_C@_19EPFLPGAP@?$AAJ?$AAu?$AAn?$AAe@ 0000000180201170     libucrt:nlsdata.obj
 0002:0000d180       ??_C@_19BIFMLPCD@?$AAJ?$AAu?$AAl?$AAy@ 0000000180201180     libucrt:nlsdata.obj
 0002:0000d190       ??_C@_1O@PAHLKOAC@?$AAA?$AAu?$AAg?$AAu?$AAs?$AAt@ 0000000180201190     libucrt:nlsdata.obj
 0002:0000d1a0       ??_C@_1BE@DKAAMBJL@?$AAS?$AAe?$AAp?$AAt?$AAe?$AAm?$AAb?$AAe?$AAr@ 00000001802011a0     libucrt:nlsdata.obj
